(dp1
S'output'
p2
S"<type 'exceptions.AttributeError'> 'function' object has no attribute 'read'"
p3
sS'layer'
p4
S'/home/enigma/web2py/applications/911_signin/controllers/default.py'
p5
sS'code'
p6
S'# -*- coding: utf-8 -*-\n# this file is released under public domain and you can use without limitations\n\n#########################################################################\n## This is a samples controller\n## - index is the default action of any application\n## - user is required for authentication and authorization\n## - download is for downloading files uploaded in the db (does streaming)\n## - call exposes all registered services (none by default)\n#########################################################################\n\nfrom gluon.contrib.login_methods.rpx_account import use_janrain\nfrom gluon.contrib.login_methods.extended_login_form import ExtendedLoginForm\n\n@auth.requires_login()\ndef index():\n    """\n    example action using the internationalization operator T and flash\n    rendered by views/default/index.html or views/generic.html\n    """\n    response.flash = "Welcome to web2py!"\n    return dict(message=T(\'Hello World\'))\n\n\ndef user():\n    """\n    exposes:\n    http://..../[app]/default/user/login\n    http://..../[app]/default/user/logout\n    http://..../[app]/default/user/register\n    http://..../[app]/default/user/profile\n    http://..../[app]/default/user/retrieve_password\n    http://..../[app]/default/user/change_password\n    use @auth.requires_login()\n        @auth.requires_membership(\'group name\')\n        @auth.requires_permission(\'read\',\'table name\',record_id)\n    to decorate functions that need access control\n    """\n    \n    form_janrain = use_janrain(auth,filename=\'private/janrain.key\')\n    auth.settings.login_form = ExtendedLoginForm(auth, form_janrain, signals=[\'token\'])\n    return dict(form=auth())\n\n\ndef home():\n    return dict(uid=auth.user_id)\n\n\ndef download():\n    """\n    allows downloading of uploaded files\n    http://..../[app]/default/download/[filename]\n    """\n    return response.download(request,db)\n\n\ndef call():\n    """\n    exposes services. for example:\n    http://..../[app]/default/call/jsonrpc\n    decorate with @services.jsonrpc the functions to expose\n    supports xml, json, xmlrpc, jsonrpc, amfrpc, rss, csv\n    """\n    return service()\n\n\n@auth.requires_signature()\ndef data():\n    """\n    http://..../[app]/default/data/tables\n    http://..../[app]/default/data/create/[table]\n    http://..../[app]/default/data/read/[table]/[id]\n    http://..../[app]/default/data/update/[table]/[id]\n    http://..../[app]/default/data/delete/[table]/[id]\n    http://..../[app]/default/data/select/[table]\n    http://..../[app]/default/data/search/[table]\n    but URLs must be signed, i.e. linked with\n      A(\'table\',_href=URL(\'data/tables\',user_signature=True))\n    or with the signed load operator\n      LOAD(\'default\',\'data.load\',args=\'tables\',ajax=True,user_signature=True)\n    """\n    return dict(form=crud())\n\n\n@auth.requires_login()\ndef profile():\n\ttmp_usr=db(db.users.username == auth.user.username)(db.users.email == auth.user.email).select().first()\n\tif tmp_usr==None:\n\t\tdb.users.first_name.default=auth.user.first_name\n\t\tdb.users.last_name.default=auth.user.last_name\n\t\tdb.users.username.default=auth.user.username\n\t\tdb.users.email.default=auth.user.email\n\t\tform=SQLFORM(db.users)\n\n\telse:\n\t\tdb.users.first_name.default=tmp_usr.first_name\n\t\tdb.users.last_name.default=tmp_usr.last_name\n\t\tdb.users.username.default=tmp_usr.username\n\t\tdb.users.email.default=tmp_usr.email\n\t\tform=SQLFORM(db.users,tmp_usr.id,showid=False)\n\n\tif form.process().accepted:\n\t\tresponse.flash=\'Profile updated\'\n\treturn dict(form=form)\n\n@auth.requires_login()\ndef compose():\n\tdb.message.sender.default=auth.user.username\n\tdb.message.read.default=False\n\tform=SQLFORM(db.message)\n\n\tif form.process().accepted:\n\t\tresponse.flash=\'Message Sent\'\n\t\trow = db(db.auth_users.username == form.vars.reciever).select().first()\n\t\tif row:\n\t\t\tctr=row.unread_ctr+1\n\t\t\tdb.auth_users[row.id] = dict(unread_ctr=ctr)\n\treturn dict(form=form)\n\n@auth.requires_login()\ndef inbox():\n\tinbox=db(db.message.reciever == auth.user.username).select(db.message.id, db.message.sender,db.message.subject,db.message.read, orderby=~db.message.id )\n\treturn dict(inbox=inbox)\n\n@auth.requires_login()\ndef message():\n\tmail = db.message(request.args(0))\n\tif mail.read == False:\n\t\tdb.message[mail.id] = dict(read=True)\n\t\tctr = db.auth_users(auth.user.id).unread_ctr-1\n\t\tdb.auth_users[auth.user.id]\t= dict(unread_ctr=ctr)\n\treturn dict(mail=mail)\n\n@auth.requires_login()\ndef outbox():\n\toutbox=db(db.message.sender == auth.user.username).select(db.message.id, db.message.reciever,db.message.subject, message.read, orderby=~db.message.id )\n\treturn dict(outbox=outbox)\n\n@auth.requires_login()\ndef sent_message():\n\tmail = db.message(request.args(0))\n\treturn dict(mail=mail)\n\nresponse._vars=response._caller(outbox)\n'
p7
sS'snapshot'
p8
(dp9
S'exception'
p10
(dp11
S'__hash__'
p12
S"<method-wrapper '__hash__' of exceptions.AttributeError object>"
p13
sS'__setattr__'
p14
S"<method-wrapper '__setattr__' of exceptions.AttributeError object>"
p15
sS'__reduce_ex__'
p16
S'<built-in method __reduce_ex__ of exceptions.AttributeError object>'
p17
sS'__getslice__'
p18
S"<method-wrapper '__getslice__' of exceptions.AttributeError object>"
p19
sS'__getitem__'
p20
S"<method-wrapper '__getitem__' of exceptions.AttributeError object>"
p21
sS'__setstate__'
p22
S'<built-in method __setstate__ of exceptions.AttributeError object>'
p23
sS'__reduce__'
p24
S'<built-in method __reduce__ of exceptions.AttributeError object>'
p25
sS'__str__'
p26
S"<method-wrapper '__str__' of exceptions.AttributeError object>"
p27
sS'__format__'
p28
S'<built-in method __format__ of exceptions.AttributeError object>'
p29
sS'__getattribute__'
p30
S"<method-wrapper '__getattribute__' of exceptions.AttributeError object>"
p31
sS'__class__'
p32
S"<type 'exceptions.AttributeError'>"
p33
sS'__unicode__'
p34
S'<built-in method __unicode__ of exceptions.AttributeError object>'
p35
sS'__delattr__'
p36
S"<method-wrapper '__delattr__' of exceptions.AttributeError object>"
p37
sS'__subclasshook__'
p38
S'<built-in method __subclasshook__ of type object>'
p39
sS'__repr__'
p40
S"<method-wrapper '__repr__' of exceptions.AttributeError object>"
p41
sS'args'
p42
S'("\'function\' object has no attribute \'read\'",)'
p43
sS'__dict__'
p44
S'{}'
p45
sS'__sizeof__'
p46
S'<built-in method __sizeof__ of exceptions.AttributeError object>'
p47
sS'__doc__'
p48
S"'Attribute not found.'"
p49
sS'__init__'
p50
S"<method-wrapper '__init__' of exceptions.AttributeError object>"
p51
sS'__new__'
p52
S'<built-in method __new__ of type object>'
p53
ssS'evalue'
p54
S"'function' object has no attribute 'read'"
p55
sS'request'
p56
ccopy_reg
_reconstructor
p57
(cgluon.html
BEAUTIFY
p58
c__builtin__
object
p59
NtRp60
(dp61
S'attributes'
p62
(dp63
sS'components'
p64
(lp65
g57
(cgluon.html
TABLE
p66
g59
NtRp67
(dp68
g62
(dp69
S'level'
p70
I5
ssS'parent'
p71
Nsg64
(lp72
g57
(cgluon.html
TR
p73
g59
NtRp74
(dp75
g62
(dp76
sg71
g67
sg64
(lp77
g57
(cgluon.html
TD
p78
g59
NtRp79
(dp80
g62
(dp81
S'_style'
p82
S'font-weight:bold;vertical-align:top'
p83
ssg71
g74
sg64
(lp84
S'ajax'
p85
asbag57
(g78
g59
NtRp86
(dp87
g62
(dp88
S'_valign'
p89
S'top'
p90
ssg71
g74
sg64
(lp91
S':'
asbag57
(g78
g59
NtRp92
(dp93
g62
(dp94
sg71
g74
sg64
(lp95
g57
(g58
g59
NtRp96
(dp97
g62
(dp98
g70
I5
ssg71
g92
sg64
(lp99
S'False'
p100
asbasbasbag57
(g73
g59
NtRp101
(dp102
g62
(dp103
sg71
g67
sg64
(lp104
g57
(g78
g59
NtRp105
(dp106
g62
(dp107
g82
g83
ssg71
g101
sg64
(lp108
S'application'
p109
asbag57
(g78
g59
NtRp110
(dp111
g62
(dp112
g89
g90
ssg71
g101
sg64
(lp113
S':'
asbag57
(g78
g59
NtRp114
(dp115
g62
(dp116
sg71
g101
sg64
(lp117
g57
(g58
g59
NtRp118
(dp119
g62
(dp120
g70
I5
ssg71
g114
sg64
(lp121
S'911_signin'
p122
asbasbasbag57
(g73
g59
NtRp123
(dp124
g62
(dp125
sg71
g67
sg64
(lp126
g57
(g78
g59
NtRp127
(dp128
g62
(dp129
g82
g83
ssg71
g123
sg64
(lp130
g42
asbag57
(g78
g59
NtRp131
(dp132
g62
(dp133
g89
g90
ssg71
g123
sg64
(lp134
S':'
asbag57
(g78
g59
NtRp135
(dp136
g62
(dp137
sg71
g123
sg64
(lp138
g57
(g58
g59
NtRp139
(dp140
g62
(dp141
g70
I5
ssg71
g135
sg64
(lp142
g57
(g66
g59
NtRp143
(dp144
g62
(dp145
g70
I4
ssg71
Nsg64
(lp146
sbasbasbasbag57
(g73
g59
NtRp147
(dp148
g62
(dp149
sg71
g67
sg64
(lp150
g57
(g78
g59
NtRp151
(dp152
g62
(dp153
g82
g83
ssg71
g147
sg64
(lp154
S'body'
p155
asbag57
(g78
g59
NtRp156
(dp157
g62
(dp158
g89
g90
ssg71
g147
sg64
(lp159
S':'
asbag57
(g78
g59
NtRp160
(dp161
g62
(dp162
sg71
g147
sg64
(lp163
g57
(g58
g59
NtRp164
(dp165
g62
(dp166
g70
I5
ssg71
g160
sg64
(lp167
S'<cStringIO.StringO object at 0xb255b340>'
p168
asbasbasbag57
(g73
g59
NtRp169
(dp170
g62
(dp171
sg71
g67
sg64
(lp172
g57
(g78
g59
NtRp173
(dp174
g62
(dp175
g82
g83
ssg71
g169
sg64
(lp176
S'client'
p177
asbag57
(g78
g59
NtRp178
(dp179
g62
(dp180
g89
g90
ssg71
g169
sg64
(lp181
S':'
asbag57
(g78
g59
NtRp182
(dp183
g62
(dp184
sg71
g169
sg64
(lp185
g57
(g58
g59
NtRp186
(dp187
g62
(dp188
g70
I5
ssg71
g182
sg64
(lp189
S'127.0.0.1'
p190
asbasbasbag57
(g73
g59
NtRp191
(dp192
g62
(dp193
sg71
g67
sg64
(lp194
g57
(g78
g59
NtRp195
(dp196
g62
(dp197
g82
g83
ssg71
g191
sg64
(lp198
S'controller'
p199
asbag57
(g78
g59
NtRp200
(dp201
g62
(dp202
g89
g90
ssg71
g191
sg64
(lp203
S':'
asbag57
(g78
g59
NtRp204
(dp205
g62
(dp206
sg71
g191
sg64
(lp207
g57
(g58
g59
NtRp208
(dp209
g62
(dp210
g70
I5
ssg71
g204
sg64
(lp211
S'default'
p212
asbasbasbag57
(g73
g59
NtRp213
(dp214
g62
(dp215
sg71
g67
sg64
(lp216
g57
(g78
g59
NtRp217
(dp218
g62
(dp219
g82
g83
ssg71
g213
sg64
(lp220
S'cookies'
p221
asbag57
(g78
g59
NtRp222
(dp223
g62
(dp224
g89
g90
ssg71
g213
sg64
(lp225
S':'
asbag57
(g78
g59
NtRp226
(dp227
g62
(dp228
sg71
g213
sg64
(lp229
g57
(g58
g59
NtRp230
(dp231
g62
(dp232
g70
I5
ssg71
g226
sg64
(lp233
g57
(g66
g59
NtRp234
(dp235
g62
(dp236
g70
I4
ssg71
Nsg64
(lp237
g57
(g73
g59
NtRp238
(dp239
g62
(dp240
sg71
g234
sg64
(lp241
g57
(g78
g59
NtRp242
(dp243
g62
(dp244
g82
g83
ssg71
g238
sg64
(lp245
S'session_id_911_signin'
p246
asbag57
(g78
g59
NtRp247
(dp248
g62
(dp249
g89
g90
ssg71
g238
sg64
(lp250
S':'
asbag57
(g78
g59
NtRp251
(dp252
g62
(dp253
sg71
g238
sg64
(lp254
g57
(g58
g59
NtRp255
(dp256
g62
(dp257
g70
I4
ssg71
g251
sg64
(lp258
g57
(g66
g59
NtRp259
(dp260
g62
(dp261
g70
I3
ssg71
Nsg64
(lp262
g57
(g73
g59
NtRp263
(dp264
g62
(dp265
sg71
g259
sg64
(lp266
g57
(g78
g59
NtRp267
(dp268
g62
(dp269
g82
g83
ssg71
g263
sg64
(lp270
S'comment'
p271
asbag57
(g78
g59
NtRp272
(dp273
g62
(dp274
g89
g90
ssg71
g263
sg64
(lp275
S':'
asbag57
(g78
g59
NtRp276
(dp277
g62
(dp278
sg71
g263
sg64
(lp279
g57
(g58
g59
NtRp280
(dp281
g62
(dp282
g70
I3
ssg71
g276
sg64
(lp283
S''
asbasbasbag57
(g73
g59
NtRp284
(dp285
g62
(dp286
sg71
g259
sg64
(lp287
g57
(g78
g59
NtRp288
(dp289
g62
(dp290
g82
g83
ssg71
g284
sg64
(lp291
S'domain'
p292
asbag57
(g78
g59
NtRp293
(dp294
g62
(dp295
g89
g90
ssg71
g284
sg64
(lp296
S':'
asbag57
(g78
g59
NtRp297
(dp298
g62
(dp299
sg71
g284
sg64
(lp300
g57
(g58
g59
NtRp301
(dp302
g62
(dp303
g70
I3
ssg71
g297
sg64
(lp304
S''
asbasbasbag57
(g73
g59
NtRp305
(dp306
g62
(dp307
sg71
g259
sg64
(lp308
g57
(g78
g59
NtRp309
(dp310
g62
(dp311
g82
g83
ssg71
g305
sg64
(lp312
S'expires'
p313
asbag57
(g78
g59
NtRp314
(dp315
g62
(dp316
g89
g90
ssg71
g305
sg64
(lp317
S':'
asbag57
(g78
g59
NtRp318
(dp319
g62
(dp320
sg71
g305
sg64
(lp321
g57
(g58
g59
NtRp322
(dp323
g62
(dp324
g70
I3
ssg71
g318
sg64
(lp325
S''
asbasbasbag57
(g73
g59
NtRp326
(dp327
g62
(dp328
sg71
g259
sg64
(lp329
g57
(g78
g59
NtRp330
(dp331
g62
(dp332
g82
g83
ssg71
g326
sg64
(lp333
S'httponly'
p334
asbag57
(g78
g59
NtRp335
(dp336
g62
(dp337
g89
g90
ssg71
g326
sg64
(lp338
S':'
asbag57
(g78
g59
NtRp339
(dp340
g62
(dp341
sg71
g326
sg64
(lp342
g57
(g58
g59
NtRp343
(dp344
g62
(dp345
g70
I3
ssg71
g339
sg64
(lp346
S''
asbasbasbag57
(g73
g59
NtRp347
(dp348
g62
(dp349
sg71
g259
sg64
(lp350
g57
(g78
g59
NtRp351
(dp352
g62
(dp353
g82
g83
ssg71
g347
sg64
(lp354
S'max-age'
p355
asbag57
(g78
g59
NtRp356
(dp357
g62
(dp358
g89
g90
ssg71
g347
sg64
(lp359
S':'
asbag57
(g78
g59
NtRp360
(dp361
g62
(dp362
sg71
g347
sg64
(lp363
g57
(g58
g59
NtRp364
(dp365
g62
(dp366
g70
I3
ssg71
g360
sg64
(lp367
S''
asbasbasbag57
(g73
g59
NtRp368
(dp369
g62
(dp370
sg71
g259
sg64
(lp371
g57
(g78
g59
NtRp372
(dp373
g62
(dp374
g82
g83
ssg71
g368
sg64
(lp375
S'path'
p376
asbag57
(g78
g59
NtRp377
(dp378
g62
(dp379
g89
g90
ssg71
g368
sg64
(lp380
S':'
asbag57
(g78
g59
NtRp381
(dp382
g62
(dp383
sg71
g368
sg64
(lp384
g57
(g58
g59
NtRp385
(dp386
g62
(dp387
g70
I3
ssg71
g381
sg64
(lp388
S''
asbasbasbag57
(g73
g59
NtRp389
(dp390
g62
(dp391
sg71
g259
sg64
(lp392
g57
(g78
g59
NtRp393
(dp394
g62
(dp395
g82
g83
ssg71
g389
sg64
(lp396
S'secure'
p397
asbag57
(g78
g59
NtRp398
(dp399
g62
(dp400
g89
g90
ssg71
g389
sg64
(lp401
S':'
asbag57
(g78
g59
NtRp402
(dp403
g62
(dp404
sg71
g389
sg64
(lp405
g57
(g58
g59
NtRp406
(dp407
g62
(dp408
g70
I3
ssg71
g402
sg64
(lp409
S''
asbasbasbag57
(g73
g59
NtRp410
(dp411
g62
(dp412
sg71
g259
sg64
(lp413
g57
(g78
g59
NtRp414
(dp415
g62
(dp416
g82
g83
ssg71
g410
sg64
(lp417
S'version'
p418
asbag57
(g78
g59
NtRp419
(dp420
g62
(dp421
g89
g90
ssg71
g410
sg64
(lp422
S':'
asbag57
(g78
g59
NtRp423
(dp424
g62
(dp425
sg71
g410
sg64
(lp426
g57
(g58
g59
NtRp427
(dp428
g62
(dp429
g70
I3
ssg71
g423
sg64
(lp430
S''
asbasbasbasbasbasbasbag57
(g73
g59
NtRp431
(dp432
g62
(dp433
sg71
g234
sg64
(lp434
g57
(g78
g59
NtRp435
(dp436
g62
(dp437
g82
g83
ssg71
g431
sg64
(lp438
S'session_id_admin'
p439
asbag57
(g78
g59
NtRp440
(dp441
g62
(dp442
g89
g90
ssg71
g431
sg64
(lp443
S':'
asbag57
(g78
g59
NtRp444
(dp445
g62
(dp446
sg71
g431
sg64
(lp447
g57
(g58
g59
NtRp448
(dp449
g62
(dp450
g70
I4
ssg71
g444
sg64
(lp451
g57
(g66
g59
NtRp452
(dp453
g62
(dp454
g70
I3
ssg71
Nsg64
(lp455
g57
(g73
g59
NtRp456
(dp457
g62
(dp458
sg71
g452
sg64
(lp459
g57
(g78
g59
NtRp460
(dp461
g62
(dp462
g82
g83
ssg71
g456
sg64
(lp463
g271
asbag57
(g78
g59
NtRp464
(dp465
g62
(dp466
g89
g90
ssg71
g456
sg64
(lp467
S':'
asbag57
(g78
g59
NtRp468
(dp469
g62
(dp470
sg71
g456
sg64
(lp471
g57
(g58
g59
NtRp472
(dp473
g62
(dp474
g70
I3
ssg71
g468
sg64
(lp475
S''
asbasbasbag57
(g73
g59
NtRp476
(dp477
g62
(dp478
sg71
g452
sg64
(lp479
g57
(g78
g59
NtRp480
(dp481
g62
(dp482
g82
g83
ssg71
g476
sg64
(lp483
g292
asbag57
(g78
g59
NtRp484
(dp485
g62
(dp486
g89
g90
ssg71
g476
sg64
(lp487
S':'
asbag57
(g78
g59
NtRp488
(dp489
g62
(dp490
sg71
g476
sg64
(lp491
g57
(g58
g59
NtRp492
(dp493
g62
(dp494
g70
I3
ssg71
g488
sg64
(lp495
S''
asbasbasbag57
(g73
g59
NtRp496
(dp497
g62
(dp498
sg71
g452
sg64
(lp499
g57
(g78
g59
NtRp500
(dp501
g62
(dp502
g82
g83
ssg71
g496
sg64
(lp503
g313
asbag57
(g78
g59
NtRp504
(dp505
g62
(dp506
g89
g90
ssg71
g496
sg64
(lp507
S':'
asbag57
(g78
g59
NtRp508
(dp509
g62
(dp510
sg71
g496
sg64
(lp511
g57
(g58
g59
NtRp512
(dp513
g62
(dp514
g70
I3
ssg71
g508
sg64
(lp515
S''
asbasbasbag57
(g73
g59
NtRp516
(dp517
g62
(dp518
sg71
g452
sg64
(lp519
g57
(g78
g59
NtRp520
(dp521
g62
(dp522
g82
g83
ssg71
g516
sg64
(lp523
g334
asbag57
(g78
g59
NtRp524
(dp525
g62
(dp526
g89
g90
ssg71
g516
sg64
(lp527
S':'
asbag57
(g78
g59
NtRp528
(dp529
g62
(dp530
sg71
g516
sg64
(lp531
g57
(g58
g59
NtRp532
(dp533
g62
(dp534
g70
I3
ssg71
g528
sg64
(lp535
S''
asbasbasbag57
(g73
g59
NtRp536
(dp537
g62
(dp538
sg71
g452
sg64
(lp539
g57
(g78
g59
NtRp540
(dp541
g62
(dp542
g82
g83
ssg71
g536
sg64
(lp543
g355
asbag57
(g78
g59
NtRp544
(dp545
g62
(dp546
g89
g90
ssg71
g536
sg64
(lp547
S':'
asbag57
(g78
g59
NtRp548
(dp549
g62
(dp550
sg71
g536
sg64
(lp551
g57
(g58
g59
NtRp552
(dp553
g62
(dp554
g70
I3
ssg71
g548
sg64
(lp555
S''
asbasbasbag57
(g73
g59
NtRp556
(dp557
g62
(dp558
sg71
g452
sg64
(lp559
g57
(g78
g59
NtRp560
(dp561
g62
(dp562
g82
g83
ssg71
g556
sg64
(lp563
g376
asbag57
(g78
g59
NtRp564
(dp565
g62
(dp566
g89
g90
ssg71
g556
sg64
(lp567
S':'
asbag57
(g78
g59
NtRp568
(dp569
g62
(dp570
sg71
g556
sg64
(lp571
g57
(g58
g59
NtRp572
(dp573
g62
(dp574
g70
I3
ssg71
g568
sg64
(lp575
S''
asbasbasbag57
(g73
g59
NtRp576
(dp577
g62
(dp578
sg71
g452
sg64
(lp579
g57
(g78
g59
NtRp580
(dp581
g62
(dp582
g82
g83
ssg71
g576
sg64
(lp583
g397
asbag57
(g78
g59
NtRp584
(dp585
g62
(dp586
g89
g90
ssg71
g576
sg64
(lp587
S':'
asbag57
(g78
g59
NtRp588
(dp589
g62
(dp590
sg71
g576
sg64
(lp591
g57
(g58
g59
NtRp592
(dp593
g62
(dp594
g70
I3
ssg71
g588
sg64
(lp595
S''
asbasbasbag57
(g73
g59
NtRp596
(dp597
g62
(dp598
sg71
g452
sg64
(lp599
g57
(g78
g59
NtRp600
(dp601
g62
(dp602
g82
g83
ssg71
g596
sg64
(lp603
g418
asbag57
(g78
g59
NtRp604
(dp605
g62
(dp606
g89
g90
ssg71
g596
sg64
(lp607
S':'
asbag57
(g78
g59
NtRp608
(dp609
g62
(dp610
sg71
g596
sg64
(lp611
g57
(g58
g59
NtRp612
(dp613
g62
(dp614
g70
I3
ssg71
g608
sg64
(lp615
S''
asbasbasbasbasbasbasbasbasbasbasbag57
(g73
g59
NtRp616
(dp617
g62
(dp618
sg71
g67
sg64
(lp619
g57
(g78
g59
NtRp620
(dp621
g62
(dp622
g82
g83
ssg71
g616
sg64
(lp623
S'env'
p624
asbag57
(g78
g59
NtRp625
(dp626
g62
(dp627
g89
g90
ssg71
g616
sg64
(lp628
S':'
asbag57
(g78
g59
NtRp629
(dp630
g62
(dp631
sg71
g616
sg64
(lp632
g57
(g58
g59
NtRp633
(dp634
g62
(dp635
g70
I5
ssg71
g629
sg64
(lp636
g57
(g66
g59
NtRp637
(dp638
g62
(dp639
g70
I4
ssg71
Nsg64
(lp640
g57
(g73
g59
NtRp641
(dp642
g62
(dp643
sg71
g637
sg64
(lp644
g57
(g78
g59
NtRp645
(dp646
g62
(dp647
g82
g83
ssg71
g641
sg64
(lp648
S'app_folders'
p649
asbag57
(g78
g59
NtRp650
(dp651
g62
(dp652
g89
g90
ssg71
g641
sg64
(lp653
S':'
asbag57
(g78
g59
NtRp654
(dp655
g62
(dp656
sg71
g641
sg64
(lp657
g57
(g58
g59
NtRp658
(dp659
g62
(dp660
g70
I4
ssg71
g654
sg64
(lp661
S"set(['/home/enigma/web2py/applications/admin/', '/home/enigma/web2py/applications/911_signin/', '/home/enigma/web2py/applications/welcome/'])"
p662
asbasbasbag57
(g73
g59
NtRp663
(dp664
g62
(dp665
sg71
g637
sg64
(lp666
g57
(g78
g59
NtRp667
(dp668
g62
(dp669
g82
g83
ssg71
g663
sg64
(lp670
S'applications_parent'
p671
asbag57
(g78
g59
NtRp672
(dp673
g62
(dp674
g89
g90
ssg71
g663
sg64
(lp675
S':'
asbag57
(g78
g59
NtRp676
(dp677
g62
(dp678
sg71
g663
sg64
(lp679
g57
(g58
g59
NtRp680
(dp681
g62
(dp682
g70
I4
ssg71
g676
sg64
(lp683
S'/home/enigma/web2py'
p684
asbasbasbag57
(g73
g59
NtRp685
(dp686
g62
(dp687
sg71
g637
sg64
(lp688
g57
(g78
g59
NtRp689
(dp690
g62
(dp691
g82
g83
ssg71
g685
sg64
(lp692
S'cmd_args'
p693
asbag57
(g78
g59
NtRp694
(dp695
g62
(dp696
g89
g90
ssg71
g685
sg64
(lp697
S':'
asbag57
(g78
g59
NtRp698
(dp699
g62
(dp700
sg71
g685
sg64
(lp701
g57
(g58
g59
NtRp702
(dp703
g62
(dp704
g70
I4
ssg71
g698
sg64
(lp705
g57
(g66
g59
NtRp706
(dp707
g62
(dp708
g70
I3
ssg71
Nsg64
(lp709
sbasbasbasbag57
(g73
g59
NtRp710
(dp711
g62
(dp712
sg71
g637
sg64
(lp713
g57
(g78
g59
NtRp714
(dp715
g62
(dp716
g82
g83
ssg71
g710
sg64
(lp717
S'cmd_options'
p718
asbag57
(g78
g59
NtRp719
(dp720
g62
(dp721
g89
g90
ssg71
g710
sg64
(lp722
S':'
asbag57
(g78
g59
NtRp723
(dp724
g62
(dp725
sg71
g710
sg64
(lp726
g57
(g58
g59
NtRp727
(dp728
g62
(dp729
g70
I4
ssg71
g723
sg64
(lp730
S"<Values at 0x9e53bcc: {'verbose': False, 'ip': '127.0.0.1', 'shutdown_timeout': 5, 'taskbar': False, 'nocron': False, 'pid_filename': 'httpserver.pid', 'maxthreads': None, 'softcron': False, 'server_name': 'ubuntu', 'bpython': False, 'nogui': False, 'port': 8000, 'extcron': False, 'debuglevel': 30, 'test': None, 'folder': '/home/enigma/web2py', 'config': '', 'import_models': False, 'winservice': '', 'shell': None, 'run': '', 'log_filename': 'httpserver.log', 'args': [''], 'socket_timeout': 5, 'ssl_ca_certificate': None, 'scheduler': None, 'profiler_filename': None, 'ssl_private_key': '', 'password': '<ask>', 'request_queue_size': 5, 'ssl_certificate': '', 'cronjob': False, 'numthreads': None, 'quiet': False, 'interfaces': None, 'minthreads': None, 'timeout': 10, 'plain': False, 'nobanner': False}>"
p731
asbasbasbag57
(g73
g59
NtRp732
(dp733
g62
(dp734
sg71
g637
sg64
(lp735
g57
(g78
g59
NtRp736
(dp737
g62
(dp738
g82
g83
ssg71
g732
sg64
(lp739
S'db_sessions'
p740
asbag57
(g78
g59
NtRp741
(dp742
g62
(dp743
g89
g90
ssg71
g732
sg64
(lp744
S':'
asbag57
(g78
g59
NtRp745
(dp746
g62
(dp747
sg71
g732
sg64
(lp748
g57
(g58
g59
NtRp749
(dp750
g62
(dp751
g70
I4
ssg71
g745
sg64
(lp752
S'set([])'
p753
asbasbasbag57
(g73
g59
NtRp754
(dp755
g62
(dp756
sg71
g637
sg64
(lp757
g57
(g78
g59
NtRp758
(dp759
g62
(dp760
g82
g83
ssg71
g754
sg64
(lp761
S'debugging'
p762
asbag57
(g78
g59
NtRp763
(dp764
g62
(dp765
g89
g90
ssg71
g754
sg64
(lp766
S':'
asbag57
(g78
g59
NtRp767
(dp768
g62
(dp769
sg71
g754
sg64
(lp770
g57
(g58
g59
NtRp771
(dp772
g62
(dp773
g70
I4
ssg71
g767
sg64
(lp774
g100
asbasbasbag57
(g73
g59
NtRp775
(dp776
g62
(dp777
sg71
g637
sg64
(lp778
g57
(g78
g59
NtRp779
(dp780
g62
(dp781
g82
g83
ssg71
g775
sg64
(lp782
S'gluon_parent'
p783
asbag57
(g78
g59
NtRp784
(dp785
g62
(dp786
g89
g90
ssg71
g775
sg64
(lp787
S':'
asbag57
(g78
g59
NtRp788
(dp789
g62
(dp790
sg71
g775
sg64
(lp791
g57
(g58
g59
NtRp792
(dp793
g62
(dp794
g70
I4
ssg71
g788
sg64
(lp795
S'/home/enigma/web2py'
p796
asbasbasbag57
(g73
g59
NtRp797
(dp798
g62
(dp799
sg71
g637
sg64
(lp800
g57
(g78
g59
NtRp801
(dp802
g62
(dp803
g82
g83
ssg71
g797
sg64
(lp804
S'http_accept'
p805
asbag57
(g78
g59
NtRp806
(dp807
g62
(dp808
g89
g90
ssg71
g797
sg64
(lp809
S':'
asbag57
(g78
g59
NtRp810
(dp811
g62
(dp812
sg71
g797
sg64
(lp813
g57
(g58
g59
NtRp814
(dp815
g62
(dp816
g70
I4
ssg71
g810
sg64
(lp817
S'text/html,application/xhtml+xml,application/xml;q=0.9,*/*;q=0.8'
p818
asbasbasbag57
(g73
g59
NtRp819
(dp820
g62
(dp821
sg71
g637
sg64
(lp822
g57
(g78
g59
NtRp823
(dp824
g62
(dp825
g82
g83
ssg71
g819
sg64
(lp826
S'http_accept_charset'
p827
asbag57
(g78
g59
NtRp828
(dp829
g62
(dp830
g89
g90
ssg71
g819
sg64
(lp831
S':'
asbag57
(g78
g59
NtRp832
(dp833
g62
(dp834
sg71
g819
sg64
(lp835
g57
(g58
g59
NtRp836
(dp837
g62
(dp838
g70
I4
ssg71
g832
sg64
(lp839
S'ISO-8859-1,utf-8;q=0.7,*;q=0.3'
p840
asbasbasbag57
(g73
g59
NtRp841
(dp842
g62
(dp843
sg71
g637
sg64
(lp844
g57
(g78
g59
NtRp845
(dp846
g62
(dp847
g82
g83
ssg71
g841
sg64
(lp848
S'http_accept_encoding'
p849
asbag57
(g78
g59
NtRp850
(dp851
g62
(dp852
g89
g90
ssg71
g841
sg64
(lp853
S':'
asbag57
(g78
g59
NtRp854
(dp855
g62
(dp856
sg71
g841
sg64
(lp857
g57
(g58
g59
NtRp858
(dp859
g62
(dp860
g70
I4
ssg71
g854
sg64
(lp861
S'gzip,deflate,sdch'
p862
asbasbasbag57
(g73
g59
NtRp863
(dp864
g62
(dp865
sg71
g637
sg64
(lp866
g57
(g78
g59
NtRp867
(dp868
g62
(dp869
g82
g83
ssg71
g863
sg64
(lp870
S'http_accept_language'
p871
asbag57
(g78
g59
NtRp872
(dp873
g62
(dp874
g89
g90
ssg71
g863
sg64
(lp875
S':'
asbag57
(g78
g59
NtRp876
(dp877
g62
(dp878
sg71
g863
sg64
(lp879
g57
(g58
g59
NtRp880
(dp881
g62
(dp882
g70
I4
ssg71
g876
sg64
(lp883
S'en-US,en;q=0.8'
p884
asbasbasbag57
(g73
g59
NtRp885
(dp886
g62
(dp887
sg71
g637
sg64
(lp888
g57
(g78
g59
NtRp889
(dp890
g62
(dp891
g82
g83
ssg71
g885
sg64
(lp892
S'http_cache_control'
p893
asbag57
(g78
g59
NtRp894
(dp895
g62
(dp896
g89
g90
ssg71
g885
sg64
(lp897
S':'
asbag57
(g78
g59
NtRp898
(dp899
g62
(dp900
sg71
g885
sg64
(lp901
g57
(g58
g59
NtRp902
(dp903
g62
(dp904
g70
I4
ssg71
g898
sg64
(lp905
S'max-age=0'
p906
asbasbasbag57
(g73
g59
NtRp907
(dp908
g62
(dp909
sg71
g637
sg64
(lp910
g57
(g78
g59
NtRp911
(dp912
g62
(dp913
g82
g83
ssg71
g907
sg64
(lp914
S'http_connection'
p915
asbag57
(g78
g59
NtRp916
(dp917
g62
(dp918
g89
g90
ssg71
g907
sg64
(lp919
S':'
asbag57
(g78
g59
NtRp920
(dp921
g62
(dp922
sg71
g907
sg64
(lp923
g57
(g58
g59
NtRp924
(dp925
g62
(dp926
g70
I4
ssg71
g920
sg64
(lp927
S'keep-alive'
p928
asbasbasbag57
(g73
g59
NtRp929
(dp930
g62
(dp931
sg71
g637
sg64
(lp932
g57
(g78
g59
NtRp933
(dp934
g62
(dp935
g82
g83
ssg71
g929
sg64
(lp936
S'http_cookie'
p937
asbag57
(g78
g59
NtRp938
(dp939
g62
(dp940
g89
g90
ssg71
g929
sg64
(lp941
S':'
asbag57
(g78
g59
NtRp942
(dp943
g62
(dp944
sg71
g929
sg64
(lp945
g57
(g58
g59
NtRp946
(dp947
g62
(dp948
g70
I4
ssg71
g942
sg64
(lp949
S'session_id_911_signin=127.0.0.1-2e0131fe-56cd-488a-8ae4-3b8058d88f7e; session_id_admin=127.0.0.1-80161da2-8321-48c8-8792-0b5294dbf594'
p950
asbasbasbag57
(g73
g59
NtRp951
(dp952
g62
(dp953
sg71
g637
sg64
(lp954
g57
(g78
g59
NtRp955
(dp956
g62
(dp957
g82
g83
ssg71
g951
sg64
(lp958
S'http_host'
p959
asbag57
(g78
g59
NtRp960
(dp961
g62
(dp962
g89
g90
ssg71
g951
sg64
(lp963
S':'
asbag57
(g78
g59
NtRp964
(dp965
g62
(dp966
sg71
g951
sg64
(lp967
g57
(g58
g59
NtRp968
(dp969
g62
(dp970
g70
I4
ssg71
g964
sg64
(lp971
S'127.0.0.1:8000'
p972
asbasbasbag57
(g73
g59
NtRp973
(dp974
g62
(dp975
sg71
g637
sg64
(lp976
g57
(g78
g59
NtRp977
(dp978
g62
(dp979
g82
g83
ssg71
g973
sg64
(lp980
S'http_user_agent'
p981
asbag57
(g78
g59
NtRp982
(dp983
g62
(dp984
g89
g90
ssg71
g973
sg64
(lp985
S':'
asbag57
(g78
g59
NtRp986
(dp987
g62
(dp988
sg71
g973
sg64
(lp989
g57
(g58
g59
NtRp990
(dp991
g62
(dp992
g70
I4
ssg71
g986
sg64
(lp993
S'Mozilla/5.0 (X11; Linux i686) AppleWebKit/537.31 (KHTML, like Gecko) Chrome/26.0.1410.63 Safari/537.31'
p994
asbasbasbag57
(g73
g59
NtRp995
(dp996
g62
(dp997
sg71
g637
sg64
(lp998
g57
(g78
g59
NtRp999
(dp1000
g62
(dp1001
g82
g83
ssg71
g995
sg64
(lp1002
S'is_jython'
p1003
asbag57
(g78
g59
NtRp1004
(dp1005
g62
(dp1006
g89
g90
ssg71
g995
sg64
(lp1007
S':'
asbag57
(g78
g59
NtRp1008
(dp1009
g62
(dp1010
sg71
g995
sg64
(lp1011
g57
(g58
g59
NtRp1012
(dp1013
g62
(dp1014
g70
I4
ssg71
g1008
sg64
(lp1015
g100
asbasbasbag57
(g73
g59
NtRp1016
(dp1017
g62
(dp1018
sg71
g637
sg64
(lp1019
g57
(g78
g59
NtRp1020
(dp1021
g62
(dp1022
g82
g83
ssg71
g1016
sg64
(lp1023
S'is_pypy'
p1024
asbag57
(g78
g59
NtRp1025
(dp1026
g62
(dp1027
g89
g90
ssg71
g1016
sg64
(lp1028
S':'
asbag57
(g78
g59
NtRp1029
(dp1030
g62
(dp1031
sg71
g1016
sg64
(lp1032
g57
(g58
g59
NtRp1033
(dp1034
g62
(dp1035
g70
I4
ssg71
g1029
sg64
(lp1036
g100
asbasbasbag57
(g73
g59
NtRp1037
(dp1038
g62
(dp1039
sg71
g637
sg64
(lp1040
g57
(g78
g59
NtRp1041
(dp1042
g62
(dp1043
g82
g83
ssg71
g1037
sg64
(lp1044
S'path_info'
p1045
asbag57
(g78
g59
NtRp1046
(dp1047
g62
(dp1048
g89
g90
ssg71
g1037
sg64
(lp1049
S':'
asbag57
(g78
g59
NtRp1050
(dp1051
g62
(dp1052
sg71
g1037
sg64
(lp1053
g57
(g58
g59
NtRp1054
(dp1055
g62
(dp1056
g70
I4
ssg71
g1050
sg64
(lp1057
S'/911_signin/default/outbox'
p1058
asbasbasbag57
(g73
g59
NtRp1059
(dp1060
g62
(dp1061
sg71
g637
sg64
(lp1062
g57
(g78
g59
NtRp1063
(dp1064
g62
(dp1065
g82
g83
ssg71
g1059
sg64
(lp1066
S'query_string'
p1067
asbag57
(g78
g59
NtRp1068
(dp1069
g62
(dp1070
g89
g90
ssg71
g1059
sg64
(lp1071
S':'
asbag57
(g78
g59
NtRp1072
(dp1073
g62
(dp1074
sg71
g1059
sg64
(lp1075
g57
(g58
g59
NtRp1076
(dp1077
g62
(dp1078
g70
I4
ssg71
g1072
sg64
(lp1079
S''
asbasbasbag57
(g73
g59
NtRp1080
(dp1081
g62
(dp1082
sg71
g637
sg64
(lp1083
g57
(g78
g59
NtRp1084
(dp1085
g62
(dp1086
g82
g83
ssg71
g1080
sg64
(lp1087
S'remote_addr'
p1088
asbag57
(g78
g59
NtRp1089
(dp1090
g62
(dp1091
g89
g90
ssg71
g1080
sg64
(lp1092
S':'
asbag57
(g78
g59
NtRp1093
(dp1094
g62
(dp1095
sg71
g1080
sg64
(lp1096
g57
(g58
g59
NtRp1097
(dp1098
g62
(dp1099
g70
I4
ssg71
g1093
sg64
(lp1100
g190
asbasbasbag57
(g73
g59
NtRp1101
(dp1102
g62
(dp1103
sg71
g637
sg64
(lp1104
g57
(g78
g59
NtRp1105
(dp1106
g62
(dp1107
g82
g83
ssg71
g1101
sg64
(lp1108
S'remote_port'
p1109
asbag57
(g78
g59
NtRp1110
(dp1111
g62
(dp1112
g89
g90
ssg71
g1101
sg64
(lp1113
S':'
asbag57
(g78
g59
NtRp1114
(dp1115
g62
(dp1116
sg71
g1101
sg64
(lp1117
g57
(g58
g59
NtRp1118
(dp1119
g62
(dp1120
g70
I4
ssg71
g1114
sg64
(lp1121
S'40719'
p1122
asbasbasbag57
(g73
g59
NtRp1123
(dp1124
g62
(dp1125
sg71
g637
sg64
(lp1126
g57
(g78
g59
NtRp1127
(dp1128
g62
(dp1129
g82
g83
ssg71
g1123
sg64
(lp1130
S'request_method'
p1131
asbag57
(g78
g59
NtRp1132
(dp1133
g62
(dp1134
g89
g90
ssg71
g1123
sg64
(lp1135
S':'
asbag57
(g78
g59
NtRp1136
(dp1137
g62
(dp1138
sg71
g1123
sg64
(lp1139
g57
(g58
g59
NtRp1140
(dp1141
g62
(dp1142
g70
I4
ssg71
g1136
sg64
(lp1143
S'GET'
p1144
asbasbasbag57
(g73
g59
NtRp1145
(dp1146
g62
(dp1147
sg71
g637
sg64
(lp1148
g57
(g78
g59
NtRp1149
(dp1150
g62
(dp1151
g82
g83
ssg71
g1145
sg64
(lp1152
S'script_name'
p1153
asbag57
(g78
g59
NtRp1154
(dp1155
g62
(dp1156
g89
g90
ssg71
g1145
sg64
(lp1157
S':'
asbag57
(g78
g59
NtRp1158
(dp1159
g62
(dp1160
sg71
g1145
sg64
(lp1161
g57
(g58
g59
NtRp1162
(dp1163
g62
(dp1164
g70
I4
ssg71
g1158
sg64
(lp1165
S''
asbasbasbag57
(g73
g59
NtRp1166
(dp1167
g62
(dp1168
sg71
g637
sg64
(lp1169
g57
(g78
g59
NtRp1170
(dp1171
g62
(dp1172
g82
g83
ssg71
g1166
sg64
(lp1173
S'server_name'
p1174
asbag57
(g78
g59
NtRp1175
(dp1176
g62
(dp1177
g89
g90
ssg71
g1166
sg64
(lp1178
S':'
asbag57
(g78
g59
NtRp1179
(dp1180
g62
(dp1181
sg71
g1166
sg64
(lp1182
g57
(g58
g59
NtRp1183
(dp1184
g62
(dp1185
g70
I4
ssg71
g1179
sg64
(lp1186
S'ubuntu'
p1187
asbasbasbag57
(g73
g59
NtRp1188
(dp1189
g62
(dp1190
sg71
g637
sg64
(lp1191
g57
(g78
g59
NtRp1192
(dp1193
g62
(dp1194
g82
g83
ssg71
g1188
sg64
(lp1195
S'server_port'
p1196
asbag57
(g78
g59
NtRp1197
(dp1198
g62
(dp1199
g89
g90
ssg71
g1188
sg64
(lp1200
S':'
asbag57
(g78
g59
NtRp1201
(dp1202
g62
(dp1203
sg71
g1188
sg64
(lp1204
g57
(g58
g59
NtRp1205
(dp1206
g62
(dp1207
g70
I4
ssg71
g1201
sg64
(lp1208
S'8000'
p1209
asbasbasbag57
(g73
g59
NtRp1210
(dp1211
g62
(dp1212
sg71
g637
sg64
(lp1213
g57
(g78
g59
NtRp1214
(dp1215
g62
(dp1216
g82
g83
ssg71
g1210
sg64
(lp1217
S'server_protocol'
p1218
asbag57
(g78
g59
NtRp1219
(dp1220
g62
(dp1221
g89
g90
ssg71
g1210
sg64
(lp1222
S':'
asbag57
(g78
g59
NtRp1223
(dp1224
g62
(dp1225
sg71
g1210
sg64
(lp1226
g57
(g58
g59
NtRp1227
(dp1228
g62
(dp1229
g70
I4
ssg71
g1223
sg64
(lp1230
S'HTTP/1.1'
p1231
asbasbasbag57
(g73
g59
NtRp1232
(dp1233
g62
(dp1234
sg71
g637
sg64
(lp1235
g57
(g78
g59
NtRp1236
(dp1237
g62
(dp1238
g82
g83
ssg71
g1232
sg64
(lp1239
S'server_software'
p1240
asbag57
(g78
g59
NtRp1241
(dp1242
g62
(dp1243
g89
g90
ssg71
g1232
sg64
(lp1244
S':'
asbag57
(g78
g59
NtRp1245
(dp1246
g62
(dp1247
sg71
g1232
sg64
(lp1248
g57
(g58
g59
NtRp1249
(dp1250
g62
(dp1251
g70
I4
ssg71
g1245
sg64
(lp1252
S'Rocket 1.2.4'
p1253
asbasbasbag57
(g73
g59
NtRp1254
(dp1255
g62
(dp1256
sg71
g637
sg64
(lp1257
g57
(g78
g59
NtRp1258
(dp1259
g62
(dp1260
g82
g83
ssg71
g1254
sg64
(lp1261
S'web2py_crontype'
p1262
asbag57
(g78
g59
NtRp1263
(dp1264
g62
(dp1265
g89
g90
ssg71
g1254
sg64
(lp1266
S':'
asbag57
(g78
g59
NtRp1267
(dp1268
g62
(dp1269
sg71
g1254
sg64
(lp1270
g57
(g58
g59
NtRp1271
(dp1272
g62
(dp1273
g70
I4
ssg71
g1267
sg64
(lp1274
S'hard'
p1275
asbasbasbag57
(g73
g59
NtRp1276
(dp1277
g62
(dp1278
sg71
g637
sg64
(lp1279
g57
(g78
g59
NtRp1280
(dp1281
g62
(dp1282
g82
g83
ssg71
g1276
sg64
(lp1283
S'web2py_path'
p1284
asbag57
(g78
g59
NtRp1285
(dp1286
g62
(dp1287
g89
g90
ssg71
g1276
sg64
(lp1288
S':'
asbag57
(g78
g59
NtRp1289
(dp1290
g62
(dp1291
sg71
g1276
sg64
(lp1292
g57
(g58
g59
NtRp1293
(dp1294
g62
(dp1295
g70
I4
ssg71
g1289
sg64
(lp1296
g684
asbasbasbag57
(g73
g59
NtRp1297
(dp1298
g62
(dp1299
sg71
g637
sg64
(lp1300
g57
(g78
g59
NtRp1301
(dp1302
g62
(dp1303
g82
g83
ssg71
g1297
sg64
(lp1304
S'web2py_version'
p1305
asbag57
(g78
g59
NtRp1306
(dp1307
g62
(dp1308
g89
g90
ssg71
g1297
sg64
(lp1309
S':'
asbag57
(g78
g59
NtRp1310
(dp1311
g62
(dp1312
sg71
g1297
sg64
(lp1313
g57
(g58
g59
NtRp1314
(dp1315
g62
(dp1316
g70
I4
ssg71
g1310
sg64
(lp1317
g57
(g66
g59
NtRp1318
(dp1319
g62
(dp1320
g70
I3
ssg71
Nsg64
(lp1321
g57
(g73
g59
NtRp1322
(dp1323
g62
(dp1324
sg71
g1318
sg64
(lp1325
g57
(g78
g59
NtRp1326
(dp1327
g62
(dp1328
sg71
g1322
sg64
(lp1329
g57
(g58
g59
NtRp1330
(dp1331
g62
(dp1332
g70
I3
ssg71
g1326
sg64
(lp1333
S'1'
asbasbasbag57
(g73
g59
NtRp1334
(dp1335
g62
(dp1336
sg71
g1318
sg64
(lp1337
g57
(g78
g59
NtRp1338
(dp1339
g62
(dp1340
sg71
g1334
sg64
(lp1341
g57
(g58
g59
NtRp1342
(dp1343
g62
(dp1344
g70
I3
ssg71
g1338
sg64
(lp1345
S'99'
p1346
asbasbasbag57
(g73
g59
NtRp1347
(dp1348
g62
(dp1349
sg71
g1318
sg64
(lp1350
g57
(g78
g59
NtRp1351
(dp1352
g62
(dp1353
sg71
g1347
sg64
(lp1354
g57
(g58
g59
NtRp1355
(dp1356
g62
(dp1357
g70
I3
ssg71
g1351
sg64
(lp1358
S'7'
asbasbasbag57
(g73
g59
NtRp1359
(dp1360
g62
(dp1361
sg71
g1318
sg64
(lp1362
g57
(g78
g59
NtRp1363
(dp1364
g62
(dp1365
sg71
g1359
sg64
(lp1366
g57
(g58
g59
NtRp1367
(dp1368
g62
(dp1369
g70
I3
ssg71
g1363
sg64
(lp1370
S'datetime.datetime(2012, 3, 4, 22, 12, 8)'
p1371
asbasbasbag57
(g73
g59
NtRp1372
(dp1373
g62
(dp1374
sg71
g1318
sg64
(lp1375
g57
(g78
g59
NtRp1376
(dp1377
g62
(dp1378
sg71
g1372
sg64
(lp1379
g57
(g58
g59
NtRp1380
(dp1381
g62
(dp1382
g70
I3
ssg71
g1376
sg64
(lp1383
S'stable'
p1384
asbasbasbasbasbasbasbag57
(g73
g59
NtRp1385
(dp1386
g62
(dp1387
sg71
g637
sg64
(lp1388
g57
(g78
g59
NtRp1389
(dp1390
g62
(dp1391
g82
g83
ssg71
g1385
sg64
(lp1392
S'wsgi_errors'
p1393
asbag57
(g78
g59
NtRp1394
(dp1395
g62
(dp1396
g89
g90
ssg71
g1385
sg64
(lp1397
S':'
asbag57
(g78
g59
NtRp1398
(dp1399
g62
(dp1400
sg71
g1385
sg64
(lp1401
g57
(g58
g59
NtRp1402
(dp1403
g62
(dp1404
g70
I4
ssg71
g1398
sg64
(lp1405
S"<open file '<stderr>', mode 'w' at 0xb72d60d0>"
p1406
asbasbasbag57
(g73
g59
NtRp1407
(dp1408
g62
(dp1409
sg71
g637
sg64
(lp1410
g57
(g78
g59
NtRp1411
(dp1412
g62
(dp1413
g82
g83
ssg71
g1407
sg64
(lp1414
S'wsgi_file_wrapper'
p1415
asbag57
(g78
g59
NtRp1416
(dp1417
g62
(dp1418
g89
g90
ssg71
g1407
sg64
(lp1419
S':'
asbag57
(g78
g59
NtRp1420
(dp1421
g62
(dp1422
sg71
g1407
sg64
(lp1423
g57
(g58
g59
NtRp1424
(dp1425
g62
(dp1426
g70
I4
ssg71
g1420
sg64
(lp1427
S'<class wsgiref.util.FileWrapper at 0x9d94e9c>'
p1428
asbasbasbag57
(g73
g59
NtRp1429
(dp1430
g62
(dp1431
sg71
g637
sg64
(lp1432
g57
(g78
g59
NtRp1433
(dp1434
g62
(dp1435
g82
g83
ssg71
g1429
sg64
(lp1436
S'wsgi_input'
p1437
asbag57
(g78
g59
NtRp1438
(dp1439
g62
(dp1440
g89
g90
ssg71
g1429
sg64
(lp1441
S':'
asbag57
(g78
g59
NtRp1442
(dp1443
g62
(dp1444
sg71
g1429
sg64
(lp1445
g57
(g58
g59
NtRp1446
(dp1447
g62
(dp1448
g70
I4
ssg71
g1442
sg64
(lp1449
S'<socket._fileobject object at 0xad33e5ec>'
p1450
asbasbasbag57
(g73
g59
NtRp1451
(dp1452
g62
(dp1453
sg71
g637
sg64
(lp1454
g57
(g78
g59
NtRp1455
(dp1456
g62
(dp1457
g82
g83
ssg71
g1451
sg64
(lp1458
S'wsgi_multiprocess'
p1459
asbag57
(g78
g59
NtRp1460
(dp1461
g62
(dp1462
g89
g90
ssg71
g1451
sg64
(lp1463
S':'
asbag57
(g78
g59
NtRp1464
(dp1465
g62
(dp1466
sg71
g1451
sg64
(lp1467
g57
(g58
g59
NtRp1468
(dp1469
g62
(dp1470
g70
I4
ssg71
g1464
sg64
(lp1471
g100
asbasbasbag57
(g73
g59
NtRp1472
(dp1473
g62
(dp1474
sg71
g637
sg64
(lp1475
g57
(g78
g59
NtRp1476
(dp1477
g62
(dp1478
g82
g83
ssg71
g1472
sg64
(lp1479
S'wsgi_multithread'
p1480
asbag57
(g78
g59
NtRp1481
(dp1482
g62
(dp1483
g89
g90
ssg71
g1472
sg64
(lp1484
S':'
asbag57
(g78
g59
NtRp1485
(dp1486
g62
(dp1487
sg71
g1472
sg64
(lp1488
g57
(g58
g59
NtRp1489
(dp1490
g62
(dp1491
g70
I4
ssg71
g1485
sg64
(lp1492
S'True'
p1493
asbasbasbag57
(g73
g59
NtRp1494
(dp1495
g62
(dp1496
sg71
g637
sg64
(lp1497
g57
(g78
g59
NtRp1498
(dp1499
g62
(dp1500
g82
g83
ssg71
g1494
sg64
(lp1501
S'wsgi_run_once'
p1502
asbag57
(g78
g59
NtRp1503
(dp1504
g62
(dp1505
g89
g90
ssg71
g1494
sg64
(lp1506
S':'
asbag57
(g78
g59
NtRp1507
(dp1508
g62
(dp1509
sg71
g1494
sg64
(lp1510
g57
(g58
g59
NtRp1511
(dp1512
g62
(dp1513
g70
I4
ssg71
g1507
sg64
(lp1514
g100
asbasbasbag57
(g73
g59
NtRp1515
(dp1516
g62
(dp1517
sg71
g637
sg64
(lp1518
g57
(g78
g59
NtRp1519
(dp1520
g62
(dp1521
g82
g83
ssg71
g1515
sg64
(lp1522
S'wsgi_url_scheme'
p1523
asbag57
(g78
g59
NtRp1524
(dp1525
g62
(dp1526
g89
g90
ssg71
g1515
sg64
(lp1527
S':'
asbag57
(g78
g59
NtRp1528
(dp1529
g62
(dp1530
sg71
g1515
sg64
(lp1531
g57
(g58
g59
NtRp1532
(dp1533
g62
(dp1534
g70
I4
ssg71
g1528
sg64
(lp1535
S'http'
p1536
asbasbasbag57
(g73
g59
NtRp1537
(dp1538
g62
(dp1539
sg71
g637
sg64
(lp1540
g57
(g78
g59
NtRp1541
(dp1542
g62
(dp1543
g82
g83
ssg71
g1537
sg64
(lp1544
S'wsgi_version'
p1545
asbag57
(g78
g59
NtRp1546
(dp1547
g62
(dp1548
g89
g90
ssg71
g1537
sg64
(lp1549
S':'
asbag57
(g78
g59
NtRp1550
(dp1551
g62
(dp1552
sg71
g1537
sg64
(lp1553
g57
(g58
g59
NtRp1554
(dp1555
g62
(dp1556
g70
I4
ssg71
g1550
sg64
(lp1557
g57
(g66
g59
NtRp1558
(dp1559
g62
(dp1560
g70
I3
ssg71
Nsg64
(lp1561
g57
(g73
g59
NtRp1562
(dp1563
g62
(dp1564
sg71
g1558
sg64
(lp1565
g57
(g78
g59
NtRp1566
(dp1567
g62
(dp1568
sg71
g1562
sg64
(lp1569
g57
(g58
g59
NtRp1570
(dp1571
g62
(dp1572
g70
I3
ssg71
g1566
sg64
(lp1573
S'1'
asbasbasbag57
(g73
g59
NtRp1574
(dp1575
g62
(dp1576
sg71
g1558
sg64
(lp1577
g57
(g78
g59
NtRp1578
(dp1579
g62
(dp1580
sg71
g1574
sg64
(lp1581
g57
(g58
g59
NtRp1582
(dp1583
g62
(dp1584
g70
I3
ssg71
g1578
sg64
(lp1585
S'0'
asbasbasbasbasbasbasbasbasbasbasbag57
(g73
g59
NtRp1586
(dp1587
g62
(dp1588
sg71
g67
sg64
(lp1589
g57
(g78
g59
NtRp1590
(dp1591
g62
(dp1592
g82
g83
ssg71
g1586
sg64
(lp1593
S'extension'
p1594
asbag57
(g78
g59
NtRp1595
(dp1596
g62
(dp1597
g89
g90
ssg71
g1586
sg64
(lp1598
S':'
asbag57
(g78
g59
NtRp1599
(dp1600
g62
(dp1601
sg71
g1586
sg64
(lp1602
g57
(g58
g59
NtRp1603
(dp1604
g62
(dp1605
g70
I5
ssg71
g1599
sg64
(lp1606
S'html'
p1607
asbasbasbag57
(g73
g59
NtRp1608
(dp1609
g62
(dp1610
sg71
g67
sg64
(lp1611
g57
(g78
g59
NtRp1612
(dp1613
g62
(dp1614
g82
g83
ssg71
g1608
sg64
(lp1615
S'folder'
p1616
asbag57
(g78
g59
NtRp1617
(dp1618
g62
(dp1619
g89
g90
ssg71
g1608
sg64
(lp1620
S':'
asbag57
(g78
g59
NtRp1621
(dp1622
g62
(dp1623
sg71
g1608
sg64
(lp1624
g57
(g58
g59
NtRp1625
(dp1626
g62
(dp1627
g70
I5
ssg71
g1621
sg64
(lp1628
S'/home/enigma/web2py/applications/911_signin/'
p1629
asbasbasbag57
(g73
g59
NtRp1630
(dp1631
g62
(dp1632
sg71
g67
sg64
(lp1633
g57
(g78
g59
NtRp1634
(dp1635
g62
(dp1636
g82
g83
ssg71
g1630
sg64
(lp1637
S'function'
p1638
asbag57
(g78
g59
NtRp1639
(dp1640
g62
(dp1641
g89
g90
ssg71
g1630
sg64
(lp1642
S':'
asbag57
(g78
g59
NtRp1643
(dp1644
g62
(dp1645
sg71
g1630
sg64
(lp1646
g57
(g58
g59
NtRp1647
(dp1648
g62
(dp1649
g70
I5
ssg71
g1643
sg64
(lp1650
S'outbox'
p1651
asbasbasbag57
(g73
g59
NtRp1652
(dp1653
g62
(dp1654
sg71
g67
sg64
(lp1655
g57
(g78
g59
NtRp1656
(dp1657
g62
(dp1658
g82
g83
ssg71
g1652
sg64
(lp1659
S'get_vars'
p1660
asbag57
(g78
g59
NtRp1661
(dp1662
g62
(dp1663
g89
g90
ssg71
g1652
sg64
(lp1664
S':'
asbag57
(g78
g59
NtRp1665
(dp1666
g62
(dp1667
sg71
g1652
sg64
(lp1668
g57
(g58
g59
NtRp1669
(dp1670
g62
(dp1671
g70
I5
ssg71
g1665
sg64
(lp1672
g57
(g66
g59
NtRp1673
(dp1674
g62
(dp1675
g70
I4
ssg71
Nsg64
(lp1676
sbasbasbasbag57
(g73
g59
NtRp1677
(dp1678
g62
(dp1679
sg71
g67
sg64
(lp1680
g57
(g78
g59
NtRp1681
(dp1682
g62
(dp1683
g82
g83
ssg71
g1677
sg64
(lp1684
S'global_settings'
p1685
asbag57
(g78
g59
NtRp1686
(dp1687
g62
(dp1688
g89
g90
ssg71
g1677
sg64
(lp1689
S':'
asbag57
(g78
g59
NtRp1690
(dp1691
g62
(dp1692
sg71
g1677
sg64
(lp1693
g57
(g58
g59
NtRp1694
(dp1695
g62
(dp1696
g70
I5
ssg71
g1690
sg64
(lp1697
g57
(g66
g59
NtRp1698
(dp1699
g62
(dp1700
g70
I4
ssg71
Nsg64
(lp1701
g57
(g73
g59
NtRp1702
(dp1703
g62
(dp1704
sg71
g1698
sg64
(lp1705
g57
(g78
g59
NtRp1706
(dp1707
g62
(dp1708
g82
g83
ssg71
g1702
sg64
(lp1709
g649
asbag57
(g78
g59
NtRp1710
(dp1711
g62
(dp1712
g89
g90
ssg71
g1702
sg64
(lp1713
S':'
asbag57
(g78
g59
NtRp1714
(dp1715
g62
(dp1716
sg71
g1702
sg64
(lp1717
g57
(g58
g59
NtRp1718
(dp1719
g62
(dp1720
g70
I4
ssg71
g1714
sg64
(lp1721
S"set(['/home/enigma/web2py/applications/admin/', '/home/enigma/web2py/applications/911_signin/', '/home/enigma/web2py/applications/welcome/'])"
p1722
asbasbasbag57
(g73
g59
NtRp1723
(dp1724
g62
(dp1725
sg71
g1698
sg64
(lp1726
g57
(g78
g59
NtRp1727
(dp1728
g62
(dp1729
g82
g83
ssg71
g1723
sg64
(lp1730
g671
asbag57
(g78
g59
NtRp1731
(dp1732
g62
(dp1733
g89
g90
ssg71
g1723
sg64
(lp1734
S':'
asbag57
(g78
g59
NtRp1735
(dp1736
g62
(dp1737
sg71
g1723
sg64
(lp1738
g57
(g58
g59
NtRp1739
(dp1740
g62
(dp1741
g70
I4
ssg71
g1735
sg64
(lp1742
g684
asbasbasbag57
(g73
g59
NtRp1743
(dp1744
g62
(dp1745
sg71
g1698
sg64
(lp1746
g57
(g78
g59
NtRp1747
(dp1748
g62
(dp1749
g82
g83
ssg71
g1743
sg64
(lp1750
g693
asbag57
(g78
g59
NtRp1751
(dp1752
g62
(dp1753
g89
g90
ssg71
g1743
sg64
(lp1754
S':'
asbag57
(g78
g59
NtRp1755
(dp1756
g62
(dp1757
sg71
g1743
sg64
(lp1758
g57
(g58
g59
NtRp1759
(dp1760
g62
(dp1761
g70
I4
ssg71
g1755
sg64
(lp1762
g57
(g66
g59
NtRp1763
(dp1764
g62
(dp1765
g70
I3
ssg71
Nsg64
(lp1766
sbasbasbasbag57
(g73
g59
NtRp1767
(dp1768
g62
(dp1769
sg71
g1698
sg64
(lp1770
g57
(g78
g59
NtRp1771
(dp1772
g62
(dp1773
g82
g83
ssg71
g1767
sg64
(lp1774
g718
asbag57
(g78
g59
NtRp1775
(dp1776
g62
(dp1777
g89
g90
ssg71
g1767
sg64
(lp1778
S':'
asbag57
(g78
g59
NtRp1779
(dp1780
g62
(dp1781
sg71
g1767
sg64
(lp1782
g57
(g58
g59
NtRp1783
(dp1784
g62
(dp1785
g70
I4
ssg71
g1779
sg64
(lp1786
S"<Values at 0x9e53bcc: {'verbose': False, 'ip': '127.0.0.1', 'shutdown_timeout': 5, 'taskbar': False, 'nocron': False, 'pid_filename': 'httpserver.pid', 'maxthreads': None, 'softcron': False, 'server_name': 'ubuntu', 'bpython': False, 'nogui': False, 'port': 8000, 'extcron': False, 'debuglevel': 30, 'test': None, 'folder': '/home/enigma/web2py', 'config': '', 'import_models': False, 'winservice': '', 'shell': None, 'run': '', 'log_filename': 'httpserver.log', 'args': [''], 'socket_timeout': 5, 'ssl_ca_certificate': None, 'scheduler': None, 'profiler_filename': None, 'ssl_private_key': '', 'password': '<ask>', 'request_queue_size': 5, 'ssl_certificate': '', 'cronjob': False, 'numthreads': None, 'quiet': False, 'interfaces': None, 'minthreads': None, 'timeout': 10, 'plain': False, 'nobanner': False}>"
p1787
asbasbasbag57
(g73
g59
NtRp1788
(dp1789
g62
(dp1790
sg71
g1698
sg64
(lp1791
g57
(g78
g59
NtRp1792
(dp1793
g62
(dp1794
g82
g83
ssg71
g1788
sg64
(lp1795
g740
asbag57
(g78
g59
NtRp1796
(dp1797
g62
(dp1798
g89
g90
ssg71
g1788
sg64
(lp1799
S':'
asbag57
(g78
g59
NtRp1800
(dp1801
g62
(dp1802
sg71
g1788
sg64
(lp1803
g57
(g58
g59
NtRp1804
(dp1805
g62
(dp1806
g70
I4
ssg71
g1800
sg64
(lp1807
S'set([])'
p1808
asbasbasbag57
(g73
g59
NtRp1809
(dp1810
g62
(dp1811
sg71
g1698
sg64
(lp1812
g57
(g78
g59
NtRp1813
(dp1814
g62
(dp1815
g82
g83
ssg71
g1809
sg64
(lp1816
g762
asbag57
(g78
g59
NtRp1817
(dp1818
g62
(dp1819
g89
g90
ssg71
g1809
sg64
(lp1820
S':'
asbag57
(g78
g59
NtRp1821
(dp1822
g62
(dp1823
sg71
g1809
sg64
(lp1824
g57
(g58
g59
NtRp1825
(dp1826
g62
(dp1827
g70
I4
ssg71
g1821
sg64
(lp1828
g100
asbasbasbag57
(g73
g59
NtRp1829
(dp1830
g62
(dp1831
sg71
g1698
sg64
(lp1832
g57
(g78
g59
NtRp1833
(dp1834
g62
(dp1835
g82
g83
ssg71
g1829
sg64
(lp1836
g783
asbag57
(g78
g59
NtRp1837
(dp1838
g62
(dp1839
g89
g90
ssg71
g1829
sg64
(lp1840
S':'
asbag57
(g78
g59
NtRp1841
(dp1842
g62
(dp1843
sg71
g1829
sg64
(lp1844
g57
(g58
g59
NtRp1845
(dp1846
g62
(dp1847
g70
I4
ssg71
g1841
sg64
(lp1848
g796
asbasbasbag57
(g73
g59
NtRp1849
(dp1850
g62
(dp1851
sg71
g1698
sg64
(lp1852
g57
(g78
g59
NtRp1853
(dp1854
g62
(dp1855
g82
g83
ssg71
g1849
sg64
(lp1856
g1003
asbag57
(g78
g59
NtRp1857
(dp1858
g62
(dp1859
g89
g90
ssg71
g1849
sg64
(lp1860
S':'
asbag57
(g78
g59
NtRp1861
(dp1862
g62
(dp1863
sg71
g1849
sg64
(lp1864
g57
(g58
g59
NtRp1865
(dp1866
g62
(dp1867
g70
I4
ssg71
g1861
sg64
(lp1868
g100
asbasbasbag57
(g73
g59
NtRp1869
(dp1870
g62
(dp1871
sg71
g1698
sg64
(lp1872
g57
(g78
g59
NtRp1873
(dp1874
g62
(dp1875
g82
g83
ssg71
g1869
sg64
(lp1876
g1024
asbag57
(g78
g59
NtRp1877
(dp1878
g62
(dp1879
g89
g90
ssg71
g1869
sg64
(lp1880
S':'
asbag57
(g78
g59
NtRp1881
(dp1882
g62
(dp1883
sg71
g1869
sg64
(lp1884
g57
(g58
g59
NtRp1885
(dp1886
g62
(dp1887
g70
I4
ssg71
g1881
sg64
(lp1888
g100
asbasbasbag57
(g73
g59
NtRp1889
(dp1890
g62
(dp1891
sg71
g1698
sg64
(lp1892
g57
(g78
g59
NtRp1893
(dp1894
g62
(dp1895
g82
g83
ssg71
g1889
sg64
(lp1896
g1262
asbag57
(g78
g59
NtRp1897
(dp1898
g62
(dp1899
g89
g90
ssg71
g1889
sg64
(lp1900
S':'
asbag57
(g78
g59
NtRp1901
(dp1902
g62
(dp1903
sg71
g1889
sg64
(lp1904
g57
(g58
g59
NtRp1905
(dp1906
g62
(dp1907
g70
I4
ssg71
g1901
sg64
(lp1908
g1275
asbasbasbag57
(g73
g59
NtRp1909
(dp1910
g62
(dp1911
sg71
g1698
sg64
(lp1912
g57
(g78
g59
NtRp1913
(dp1914
g62
(dp1915
g82
g83
ssg71
g1909
sg64
(lp1916
g1305
asbag57
(g78
g59
NtRp1917
(dp1918
g62
(dp1919
g89
g90
ssg71
g1909
sg64
(lp1920
S':'
asbag57
(g78
g59
NtRp1921
(dp1922
g62
(dp1923
sg71
g1909
sg64
(lp1924
g57
(g58
g59
NtRp1925
(dp1926
g62
(dp1927
g70
I4
ssg71
g1921
sg64
(lp1928
g57
(g66
g59
NtRp1929
(dp1930
g62
(dp1931
g70
I3
ssg71
Nsg64
(lp1932
g57
(g73
g59
NtRp1933
(dp1934
g62
(dp1935
sg71
g1929
sg64
(lp1936
g57
(g78
g59
NtRp1937
(dp1938
g62
(dp1939
sg71
g1933
sg64
(lp1940
g57
(g58
g59
NtRp1941
(dp1942
g62
(dp1943
g70
I3
ssg71
g1937
sg64
(lp1944
S'1'
asbasbasbag57
(g73
g59
NtRp1945
(dp1946
g62
(dp1947
sg71
g1929
sg64
(lp1948
g57
(g78
g59
NtRp1949
(dp1950
g62
(dp1951
sg71
g1945
sg64
(lp1952
g57
(g58
g59
NtRp1953
(dp1954
g62
(dp1955
g70
I3
ssg71
g1949
sg64
(lp1956
S'99'
p1957
asbasbasbag57
(g73
g59
NtRp1958
(dp1959
g62
(dp1960
sg71
g1929
sg64
(lp1961
g57
(g78
g59
NtRp1962
(dp1963
g62
(dp1964
sg71
g1958
sg64
(lp1965
g57
(g58
g59
NtRp1966
(dp1967
g62
(dp1968
g70
I3
ssg71
g1962
sg64
(lp1969
S'7'
asbasbasbag57
(g73
g59
NtRp1970
(dp1971
g62
(dp1972
sg71
g1929
sg64
(lp1973
g57
(g78
g59
NtRp1974
(dp1975
g62
(dp1976
sg71
g1970
sg64
(lp1977
g57
(g58
g59
NtRp1978
(dp1979
g62
(dp1980
g70
I3
ssg71
g1974
sg64
(lp1981
S'datetime.datetime(2012, 3, 4, 22, 12, 8)'
p1982
asbasbasbag57
(g73
g59
NtRp1983
(dp1984
g62
(dp1985
sg71
g1929
sg64
(lp1986
g57
(g78
g59
NtRp1987
(dp1988
g62
(dp1989
sg71
g1983
sg64
(lp1990
g57
(g58
g59
NtRp1991
(dp1992
g62
(dp1993
g70
I3
ssg71
g1987
sg64
(lp1994
g1384
asbasbasbasbasbasbasbasbasbasbasbag57
(g73
g59
NtRp1995
(dp1996
g62
(dp1997
sg71
g67
sg64
(lp1998
g57
(g78
g59
NtRp1999
(dp2000
g62
(dp2001
g82
g83
ssg71
g1995
sg64
(lp2002
S'is_https'
p2003
asbag57
(g78
g59
NtRp2004
(dp2005
g62
(dp2006
g89
g90
ssg71
g1995
sg64
(lp2007
S':'
asbag57
(g78
g59
NtRp2008
(dp2009
g62
(dp2010
sg71
g1995
sg64
(lp2011
g57
(g58
g59
NtRp2012
(dp2013
g62
(dp2014
g70
I5
ssg71
g2008
sg64
(lp2015
g100
asbasbasbag57
(g73
g59
NtRp2016
(dp2017
g62
(dp2018
sg71
g67
sg64
(lp2019
g57
(g78
g59
NtRp2020
(dp2021
g62
(dp2022
g82
g83
ssg71
g2016
sg64
(lp2023
S'is_local'
p2024
asbag57
(g78
g59
NtRp2025
(dp2026
g62
(dp2027
g89
g90
ssg71
g2016
sg64
(lp2028
S':'
asbag57
(g78
g59
NtRp2029
(dp2030
g62
(dp2031
sg71
g2016
sg64
(lp2032
g57
(g58
g59
NtRp2033
(dp2034
g62
(dp2035
g70
I5
ssg71
g2029
sg64
(lp2036
g1493
asbasbasbag57
(g73
g59
NtRp2037
(dp2038
g62
(dp2039
sg71
g67
sg64
(lp2040
g57
(g78
g59
NtRp2041
(dp2042
g62
(dp2043
g82
g83
ssg71
g2037
sg64
(lp2044
S'is_restful'
p2045
asbag57
(g78
g59
NtRp2046
(dp2047
g62
(dp2048
g89
g90
ssg71
g2037
sg64
(lp2049
S':'
asbag57
(g78
g59
NtRp2050
(dp2051
g62
(dp2052
sg71
g2037
sg64
(lp2053
g57
(g58
g59
NtRp2054
(dp2055
g62
(dp2056
g70
I5
ssg71
g2050
sg64
(lp2057
g100
asbasbasbag57
(g73
g59
NtRp2058
(dp2059
g62
(dp2060
sg71
g67
sg64
(lp2061
g57
(g78
g59
NtRp2062
(dp2063
g62
(dp2064
g82
g83
ssg71
g2058
sg64
(lp2065
S'now'
p2066
asbag57
(g78
g59
NtRp2067
(dp2068
g62
(dp2069
g89
g90
ssg71
g2058
sg64
(lp2070
S':'
asbag57
(g78
g59
NtRp2071
(dp2072
g62
(dp2073
sg71
g2058
sg64
(lp2074
g57
(g58
g59
NtRp2075
(dp2076
g62
(dp2077
g70
I5
ssg71
g2071
sg64
(lp2078
S'datetime.datetime(2013, 6, 3, 21, 16, 58, 195457)'
p2079
asbasbasbag57
(g73
g59
NtRp2080
(dp2081
g62
(dp2082
sg71
g67
sg64
(lp2083
g57
(g78
g59
NtRp2084
(dp2085
g62
(dp2086
g82
g83
ssg71
g2080
sg64
(lp2087
S'post_vars'
p2088
asbag57
(g78
g59
NtRp2089
(dp2090
g62
(dp2091
g89
g90
ssg71
g2080
sg64
(lp2092
S':'
asbag57
(g78
g59
NtRp2093
(dp2094
g62
(dp2095
sg71
g2080
sg64
(lp2096
g57
(g58
g59
NtRp2097
(dp2098
g62
(dp2099
g70
I5
ssg71
g2093
sg64
(lp2100
g57
(g66
g59
NtRp2101
(dp2102
g62
(dp2103
g70
I4
ssg71
Nsg64
(lp2104
sbasbasbasbag57
(g73
g59
NtRp2105
(dp2106
g62
(dp2107
sg71
g67
sg64
(lp2108
g57
(g78
g59
NtRp2109
(dp2110
g62
(dp2111
g82
g83
ssg71
g2105
sg64
(lp2112
S'url'
p2113
asbag57
(g78
g59
NtRp2114
(dp2115
g62
(dp2116
g89
g90
ssg71
g2105
sg64
(lp2117
S':'
asbag57
(g78
g59
NtRp2118
(dp2119
g62
(dp2120
sg71
g2105
sg64
(lp2121
g57
(g58
g59
NtRp2122
(dp2123
g62
(dp2124
g70
I5
ssg71
g2118
sg64
(lp2125
S'/911_signin/default/outbox'
p2126
asbasbasbag57
(g73
g59
NtRp2127
(dp2128
g62
(dp2129
sg71
g67
sg64
(lp2130
g57
(g78
g59
NtRp2131
(dp2132
g62
(dp2133
g82
g83
ssg71
g2127
sg64
(lp2134
S'utcnow'
p2135
asbag57
(g78
g59
NtRp2136
(dp2137
g62
(dp2138
g89
g90
ssg71
g2127
sg64
(lp2139
S':'
asbag57
(g78
g59
NtRp2140
(dp2141
g62
(dp2142
sg71
g2127
sg64
(lp2143
g57
(g58
g59
NtRp2144
(dp2145
g62
(dp2146
g70
I5
ssg71
g2140
sg64
(lp2147
S'datetime.datetime(2013, 6, 3, 15, 46, 58, 195513)'
p2148
asbasbasbag57
(g73
g59
NtRp2149
(dp2150
g62
(dp2151
sg71
g67
sg64
(lp2152
g57
(g78
g59
NtRp2153
(dp2154
g62
(dp2155
g82
g83
ssg71
g2149
sg64
(lp2156
S'uuid'
p2157
asbag57
(g78
g59
NtRp2158
(dp2159
g62
(dp2160
g89
g90
ssg71
g2149
sg64
(lp2161
S':'
asbag57
(g78
g59
NtRp2162
(dp2163
g62
(dp2164
sg71
g2149
sg64
(lp2165
g57
(g58
g59
NtRp2166
(dp2167
g62
(dp2168
g70
I5
ssg71
g2162
sg64
(lp2169
S'911_signin/127.0.0.1.2013-06-03.21-16-58.940fa43e-89a7-4216-9a8c-9f901e442f21'
p2170
asbasbasbag57
(g73
g59
NtRp2171
(dp2172
g62
(dp2173
sg71
g67
sg64
(lp2174
g57
(g78
g59
NtRp2175
(dp2176
g62
(dp2177
g82
g83
ssg71
g2171
sg64
(lp2178
S'vars'
p2179
asbag57
(g78
g59
NtRp2180
(dp2181
g62
(dp2182
g89
g90
ssg71
g2171
sg64
(lp2183
S':'
asbag57
(g78
g59
NtRp2184
(dp2185
g62
(dp2186
sg71
g2171
sg64
(lp2187
g57
(g58
g59
NtRp2188
(dp2189
g62
(dp2190
g70
I5
ssg71
g2184
sg64
(lp2191
g57
(g66
g59
NtRp2192
(dp2193
g62
(dp2194
g70
I4
ssg71
Nsg64
(lp2195
sbasbasbasbag57
(g73
g59
NtRp2196
(dp2197
g62
(dp2198
sg71
g67
sg64
(lp2199
g57
(g78
g59
NtRp2200
(dp2201
g62
(dp2202
g82
g83
ssg71
g2196
sg64
(lp2203
S'wsgi'
p2204
asbag57
(g78
g59
NtRp2205
(dp2206
g62
(dp2207
g89
g90
ssg71
g2196
sg64
(lp2208
S':'
asbag57
(g78
g59
NtRp2209
(dp2210
g62
(dp2211
sg71
g2196
sg64
(lp2212
g57
(g58
g59
NtRp2213
(dp2214
g62
(dp2215
g70
I5
ssg71
g2209
sg64
(lp2216
g57
(g66
g59
NtRp2217
(dp2218
g62
(dp2219
g70
I4
ssg71
Nsg64
(lp2220
g57
(g73
g59
NtRp2221
(dp2222
g62
(dp2223
sg71
g2217
sg64
(lp2224
g57
(g78
g59
NtRp2225
(dp2226
g62
(dp2227
g82
g83
ssg71
g2221
sg64
(lp2228
S'environ'
p2229
asbag57
(g78
g59
NtRp2230
(dp2231
g62
(dp2232
g89
g90
ssg71
g2221
sg64
(lp2233
S':'
asbag57
(g78
g59
NtRp2234
(dp2235
g62
(dp2236
sg71
g2221
sg64
(lp2237
g57
(g58
g59
NtRp2238
(dp2239
g62
(dp2240
g70
I4
ssg71
g2234
sg64
(lp2241
g57
(g66
g59
NtRp2242
(dp2243
g62
(dp2244
g70
I3
ssg71
Nsg64
(lp2245
g57
(g73
g59
NtRp2246
(dp2247
g62
(dp2248
sg71
g2242
sg64
(lp2249
g57
(g78
g59
NtRp2250
(dp2251
g62
(dp2252
g82
g83
ssg71
g2246
sg64
(lp2253
S'HTTP_ACCEPT'
p2254
asbag57
(g78
g59
NtRp2255
(dp2256
g62
(dp2257
g89
g90
ssg71
g2246
sg64
(lp2258
S':'
asbag57
(g78
g59
NtRp2259
(dp2260
g62
(dp2261
sg71
g2246
sg64
(lp2262
g57
(g58
g59
NtRp2263
(dp2264
g62
(dp2265
g70
I3
ssg71
g2259
sg64
(lp2266
g818
asbasbasbag57
(g73
g59
NtRp2267
(dp2268
g62
(dp2269
sg71
g2242
sg64
(lp2270
g57
(g78
g59
NtRp2271
(dp2272
g62
(dp2273
g82
g83
ssg71
g2267
sg64
(lp2274
S'HTTP_ACCEPT_CHARSET'
p2275
asbag57
(g78
g59
NtRp2276
(dp2277
g62
(dp2278
g89
g90
ssg71
g2267
sg64
(lp2279
S':'
asbag57
(g78
g59
NtRp2280
(dp2281
g62
(dp2282
sg71
g2267
sg64
(lp2283
g57
(g58
g59
NtRp2284
(dp2285
g62
(dp2286
g70
I3
ssg71
g2280
sg64
(lp2287
g840
asbasbasbag57
(g73
g59
NtRp2288
(dp2289
g62
(dp2290
sg71
g2242
sg64
(lp2291
g57
(g78
g59
NtRp2292
(dp2293
g62
(dp2294
g82
g83
ssg71
g2288
sg64
(lp2295
S'HTTP_ACCEPT_ENCODING'
p2296
asbag57
(g78
g59
NtRp2297
(dp2298
g62
(dp2299
g89
g90
ssg71
g2288
sg64
(lp2300
S':'
asbag57
(g78
g59
NtRp2301
(dp2302
g62
(dp2303
sg71
g2288
sg64
(lp2304
g57
(g58
g59
NtRp2305
(dp2306
g62
(dp2307
g70
I3
ssg71
g2301
sg64
(lp2308
g862
asbasbasbag57
(g73
g59
NtRp2309
(dp2310
g62
(dp2311
sg71
g2242
sg64
(lp2312
g57
(g78
g59
NtRp2313
(dp2314
g62
(dp2315
g82
g83
ssg71
g2309
sg64
(lp2316
S'HTTP_ACCEPT_LANGUAGE'
p2317
asbag57
(g78
g59
NtRp2318
(dp2319
g62
(dp2320
g89
g90
ssg71
g2309
sg64
(lp2321
S':'
asbag57
(g78
g59
NtRp2322
(dp2323
g62
(dp2324
sg71
g2309
sg64
(lp2325
g57
(g58
g59
NtRp2326
(dp2327
g62
(dp2328
g70
I3
ssg71
g2322
sg64
(lp2329
g884
asbasbasbag57
(g73
g59
NtRp2330
(dp2331
g62
(dp2332
sg71
g2242
sg64
(lp2333
g57
(g78
g59
NtRp2334
(dp2335
g62
(dp2336
g82
g83
ssg71
g2330
sg64
(lp2337
S'HTTP_CACHE_CONTROL'
p2338
asbag57
(g78
g59
NtRp2339
(dp2340
g62
(dp2341
g89
g90
ssg71
g2330
sg64
(lp2342
S':'
asbag57
(g78
g59
NtRp2343
(dp2344
g62
(dp2345
sg71
g2330
sg64
(lp2346
g57
(g58
g59
NtRp2347
(dp2348
g62
(dp2349
g70
I3
ssg71
g2343
sg64
(lp2350
g906
asbasbasbag57
(g73
g59
NtRp2351
(dp2352
g62
(dp2353
sg71
g2242
sg64
(lp2354
g57
(g78
g59
NtRp2355
(dp2356
g62
(dp2357
g82
g83
ssg71
g2351
sg64
(lp2358
S'HTTP_CONNECTION'
p2359
asbag57
(g78
g59
NtRp2360
(dp2361
g62
(dp2362
g89
g90
ssg71
g2351
sg64
(lp2363
S':'
asbag57
(g78
g59
NtRp2364
(dp2365
g62
(dp2366
sg71
g2351
sg64
(lp2367
g57
(g58
g59
NtRp2368
(dp2369
g62
(dp2370
g70
I3
ssg71
g2364
sg64
(lp2371
g928
asbasbasbag57
(g73
g59
NtRp2372
(dp2373
g62
(dp2374
sg71
g2242
sg64
(lp2375
g57
(g78
g59
NtRp2376
(dp2377
g62
(dp2378
g82
g83
ssg71
g2372
sg64
(lp2379
S'HTTP_COOKIE'
p2380
asbag57
(g78
g59
NtRp2381
(dp2382
g62
(dp2383
g89
g90
ssg71
g2372
sg64
(lp2384
S':'
asbag57
(g78
g59
NtRp2385
(dp2386
g62
(dp2387
sg71
g2372
sg64
(lp2388
g57
(g58
g59
NtRp2389
(dp2390
g62
(dp2391
g70
I3
ssg71
g2385
sg64
(lp2392
g950
asbasbasbag57
(g73
g59
NtRp2393
(dp2394
g62
(dp2395
sg71
g2242
sg64
(lp2396
g57
(g78
g59
NtRp2397
(dp2398
g62
(dp2399
g82
g83
ssg71
g2393
sg64
(lp2400
S'HTTP_HOST'
p2401
asbag57
(g78
g59
NtRp2402
(dp2403
g62
(dp2404
g89
g90
ssg71
g2393
sg64
(lp2405
S':'
asbag57
(g78
g59
NtRp2406
(dp2407
g62
(dp2408
sg71
g2393
sg64
(lp2409
g57
(g58
g59
NtRp2410
(dp2411
g62
(dp2412
g70
I3
ssg71
g2406
sg64
(lp2413
g972
asbasbasbag57
(g73
g59
NtRp2414
(dp2415
g62
(dp2416
sg71
g2242
sg64
(lp2417
g57
(g78
g59
NtRp2418
(dp2419
g62
(dp2420
g82
g83
ssg71
g2414
sg64
(lp2421
S'HTTP_USER_AGENT'
p2422
asbag57
(g78
g59
NtRp2423
(dp2424
g62
(dp2425
g89
g90
ssg71
g2414
sg64
(lp2426
S':'
asbag57
(g78
g59
NtRp2427
(dp2428
g62
(dp2429
sg71
g2414
sg64
(lp2430
g57
(g58
g59
NtRp2431
(dp2432
g62
(dp2433
g70
I3
ssg71
g2427
sg64
(lp2434
g994
asbasbasbag57
(g73
g59
NtRp2435
(dp2436
g62
(dp2437
sg71
g2242
sg64
(lp2438
g57
(g78
g59
NtRp2439
(dp2440
g62
(dp2441
g82
g83
ssg71
g2435
sg64
(lp2442
S'PATH_INFO'
p2443
asbag57
(g78
g59
NtRp2444
(dp2445
g62
(dp2446
g89
g90
ssg71
g2435
sg64
(lp2447
S':'
asbag57
(g78
g59
NtRp2448
(dp2449
g62
(dp2450
sg71
g2435
sg64
(lp2451
g57
(g58
g59
NtRp2452
(dp2453
g62
(dp2454
g70
I3
ssg71
g2448
sg64
(lp2455
g1058
asbasbasbag57
(g73
g59
NtRp2456
(dp2457
g62
(dp2458
sg71
g2242
sg64
(lp2459
g57
(g78
g59
NtRp2460
(dp2461
g62
(dp2462
g82
g83
ssg71
g2456
sg64
(lp2463
S'QUERY_STRING'
p2464
asbag57
(g78
g59
NtRp2465
(dp2466
g62
(dp2467
g89
g90
ssg71
g2456
sg64
(lp2468
S':'
asbag57
(g78
g59
NtRp2469
(dp2470
g62
(dp2471
sg71
g2456
sg64
(lp2472
g57
(g58
g59
NtRp2473
(dp2474
g62
(dp2475
g70
I3
ssg71
g2469
sg64
(lp2476
S''
asbasbasbag57
(g73
g59
NtRp2477
(dp2478
g62
(dp2479
sg71
g2242
sg64
(lp2480
g57
(g78
g59
NtRp2481
(dp2482
g62
(dp2483
g82
g83
ssg71
g2477
sg64
(lp2484
S'REMOTE_ADDR'
p2485
asbag57
(g78
g59
NtRp2486
(dp2487
g62
(dp2488
g89
g90
ssg71
g2477
sg64
(lp2489
S':'
asbag57
(g78
g59
NtRp2490
(dp2491
g62
(dp2492
sg71
g2477
sg64
(lp2493
g57
(g58
g59
NtRp2494
(dp2495
g62
(dp2496
g70
I3
ssg71
g2490
sg64
(lp2497
g190
asbasbasbag57
(g73
g59
NtRp2498
(dp2499
g62
(dp2500
sg71
g2242
sg64
(lp2501
g57
(g78
g59
NtRp2502
(dp2503
g62
(dp2504
g82
g83
ssg71
g2498
sg64
(lp2505
S'REMOTE_PORT'
p2506
asbag57
(g78
g59
NtRp2507
(dp2508
g62
(dp2509
g89
g90
ssg71
g2498
sg64
(lp2510
S':'
asbag57
(g78
g59
NtRp2511
(dp2512
g62
(dp2513
sg71
g2498
sg64
(lp2514
g57
(g58
g59
NtRp2515
(dp2516
g62
(dp2517
g70
I3
ssg71
g2511
sg64
(lp2518
g1122
asbasbasbag57
(g73
g59
NtRp2519
(dp2520
g62
(dp2521
sg71
g2242
sg64
(lp2522
g57
(g78
g59
NtRp2523
(dp2524
g62
(dp2525
g82
g83
ssg71
g2519
sg64
(lp2526
S'REQUEST_METHOD'
p2527
asbag57
(g78
g59
NtRp2528
(dp2529
g62
(dp2530
g89
g90
ssg71
g2519
sg64
(lp2531
S':'
asbag57
(g78
g59
NtRp2532
(dp2533
g62
(dp2534
sg71
g2519
sg64
(lp2535
g57
(g58
g59
NtRp2536
(dp2537
g62
(dp2538
g70
I3
ssg71
g2532
sg64
(lp2539
g1144
asbasbasbag57
(g73
g59
NtRp2540
(dp2541
g62
(dp2542
sg71
g2242
sg64
(lp2543
g57
(g78
g59
NtRp2544
(dp2545
g62
(dp2546
g82
g83
ssg71
g2540
sg64
(lp2547
S'SCRIPT_NAME'
p2548
asbag57
(g78
g59
NtRp2549
(dp2550
g62
(dp2551
g89
g90
ssg71
g2540
sg64
(lp2552
S':'
asbag57
(g78
g59
NtRp2553
(dp2554
g62
(dp2555
sg71
g2540
sg64
(lp2556
g57
(g58
g59
NtRp2557
(dp2558
g62
(dp2559
g70
I3
ssg71
g2553
sg64
(lp2560
S''
asbasbasbag57
(g73
g59
NtRp2561
(dp2562
g62
(dp2563
sg71
g2242
sg64
(lp2564
g57
(g78
g59
NtRp2565
(dp2566
g62
(dp2567
g82
g83
ssg71
g2561
sg64
(lp2568
S'SERVER_NAME'
p2569
asbag57
(g78
g59
NtRp2570
(dp2571
g62
(dp2572
g89
g90
ssg71
g2561
sg64
(lp2573
S':'
asbag57
(g78
g59
NtRp2574
(dp2575
g62
(dp2576
sg71
g2561
sg64
(lp2577
g57
(g58
g59
NtRp2578
(dp2579
g62
(dp2580
g70
I3
ssg71
g2574
sg64
(lp2581
g1187
asbasbasbag57
(g73
g59
NtRp2582
(dp2583
g62
(dp2584
sg71
g2242
sg64
(lp2585
g57
(g78
g59
NtRp2586
(dp2587
g62
(dp2588
g82
g83
ssg71
g2582
sg64
(lp2589
S'SERVER_PORT'
p2590
asbag57
(g78
g59
NtRp2591
(dp2592
g62
(dp2593
g89
g90
ssg71
g2582
sg64
(lp2594
S':'
asbag57
(g78
g59
NtRp2595
(dp2596
g62
(dp2597
sg71
g2582
sg64
(lp2598
g57
(g58
g59
NtRp2599
(dp2600
g62
(dp2601
g70
I3
ssg71
g2595
sg64
(lp2602
g1209
asbasbasbag57
(g73
g59
NtRp2603
(dp2604
g62
(dp2605
sg71
g2242
sg64
(lp2606
g57
(g78
g59
NtRp2607
(dp2608
g62
(dp2609
g82
g83
ssg71
g2603
sg64
(lp2610
S'SERVER_PROTOCOL'
p2611
asbag57
(g78
g59
NtRp2612
(dp2613
g62
(dp2614
g89
g90
ssg71
g2603
sg64
(lp2615
S':'
asbag57
(g78
g59
NtRp2616
(dp2617
g62
(dp2618
sg71
g2603
sg64
(lp2619
g57
(g58
g59
NtRp2620
(dp2621
g62
(dp2622
g70
I3
ssg71
g2616
sg64
(lp2623
g1231
asbasbasbag57
(g73
g59
NtRp2624
(dp2625
g62
(dp2626
sg71
g2242
sg64
(lp2627
g57
(g78
g59
NtRp2628
(dp2629
g62
(dp2630
g82
g83
ssg71
g2624
sg64
(lp2631
S'SERVER_SOFTWARE'
p2632
asbag57
(g78
g59
NtRp2633
(dp2634
g62
(dp2635
g89
g90
ssg71
g2624
sg64
(lp2636
S':'
asbag57
(g78
g59
NtRp2637
(dp2638
g62
(dp2639
sg71
g2624
sg64
(lp2640
g57
(g58
g59
NtRp2641
(dp2642
g62
(dp2643
g70
I3
ssg71
g2637
sg64
(lp2644
g1253
asbasbasbag57
(g73
g59
NtRp2645
(dp2646
g62
(dp2647
sg71
g2242
sg64
(lp2648
g57
(g78
g59
NtRp2649
(dp2650
g62
(dp2651
g82
g83
ssg71
g2645
sg64
(lp2652
S'wsgi.errors'
p2653
asbag57
(g78
g59
NtRp2654
(dp2655
g62
(dp2656
g89
g90
ssg71
g2645
sg64
(lp2657
S':'
asbag57
(g78
g59
NtRp2658
(dp2659
g62
(dp2660
sg71
g2645
sg64
(lp2661
g57
(g58
g59
NtRp2662
(dp2663
g62
(dp2664
g70
I3
ssg71
g2658
sg64
(lp2665
S"<open file '<stderr>', mode 'w' at 0xb72d60d0>"
p2666
asbasbasbag57
(g73
g59
NtRp2667
(dp2668
g62
(dp2669
sg71
g2242
sg64
(lp2670
g57
(g78
g59
NtRp2671
(dp2672
g62
(dp2673
g82
g83
ssg71
g2667
sg64
(lp2674
S'wsgi.file_wrapper'
p2675
asbag57
(g78
g59
NtRp2676
(dp2677
g62
(dp2678
g89
g90
ssg71
g2667
sg64
(lp2679
S':'
asbag57
(g78
g59
NtRp2680
(dp2681
g62
(dp2682
sg71
g2667
sg64
(lp2683
g57
(g58
g59
NtRp2684
(dp2685
g62
(dp2686
g70
I3
ssg71
g2680
sg64
(lp2687
S'<class wsgiref.util.FileWrapper at 0x9d94e9c>'
p2688
asbasbasbag57
(g73
g59
NtRp2689
(dp2690
g62
(dp2691
sg71
g2242
sg64
(lp2692
g57
(g78
g59
NtRp2693
(dp2694
g62
(dp2695
g82
g83
ssg71
g2689
sg64
(lp2696
S'wsgi.input'
p2697
asbag57
(g78
g59
NtRp2698
(dp2699
g62
(dp2700
g89
g90
ssg71
g2689
sg64
(lp2701
S':'
asbag57
(g78
g59
NtRp2702
(dp2703
g62
(dp2704
sg71
g2689
sg64
(lp2705
g57
(g58
g59
NtRp2706
(dp2707
g62
(dp2708
g70
I3
ssg71
g2702
sg64
(lp2709
S'<cStringIO.StringO object at 0xb255b340>'
p2710
asbasbasbag57
(g73
g59
NtRp2711
(dp2712
g62
(dp2713
sg71
g2242
sg64
(lp2714
g57
(g78
g59
NtRp2715
(dp2716
g62
(dp2717
g82
g83
ssg71
g2711
sg64
(lp2718
S'wsgi.multiprocess'
p2719
asbag57
(g78
g59
NtRp2720
(dp2721
g62
(dp2722
g89
g90
ssg71
g2711
sg64
(lp2723
S':'
asbag57
(g78
g59
NtRp2724
(dp2725
g62
(dp2726
sg71
g2711
sg64
(lp2727
g57
(g58
g59
NtRp2728
(dp2729
g62
(dp2730
g70
I3
ssg71
g2724
sg64
(lp2731
g100
asbasbasbag57
(g73
g59
NtRp2732
(dp2733
g62
(dp2734
sg71
g2242
sg64
(lp2735
g57
(g78
g59
NtRp2736
(dp2737
g62
(dp2738
g82
g83
ssg71
g2732
sg64
(lp2739
S'wsgi.multithread'
p2740
asbag57
(g78
g59
NtRp2741
(dp2742
g62
(dp2743
g89
g90
ssg71
g2732
sg64
(lp2744
S':'
asbag57
(g78
g59
NtRp2745
(dp2746
g62
(dp2747
sg71
g2732
sg64
(lp2748
g57
(g58
g59
NtRp2749
(dp2750
g62
(dp2751
g70
I3
ssg71
g2745
sg64
(lp2752
g1493
asbasbasbag57
(g73
g59
NtRp2753
(dp2754
g62
(dp2755
sg71
g2242
sg64
(lp2756
g57
(g78
g59
NtRp2757
(dp2758
g62
(dp2759
g82
g83
ssg71
g2753
sg64
(lp2760
S'wsgi.run_once'
p2761
asbag57
(g78
g59
NtRp2762
(dp2763
g62
(dp2764
g89
g90
ssg71
g2753
sg64
(lp2765
S':'
asbag57
(g78
g59
NtRp2766
(dp2767
g62
(dp2768
sg71
g2753
sg64
(lp2769
g57
(g58
g59
NtRp2770
(dp2771
g62
(dp2772
g70
I3
ssg71
g2766
sg64
(lp2773
g100
asbasbasbag57
(g73
g59
NtRp2774
(dp2775
g62
(dp2776
sg71
g2242
sg64
(lp2777
g57
(g78
g59
NtRp2778
(dp2779
g62
(dp2780
g82
g83
ssg71
g2774
sg64
(lp2781
S'wsgi.url_scheme'
p2782
asbag57
(g78
g59
NtRp2783
(dp2784
g62
(dp2785
g89
g90
ssg71
g2774
sg64
(lp2786
S':'
asbag57
(g78
g59
NtRp2787
(dp2788
g62
(dp2789
sg71
g2774
sg64
(lp2790
g57
(g58
g59
NtRp2791
(dp2792
g62
(dp2793
g70
I3
ssg71
g2787
sg64
(lp2794
g1536
asbasbasbag57
(g73
g59
NtRp2795
(dp2796
g62
(dp2797
sg71
g2242
sg64
(lp2798
g57
(g78
g59
NtRp2799
(dp2800
g62
(dp2801
g82
g83
ssg71
g2795
sg64
(lp2802
S'wsgi.version'
p2803
asbag57
(g78
g59
NtRp2804
(dp2805
g62
(dp2806
g89
g90
ssg71
g2795
sg64
(lp2807
S':'
asbag57
(g78
g59
NtRp2808
(dp2809
g62
(dp2810
sg71
g2795
sg64
(lp2811
g57
(g58
g59
NtRp2812
(dp2813
g62
(dp2814
g70
I3
ssg71
g2808
sg64
(lp2815
S'1'
asbasbasbasbasbasbasbasbasbasbasbasbasbsS'frames'
p2816
(lp2817
(dp2818
S'file'
p2819
S'/home/enigma/web2py/gluon/restricted.py'
p2820
sS'dump'
p2821
(dp2822
S'environment'
p2823
S"{'A': <class 'gluon.html.A'>, 'Auth': <class 'gluon.tools.Auth'>, 'B': <class 'gluon.html.B'>, 'BEAUTIFY': <class 'gluon.html.BEAUTIFY'>, 'BODY': <class 'gluon.html.BODY'>, 'BR': <class 'gluon.html.BR'>, 'BUTTON': <class 'gluon.html.BUTTON'>, 'CAT': <class 'gluon.html.CAT'>, 'CENTER': <class 'gluon.html.CENTER'>, 'CLEANUP': <class 'gluon.validators.CLEANUP'>, ...}"
p2824
sS'ccode'
p2825
S'<code object <module> at 0xa1b8338, file "/home/...ions/911_signin/controllers/default.py", line 12>'
p2826
ssS'lnum'
p2827
I205
sS'lines'
p2828
(dp2829
I200
S'    try:'
p2830
sI201
S'        if type(code) == types.CodeType:'
p2831
sI202
S'            ccode = code'
p2832
sI203
S'        else:'
p2833
sI204
S'            ccode = compile2(code,layer)'
p2834
sI205
S'        exec ccode in environment'
p2835
sI206
S'    except HTTP:'
p2836
sI207
S'        raise'
p2837
sI208
S'    except RestrictedError:'
p2838
sI209
S'        # do not encapsulate (obfuscate) the original RestrictedError'
p2839
ssS'call'
p2840
S"(code='# -*- coding: utf-8 -*-\\n# this file is released ...l=mail)\\n\\nresponse._vars=response._caller(outbox)\\n', environment={'A': <class 'gluon.html.A'>, 'Auth': <class 'gluon.tools.Auth'>, 'B': <class 'gluon.html.B'>, 'BEAUTIFY': <class 'gluon.html.BEAUTIFY'>, 'BODY': <class 'gluon.html.BODY'>, 'BR': <class 'gluon.html.BR'>, 'BUTTON': <class 'gluon.html.BUTTON'>, 'CAT': <class 'gluon.html.CAT'>, 'CENTER': <class 'gluon.html.CENTER'>, 'CLEANUP': <class 'gluon.validators.CLEANUP'>, ...}, layer='/home/enigma/web2py/applications/911_signin/controllers/default.py')"
p2841
sS'func'
p2842
S'restricted'
p2843
sa(dp2844
g2819
S'/home/enigma/web2py/applications/911_signin/controllers/default.py'
p2845
sg2821
(dp2846
sg2827
I144
sg2828
(dp2847
I133
S''
sI134
S'@auth.requires_login()'
p2848
sI135
S'def outbox():'
p2849
sI136
S'\toutbox=db(db.message.sender == auth.user.username).select(db.message.id, db.message.reciever,db.message.subject, message.read, orderby=~db.message.id )'
p2850
sI137
S'\treturn dict(outbox=outbox)'
p2851
sI138
S''
sI139
S'@auth.requires_login()'
p2852
sI140
S'def sent_message():'
p2853
sI141
S'\tmail = db.message(request.args(0))'
p2854
sI142
S'\treturn dict(mail=mail)'
p2855
ssg2840
S'()'
p2856
sg2842
S'<module>'
p2857
sa(dp2858
g2819
S'/home/enigma/web2py/gluon/globals.py'
p2859
sg2821
(dp2860
S'self'
p2861
S'undefined'
p2862
sS'f'
S'<function outbox>'
p2863
ssg2827
I173
sg2828
(dp2864
I168
S'        self.menu = []             # used by the default view layout'
p2865
sI169
S'        self.files = []            # used by web2py_ajax.html'
p2866
sI170
S'        self.generic_patterns = [] # patterns to allow generic views'
p2867
sI171
S"        self.delimiters = ('{{','}}')"
p2868
sI172
S'        self._vars = None'
p2869
sI173
S'        self._caller = lambda f: f()'
p2870
sI174
S'        self._view_environment = None'
p2871
sI175
S'        self._custom_commit = None'
p2872
sI176
S'        self._custom_rollback = None'
p2873
sI177
S''
ssg2840
S'(f=<function outbox>)'
p2874
sg2842
S'<lambda>'
p2875
sa(dp2876
g2819
S'/home/enigma/web2py/gluon/tools.py'
p2877
sg2821
(dp2878
S'action'
p2879
S'<function outbox>'
p2880
sS'a'
S'()'
p2881
sS'b'
g45
ssg2827
I2580
sg2828
(dp2882
I2575
S'                    flag = condition'
p2883
sI2576
S'                if not flag:'
p2884
sI2577
S'                    current.session.flash = self.messages.access_denied'
p2885
sI2578
S'                    return call_or_redirect('
p2886
sI2579
S'                        self.settings.on_failed_authorization)'
p2887
sI2580
S'                return action(*a, **b)'
p2888
sI2581
S'            f.__doc__ = action.__doc__'
p2889
sI2582
S'            f.__name__ = action.__name__'
p2890
sI2583
S'            f.__dict__.update(action.__dict__)'
p2891
sI2584
S'            return f'
p2892
ssg2840
S'(*a=(), **b={})'
p2893
sg2842
S'f'
sa(dp2894
g2819
S'/home/enigma/web2py/applications/911_signin/controllers/default.py'
p2895
sg2821
(dp2896
S'orderby'
p2897
g2862
sS'global message'
p2898
S'<function message>'
p2899
sS'db.message.reciever'
p2900
S'<gluon.dal.Field object>'
p2901
sS'auth.user.username'
p2902
S"'test'"
p2903
sS'auth.user'
p2904
S"<Storage {'username': 'test', 'first_name': 'Tes...f11fa75678e8', 'registration_key': '', 'id': 13}>"
p2905
sS'message.read'
p2906
g2862
sS'global outbox'
p2907
S'<function outbox>'
p2908
sS'global auth'
p2909
S'<gluon.tools.Auth object>'
p2910
sS').select'
p2911
g2862
sS'db.message.subject'
p2912
S'<gluon.dal.Field object>'
p2913
sS'db.message'
p2914
S"<Table {'_db': <DAL {'auth_event': <Table {'orig...ciever': <gluon.dal.Field object at 0xadb8016c>}>"
p2915
sS'db.message.sender'
p2916
S'<gluon.dal.Field object>'
p2917
sS'global db'
p2918
S"<DAL {'auth_event': <Table {'origin': <gluon.dal...n_key': <gluon.dal.Field object at 0xa0f3bec>}>}>"
p2919
sS'db.message.id'
p2920
S'<gluon.dal.Field object>'
p2921
ssg2827
I136
sg2828
(dp2922
I131
S'\t\tdb.auth_users[auth.user.id]\t= dict(unread_ctr=ctr)'
p2923
sI132
S'\treturn dict(mail=mail)'
p2924
sI133
S''
sI134
S'@auth.requires_login()'
p2925
sI135
S'def outbox():'
p2926
sI136
S'\toutbox=db(db.message.sender == auth.user.username).select(db.message.id, db.message.reciever,db.message.subject, message.read, orderby=~db.message.id )'
p2927
sI137
S'\treturn dict(outbox=outbox)'
p2928
sI138
S''
sI139
S'@auth.requires_login()'
p2929
sI140
S'def sent_message():'
p2930
ssg2840
S'()'
p2931
sg2842
S'outbox'
p2932
sasS'pyver'
p2933
S'Python 2.7.3: /usr/bin/python'
p2934
sS'session'
p2935
g57
(g58
g59
NtRp2936
(dp2937
g62
(dp2938
sg64
(lp2939
g57
(g66
g59
NtRp2940
(dp2941
g62
(dp2942
g70
I5
ssg71
Nsg64
(lp2943
g57
(g73
g59
NtRp2944
(dp2945
g62
(dp2946
sg71
g2940
sg64
(lp2947
g57
(g78
g59
NtRp2948
(dp2949
g62
(dp2950
g82
g83
ssg71
g2944
sg64
(lp2951
S'auth'
p2952
asbag57
(g78
g59
NtRp2953
(dp2954
g62
(dp2955
g89
g90
ssg71
g2944
sg64
(lp2956
S':'
asbag57
(g78
g59
NtRp2957
(dp2958
g62
(dp2959
sg71
g2944
sg64
(lp2960
g57
(g58
g59
NtRp2961
(dp2962
g62
(dp2963
g70
I5
ssg71
g2957
sg64
(lp2964
g57
(g66
g59
NtRp2965
(dp2966
g62
(dp2967
g70
I4
ssg71
Nsg64
(lp2968
g57
(g73
g59
NtRp2969
(dp2970
g62
(dp2971
sg71
g2965
sg64
(lp2972
g57
(g78
g59
NtRp2973
(dp2974
g62
(dp2975
g82
g83
ssg71
g2969
sg64
(lp2976
S'expiration'
p2977
asbag57
(g78
g59
NtRp2978
(dp2979
g62
(dp2980
g89
g90
ssg71
g2969
sg64
(lp2981
S':'
asbag57
(g78
g59
NtRp2982
(dp2983
g62
(dp2984
sg71
g2969
sg64
(lp2985
g57
(g58
g59
NtRp2986
(dp2987
g62
(dp2988
g70
I4
ssg71
g2982
sg64
(lp2989
S'3600'
p2990
asbasbasbag57
(g73
g59
NtRp2991
(dp2992
g62
(dp2993
sg71
g2965
sg64
(lp2994
g57
(g78
g59
NtRp2995
(dp2996
g62
(dp2997
g82
g83
ssg71
g2991
sg64
(lp2998
S'hmac_key'
p2999
asbag57
(g78
g59
NtRp3000
(dp3001
g62
(dp3002
g89
g90
ssg71
g2991
sg64
(lp3003
S':'
asbag57
(g78
g59
NtRp3004
(dp3005
g62
(dp3006
sg71
g2991
sg64
(lp3007
g57
(g58
g59
NtRp3008
(dp3009
g62
(dp3010
g70
I4
ssg71
g3004
sg64
(lp3011
S'b13a891a-74f8-4177-af93-9a96487cc567'
p3012
asbasbasbag57
(g73
g59
NtRp3013
(dp3014
g62
(dp3015
sg71
g2965
sg64
(lp3016
g57
(g78
g59
NtRp3017
(dp3018
g62
(dp3019
g82
g83
ssg71
g3013
sg64
(lp3020
S'last_visit'
p3021
asbag57
(g78
g59
NtRp3022
(dp3023
g62
(dp3024
g89
g90
ssg71
g3013
sg64
(lp3025
S':'
asbag57
(g78
g59
NtRp3026
(dp3027
g62
(dp3028
sg71
g3013
sg64
(lp3029
g57
(g58
g59
NtRp3030
(dp3031
g62
(dp3032
g70
I4
ssg71
g3026
sg64
(lp3033
S'datetime.datetime(2013, 6, 3, 21, 16, 58, 195457)'
p3034
asbasbasbag57
(g73
g59
NtRp3035
(dp3036
g62
(dp3037
sg71
g2965
sg64
(lp3038
g57
(g78
g59
NtRp3039
(dp3040
g62
(dp3041
g82
g83
ssg71
g3035
sg64
(lp3042
S'remember'
p3043
asbag57
(g78
g59
NtRp3044
(dp3045
g62
(dp3046
g89
g90
ssg71
g3035
sg64
(lp3047
S':'
asbag57
(g78
g59
NtRp3048
(dp3049
g62
(dp3050
sg71
g3035
sg64
(lp3051
g57
(g58
g59
NtRp3052
(dp3053
g62
(dp3054
g70
I4
ssg71
g3048
sg64
(lp3055
g100
asbasbasbag57
(g73
g59
NtRp3056
(dp3057
g62
(dp3058
sg71
g2965
sg64
(lp3059
g57
(g78
g59
NtRp3060
(dp3061
g62
(dp3062
g82
g83
ssg71
g3056
sg64
(lp3063
S'user'
p3064
asbag57
(g78
g59
NtRp3065
(dp3066
g62
(dp3067
g89
g90
ssg71
g3056
sg64
(lp3068
S':'
asbag57
(g78
g59
NtRp3069
(dp3070
g62
(dp3071
sg71
g3056
sg64
(lp3072
g57
(g58
g59
NtRp3073
(dp3074
g62
(dp3075
g70
I4
ssg71
g3069
sg64
(lp3076
g57
(g66
g59
NtRp3077
(dp3078
g62
(dp3079
g70
I3
ssg71
Nsg64
(lp3080
g57
(g73
g59
NtRp3081
(dp3082
g62
(dp3083
sg71
g3077
sg64
(lp3084
g57
(g78
g59
NtRp3085
(dp3086
g62
(dp3087
g82
g83
ssg71
g3081
sg64
(lp3088
S'email'
p3089
asbag57
(g78
g59
NtRp3090
(dp3091
g62
(dp3092
g89
g90
ssg71
g3081
sg64
(lp3093
S':'
asbag57
(g78
g59
NtRp3094
(dp3095
g62
(dp3096
sg71
g3081
sg64
(lp3097
g57
(g58
g59
NtRp3098
(dp3099
g62
(dp3100
g70
I3
ssg71
g3094
sg64
(lp3101
S'abcd@gmail.com'
p3102
asbasbasbag57
(g73
g59
NtRp3103
(dp3104
g62
(dp3105
sg71
g3077
sg64
(lp3106
g57
(g78
g59
NtRp3107
(dp3108
g62
(dp3109
g82
g83
ssg71
g3103
sg64
(lp3110
S'first_name'
p3111
asbag57
(g78
g59
NtRp3112
(dp3113
g62
(dp3114
g89
g90
ssg71
g3103
sg64
(lp3115
S':'
asbag57
(g78
g59
NtRp3116
(dp3117
g62
(dp3118
sg71
g3103
sg64
(lp3119
g57
(g58
g59
NtRp3120
(dp3121
g62
(dp3122
g70
I3
ssg71
g3116
sg64
(lp3123
S'Test'
p3124
asbasbasbag57
(g73
g59
NtRp3125
(dp3126
g62
(dp3127
sg71
g3077
sg64
(lp3128
g57
(g78
g59
NtRp3129
(dp3130
g62
(dp3131
g82
g83
ssg71
g3125
sg64
(lp3132
S'id'
p3133
asbag57
(g78
g59
NtRp3134
(dp3135
g62
(dp3136
g89
g90
ssg71
g3125
sg64
(lp3137
S':'
asbag57
(g78
g59
NtRp3138
(dp3139
g62
(dp3140
sg71
g3125
sg64
(lp3141
g57
(g58
g59
NtRp3142
(dp3143
g62
(dp3144
g70
I3
ssg71
g3138
sg64
(lp3145
S'13'
p3146
asbasbasbag57
(g73
g59
NtRp3147
(dp3148
g62
(dp3149
sg71
g3077
sg64
(lp3150
g57
(g78
g59
NtRp3151
(dp3152
g62
(dp3153
g82
g83
ssg71
g3147
sg64
(lp3154
S'last_name'
p3155
asbag57
(g78
g59
NtRp3156
(dp3157
g62
(dp3158
g89
g90
ssg71
g3147
sg64
(lp3159
S':'
asbag57
(g78
g59
NtRp3160
(dp3161
g62
(dp3162
sg71
g3147
sg64
(lp3163
g57
(g58
g59
NtRp3164
(dp3165
g62
(dp3166
g70
I3
ssg71
g3160
sg64
(lp3167
S'User'
p3168
asbasbasbag57
(g73
g59
NtRp3169
(dp3170
g62
(dp3171
sg71
g3077
sg64
(lp3172
g57
(g78
g59
NtRp3173
(dp3174
g62
(dp3175
g82
g83
ssg71
g3169
sg64
(lp3176
S'password'
p3177
asbag57
(g78
g59
NtRp3178
(dp3179
g62
(dp3180
g89
g90
ssg71
g3169
sg64
(lp3181
S':'
asbag57
(g78
g59
NtRp3182
(dp3183
g62
(dp3184
sg71
g3169
sg64
(lp3185
g57
(g58
g59
NtRp3186
(dp3187
g62
(dp3188
g70
I3
ssg71
g3182
sg64
(lp3189
S'99adc231b045331e514a516b4b7680f588e3823213abe901738bc3ad67b2f6fcb3c64efb93d18002588d3ccc1a49efbae1ce20cb43df36b38651f11fa75678e8'
p3190
asbasbasbag57
(g73
g59
NtRp3191
(dp3192
g62
(dp3193
sg71
g3077
sg64
(lp3194
g57
(g78
g59
NtRp3195
(dp3196
g62
(dp3197
g82
g83
ssg71
g3191
sg64
(lp3198
S'registration_key'
p3199
asbag57
(g78
g59
NtRp3200
(dp3201
g62
(dp3202
g89
g90
ssg71
g3191
sg64
(lp3203
S':'
asbag57
(g78
g59
NtRp3204
(dp3205
g62
(dp3206
sg71
g3191
sg64
(lp3207
g57
(g58
g59
NtRp3208
(dp3209
g62
(dp3210
g70
I3
ssg71
g3204
sg64
(lp3211
S''
asbasbasbag57
(g73
g59
NtRp3212
(dp3213
g62
(dp3214
sg71
g3077
sg64
(lp3215
g57
(g78
g59
NtRp3216
(dp3217
g62
(dp3218
g82
g83
ssg71
g3212
sg64
(lp3219
S'unread_ctr'
p3220
asbag57
(g78
g59
NtRp3221
(dp3222
g62
(dp3223
g89
g90
ssg71
g3212
sg64
(lp3224
S':'
asbag57
(g78
g59
NtRp3225
(dp3226
g62
(dp3227
sg71
g3212
sg64
(lp3228
g57
(g58
g59
NtRp3229
(dp3230
g62
(dp3231
g70
I3
ssg71
g3225
sg64
(lp3232
S'0'
asbasbasbag57
(g73
g59
NtRp3233
(dp3234
g62
(dp3235
sg71
g3077
sg64
(lp3236
g57
(g78
g59
NtRp3237
(dp3238
g62
(dp3239
g82
g83
ssg71
g3233
sg64
(lp3240
S'username'
p3241
asbag57
(g78
g59
NtRp3242
(dp3243
g62
(dp3244
g89
g90
ssg71
g3233
sg64
(lp3245
S':'
asbag57
(g78
g59
NtRp3246
(dp3247
g62
(dp3248
sg71
g3233
sg64
(lp3249
g57
(g58
g59
NtRp3250
(dp3251
g62
(dp3252
g70
I3
ssg71
g3246
sg64
(lp3253
S'test'
p3254
asbasbasbasbasbasbasbag57
(g73
g59
NtRp3255
(dp3256
g62
(dp3257
sg71
g2965
sg64
(lp3258
g57
(g78
g59
NtRp3259
(dp3260
g62
(dp3261
g82
g83
ssg71
g3255
sg64
(lp3262
S'user_groups'
p3263
asbag57
(g78
g59
NtRp3264
(dp3265
g62
(dp3266
g89
g90
ssg71
g3255
sg64
(lp3267
S':'
asbag57
(g78
g59
NtRp3268
(dp3269
g62
(dp3270
sg71
g3255
sg64
(lp3271
g57
(g58
g59
NtRp3272
(dp3273
g62
(dp3274
g70
I4
ssg71
g3268
sg64
(lp3275
g57
(g66
g59
NtRp3276
(dp3277
g62
(dp3278
g70
I3
ssg71
Nsg64
(lp3279
g57
(g73
g59
NtRp3280
(dp3281
g62
(dp3282
sg71
g3276
sg64
(lp3283
g57
(g78
g59
NtRp3284
(dp3285
g62
(dp3286
g82
g83
ssg71
g3280
sg64
(lp3287
S'14'
p3288
asbag57
(g78
g59
NtRp3289
(dp3290
g62
(dp3291
g89
g90
ssg71
g3280
sg64
(lp3292
S':'
asbag57
(g78
g59
NtRp3293
(dp3294
g62
(dp3295
sg71
g3280
sg64
(lp3296
g57
(g58
g59
NtRp3297
(dp3298
g62
(dp3299
g70
I3
ssg71
g3293
sg64
(lp3300
S'user_13'
p3301
asbasbasbasbasbasbasbasbasbasbasbag57
(g73
g59
NtRp3302
(dp3303
g62
(dp3304
sg71
g2940
sg64
(lp3305
g57
(g78
g59
NtRp3306
(dp3307
g62
(dp3308
g82
g83
ssg71
g3302
sg64
(lp3309
S'last_query'
p3310
asbag57
(g78
g59
NtRp3311
(dp3312
g62
(dp3313
g89
g90
ssg71
g3302
sg64
(lp3314
S':'
asbag57
(g78
g59
NtRp3315
(dp3316
g62
(dp3317
sg71
g3302
sg64
(lp3318
g57
(g58
g59
NtRp3319
(dp3320
g62
(dp3321
g70
I5
ssg71
g3315
sg64
(lp3322
S'db.auth_users.id>0'
p3323
asbasbasbasbasbsS'etype'
p3324
S"<type 'exceptions.AttributeError'>"
p3325
sS'date'
p3326
S'Mon Jun  3 21:16:58 2013'
p3327
sS'response'
p3328
g57
(g58
g59
NtRp3329
(dp3330
g62
(dp3331
sg64
(lp3332
g57
(g66
g59
NtRp3333
(dp3334
g62
(dp3335
g70
I5
ssg71
Nsg64
(lp3336
g57
(g73
g59
NtRp3337
(dp3338
g62
(dp3339
sg71
g3333
sg64
(lp3340
g57
(g78
g59
NtRp3341
(dp3342
g62
(dp3343
g82
g83
ssg71
g3337
sg64
(lp3344
g155
asbag57
(g78
g59
NtRp3345
(dp3346
g62
(dp3347
g89
g90
ssg71
g3337
sg64
(lp3348
S':'
asbag57
(g78
g59
NtRp3349
(dp3350
g62
(dp3351
sg71
g3337
sg64
(lp3352
g57
(g58
g59
NtRp3353
(dp3354
g62
(dp3355
g70
I5
ssg71
g3349
sg64
(lp3356
S'<cStringIO.StringO object at 0xb2578ca0>'
p3357
asbasbasbag57
(g73
g59
NtRp3358
(dp3359
g62
(dp3360
sg71
g3333
sg64
(lp3361
g57
(g78
g59
NtRp3362
(dp3363
g62
(dp3364
g82
g83
ssg71
g3358
sg64
(lp3365
g221
asbag57
(g78
g59
NtRp3366
(dp3367
g62
(dp3368
g89
g90
ssg71
g3358
sg64
(lp3369
S':'
asbag57
(g78
g59
NtRp3370
(dp3371
g62
(dp3372
sg71
g3358
sg64
(lp3373
g57
(g58
g59
NtRp3374
(dp3375
g62
(dp3376
g70
I5
ssg71
g3370
sg64
(lp3377
g57
(g66
g59
NtRp3378
(dp3379
g62
(dp3380
g70
I4
ssg71
Nsg64
(lp3381
g57
(g73
g59
NtRp3382
(dp3383
g62
(dp3384
sg71
g3378
sg64
(lp3385
g57
(g78
g59
NtRp3386
(dp3387
g62
(dp3388
g82
g83
ssg71
g3382
sg64
(lp3389
S'session_id_911_signin'
p3390
asbag57
(g78
g59
NtRp3391
(dp3392
g62
(dp3393
g89
g90
ssg71
g3382
sg64
(lp3394
S':'
asbag57
(g78
g59
NtRp3395
(dp3396
g62
(dp3397
sg71
g3382
sg64
(lp3398
g57
(g58
g59
NtRp3399
(dp3400
g62
(dp3401
g70
I4
ssg71
g3395
sg64
(lp3402
g57
(g66
g59
NtRp3403
(dp3404
g62
(dp3405
g70
I3
ssg71
Nsg64
(lp3406
g57
(g73
g59
NtRp3407
(dp3408
g62
(dp3409
sg71
g3403
sg64
(lp3410
g57
(g78
g59
NtRp3411
(dp3412
g62
(dp3413
g82
g83
ssg71
g3407
sg64
(lp3414
g271
asbag57
(g78
g59
NtRp3415
(dp3416
g62
(dp3417
g89
g90
ssg71
g3407
sg64
(lp3418
S':'
asbag57
(g78
g59
NtRp3419
(dp3420
g62
(dp3421
sg71
g3407
sg64
(lp3422
g57
(g58
g59
NtRp3423
(dp3424
g62
(dp3425
g70
I3
ssg71
g3419
sg64
(lp3426
S''
asbasbasbag57
(g73
g59
NtRp3427
(dp3428
g62
(dp3429
sg71
g3403
sg64
(lp3430
g57
(g78
g59
NtRp3431
(dp3432
g62
(dp3433
g82
g83
ssg71
g3427
sg64
(lp3434
g292
asbag57
(g78
g59
NtRp3435
(dp3436
g62
(dp3437
g89
g90
ssg71
g3427
sg64
(lp3438
S':'
asbag57
(g78
g59
NtRp3439
(dp3440
g62
(dp3441
sg71
g3427
sg64
(lp3442
g57
(g58
g59
NtRp3443
(dp3444
g62
(dp3445
g70
I3
ssg71
g3439
sg64
(lp3446
S''
asbasbasbag57
(g73
g59
NtRp3447
(dp3448
g62
(dp3449
sg71
g3403
sg64
(lp3450
g57
(g78
g59
NtRp3451
(dp3452
g62
(dp3453
g82
g83
ssg71
g3447
sg64
(lp3454
g313
asbag57
(g78
g59
NtRp3455
(dp3456
g62
(dp3457
g89
g90
ssg71
g3447
sg64
(lp3458
S':'
asbag57
(g78
g59
NtRp3459
(dp3460
g62
(dp3461
sg71
g3447
sg64
(lp3462
g57
(g58
g59
NtRp3463
(dp3464
g62
(dp3465
g70
I3
ssg71
g3459
sg64
(lp3466
S''
asbasbasbag57
(g73
g59
NtRp3467
(dp3468
g62
(dp3469
sg71
g3403
sg64
(lp3470
g57
(g78
g59
NtRp3471
(dp3472
g62
(dp3473
g82
g83
ssg71
g3467
sg64
(lp3474
g334
asbag57
(g78
g59
NtRp3475
(dp3476
g62
(dp3477
g89
g90
ssg71
g3467
sg64
(lp3478
S':'
asbag57
(g78
g59
NtRp3479
(dp3480
g62
(dp3481
sg71
g3467
sg64
(lp3482
g57
(g58
g59
NtRp3483
(dp3484
g62
(dp3485
g70
I3
ssg71
g3479
sg64
(lp3486
S''
asbasbasbag57
(g73
g59
NtRp3487
(dp3488
g62
(dp3489
sg71
g3403
sg64
(lp3490
g57
(g78
g59
NtRp3491
(dp3492
g62
(dp3493
g82
g83
ssg71
g3487
sg64
(lp3494
g355
asbag57
(g78
g59
NtRp3495
(dp3496
g62
(dp3497
g89
g90
ssg71
g3487
sg64
(lp3498
S':'
asbag57
(g78
g59
NtRp3499
(dp3500
g62
(dp3501
sg71
g3487
sg64
(lp3502
g57
(g58
g59
NtRp3503
(dp3504
g62
(dp3505
g70
I3
ssg71
g3499
sg64
(lp3506
S''
asbasbasbag57
(g73
g59
NtRp3507
(dp3508
g62
(dp3509
sg71
g3403
sg64
(lp3510
g57
(g78
g59
NtRp3511
(dp3512
g62
(dp3513
g82
g83
ssg71
g3507
sg64
(lp3514
g376
asbag57
(g78
g59
NtRp3515
(dp3516
g62
(dp3517
g89
g90
ssg71
g3507
sg64
(lp3518
S':'
asbag57
(g78
g59
NtRp3519
(dp3520
g62
(dp3521
sg71
g3507
sg64
(lp3522
g57
(g58
g59
NtRp3523
(dp3524
g62
(dp3525
g70
I3
ssg71
g3519
sg64
(lp3526
S'/'
asbasbasbag57
(g73
g59
NtRp3527
(dp3528
g62
(dp3529
sg71
g3403
sg64
(lp3530
g57
(g78
g59
NtRp3531
(dp3532
g62
(dp3533
g82
g83
ssg71
g3527
sg64
(lp3534
g397
asbag57
(g78
g59
NtRp3535
(dp3536
g62
(dp3537
g89
g90
ssg71
g3527
sg64
(lp3538
S':'
asbag57
(g78
g59
NtRp3539
(dp3540
g62
(dp3541
sg71
g3527
sg64
(lp3542
g57
(g58
g59
NtRp3543
(dp3544
g62
(dp3545
g70
I3
ssg71
g3539
sg64
(lp3546
S''
asbasbasbag57
(g73
g59
NtRp3547
(dp3548
g62
(dp3549
sg71
g3403
sg64
(lp3550
g57
(g78
g59
NtRp3551
(dp3552
g62
(dp3553
g82
g83
ssg71
g3547
sg64
(lp3554
g418
asbag57
(g78
g59
NtRp3555
(dp3556
g62
(dp3557
g89
g90
ssg71
g3547
sg64
(lp3558
S':'
asbag57
(g78
g59
NtRp3559
(dp3560
g62
(dp3561
sg71
g3547
sg64
(lp3562
g57
(g58
g59
NtRp3563
(dp3564
g62
(dp3565
g70
I3
ssg71
g3559
sg64
(lp3566
S''
asbasbasbasbasbasbasbasbasbasbasbag57
(g73
g59
NtRp3567
(dp3568
g62
(dp3569
sg71
g3333
sg64
(lp3570
g57
(g78
g59
NtRp3571
(dp3572
g62
(dp3573
g82
g83
ssg71
g3567
sg64
(lp3574
S'delimiters'
p3575
asbag57
(g78
g59
NtRp3576
(dp3577
g62
(dp3578
g89
g90
ssg71
g3567
sg64
(lp3579
S':'
asbag57
(g78
g59
NtRp3580
(dp3581
g62
(dp3582
sg71
g3567
sg64
(lp3583
g57
(g58
g59
NtRp3584
(dp3585
g62
(dp3586
g70
I5
ssg71
g3580
sg64
(lp3587
g57
(g66
g59
NtRp3588
(dp3589
g62
(dp3590
g70
I4
ssg71
Nsg64
(lp3591
g57
(g73
g59
NtRp3592
(dp3593
g62
(dp3594
sg71
g3588
sg64
(lp3595
g57
(g78
g59
NtRp3596
(dp3597
g62
(dp3598
sg71
g3592
sg64
(lp3599
g57
(g58
g59
NtRp3600
(dp3601
g62
(dp3602
g70
I4
ssg71
g3596
sg64
(lp3603
S'{{'
p3604
asbasbasbag57
(g73
g59
NtRp3605
(dp3606
g62
(dp3607
sg71
g3588
sg64
(lp3608
g57
(g78
g59
NtRp3609
(dp3610
g62
(dp3611
sg71
g3605
sg64
(lp3612
g57
(g58
g59
NtRp3613
(dp3614
g62
(dp3615
g70
I4
ssg71
g3609
sg64
(lp3616
S'}}'
p3617
asbasbasbasbasbasbasbag57
(g73
g59
NtRp3618
(dp3619
g62
(dp3620
sg71
g3333
sg64
(lp3621
g57
(g78
g59
NtRp3622
(dp3623
g62
(dp3624
g82
g83
ssg71
g3618
sg64
(lp3625
S'files'
p3626
asbag57
(g78
g59
NtRp3627
(dp3628
g62
(dp3629
g89
g90
ssg71
g3618
sg64
(lp3630
S':'
asbag57
(g78
g59
NtRp3631
(dp3632
g62
(dp3633
sg71
g3618
sg64
(lp3634
g57
(g58
g59
NtRp3635
(dp3636
g62
(dp3637
g70
I5
ssg71
g3631
sg64
(lp3638
g57
(g66
g59
NtRp3639
(dp3640
g62
(dp3641
g70
I4
ssg71
Nsg64
(lp3642
sbasbasbasbag57
(g73
g59
NtRp3643
(dp3644
g62
(dp3645
sg71
g3333
sg64
(lp3646
g57
(g78
g59
NtRp3647
(dp3648
g62
(dp3649
g82
g83
ssg71
g3643
sg64
(lp3650
S'flash'
p3651
asbag57
(g78
g59
NtRp3652
(dp3653
g62
(dp3654
g89
g90
ssg71
g3643
sg64
(lp3655
S':'
asbag57
(g78
g59
NtRp3656
(dp3657
g62
(dp3658
sg71
g3643
sg64
(lp3659
g57
(g58
g59
NtRp3660
(dp3661
g62
(dp3662
g70
I5
ssg71
g3656
sg64
(lp3663
S''
asbasbasbag57
(g73
g59
NtRp3664
(dp3665
g62
(dp3666
sg71
g3333
sg64
(lp3667
g57
(g78
g59
NtRp3668
(dp3669
g62
(dp3670
g82
g83
ssg71
g3664
sg64
(lp3671
S'generic_patterns'
p3672
asbag57
(g78
g59
NtRp3673
(dp3674
g62
(dp3675
g89
g90
ssg71
g3664
sg64
(lp3676
S':'
asbag57
(g78
g59
NtRp3677
(dp3678
g62
(dp3679
sg71
g3664
sg64
(lp3680
g57
(g58
g59
NtRp3681
(dp3682
g62
(dp3683
g70
I5
ssg71
g3677
sg64
(lp3684
g57
(g66
g59
NtRp3685
(dp3686
g62
(dp3687
g70
I4
ssg71
Nsg64
(lp3688
g57
(g73
g59
NtRp3689
(dp3690
g62
(dp3691
sg71
g3685
sg64
(lp3692
g57
(g78
g59
NtRp3693
(dp3694
g62
(dp3695
sg71
g3689
sg64
(lp3696
g57
(g58
g59
NtRp3697
(dp3698
g62
(dp3699
g70
I4
ssg71
g3693
sg64
(lp3700
S'*'
asbasbasbasbasbasbasbag57
(g73
g59
NtRp3701
(dp3702
g62
(dp3703
sg71
g3333
sg64
(lp3704
g57
(g78
g59
NtRp3705
(dp3706
g62
(dp3707
g82
g83
ssg71
g3701
sg64
(lp3708
S'headers'
p3709
asbag57
(g78
g59
NtRp3710
(dp3711
g62
(dp3712
g89
g90
ssg71
g3701
sg64
(lp3713
S':'
asbag57
(g78
g59
NtRp3714
(dp3715
g62
(dp3716
sg71
g3701
sg64
(lp3717
g57
(g58
g59
NtRp3718
(dp3719
g62
(dp3720
g70
I5
ssg71
g3714
sg64
(lp3721
g57
(g66
g59
NtRp3722
(dp3723
g62
(dp3724
g70
I4
ssg71
Nsg64
(lp3725
g57
(g73
g59
NtRp3726
(dp3727
g62
(dp3728
sg71
g3722
sg64
(lp3729
g57
(g78
g59
NtRp3730
(dp3731
g62
(dp3732
g82
g83
ssg71
g3726
sg64
(lp3733
S'Cache-Control'
p3734
asbag57
(g78
g59
NtRp3735
(dp3736
g62
(dp3737
g89
g90
ssg71
g3726
sg64
(lp3738
S':'
asbag57
(g78
g59
NtRp3739
(dp3740
g62
(dp3741
sg71
g3726
sg64
(lp3742
g57
(g58
g59
NtRp3743
(dp3744
g62
(dp3745
g70
I4
ssg71
g3739
sg64
(lp3746
S'no-store, no-cache, must-revalidate, post-check=0, pre-check=0'
p3747
asbasbasbag57
(g73
g59
NtRp3748
(dp3749
g62
(dp3750
sg71
g3722
sg64
(lp3751
g57
(g78
g59
NtRp3752
(dp3753
g62
(dp3754
g82
g83
ssg71
g3748
sg64
(lp3755
S'Content-Type'
p3756
asbag57
(g78
g59
NtRp3757
(dp3758
g62
(dp3759
g89
g90
ssg71
g3748
sg64
(lp3760
S':'
asbag57
(g78
g59
NtRp3761
(dp3762
g62
(dp3763
sg71
g3748
sg64
(lp3764
g57
(g58
g59
NtRp3765
(dp3766
g62
(dp3767
g70
I4
ssg71
g3761
sg64
(lp3768
S'text/html; charset=utf-8'
p3769
asbasbasbag57
(g73
g59
NtRp3770
(dp3771
g62
(dp3772
sg71
g3722
sg64
(lp3773
g57
(g78
g59
NtRp3774
(dp3775
g62
(dp3776
g82
g83
ssg71
g3770
sg64
(lp3777
S'Expires'
p3778
asbag57
(g78
g59
NtRp3779
(dp3780
g62
(dp3781
g89
g90
ssg71
g3770
sg64
(lp3782
S':'
asbag57
(g78
g59
NtRp3783
(dp3784
g62
(dp3785
sg71
g3770
sg64
(lp3786
g57
(g58
g59
NtRp3787
(dp3788
g62
(dp3789
g70
I4
ssg71
g3783
sg64
(lp3790
S'Mon, 03 Jun 2013 15:46:58 GMT'
p3791
asbasbasbag57
(g73
g59
NtRp3792
(dp3793
g62
(dp3794
sg71
g3722
sg64
(lp3795
g57
(g78
g59
NtRp3796
(dp3797
g62
(dp3798
g82
g83
ssg71
g3792
sg64
(lp3799
S'Pragma'
p3800
asbag57
(g78
g59
NtRp3801
(dp3802
g62
(dp3803
g89
g90
ssg71
g3792
sg64
(lp3804
S':'
asbag57
(g78
g59
NtRp3805
(dp3806
g62
(dp3807
sg71
g3792
sg64
(lp3808
g57
(g58
g59
NtRp3809
(dp3810
g62
(dp3811
g70
I4
ssg71
g3805
sg64
(lp3812
S'no-cache'
p3813
asbasbasbag57
(g73
g59
NtRp3814
(dp3815
g62
(dp3816
sg71
g3722
sg64
(lp3817
g57
(g78
g59
NtRp3818
(dp3819
g62
(dp3820
g82
g83
ssg71
g3814
sg64
(lp3821
S'X-Powered-By'
p3822
asbag57
(g78
g59
NtRp3823
(dp3824
g62
(dp3825
g89
g90
ssg71
g3814
sg64
(lp3826
S':'
asbag57
(g78
g59
NtRp3827
(dp3828
g62
(dp3829
sg71
g3814
sg64
(lp3830
g57
(g58
g59
NtRp3831
(dp3832
g62
(dp3833
g70
I4
ssg71
g3827
sg64
(lp3834
S'web2py'
p3835
asbasbasbasbasbasbasbag57
(g73
g59
NtRp3836
(dp3837
g62
(dp3838
sg71
g3333
sg64
(lp3839
g57
(g78
g59
NtRp3840
(dp3841
g62
(dp3842
g82
g83
ssg71
g3836
sg64
(lp3843
S'menu'
p3844
asbag57
(g78
g59
NtRp3845
(dp3846
g62
(dp3847
g89
g90
ssg71
g3836
sg64
(lp3848
S':'
asbag57
(g78
g59
NtRp3849
(dp3850
g62
(dp3851
sg71
g3836
sg64
(lp3852
g57
(g58
g59
NtRp3853
(dp3854
g62
(dp3855
g70
I5
ssg71
g3849
sg64
(lp3856
g57
(g66
g59
NtRp3857
(dp3858
g62
(dp3859
g70
I4
ssg71
Nsg64
(lp3860
g57
(g73
g59
NtRp3861
(dp3862
g62
(dp3863
sg71
g3857
sg64
(lp3864
g57
(g78
g59
NtRp3865
(dp3866
g62
(dp3867
sg71
g3861
sg64
(lp3868
g57
(g58
g59
NtRp3869
(dp3870
g62
(dp3871
g70
I4
ssg71
g3865
sg64
(lp3872
g57
(g66
g59
NtRp3873
(dp3874
g62
(dp3875
g70
I3
ssg71
Nsg64
(lp3876
g57
(g73
g59
NtRp3877
(dp3878
g62
(dp3879
sg71
g3873
sg64
(lp3880
g57
(g78
g59
NtRp3881
(dp3882
g62
(dp3883
sg71
g3877
sg64
(lp3884
g57
(g58
g59
NtRp3885
(dp3886
g62
(dp3887
g70
I3
ssg71
g3881
sg64
(lp3888
cgluon.languages
lazyT_unpickle
p3889
(S't\x04\x00\x00\x00Home'
tRp3890
asbasbasbag57
(g73
g59
NtRp3891
(dp3892
g62
(dp3893
sg71
g3873
sg64
(lp3894
g57
(g78
g59
NtRp3895
(dp3896
g62
(dp3897
sg71
g3891
sg64
(lp3898
g57
(g58
g59
NtRp3899
(dp3900
g62
(dp3901
g70
I3
ssg71
g3895
sg64
(lp3902
g100
asbasbasbag57
(g73
g59
NtRp3903
(dp3904
g62
(dp3905
sg71
g3873
sg64
(lp3906
g57
(g78
g59
NtRp3907
(dp3908
g62
(dp3909
sg71
g3903
sg64
(lp3910
g57
(g58
g59
NtRp3911
(dp3912
g62
(dp3913
g70
I3
ssg71
g3907
sg64
(lp3914
S'/911_signin/default/index'
p3915
asbasbasbag57
(g73
g59
NtRp3916
(dp3917
g62
(dp3918
sg71
g3873
sg64
(lp3919
g57
(g78
g59
NtRp3920
(dp3921
g62
(dp3922
sg71
g3916
sg64
(lp3923
g57
(g58
g59
NtRp3924
(dp3925
g62
(dp3926
g70
I3
ssg71
g3920
sg64
(lp3927
g57
(g66
g59
NtRp3928
(dp3929
g62
(dp3930
g70
I2
ssg71
Nsg64
(lp3931
sbasbasbasbasbasbasbasbag57
(g73
g59
NtRp3932
(dp3933
g62
(dp3934
sg71
g3857
sg64
(lp3935
g57
(g78
g59
NtRp3936
(dp3937
g62
(dp3938
sg71
g3932
sg64
(lp3939
g57
(g58
g59
NtRp3940
(dp3941
g62
(dp3942
g70
I4
ssg71
g3936
sg64
(lp3943
g57
(g66
g59
NtRp3944
(dp3945
g62
(dp3946
g70
I3
ssg71
Nsg64
(lp3947
g57
(g73
g59
NtRp3948
(dp3949
g62
(dp3950
sg71
g3944
sg64
(lp3951
g57
(g78
g59
NtRp3952
(dp3953
g62
(dp3954
sg71
g3948
sg64
(lp3955
g57
(g58
g59
NtRp3956
(dp3957
g62
(dp3958
g70
I3
ssg71
g3952
sg64
(lp3959
g57
(cgluon.html
SPAN
p3960
g59
NtRp3961
(dp3962
g62
(dp3963
g82
S'color:yellow'
p3964
ssg71
Nsg64
(lp3965
g3835
asbasbasbasbag57
(g73
g59
NtRp3966
(dp3967
g62
(dp3968
sg71
g3944
sg64
(lp3969
g57
(g78
g59
NtRp3970
(dp3971
g62
(dp3972
sg71
g3966
sg64
(lp3973
g57
(g58
g59
NtRp3974
(dp3975
g62
(dp3976
g70
I3
ssg71
g3970
sg64
(lp3977
g100
asbasbasbag57
(g73
g59
NtRp3978
(dp3979
g62
(dp3980
sg71
g3944
sg64
(lp3981
g57
(g78
g59
NtRp3982
(dp3983
g62
(dp3984
sg71
g3978
sg64
(lp3985
g57
(g58
g59
NtRp3986
(dp3987
g62
(dp3988
g70
I3
ssg71
g3982
sg64
(lp3989
S'None'
p3990
asbasbasbag57
(g73
g59
NtRp3991
(dp3992
g62
(dp3993
sg71
g3944
sg64
(lp3994
g57
(g78
g59
NtRp3995
(dp3996
g62
(dp3997
sg71
g3991
sg64
(lp3998
g57
(g58
g59
NtRp3999
(dp4000
g62
(dp4001
g70
I3
ssg71
g3995
sg64
(lp4002
g57
(g66
g59
NtRp4003
(dp4004
g62
(dp4005
g70
I2
ssg71
Nsg64
(lp4006
g57
(g73
g59
NtRp4007
(dp4008
g62
(dp4009
sg71
g4003
sg64
(lp4010
g57
(g78
g59
NtRp4011
(dp4012
g62
(dp4013
sg71
g4007
sg64
(lp4014
g57
(g58
g59
NtRp4015
(dp4016
g62
(dp4017
g70
I2
ssg71
g4011
sg64
(lp4018
g57
(g66
g59
NtRp4019
(dp4020
g62
(dp4021
g70
I1
ssg71
Nsg64
(lp4022
g57
(g73
g59
NtRp4023
(dp4024
g62
(dp4025
sg71
g4019
sg64
(lp4026
g57
(g78
g59
NtRp4027
(dp4028
g62
(dp4029
sg71
g4023
sg64
(lp4030
g57
(g58
g59
NtRp4031
(dp4032
g62
(dp4033
g70
I1
ssg71
g4027
sg64
(lp4034
g3889
(S's\x08\x00\x00\x00My Sites'
tRp4035
asbasbasbag57
(g73
g59
NtRp4036
(dp4037
g62
(dp4038
sg71
g4019
sg64
(lp4039
g57
(g78
g59
NtRp4040
(dp4041
g62
(dp4042
sg71
g4036
sg64
(lp4043
g57
(g58
g59
NtRp4044
(dp4045
g62
(dp4046
g70
I1
ssg71
g4040
sg64
(lp4047
I00
asbasbasbag57
(g73
g59
NtRp4048
(dp4049
g62
(dp4050
sg71
g4019
sg64
(lp4051
g57
(g78
g59
NtRp4052
(dp4053
g62
(dp4054
sg71
g4048
sg64
(lp4055
g57
(g58
g59
NtRp4056
(dp4057
g62
(dp4058
g70
I1
ssg71
g4052
sg64
(lp4059
S'/admin/default/site'
p4060
asbasbasbasbasbasbasbag57
(g73
g59
NtRp4061
(dp4062
g62
(dp4063
sg71
g4003
sg64
(lp4064
g57
(g78
g59
NtRp4065
(dp4066
g62
(dp4067
sg71
g4061
sg64
(lp4068
g57
(g58
g59
NtRp4069
(dp4070
g62
(dp4071
g70
I2
ssg71
g4065
sg64
(lp4072
g57
(g66
g59
NtRp4073
(dp4074
g62
(dp4075
g70
I1
ssg71
Nsg64
(lp4076
g57
(g73
g59
NtRp4077
(dp4078
g62
(dp4079
sg71
g4073
sg64
(lp4080
g57
(g78
g59
NtRp4081
(dp4082
g62
(dp4083
sg71
g4077
sg64
(lp4084
g57
(g58
g59
NtRp4085
(dp4086
g62
(dp4087
g70
I1
ssg71
g4081
sg64
(lp4088
g3889
(S's\x08\x00\x00\x00This App'
tRp4089
asbasbasbag57
(g73
g59
NtRp4090
(dp4091
g62
(dp4092
sg71
g4073
sg64
(lp4093
g57
(g78
g59
NtRp4094
(dp4095
g62
(dp4096
sg71
g4090
sg64
(lp4097
g57
(g58
g59
NtRp4098
(dp4099
g62
(dp4100
g70
I1
ssg71
g4094
sg64
(lp4101
I00
asbasbasbag57
(g73
g59
NtRp4102
(dp4103
g62
(dp4104
sg71
g4073
sg64
(lp4105
g57
(g78
g59
NtRp4106
(dp4107
g62
(dp4108
sg71
g4102
sg64
(lp4109
g57
(g58
g59
NtRp4110
(dp4111
g62
(dp4112
g70
I1
ssg71
g4106
sg64
(lp4113
S'/admin/default/design/911_signin'
p4114
asbasbasbag57
(g73
g59
NtRp4115
(dp4116
g62
(dp4117
sg71
g4073
sg64
(lp4118
g57
(g78
g59
NtRp4119
(dp4120
g62
(dp4121
sg71
g4115
sg64
(lp4122
g57
(g58
g59
NtRp4123
(dp4124
g62
(dp4125
g70
I1
ssg71
g4119
sg64
(lp4126
(lp4127
(g3889
(S't\n\x00\x00\x00Controller'
tRp4128
I00
S'/admin/default/edit/911_signin/controllers/default.py'
tp4129
a(g3889
(S't\x04\x00\x00\x00View'
tRp4130
I00
S'/admin/default/edit/911_signin/views/default/outbox.html'
tp4131
a(g3889
(S't\x06\x00\x00\x00Layout'
tRp4132
I00
S'/admin/default/edit/911_signin/views/layout.html'
tp4133
a(g3889
(S't\n\x00\x00\x00Stylesheet'
tRp4134
I00
S'/admin/default/edit/911_signin/static/css/web2py.css'
tp4135
a(g3889
(S's\x08\x00\x00\x00DB Model'
tRp4136
I00
S'/admin/default/edit/911_signin/models/db.py'
tp4137
a(g3889
(S's\n\x00\x00\x00Menu Model'
tRp4138
I00
S'/admin/default/edit/911_signin/models/menu.py'
tp4139
a(g3889
(S't\x08\x00\x00\x00Database'
tRp4140
I00
S'/911_signin/appadmin/index'
tp4141
a(g3889
(S't\x06\x00\x00\x00Errors'
tRp4142
I00
S'/admin/default/errors/911_signin'
tp4143
a(g3889
(S't\x05\x00\x00\x00About'
tRp4144
I00
S'/admin/default/about/911_signin'
tp4145
aasbasbasbasbasbasbasbag57
(g73
g59
NtRp4146
(dp4147
g62
(dp4148
sg71
g4003
sg64
(lp4149
g57
(g78
g59
NtRp4150
(dp4151
g62
(dp4152
sg71
g4146
sg64
(lp4153
g57
(g58
g59
NtRp4154
(dp4155
g62
(dp4156
g70
I2
ssg71
g4150
sg64
(lp4157
g57
(g66
g59
NtRp4158
(dp4159
g62
(dp4160
g70
I1
ssg71
Nsg64
(lp4161
g57
(g73
g59
NtRp4162
(dp4163
g62
(dp4164
sg71
g4158
sg64
(lp4165
g57
(g78
g59
NtRp4166
(dp4167
g62
(dp4168
sg71
g4162
sg64
(lp4169
g57
(g58
g59
NtRp4170
(dp4171
g62
(dp4172
g70
I1
ssg71
g4166
sg64
(lp4173
S'web2py.com'
p4174
asbasbasbag57
(g73
g59
NtRp4175
(dp4176
g62
(dp4177
sg71
g4158
sg64
(lp4178
g57
(g78
g59
NtRp4179
(dp4180
g62
(dp4181
sg71
g4175
sg64
(lp4182
g57
(g58
g59
NtRp4183
(dp4184
g62
(dp4185
g70
I1
ssg71
g4179
sg64
(lp4186
I00
asbasbasbag57
(g73
g59
NtRp4187
(dp4188
g62
(dp4189
sg71
g4158
sg64
(lp4190
g57
(g78
g59
NtRp4191
(dp4192
g62
(dp4193
sg71
g4187
sg64
(lp4194
g57
(g58
g59
NtRp4195
(dp4196
g62
(dp4197
g70
I1
ssg71
g4191
sg64
(lp4198
S'http://www.web2py.com'
p4199
asbasbasbag57
(g73
g59
NtRp4200
(dp4201
g62
(dp4202
sg71
g4158
sg64
(lp4203
g57
(g78
g59
NtRp4204
(dp4205
g62
(dp4206
sg71
g4200
sg64
(lp4207
g57
(g58
g59
NtRp4208
(dp4209
g62
(dp4210
g70
I1
ssg71
g4204
sg64
(lp4211
(lp4212
(g3889
(S't\x08\x00\x00\x00Download'
tRp4213
I00
S'http://www.web2py.com/examples/default/download'
p4214
tp4215
a(g3889
(S't\x07\x00\x00\x00Support'
tRp4216
I00
S'http://www.web2py.com/examples/default/support'
p4217
tp4218
a(g3889
(S't\x04\x00\x00\x00Demo'
tRp4219
I00
S'http://web2py.com/demo_admin'
p4220
tp4221
a(g3889
(S's\x0e\x00\x00\x00Quick Examples'
tRp4222
I00
S'http://web2py.com/examples/default/examples'
p4223
tp4224
a(g3889
(S't\x03\x00\x00\x00FAQ'
tRp4225
I00
S'http://web2py.com/AlterEgo'
p4226
tp4227
a(g3889
(S't\x06\x00\x00\x00Videos'
tRp4228
I00
S'http://www.web2py.com/examples/default/videos/'
p4229
tp4230
a(g3889
(S's\x11\x00\x00\x00Free Applications'
tRp4231
I00
S'http://web2py.com/appliances'
p4232
tp4233
a(g3889
(S't\x07\x00\x00\x00Plugins'
tRp4234
I00
S'http://web2py.com/plugins'
p4235
tp4236
a(g3889
(S't\x07\x00\x00\x00Layouts'
tRp4237
I00
S'http://web2py.com/layouts'
p4238
tp4239
a(g3889
(S't\x07\x00\x00\x00Recipes'
tRp4240
I00
S'http://web2pyslices.com/'
p4241
tp4242
a(g3889
(S't\x08\x00\x00\x00Semantic'
tRp4243
I00
S'http://web2py.com/semantic'
p4244
tp4245
aasbasbasbasbasbasbasbag57
(g73
g59
NtRp4246
(dp4247
g62
(dp4248
sg71
g4003
sg64
(lp4249
g57
(g78
g59
NtRp4250
(dp4251
g62
(dp4252
sg71
g4246
sg64
(lp4253
g57
(g58
g59
NtRp4254
(dp4255
g62
(dp4256
g70
I2
ssg71
g4250
sg64
(lp4257
g57
(g66
g59
NtRp4258
(dp4259
g62
(dp4260
g70
I1
ssg71
Nsg64
(lp4261
g57
(g73
g59
NtRp4262
(dp4263
g62
(dp4264
sg71
g4258
sg64
(lp4265
g57
(g78
g59
NtRp4266
(dp4267
g62
(dp4268
sg71
g4262
sg64
(lp4269
g57
(g58
g59
NtRp4270
(dp4271
g62
(dp4272
g70
I1
ssg71
g4266
sg64
(lp4273
g3889
(S't\r\x00\x00\x00Documentation'
tRp4274
asbasbasbag57
(g73
g59
NtRp4275
(dp4276
g62
(dp4277
sg71
g4258
sg64
(lp4278
g57
(g78
g59
NtRp4279
(dp4280
g62
(dp4281
sg71
g4275
sg64
(lp4282
g57
(g58
g59
NtRp4283
(dp4284
g62
(dp4285
g70
I1
ssg71
g4279
sg64
(lp4286
I00
asbasbasbag57
(g73
g59
NtRp4287
(dp4288
g62
(dp4289
sg71
g4258
sg64
(lp4290
g57
(g78
g59
NtRp4291
(dp4292
g62
(dp4293
sg71
g4287
sg64
(lp4294
g57
(g58
g59
NtRp4295
(dp4296
g62
(dp4297
g70
I1
ssg71
g4291
sg64
(lp4298
S'http://www.web2py.com/book'
p4299
asbasbasbag57
(g73
g59
NtRp4300
(dp4301
g62
(dp4302
sg71
g4258
sg64
(lp4303
g57
(g78
g59
NtRp4304
(dp4305
g62
(dp4306
sg71
g4300
sg64
(lp4307
g57
(g58
g59
NtRp4308
(dp4309
g62
(dp4310
g70
I1
ssg71
g4304
sg64
(lp4311
(lp4312
(g3889
(S't\x07\x00\x00\x00Preface'
tRp4313
I00
S'http://www.web2py.com/book/default/chapter/00'
p4314
tp4315
a(g3889
(S't\x0c\x00\x00\x00Introduction'
tRp4316
I00
S'http://www.web2py.com/book/default/chapter/01'
p4317
tp4318
a(g3889
(S't\x06\x00\x00\x00Python'
tRp4319
I00
S'http://www.web2py.com/book/default/chapter/02'
p4320
tp4321
a(g3889
(S't\x08\x00\x00\x00Overview'
tRp4322
I00
S'http://www.web2py.com/book/default/chapter/03'
p4323
tp4324
a(g3889
(S's\x08\x00\x00\x00The Core'
tRp4325
I00
S'http://www.web2py.com/book/default/chapter/04'
p4326
tp4327
a(g3889
(S's\t\x00\x00\x00The Views'
tRp4328
I00
S'http://www.web2py.com/book/default/chapter/05'
p4329
tp4330
a(g3889
(S't\x08\x00\x00\x00Database'
tRp4331
I00
S'http://www.web2py.com/book/default/chapter/06'
p4332
tp4333
a(g3889
(S's\x14\x00\x00\x00Forms and Validators'
tRp4334
I00
S'http://www.web2py.com/book/default/chapter/07'
p4335
tp4336
a(g3889
(S's\r\x00\x00\x00Email and SMS'
tRp4337
I00
S'http://www.web2py.com/book/default/chapter/08'
p4338
tp4339
a(g3889
(S's\x0e\x00\x00\x00Access Control'
tRp4340
I00
S'http://www.web2py.com/book/default/chapter/09'
p4341
tp4342
a(g3889
(S't\x08\x00\x00\x00Services'
tRp4343
I00
S'http://www.web2py.com/book/default/chapter/10'
p4344
tp4345
a(g3889
(S's\x0c\x00\x00\x00Ajax Recipes'
tRp4346
I00
S'http://www.web2py.com/book/default/chapter/11'
p4347
tp4348
a(g3889
(S's\x16\x00\x00\x00Components and Plugins'
tRp4349
I00
S'http://www.web2py.com/book/default/chapter/12'
p4350
tp4351
a(g3889
(S's\x12\x00\x00\x00Deployment Recipes'
tRp4352
I00
S'http://www.web2py.com/book/default/chapter/13'
p4353
tp4354
a(g3889
(S's\r\x00\x00\x00Other Recipes'
tRp4355
I00
S'http://www.web2py.com/book/default/chapter/14'
p4356
tp4357
a(g3889
(S's\r\x00\x00\x00Buy this book'
tRp4358
I00
S'http://stores.lulu.com/web2py'
p4359
tp4360
aasbasbasbasbasbasbasbag57
(g73
g59
NtRp4361
(dp4362
g62
(dp4363
sg71
g4003
sg64
(lp4364
g57
(g78
g59
NtRp4365
(dp4366
g62
(dp4367
sg71
g4361
sg64
(lp4368
g57
(g58
g59
NtRp4369
(dp4370
g62
(dp4371
g70
I2
ssg71
g4365
sg64
(lp4372
g57
(g66
g59
NtRp4373
(dp4374
g62
(dp4375
g70
I1
ssg71
Nsg64
(lp4376
g57
(g73
g59
NtRp4377
(dp4378
g62
(dp4379
sg71
g4373
sg64
(lp4380
g57
(g78
g59
NtRp4381
(dp4382
g62
(dp4383
sg71
g4377
sg64
(lp4384
g57
(g58
g59
NtRp4385
(dp4386
g62
(dp4387
g70
I1
ssg71
g4381
sg64
(lp4388
g3889
(S't\t\x00\x00\x00Community'
tRp4389
asbasbasbag57
(g73
g59
NtRp4390
(dp4391
g62
(dp4392
sg71
g4373
sg64
(lp4393
g57
(g78
g59
NtRp4394
(dp4395
g62
(dp4396
sg71
g4390
sg64
(lp4397
g57
(g58
g59
NtRp4398
(dp4399
g62
(dp4400
g70
I1
ssg71
g4394
sg64
(lp4401
I00
asbasbasbag57
(g73
g59
NtRp4402
(dp4403
g62
(dp4404
sg71
g4373
sg64
(lp4405
g57
(g78
g59
NtRp4406
(dp4407
g62
(dp4408
sg71
g4402
sg64
(lp4409
g57
(g58
g59
NtRp4410
(dp4411
g62
(dp4412
g70
I1
ssg71
g4406
sg64
(lp4413
Nasbasbasbag57
(g73
g59
NtRp4414
(dp4415
g62
(dp4416
sg71
g4373
sg64
(lp4417
g57
(g78
g59
NtRp4418
(dp4419
g62
(dp4420
sg71
g4414
sg64
(lp4421
g57
(g58
g59
NtRp4422
(dp4423
g62
(dp4424
g70
I1
ssg71
g4418
sg64
(lp4425
(lp4426
(g3889
(S't\x06\x00\x00\x00Groups'
tRp4427
I00
S'http://www.web2py.com/examples/default/usergroups'
p4428
tp4429
a(g3889
(S't\x07\x00\x00\x00Twitter'
tRp4430
I00
S'http://twitter.com/web2py'
p4431
tp4432
a(g3889
(S's\t\x00\x00\x00Live Chat'
tRp4433
I00
S'http://webchat.freenode.net/?channels=web2py'
p4434
tp4435
aasbasbasbasbasbasbasbag57
(g73
g59
NtRp4436
(dp4437
g62
(dp4438
sg71
g4003
sg64
(lp4439
g57
(g78
g59
NtRp4440
(dp4441
g62
(dp4442
sg71
g4436
sg64
(lp4443
g57
(g58
g59
NtRp4444
(dp4445
g62
(dp4446
g70
I2
ssg71
g4440
sg64
(lp4447
g57
(g66
g59
NtRp4448
(dp4449
g62
(dp4450
g70
I1
ssg71
Nsg64
(lp4451
g57
(g73
g59
NtRp4452
(dp4453
g62
(dp4454
sg71
g4448
sg64
(lp4455
g57
(g78
g59
NtRp4456
(dp4457
g62
(dp4458
sg71
g4452
sg64
(lp4459
g57
(g58
g59
NtRp4460
(dp4461
g62
(dp4462
g70
I1
ssg71
g4456
sg64
(lp4463
g3889
(S't\x07\x00\x00\x00Plugins'
tRp4464
asbasbasbag57
(g73
g59
NtRp4465
(dp4466
g62
(dp4467
sg71
g4448
sg64
(lp4468
g57
(g78
g59
NtRp4469
(dp4470
g62
(dp4471
sg71
g4465
sg64
(lp4472
g57
(g58
g59
NtRp4473
(dp4474
g62
(dp4475
g70
I1
ssg71
g4469
sg64
(lp4476
I00
asbasbasbag57
(g73
g59
NtRp4477
(dp4478
g62
(dp4479
sg71
g4448
sg64
(lp4480
g57
(g78
g59
NtRp4481
(dp4482
g62
(dp4483
sg71
g4477
sg64
(lp4484
g57
(g58
g59
NtRp4485
(dp4486
g62
(dp4487
g70
I1
ssg71
g4481
sg64
(lp4488
Nasbasbasbag57
(g73
g59
NtRp4489
(dp4490
g62
(dp4491
sg71
g4448
sg64
(lp4492
g57
(g78
g59
NtRp4493
(dp4494
g62
(dp4495
sg71
g4489
sg64
(lp4496
g57
(g58
g59
NtRp4497
(dp4498
g62
(dp4499
g70
I1
ssg71
g4493
sg64
(lp4500
(lp4501
(S'plugin_wiki'
p4502
I00
S'http://web2py.com/examples/default/download'
p4503
tp4504
a(g3889
(S's\r\x00\x00\x00Other Plugins'
tRp4505
I00
g4235
tp4506
a(g3889
(S's\x0e\x00\x00\x00Layout Plugins'
tRp4507
I00
g4238
tp4508
aasbasbasbasbasbasbasbasbasbasbasbasbasbasbasbasbasbasbasbag57
(g73
g59
NtRp4509
(dp4510
g62
(dp4511
sg71
g3333
sg64
(lp4512
g57
(g78
g59
NtRp4513
(dp4514
g62
(dp4515
g82
g83
ssg71
g4509
sg64
(lp4516
S'meta'
p4517
asbag57
(g78
g59
NtRp4518
(dp4519
g62
(dp4520
g89
g90
ssg71
g4509
sg64
(lp4521
S':'
asbag57
(g78
g59
NtRp4522
(dp4523
g62
(dp4524
sg71
g4509
sg64
(lp4525
g57
(g58
g59
NtRp4526
(dp4527
g62
(dp4528
g70
I5
ssg71
g4522
sg64
(lp4529
g57
(g66
g59
NtRp4530
(dp4531
g62
(dp4532
g70
I4
ssg71
Nsg64
(lp4533
g57
(g73
g59
NtRp4534
(dp4535
g62
(dp4536
sg71
g4530
sg64
(lp4537
g57
(g78
g59
NtRp4538
(dp4539
g62
(dp4540
g82
g83
ssg71
g4534
sg64
(lp4541
S'author'
p4542
asbag57
(g78
g59
NtRp4543
(dp4544
g62
(dp4545
g89
g90
ssg71
g4534
sg64
(lp4546
S':'
asbag57
(g78
g59
NtRp4547
(dp4548
g62
(dp4549
sg71
g4534
sg64
(lp4550
g57
(g58
g59
NtRp4551
(dp4552
g62
(dp4553
g70
I4
ssg71
g4547
sg64
(lp4554
S'Your Name <you@example.com>'
p4555
asbasbasbag57
(g73
g59
NtRp4556
(dp4557
g62
(dp4558
sg71
g4530
sg64
(lp4559
g57
(g78
g59
NtRp4560
(dp4561
g62
(dp4562
g82
g83
ssg71
g4556
sg64
(lp4563
S'copyright'
p4564
asbag57
(g78
g59
NtRp4565
(dp4566
g62
(dp4567
g89
g90
ssg71
g4556
sg64
(lp4568
S':'
asbag57
(g78
g59
NtRp4569
(dp4570
g62
(dp4571
sg71
g4556
sg64
(lp4572
g57
(g58
g59
NtRp4573
(dp4574
g62
(dp4575
g70
I4
ssg71
g4569
sg64
(lp4576
S'Copyright 2011'
p4577
asbasbasbag57
(g73
g59
NtRp4578
(dp4579
g62
(dp4580
sg71
g4530
sg64
(lp4581
g57
(g78
g59
NtRp4582
(dp4583
g62
(dp4584
g82
g83
ssg71
g4578
sg64
(lp4585
S'description'
p4586
asbag57
(g78
g59
NtRp4587
(dp4588
g62
(dp4589
g89
g90
ssg71
g4578
sg64
(lp4590
S':'
asbag57
(g78
g59
NtRp4591
(dp4592
g62
(dp4593
sg71
g4578
sg64
(lp4594
g57
(g58
g59
NtRp4595
(dp4596
g62
(dp4597
g70
I4
ssg71
g4591
sg64
(lp4598
S'a cool new app'
p4599
asbasbasbag57
(g73
g59
NtRp4600
(dp4601
g62
(dp4602
sg71
g4530
sg64
(lp4603
g57
(g78
g59
NtRp4604
(dp4605
g62
(dp4606
g82
g83
ssg71
g4600
sg64
(lp4607
S'generator'
p4608
asbag57
(g78
g59
NtRp4609
(dp4610
g62
(dp4611
g89
g90
ssg71
g4600
sg64
(lp4612
S':'
asbag57
(g78
g59
NtRp4613
(dp4614
g62
(dp4615
sg71
g4600
sg64
(lp4616
g57
(g58
g59
NtRp4617
(dp4618
g62
(dp4619
g70
I4
ssg71
g4613
sg64
(lp4620
S'Web2py Web Framework'
p4621
asbasbasbag57
(g73
g59
NtRp4622
(dp4623
g62
(dp4624
sg71
g4530
sg64
(lp4625
g57
(g78
g59
NtRp4626
(dp4627
g62
(dp4628
g82
g83
ssg71
g4622
sg64
(lp4629
S'keywords'
p4630
asbag57
(g78
g59
NtRp4631
(dp4632
g62
(dp4633
g89
g90
ssg71
g4622
sg64
(lp4634
S':'
asbag57
(g78
g59
NtRp4635
(dp4636
g62
(dp4637
sg71
g4622
sg64
(lp4638
g57
(g58
g59
NtRp4639
(dp4640
g62
(dp4641
g70
I4
ssg71
g4635
sg64
(lp4642
S'web2py, python, framework'
p4643
asbasbasbasbasbasbasbag57
(g73
g59
NtRp4644
(dp4645
g62
(dp4646
sg71
g3333
sg64
(lp4647
g57
(g78
g59
NtRp4648
(dp4649
g62
(dp4650
g82
g83
ssg71
g4644
sg64
(lp4651
S'postprocessing'
p4652
asbag57
(g78
g59
NtRp4653
(dp4654
g62
(dp4655
g89
g90
ssg71
g4644
sg64
(lp4656
S':'
asbag57
(g78
g59
NtRp4657
(dp4658
g62
(dp4659
sg71
g4644
sg64
(lp4660
g57
(g58
g59
NtRp4661
(dp4662
g62
(dp4663
g70
I5
ssg71
g4657
sg64
(lp4664
g57
(g66
g59
NtRp4665
(dp4666
g62
(dp4667
g70
I4
ssg71
Nsg64
(lp4668
sbasbasbasbag57
(g73
g59
NtRp4669
(dp4670
g62
(dp4671
sg71
g3333
sg64
(lp4672
g57
(g78
g59
NtRp4673
(dp4674
g62
(dp4675
g82
g83
ssg71
g4669
sg64
(lp4676
S'session_file'
p4677
asbag57
(g78
g59
NtRp4678
(dp4679
g62
(dp4680
g89
g90
ssg71
g4669
sg64
(lp4681
S':'
asbag57
(g78
g59
NtRp4682
(dp4683
g62
(dp4684
sg71
g4669
sg64
(lp4685
g57
(g58
g59
NtRp4686
(dp4687
g62
(dp4688
g70
I5
ssg71
g4682
sg64
(lp4689
S"<open file '/home/enigma/web2py/applications/911_signin/sessions/127.0.0.1-2e0131fe-56cd-488a-8ae4-3b8058d88f7e', mode 'rb+' at 0xad313b78>"
p4690
asbasbasbag57
(g73
g59
NtRp4691
(dp4692
g62
(dp4693
sg71
g3333
sg64
(lp4694
g57
(g78
g59
NtRp4695
(dp4696
g62
(dp4697
g82
g83
ssg71
g4691
sg64
(lp4698
S'session_filename'
p4699
asbag57
(g78
g59
NtRp4700
(dp4701
g62
(dp4702
g89
g90
ssg71
g4691
sg64
(lp4703
S':'
asbag57
(g78
g59
NtRp4704
(dp4705
g62
(dp4706
sg71
g4691
sg64
(lp4707
g57
(g58
g59
NtRp4708
(dp4709
g62
(dp4710
g70
I5
ssg71
g4704
sg64
(lp4711
S'/home/enigma/web2py/applications/911_signin/sessions/127.0.0.1-2e0131fe-56cd-488a-8ae4-3b8058d88f7e'
p4712
asbasbasbag57
(g73
g59
NtRp4713
(dp4714
g62
(dp4715
sg71
g3333
sg64
(lp4716
g57
(g78
g59
NtRp4717
(dp4718
g62
(dp4719
g82
g83
ssg71
g4713
sg64
(lp4720
S'session_id'
p4721
asbag57
(g78
g59
NtRp4722
(dp4723
g62
(dp4724
g89
g90
ssg71
g4713
sg64
(lp4725
S':'
asbag57
(g78
g59
NtRp4726
(dp4727
g62
(dp4728
sg71
g4713
sg64
(lp4729
g57
(g58
g59
NtRp4730
(dp4731
g62
(dp4732
g70
I5
ssg71
g4726
sg64
(lp4733
S'127.0.0.1-2e0131fe-56cd-488a-8ae4-3b8058d88f7e'
p4734
asbasbasbag57
(g73
g59
NtRp4735
(dp4736
g62
(dp4737
sg71
g3333
sg64
(lp4738
g57
(g78
g59
NtRp4739
(dp4740
g62
(dp4741
g82
g83
ssg71
g4735
sg64
(lp4742
S'session_id_name'
p4743
asbag57
(g78
g59
NtRp4744
(dp4745
g62
(dp4746
g89
g90
ssg71
g4735
sg64
(lp4747
S':'
asbag57
(g78
g59
NtRp4748
(dp4749
g62
(dp4750
sg71
g4735
sg64
(lp4751
g57
(g58
g59
NtRp4752
(dp4753
g62
(dp4754
g70
I5
ssg71
g4748
sg64
(lp4755
g3390
asbasbasbag57
(g73
g59
NtRp4756
(dp4757
g62
(dp4758
sg71
g3333
sg64
(lp4759
g57
(g78
g59
NtRp4760
(dp4761
g62
(dp4762
g82
g83
ssg71
g4756
sg64
(lp4763
S'session_locked'
p4764
asbag57
(g78
g59
NtRp4765
(dp4766
g62
(dp4767
g89
g90
ssg71
g4756
sg64
(lp4768
S':'
asbag57
(g78
g59
NtRp4769
(dp4770
g62
(dp4771
sg71
g4756
sg64
(lp4772
g57
(g58
g59
NtRp4773
(dp4774
g62
(dp4775
g70
I5
ssg71
g4769
sg64
(lp4776
g1493
asbasbasbag57
(g73
g59
NtRp4777
(dp4778
g62
(dp4779
sg71
g3333
sg64
(lp4780
g57
(g78
g59
NtRp4781
(dp4782
g62
(dp4783
g82
g83
ssg71
g4777
sg64
(lp4784
S'session_new'
p4785
asbag57
(g78
g59
NtRp4786
(dp4787
g62
(dp4788
g89
g90
ssg71
g4777
sg64
(lp4789
S':'
asbag57
(g78
g59
NtRp4790
(dp4791
g62
(dp4792
sg71
g4777
sg64
(lp4793
g57
(g58
g59
NtRp4794
(dp4795
g62
(dp4796
g70
I5
ssg71
g4790
sg64
(lp4797
g100
asbasbasbag57
(g73
g59
NtRp4798
(dp4799
g62
(dp4800
sg71
g3333
sg64
(lp4801
g57
(g78
g59
NtRp4802
(dp4803
g62
(dp4804
g82
g83
ssg71
g4798
sg64
(lp4805
S'status'
p4806
asbag57
(g78
g59
NtRp4807
(dp4808
g62
(dp4809
g89
g90
ssg71
g4798
sg64
(lp4810
S':'
asbag57
(g78
g59
NtRp4811
(dp4812
g62
(dp4813
sg71
g4798
sg64
(lp4814
g57
(g58
g59
NtRp4815
(dp4816
g62
(dp4817
g70
I5
ssg71
g4811
sg64
(lp4818
S'200'
p4819
asbasbasbag57
(g73
g59
NtRp4820
(dp4821
g62
(dp4822
sg71
g3333
sg64
(lp4823
g57
(g78
g59
NtRp4824
(dp4825
g62
(dp4826
g82
g83
ssg71
g4820
sg64
(lp4827
S'subtitle'
p4828
asbag57
(g78
g59
NtRp4829
(dp4830
g62
(dp4831
g89
g90
ssg71
g4820
sg64
(lp4832
S':'
asbag57
(g78
g59
NtRp4833
(dp4834
g62
(dp4835
sg71
g4820
sg64
(lp4836
g57
(g58
g59
NtRp4837
(dp4838
g62
(dp4839
g70
I5
ssg71
g4833
sg64
(lp4840
g3889
(S's\r\x00\x00\x00customize me!'
tRp4841
asbasbasbag57
(g73
g59
NtRp4842
(dp4843
g62
(dp4844
sg71
g3333
sg64
(lp4845
g57
(g78
g59
NtRp4846
(dp4847
g62
(dp4848
g82
g83
ssg71
g4842
sg64
(lp4849
S'title'
p4850
asbag57
(g78
g59
NtRp4851
(dp4852
g62
(dp4853
g89
g90
ssg71
g4842
sg64
(lp4854
S':'
asbag57
(g78
g59
NtRp4855
(dp4856
g62
(dp4857
sg71
g4842
sg64
(lp4858
g57
(g58
g59
NtRp4859
(dp4860
g62
(dp4861
g70
I5
ssg71
g4855
sg64
(lp4862
S'911 Signin'
p4863
asbasbasbag57
(g73
g59
NtRp4864
(dp4865
g62
(dp4866
sg71
g3333
sg64
(lp4867
g57
(g78
g59
NtRp4868
(dp4869
g62
(dp4870
g82
g83
ssg71
g4864
sg64
(lp4871
g2157
asbag57
(g78
g59
NtRp4872
(dp4873
g62
(dp4874
g89
g90
ssg71
g4864
sg64
(lp4875
S':'
asbag57
(g78
g59
NtRp4876
(dp4877
g62
(dp4878
sg71
g4864
sg64
(lp4879
g57
(g58
g59
NtRp4880
(dp4881
g62
(dp4882
g70
I5
ssg71
g4876
sg64
(lp4883
g2170
asbasbasbag57
(g73
g59
NtRp4884
(dp4885
g62
(dp4886
sg71
g3333
sg64
(lp4887
g57
(g78
g59
NtRp4888
(dp4889
g62
(dp4890
g82
g83
ssg71
g4884
sg64
(lp4891
S'view'
p4892
asbag57
(g78
g59
NtRp4893
(dp4894
g62
(dp4895
g89
g90
ssg71
g4884
sg64
(lp4896
S':'
asbag57
(g78
g59
NtRp4897
(dp4898
g62
(dp4899
sg71
g4884
sg64
(lp4900
g57
(g58
g59
NtRp4901
(dp4902
g62
(dp4903
g70
I5
ssg71
g4897
sg64
(lp4904
S'default/outbox.html'
p4905
asbasbasbasbasbsS'locals'
p4906
(dp4907
ssS'traceback'
p4908
S'Traceback (most recent call last):\n  File "/home/enigma/web2py/gluon/restricted.py", line 205, in restricted\n    exec ccode in environment\n  File "/home/enigma/web2py/applications/911_signin/controllers/default.py", line 144, in <module>\n  File "/home/enigma/web2py/gluon/globals.py", line 173, in <lambda>\n    self._caller = lambda f: f()\n  File "/home/enigma/web2py/gluon/tools.py", line 2580, in f\n    return action(*a, **b)\n  File "/home/enigma/web2py/applications/911_signin/controllers/default.py", line 136, in outbox\n    outbox=db(db.message.sender == auth.user.username).select(db.message.id, db.message.reciever,db.message.subject, message.read, orderby=~db.message.id )\nAttributeError: \'function\' object has no attribute \'read\'\n'
p4909
s.