(dp1
S'output'
p2
S"<type 'exceptions.IndentationError'> unexpected indent (default.py, line 38)"
p3
sS'layer'
p4
S'/home/enigma/web2py/applications/911_signin/controllers/default.py'
p5
sS'code'
p6
S'# -*- coding: utf-8 -*-\n# this file is released under public domain and you can use without limitations\n\n#########################################################################\n## This is a samples controller\n## - index is the default action of any application\n## - user is required for authentication and authorization\n## - download is for downloading files uploaded in the db (does streaming)\n## - call exposes all registered services (none by default)\n#########################################################################\n\nfrom gluon.contrib.login_methods.rpx_account import use_jainrain\n\ndef index():\n    """\n    example action using the internationalization operator T and flash\n    rendered by views/default/index.html or views/generic.html\n    """\n    response.flash = "Welcome to web2py!"\n    return dict(message=T(\'Hello World\'))\n\n\ndef user():\n    """\n    exposes:\n    http://..../[app]/default/user/login\n    http://..../[app]/default/user/logout\n    http://..../[app]/default/user/register\n    http://..../[app]/default/user/profile\n    http://..../[app]/default/user/retrieve_password\n    http://..../[app]/default/user/change_password\n    use @auth.requires_login()\n        @auth.requires_membership(\'group name\')\n        @auth.requires_permission(\'read\',\'table name\',record_id)\n    to decorate functions that need access control\n    """\n    \n\tform_jainrain = use_janrain(auth,filename=\'private/janrain.key\')\n\treturn dict(form=auth(), form2=form_jainrain)\n\n\ndef home():\n    return dict(uid=auth.user_id)\n\n\ndef download():\n    """\n    allows downloading of uploaded files\n    http://..../[app]/default/download/[filename]\n    """\n    return response.download(request,db)\n\n\ndef call():\n    """\n    exposes services. for example:\n    http://..../[app]/default/call/jsonrpc\n    decorate with @services.jsonrpc the functions to expose\n    supports xml, json, xmlrpc, jsonrpc, amfrpc, rss, csv\n    """\n    return service()\n\n\n@auth.requires_signature()\ndef data():\n    """\n    http://..../[app]/default/data/tables\n    http://..../[app]/default/data/create/[table]\n    http://..../[app]/default/data/read/[table]/[id]\n    http://..../[app]/default/data/update/[table]/[id]\n    http://..../[app]/default/data/delete/[table]/[id]\n    http://..../[app]/default/data/select/[table]\n    http://..../[app]/default/data/search/[table]\n    but URLs must be signed, i.e. linked with\n      A(\'table\',_href=URL(\'data/tables\',user_signature=True))\n    or with the signed load operator\n      LOAD(\'default\',\'data.load\',args=\'tables\',ajax=True,user_signature=True)\n    """\n    return dict(form=crud())\n\nresponse._vars=response._caller(user)\n'
p7
sS'snapshot'
p8
(dp9
S'exception'
p10
(dp11
S'__getslice__'
p12
S"<method-wrapper '__getslice__' of exceptions.IndentationError object>"
p13
sS'text'
p14
S'"\\tform_jainrain = use_janrain(auth,filename=\'private/janrain.key\')\\n"'
p15
sS'__str__'
p16
S"<method-wrapper '__str__' of exceptions.IndentationError object>"
p17
sS'__reduce__'
p18
S'<built-in method __reduce__ of exceptions.IndentationError object>'
p19
sS'__dict__'
p20
S'{}'
p21
sS'__sizeof__'
p22
S'<built-in method __sizeof__ of exceptions.IndentationError object>'
p23
sS'__init__'
p24
S"<method-wrapper '__init__' of exceptions.IndentationError object>"
p25
sS'__setattr__'
p26
S"<method-wrapper '__setattr__' of exceptions.IndentationError object>"
p27
sS'__reduce_ex__'
p28
S'<built-in method __reduce_ex__ of exceptions.IndentationError object>'
p29
sS'__new__'
p30
S'<built-in method __new__ of type object>'
p31
sS'__format__'
p32
S'<built-in method __format__ of exceptions.IndentationError object>'
p33
sS'__class__'
p34
S"<type 'exceptions.IndentationError'>"
p35
sS'filename'
p36
S"'/home/enigma/web2py/applications/911_signin/controllers/default.py'"
p37
sS'lineno'
p38
S'38'
p39
sS'msg'
p40
S"'unexpected indent'"
p41
sS'__doc__'
p42
S"'Improper indentation.'"
p43
sS'__getitem__'
p44
S"<method-wrapper '__getitem__' of exceptions.IndentationError object>"
p45
sS'__setstate__'
p46
S'<built-in method __setstate__ of exceptions.IndentationError object>'
p47
sS'__getattribute__'
p48
S"<method-wrapper '__getattribute__' of exceptions.IndentationError object>"
p49
sS'print_file_and_line'
p50
S'None'
p51
sS'args'
p52
S'(\'unexpected indent\', (\'/home/enigma/web2py/applications/911_signin/controllers/default.py\', 38, 1, "\\tform_jainrain = use_janrain(auth,filename=\'private/janrain.key\')\\n"))'
p53
sS'__subclasshook__'
p54
S'<built-in method __subclasshook__ of type object>'
p55
sS'offset'
p56
S'1'
sS'__unicode__'
p57
S'<built-in method __unicode__ of exceptions.IndentationError object>'
p58
sS'__delattr__'
p59
S"<method-wrapper '__delattr__' of exceptions.IndentationError object>"
p60
sS'__repr__'
p61
S"<method-wrapper '__repr__' of exceptions.IndentationError object>"
p62
sS'__hash__'
p63
S"<method-wrapper '__hash__' of exceptions.IndentationError object>"
p64
ssS'evalue'
p65
S'unexpected indent (default.py, line 38)'
p66
sS'request'
p67
ccopy_reg
_reconstructor
p68
(cgluon.html
BEAUTIFY
p69
c__builtin__
object
p70
NtRp71
(dp72
S'attributes'
p73
(dp74
sS'components'
p75
(lp76
g68
(cgluon.html
TABLE
p77
g70
NtRp78
(dp79
g73
(dp80
S'level'
p81
I5
ssS'parent'
p82
Nsg75
(lp83
g68
(cgluon.html
TR
p84
g70
NtRp85
(dp86
g73
(dp87
sg82
g78
sg75
(lp88
g68
(cgluon.html
TD
p89
g70
NtRp90
(dp91
g73
(dp92
S'_style'
p93
S'font-weight:bold;vertical-align:top'
p94
ssg82
g85
sg75
(lp95
S'ajax'
p96
asbag68
(g89
g70
NtRp97
(dp98
g73
(dp99
S'_valign'
p100
S'top'
p101
ssg82
g85
sg75
(lp102
S':'
asbag68
(g89
g70
NtRp103
(dp104
g73
(dp105
sg82
g85
sg75
(lp106
g68
(g69
g70
NtRp107
(dp108
g73
(dp109
g81
I5
ssg82
g103
sg75
(lp110
S'False'
p111
asbasbasbag68
(g84
g70
NtRp112
(dp113
g73
(dp114
sg82
g78
sg75
(lp115
g68
(g89
g70
NtRp116
(dp117
g73
(dp118
g93
g94
ssg82
g112
sg75
(lp119
S'application'
p120
asbag68
(g89
g70
NtRp121
(dp122
g73
(dp123
g100
g101
ssg82
g112
sg75
(lp124
S':'
asbag68
(g89
g70
NtRp125
(dp126
g73
(dp127
sg82
g112
sg75
(lp128
g68
(g69
g70
NtRp129
(dp130
g73
(dp131
g81
I5
ssg82
g125
sg75
(lp132
S'911_signin'
p133
asbasbasbag68
(g84
g70
NtRp134
(dp135
g73
(dp136
sg82
g78
sg75
(lp137
g68
(g89
g70
NtRp138
(dp139
g73
(dp140
g93
g94
ssg82
g134
sg75
(lp141
g52
asbag68
(g89
g70
NtRp142
(dp143
g73
(dp144
g100
g101
ssg82
g134
sg75
(lp145
S':'
asbag68
(g89
g70
NtRp146
(dp147
g73
(dp148
sg82
g134
sg75
(lp149
g68
(g69
g70
NtRp150
(dp151
g73
(dp152
g81
I5
ssg82
g146
sg75
(lp153
g68
(g77
g70
NtRp154
(dp155
g73
(dp156
g81
I4
ssg82
Nsg75
(lp157
g68
(g84
g70
NtRp158
(dp159
g73
(dp160
sg82
g154
sg75
(lp161
g68
(g89
g70
NtRp162
(dp163
g73
(dp164
sg82
g158
sg75
(lp165
g68
(g69
g70
NtRp166
(dp167
g73
(dp168
g81
I4
ssg82
g162
sg75
(lp169
S'login'
p170
asbasbasbasbasbasbasbag68
(g84
g70
NtRp171
(dp172
g73
(dp173
sg82
g78
sg75
(lp174
g68
(g89
g70
NtRp175
(dp176
g73
(dp177
g93
g94
ssg82
g171
sg75
(lp178
S'body'
p179
asbag68
(g89
g70
NtRp180
(dp181
g73
(dp182
g100
g101
ssg82
g171
sg75
(lp183
S':'
asbag68
(g89
g70
NtRp184
(dp185
g73
(dp186
sg82
g171
sg75
(lp187
g68
(g69
g70
NtRp188
(dp189
g73
(dp190
g81
I5
ssg82
g184
sg75
(lp191
S'<cStringIO.StringO object at 0xad4237e0>'
p192
asbasbasbag68
(g84
g70
NtRp193
(dp194
g73
(dp195
sg82
g78
sg75
(lp196
g68
(g89
g70
NtRp197
(dp198
g73
(dp199
g93
g94
ssg82
g193
sg75
(lp200
S'client'
p201
asbag68
(g89
g70
NtRp202
(dp203
g73
(dp204
g100
g101
ssg82
g193
sg75
(lp205
S':'
asbag68
(g89
g70
NtRp206
(dp207
g73
(dp208
sg82
g193
sg75
(lp209
g68
(g69
g70
NtRp210
(dp211
g73
(dp212
g81
I5
ssg82
g206
sg75
(lp213
S'127.0.0.1'
p214
asbasbasbag68
(g84
g70
NtRp215
(dp216
g73
(dp217
sg82
g78
sg75
(lp218
g68
(g89
g70
NtRp219
(dp220
g73
(dp221
g93
g94
ssg82
g215
sg75
(lp222
S'controller'
p223
asbag68
(g89
g70
NtRp224
(dp225
g73
(dp226
g100
g101
ssg82
g215
sg75
(lp227
S':'
asbag68
(g89
g70
NtRp228
(dp229
g73
(dp230
sg82
g215
sg75
(lp231
g68
(g69
g70
NtRp232
(dp233
g73
(dp234
g81
I5
ssg82
g228
sg75
(lp235
S'default'
p236
asbasbasbag68
(g84
g70
NtRp237
(dp238
g73
(dp239
sg82
g78
sg75
(lp240
g68
(g89
g70
NtRp241
(dp242
g73
(dp243
g93
g94
ssg82
g237
sg75
(lp244
S'cookies'
p245
asbag68
(g89
g70
NtRp246
(dp247
g73
(dp248
g100
g101
ssg82
g237
sg75
(lp249
S':'
asbag68
(g89
g70
NtRp250
(dp251
g73
(dp252
sg82
g237
sg75
(lp253
g68
(g69
g70
NtRp254
(dp255
g73
(dp256
g81
I5
ssg82
g250
sg75
(lp257
g68
(g77
g70
NtRp258
(dp259
g73
(dp260
g81
I4
ssg82
Nsg75
(lp261
g68
(g84
g70
NtRp262
(dp263
g73
(dp264
sg82
g258
sg75
(lp265
g68
(g89
g70
NtRp266
(dp267
g73
(dp268
g93
g94
ssg82
g262
sg75
(lp269
S'session_id_911_signin'
p270
asbag68
(g89
g70
NtRp271
(dp272
g73
(dp273
g100
g101
ssg82
g262
sg75
(lp274
S':'
asbag68
(g89
g70
NtRp275
(dp276
g73
(dp277
sg82
g262
sg75
(lp278
g68
(g69
g70
NtRp279
(dp280
g73
(dp281
g81
I4
ssg82
g275
sg75
(lp282
g68
(g77
g70
NtRp283
(dp284
g73
(dp285
g81
I3
ssg82
Nsg75
(lp286
g68
(g84
g70
NtRp287
(dp288
g73
(dp289
sg82
g283
sg75
(lp290
g68
(g89
g70
NtRp291
(dp292
g73
(dp293
g93
g94
ssg82
g287
sg75
(lp294
S'comment'
p295
asbag68
(g89
g70
NtRp296
(dp297
g73
(dp298
g100
g101
ssg82
g287
sg75
(lp299
S':'
asbag68
(g89
g70
NtRp300
(dp301
g73
(dp302
sg82
g287
sg75
(lp303
g68
(g69
g70
NtRp304
(dp305
g73
(dp306
g81
I3
ssg82
g300
sg75
(lp307
S''
asbasbasbag68
(g84
g70
NtRp308
(dp309
g73
(dp310
sg82
g283
sg75
(lp311
g68
(g89
g70
NtRp312
(dp313
g73
(dp314
g93
g94
ssg82
g308
sg75
(lp315
S'domain'
p316
asbag68
(g89
g70
NtRp317
(dp318
g73
(dp319
g100
g101
ssg82
g308
sg75
(lp320
S':'
asbag68
(g89
g70
NtRp321
(dp322
g73
(dp323
sg82
g308
sg75
(lp324
g68
(g69
g70
NtRp325
(dp326
g73
(dp327
g81
I3
ssg82
g321
sg75
(lp328
S''
asbasbasbag68
(g84
g70
NtRp329
(dp330
g73
(dp331
sg82
g283
sg75
(lp332
g68
(g89
g70
NtRp333
(dp334
g73
(dp335
g93
g94
ssg82
g329
sg75
(lp336
S'expires'
p337
asbag68
(g89
g70
NtRp338
(dp339
g73
(dp340
g100
g101
ssg82
g329
sg75
(lp341
S':'
asbag68
(g89
g70
NtRp342
(dp343
g73
(dp344
sg82
g329
sg75
(lp345
g68
(g69
g70
NtRp346
(dp347
g73
(dp348
g81
I3
ssg82
g342
sg75
(lp349
S''
asbasbasbag68
(g84
g70
NtRp350
(dp351
g73
(dp352
sg82
g283
sg75
(lp353
g68
(g89
g70
NtRp354
(dp355
g73
(dp356
g93
g94
ssg82
g350
sg75
(lp357
S'httponly'
p358
asbag68
(g89
g70
NtRp359
(dp360
g73
(dp361
g100
g101
ssg82
g350
sg75
(lp362
S':'
asbag68
(g89
g70
NtRp363
(dp364
g73
(dp365
sg82
g350
sg75
(lp366
g68
(g69
g70
NtRp367
(dp368
g73
(dp369
g81
I3
ssg82
g363
sg75
(lp370
S''
asbasbasbag68
(g84
g70
NtRp371
(dp372
g73
(dp373
sg82
g283
sg75
(lp374
g68
(g89
g70
NtRp375
(dp376
g73
(dp377
g93
g94
ssg82
g371
sg75
(lp378
S'max-age'
p379
asbag68
(g89
g70
NtRp380
(dp381
g73
(dp382
g100
g101
ssg82
g371
sg75
(lp383
S':'
asbag68
(g89
g70
NtRp384
(dp385
g73
(dp386
sg82
g371
sg75
(lp387
g68
(g69
g70
NtRp388
(dp389
g73
(dp390
g81
I3
ssg82
g384
sg75
(lp391
S''
asbasbasbag68
(g84
g70
NtRp392
(dp393
g73
(dp394
sg82
g283
sg75
(lp395
g68
(g89
g70
NtRp396
(dp397
g73
(dp398
g93
g94
ssg82
g392
sg75
(lp399
S'path'
p400
asbag68
(g89
g70
NtRp401
(dp402
g73
(dp403
g100
g101
ssg82
g392
sg75
(lp404
S':'
asbag68
(g89
g70
NtRp405
(dp406
g73
(dp407
sg82
g392
sg75
(lp408
g68
(g69
g70
NtRp409
(dp410
g73
(dp411
g81
I3
ssg82
g405
sg75
(lp412
S''
asbasbasbag68
(g84
g70
NtRp413
(dp414
g73
(dp415
sg82
g283
sg75
(lp416
g68
(g89
g70
NtRp417
(dp418
g73
(dp419
g93
g94
ssg82
g413
sg75
(lp420
S'secure'
p421
asbag68
(g89
g70
NtRp422
(dp423
g73
(dp424
g100
g101
ssg82
g413
sg75
(lp425
S':'
asbag68
(g89
g70
NtRp426
(dp427
g73
(dp428
sg82
g413
sg75
(lp429
g68
(g69
g70
NtRp430
(dp431
g73
(dp432
g81
I3
ssg82
g426
sg75
(lp433
S''
asbasbasbag68
(g84
g70
NtRp434
(dp435
g73
(dp436
sg82
g283
sg75
(lp437
g68
(g89
g70
NtRp438
(dp439
g73
(dp440
g93
g94
ssg82
g434
sg75
(lp441
S'version'
p442
asbag68
(g89
g70
NtRp443
(dp444
g73
(dp445
g100
g101
ssg82
g434
sg75
(lp446
S':'
asbag68
(g89
g70
NtRp447
(dp448
g73
(dp449
sg82
g434
sg75
(lp450
g68
(g69
g70
NtRp451
(dp452
g73
(dp453
g81
I3
ssg82
g447
sg75
(lp454
S''
asbasbasbasbasbasbasbag68
(g84
g70
NtRp455
(dp456
g73
(dp457
sg82
g258
sg75
(lp458
g68
(g89
g70
NtRp459
(dp460
g73
(dp461
g93
g94
ssg82
g455
sg75
(lp462
S'session_id_admin'
p463
asbag68
(g89
g70
NtRp464
(dp465
g73
(dp466
g100
g101
ssg82
g455
sg75
(lp467
S':'
asbag68
(g89
g70
NtRp468
(dp469
g73
(dp470
sg82
g455
sg75
(lp471
g68
(g69
g70
NtRp472
(dp473
g73
(dp474
g81
I4
ssg82
g468
sg75
(lp475
g68
(g77
g70
NtRp476
(dp477
g73
(dp478
g81
I3
ssg82
Nsg75
(lp479
g68
(g84
g70
NtRp480
(dp481
g73
(dp482
sg82
g476
sg75
(lp483
g68
(g89
g70
NtRp484
(dp485
g73
(dp486
g93
g94
ssg82
g480
sg75
(lp487
g295
asbag68
(g89
g70
NtRp488
(dp489
g73
(dp490
g100
g101
ssg82
g480
sg75
(lp491
S':'
asbag68
(g89
g70
NtRp492
(dp493
g73
(dp494
sg82
g480
sg75
(lp495
g68
(g69
g70
NtRp496
(dp497
g73
(dp498
g81
I3
ssg82
g492
sg75
(lp499
S''
asbasbasbag68
(g84
g70
NtRp500
(dp501
g73
(dp502
sg82
g476
sg75
(lp503
g68
(g89
g70
NtRp504
(dp505
g73
(dp506
g93
g94
ssg82
g500
sg75
(lp507
g316
asbag68
(g89
g70
NtRp508
(dp509
g73
(dp510
g100
g101
ssg82
g500
sg75
(lp511
S':'
asbag68
(g89
g70
NtRp512
(dp513
g73
(dp514
sg82
g500
sg75
(lp515
g68
(g69
g70
NtRp516
(dp517
g73
(dp518
g81
I3
ssg82
g512
sg75
(lp519
S''
asbasbasbag68
(g84
g70
NtRp520
(dp521
g73
(dp522
sg82
g476
sg75
(lp523
g68
(g89
g70
NtRp524
(dp525
g73
(dp526
g93
g94
ssg82
g520
sg75
(lp527
g337
asbag68
(g89
g70
NtRp528
(dp529
g73
(dp530
g100
g101
ssg82
g520
sg75
(lp531
S':'
asbag68
(g89
g70
NtRp532
(dp533
g73
(dp534
sg82
g520
sg75
(lp535
g68
(g69
g70
NtRp536
(dp537
g73
(dp538
g81
I3
ssg82
g532
sg75
(lp539
S''
asbasbasbag68
(g84
g70
NtRp540
(dp541
g73
(dp542
sg82
g476
sg75
(lp543
g68
(g89
g70
NtRp544
(dp545
g73
(dp546
g93
g94
ssg82
g540
sg75
(lp547
g358
asbag68
(g89
g70
NtRp548
(dp549
g73
(dp550
g100
g101
ssg82
g540
sg75
(lp551
S':'
asbag68
(g89
g70
NtRp552
(dp553
g73
(dp554
sg82
g540
sg75
(lp555
g68
(g69
g70
NtRp556
(dp557
g73
(dp558
g81
I3
ssg82
g552
sg75
(lp559
S''
asbasbasbag68
(g84
g70
NtRp560
(dp561
g73
(dp562
sg82
g476
sg75
(lp563
g68
(g89
g70
NtRp564
(dp565
g73
(dp566
g93
g94
ssg82
g560
sg75
(lp567
g379
asbag68
(g89
g70
NtRp568
(dp569
g73
(dp570
g100
g101
ssg82
g560
sg75
(lp571
S':'
asbag68
(g89
g70
NtRp572
(dp573
g73
(dp574
sg82
g560
sg75
(lp575
g68
(g69
g70
NtRp576
(dp577
g73
(dp578
g81
I3
ssg82
g572
sg75
(lp579
S''
asbasbasbag68
(g84
g70
NtRp580
(dp581
g73
(dp582
sg82
g476
sg75
(lp583
g68
(g89
g70
NtRp584
(dp585
g73
(dp586
g93
g94
ssg82
g580
sg75
(lp587
g400
asbag68
(g89
g70
NtRp588
(dp589
g73
(dp590
g100
g101
ssg82
g580
sg75
(lp591
S':'
asbag68
(g89
g70
NtRp592
(dp593
g73
(dp594
sg82
g580
sg75
(lp595
g68
(g69
g70
NtRp596
(dp597
g73
(dp598
g81
I3
ssg82
g592
sg75
(lp599
S''
asbasbasbag68
(g84
g70
NtRp600
(dp601
g73
(dp602
sg82
g476
sg75
(lp603
g68
(g89
g70
NtRp604
(dp605
g73
(dp606
g93
g94
ssg82
g600
sg75
(lp607
g421
asbag68
(g89
g70
NtRp608
(dp609
g73
(dp610
g100
g101
ssg82
g600
sg75
(lp611
S':'
asbag68
(g89
g70
NtRp612
(dp613
g73
(dp614
sg82
g600
sg75
(lp615
g68
(g69
g70
NtRp616
(dp617
g73
(dp618
g81
I3
ssg82
g612
sg75
(lp619
S''
asbasbasbag68
(g84
g70
NtRp620
(dp621
g73
(dp622
sg82
g476
sg75
(lp623
g68
(g89
g70
NtRp624
(dp625
g73
(dp626
g93
g94
ssg82
g620
sg75
(lp627
g442
asbag68
(g89
g70
NtRp628
(dp629
g73
(dp630
g100
g101
ssg82
g620
sg75
(lp631
S':'
asbag68
(g89
g70
NtRp632
(dp633
g73
(dp634
sg82
g620
sg75
(lp635
g68
(g69
g70
NtRp636
(dp637
g73
(dp638
g81
I3
ssg82
g632
sg75
(lp639
S''
asbasbasbasbasbasbasbag68
(g84
g70
NtRp640
(dp641
g73
(dp642
sg82
g258
sg75
(lp643
g68
(g89
g70
NtRp644
(dp645
g73
(dp646
g93
g94
ssg82
g640
sg75
(lp647
S'session_id_welcome'
p648
asbag68
(g89
g70
NtRp649
(dp650
g73
(dp651
g100
g101
ssg82
g640
sg75
(lp652
S':'
asbag68
(g89
g70
NtRp653
(dp654
g73
(dp655
sg82
g640
sg75
(lp656
g68
(g69
g70
NtRp657
(dp658
g73
(dp659
g81
I4
ssg82
g653
sg75
(lp660
g68
(g77
g70
NtRp661
(dp662
g73
(dp663
g81
I3
ssg82
Nsg75
(lp664
g68
(g84
g70
NtRp665
(dp666
g73
(dp667
sg82
g661
sg75
(lp668
g68
(g89
g70
NtRp669
(dp670
g73
(dp671
g93
g94
ssg82
g665
sg75
(lp672
g295
asbag68
(g89
g70
NtRp673
(dp674
g73
(dp675
g100
g101
ssg82
g665
sg75
(lp676
S':'
asbag68
(g89
g70
NtRp677
(dp678
g73
(dp679
sg82
g665
sg75
(lp680
g68
(g69
g70
NtRp681
(dp682
g73
(dp683
g81
I3
ssg82
g677
sg75
(lp684
S''
asbasbasbag68
(g84
g70
NtRp685
(dp686
g73
(dp687
sg82
g661
sg75
(lp688
g68
(g89
g70
NtRp689
(dp690
g73
(dp691
g93
g94
ssg82
g685
sg75
(lp692
g316
asbag68
(g89
g70
NtRp693
(dp694
g73
(dp695
g100
g101
ssg82
g685
sg75
(lp696
S':'
asbag68
(g89
g70
NtRp697
(dp698
g73
(dp699
sg82
g685
sg75
(lp700
g68
(g69
g70
NtRp701
(dp702
g73
(dp703
g81
I3
ssg82
g697
sg75
(lp704
S''
asbasbasbag68
(g84
g70
NtRp705
(dp706
g73
(dp707
sg82
g661
sg75
(lp708
g68
(g89
g70
NtRp709
(dp710
g73
(dp711
g93
g94
ssg82
g705
sg75
(lp712
g337
asbag68
(g89
g70
NtRp713
(dp714
g73
(dp715
g100
g101
ssg82
g705
sg75
(lp716
S':'
asbag68
(g89
g70
NtRp717
(dp718
g73
(dp719
sg82
g705
sg75
(lp720
g68
(g69
g70
NtRp721
(dp722
g73
(dp723
g81
I3
ssg82
g717
sg75
(lp724
S''
asbasbasbag68
(g84
g70
NtRp725
(dp726
g73
(dp727
sg82
g661
sg75
(lp728
g68
(g89
g70
NtRp729
(dp730
g73
(dp731
g93
g94
ssg82
g725
sg75
(lp732
g358
asbag68
(g89
g70
NtRp733
(dp734
g73
(dp735
g100
g101
ssg82
g725
sg75
(lp736
S':'
asbag68
(g89
g70
NtRp737
(dp738
g73
(dp739
sg82
g725
sg75
(lp740
g68
(g69
g70
NtRp741
(dp742
g73
(dp743
g81
I3
ssg82
g737
sg75
(lp744
S''
asbasbasbag68
(g84
g70
NtRp745
(dp746
g73
(dp747
sg82
g661
sg75
(lp748
g68
(g89
g70
NtRp749
(dp750
g73
(dp751
g93
g94
ssg82
g745
sg75
(lp752
g379
asbag68
(g89
g70
NtRp753
(dp754
g73
(dp755
g100
g101
ssg82
g745
sg75
(lp756
S':'
asbag68
(g89
g70
NtRp757
(dp758
g73
(dp759
sg82
g745
sg75
(lp760
g68
(g69
g70
NtRp761
(dp762
g73
(dp763
g81
I3
ssg82
g757
sg75
(lp764
S''
asbasbasbag68
(g84
g70
NtRp765
(dp766
g73
(dp767
sg82
g661
sg75
(lp768
g68
(g89
g70
NtRp769
(dp770
g73
(dp771
g93
g94
ssg82
g765
sg75
(lp772
g400
asbag68
(g89
g70
NtRp773
(dp774
g73
(dp775
g100
g101
ssg82
g765
sg75
(lp776
S':'
asbag68
(g89
g70
NtRp777
(dp778
g73
(dp779
sg82
g765
sg75
(lp780
g68
(g69
g70
NtRp781
(dp782
g73
(dp783
g81
I3
ssg82
g777
sg75
(lp784
S''
asbasbasbag68
(g84
g70
NtRp785
(dp786
g73
(dp787
sg82
g661
sg75
(lp788
g68
(g89
g70
NtRp789
(dp790
g73
(dp791
g93
g94
ssg82
g785
sg75
(lp792
g421
asbag68
(g89
g70
NtRp793
(dp794
g73
(dp795
g100
g101
ssg82
g785
sg75
(lp796
S':'
asbag68
(g89
g70
NtRp797
(dp798
g73
(dp799
sg82
g785
sg75
(lp800
g68
(g69
g70
NtRp801
(dp802
g73
(dp803
g81
I3
ssg82
g797
sg75
(lp804
S''
asbasbasbag68
(g84
g70
NtRp805
(dp806
g73
(dp807
sg82
g661
sg75
(lp808
g68
(g89
g70
NtRp809
(dp810
g73
(dp811
g93
g94
ssg82
g805
sg75
(lp812
g442
asbag68
(g89
g70
NtRp813
(dp814
g73
(dp815
g100
g101
ssg82
g805
sg75
(lp816
S':'
asbag68
(g89
g70
NtRp817
(dp818
g73
(dp819
sg82
g805
sg75
(lp820
g68
(g69
g70
NtRp821
(dp822
g73
(dp823
g81
I3
ssg82
g817
sg75
(lp824
S''
asbasbasbasbasbasbasbasbasbasbasbag68
(g84
g70
NtRp825
(dp826
g73
(dp827
sg82
g78
sg75
(lp828
g68
(g89
g70
NtRp829
(dp830
g73
(dp831
g93
g94
ssg82
g825
sg75
(lp832
S'env'
p833
asbag68
(g89
g70
NtRp834
(dp835
g73
(dp836
g100
g101
ssg82
g825
sg75
(lp837
S':'
asbag68
(g89
g70
NtRp838
(dp839
g73
(dp840
sg82
g825
sg75
(lp841
g68
(g69
g70
NtRp842
(dp843
g73
(dp844
g81
I5
ssg82
g838
sg75
(lp845
g68
(g77
g70
NtRp846
(dp847
g73
(dp848
g81
I4
ssg82
Nsg75
(lp849
g68
(g84
g70
NtRp850
(dp851
g73
(dp852
sg82
g846
sg75
(lp853
g68
(g89
g70
NtRp854
(dp855
g73
(dp856
g93
g94
ssg82
g850
sg75
(lp857
S'app_folders'
p858
asbag68
(g89
g70
NtRp859
(dp860
g73
(dp861
g100
g101
ssg82
g850
sg75
(lp862
S':'
asbag68
(g89
g70
NtRp863
(dp864
g73
(dp865
sg82
g850
sg75
(lp866
g68
(g69
g70
NtRp867
(dp868
g73
(dp869
g81
I4
ssg82
g863
sg75
(lp870
S"set(['/home/enigma/web2py/applications/admin/', '/home/enigma/web2py/applications/911_signin/', '/home/enigma/web2py/applications/welcome/'])"
p871
asbasbasbag68
(g84
g70
NtRp872
(dp873
g73
(dp874
sg82
g846
sg75
(lp875
g68
(g89
g70
NtRp876
(dp877
g73
(dp878
g93
g94
ssg82
g872
sg75
(lp879
S'applications_parent'
p880
asbag68
(g89
g70
NtRp881
(dp882
g73
(dp883
g100
g101
ssg82
g872
sg75
(lp884
S':'
asbag68
(g89
g70
NtRp885
(dp886
g73
(dp887
sg82
g872
sg75
(lp888
g68
(g69
g70
NtRp889
(dp890
g73
(dp891
g81
I4
ssg82
g885
sg75
(lp892
S'/home/enigma/web2py'
p893
asbasbasbag68
(g84
g70
NtRp894
(dp895
g73
(dp896
sg82
g846
sg75
(lp897
g68
(g89
g70
NtRp898
(dp899
g73
(dp900
g93
g94
ssg82
g894
sg75
(lp901
S'cmd_args'
p902
asbag68
(g89
g70
NtRp903
(dp904
g73
(dp905
g100
g101
ssg82
g894
sg75
(lp906
S':'
asbag68
(g89
g70
NtRp907
(dp908
g73
(dp909
sg82
g894
sg75
(lp910
g68
(g69
g70
NtRp911
(dp912
g73
(dp913
g81
I4
ssg82
g907
sg75
(lp914
g68
(g77
g70
NtRp915
(dp916
g73
(dp917
g81
I3
ssg82
Nsg75
(lp918
sbasbasbasbag68
(g84
g70
NtRp919
(dp920
g73
(dp921
sg82
g846
sg75
(lp922
g68
(g89
g70
NtRp923
(dp924
g73
(dp925
g93
g94
ssg82
g919
sg75
(lp926
S'cmd_options'
p927
asbag68
(g89
g70
NtRp928
(dp929
g73
(dp930
g100
g101
ssg82
g919
sg75
(lp931
S':'
asbag68
(g89
g70
NtRp932
(dp933
g73
(dp934
sg82
g919
sg75
(lp935
g68
(g69
g70
NtRp936
(dp937
g73
(dp938
g81
I4
ssg82
g932
sg75
(lp939
S"<Values at 0x9817bec: {'verbose': False, 'ip': '127.0.0.1', 'shutdown_timeout': 5, 'taskbar': False, 'nocron': False, 'pid_filename': 'httpserver.pid', 'maxthreads': None, 'softcron': False, 'server_name': 'ubuntu', 'bpython': False, 'nogui': False, 'port': 8000, 'extcron': False, 'debuglevel': 30, 'test': None, 'folder': '/home/enigma/web2py', 'config': '', 'import_models': False, 'winservice': '', 'shell': None, 'run': '', 'log_filename': 'httpserver.log', 'args': [''], 'socket_timeout': 5, 'ssl_ca_certificate': None, 'scheduler': None, 'profiler_filename': None, 'ssl_private_key': '', 'password': '<ask>', 'request_queue_size': 5, 'ssl_certificate': '', 'cronjob': False, 'numthreads': None, 'quiet': False, 'interfaces': None, 'minthreads': None, 'timeout': 10, 'plain': False, 'nobanner': False}>"
p940
asbasbasbag68
(g84
g70
NtRp941
(dp942
g73
(dp943
sg82
g846
sg75
(lp944
g68
(g89
g70
NtRp945
(dp946
g73
(dp947
g93
g94
ssg82
g941
sg75
(lp948
S'db_sessions'
p949
asbag68
(g89
g70
NtRp950
(dp951
g73
(dp952
g100
g101
ssg82
g941
sg75
(lp953
S':'
asbag68
(g89
g70
NtRp954
(dp955
g73
(dp956
sg82
g941
sg75
(lp957
g68
(g69
g70
NtRp958
(dp959
g73
(dp960
g81
I4
ssg82
g954
sg75
(lp961
S'set([])'
p962
asbasbasbag68
(g84
g70
NtRp963
(dp964
g73
(dp965
sg82
g846
sg75
(lp966
g68
(g89
g70
NtRp967
(dp968
g73
(dp969
g93
g94
ssg82
g963
sg75
(lp970
S'debugging'
p971
asbag68
(g89
g70
NtRp972
(dp973
g73
(dp974
g100
g101
ssg82
g963
sg75
(lp975
S':'
asbag68
(g89
g70
NtRp976
(dp977
g73
(dp978
sg82
g963
sg75
(lp979
g68
(g69
g70
NtRp980
(dp981
g73
(dp982
g81
I4
ssg82
g976
sg75
(lp983
g111
asbasbasbag68
(g84
g70
NtRp984
(dp985
g73
(dp986
sg82
g846
sg75
(lp987
g68
(g89
g70
NtRp988
(dp989
g73
(dp990
g93
g94
ssg82
g984
sg75
(lp991
S'gluon_parent'
p992
asbag68
(g89
g70
NtRp993
(dp994
g73
(dp995
g100
g101
ssg82
g984
sg75
(lp996
S':'
asbag68
(g89
g70
NtRp997
(dp998
g73
(dp999
sg82
g984
sg75
(lp1000
g68
(g69
g70
NtRp1001
(dp1002
g73
(dp1003
g81
I4
ssg82
g997
sg75
(lp1004
S'/home/enigma/web2py'
p1005
asbasbasbag68
(g84
g70
NtRp1006
(dp1007
g73
(dp1008
sg82
g846
sg75
(lp1009
g68
(g89
g70
NtRp1010
(dp1011
g73
(dp1012
g93
g94
ssg82
g1006
sg75
(lp1013
S'http_accept'
p1014
asbag68
(g89
g70
NtRp1015
(dp1016
g73
(dp1017
g100
g101
ssg82
g1006
sg75
(lp1018
S':'
asbag68
(g89
g70
NtRp1019
(dp1020
g73
(dp1021
sg82
g1006
sg75
(lp1022
g68
(g69
g70
NtRp1023
(dp1024
g73
(dp1025
g81
I4
ssg82
g1019
sg75
(lp1026
S'text/html,application/xhtml+xml,application/xml;q=0.9,*/*;q=0.8'
p1027
asbasbasbag68
(g84
g70
NtRp1028
(dp1029
g73
(dp1030
sg82
g846
sg75
(lp1031
g68
(g89
g70
NtRp1032
(dp1033
g73
(dp1034
g93
g94
ssg82
g1028
sg75
(lp1035
S'http_accept_charset'
p1036
asbag68
(g89
g70
NtRp1037
(dp1038
g73
(dp1039
g100
g101
ssg82
g1028
sg75
(lp1040
S':'
asbag68
(g89
g70
NtRp1041
(dp1042
g73
(dp1043
sg82
g1028
sg75
(lp1044
g68
(g69
g70
NtRp1045
(dp1046
g73
(dp1047
g81
I4
ssg82
g1041
sg75
(lp1048
S'ISO-8859-1,utf-8;q=0.7,*;q=0.3'
p1049
asbasbasbag68
(g84
g70
NtRp1050
(dp1051
g73
(dp1052
sg82
g846
sg75
(lp1053
g68
(g89
g70
NtRp1054
(dp1055
g73
(dp1056
g93
g94
ssg82
g1050
sg75
(lp1057
S'http_accept_encoding'
p1058
asbag68
(g89
g70
NtRp1059
(dp1060
g73
(dp1061
g100
g101
ssg82
g1050
sg75
(lp1062
S':'
asbag68
(g89
g70
NtRp1063
(dp1064
g73
(dp1065
sg82
g1050
sg75
(lp1066
g68
(g69
g70
NtRp1067
(dp1068
g73
(dp1069
g81
I4
ssg82
g1063
sg75
(lp1070
S'gzip,deflate,sdch'
p1071
asbasbasbag68
(g84
g70
NtRp1072
(dp1073
g73
(dp1074
sg82
g846
sg75
(lp1075
g68
(g89
g70
NtRp1076
(dp1077
g73
(dp1078
g93
g94
ssg82
g1072
sg75
(lp1079
S'http_accept_language'
p1080
asbag68
(g89
g70
NtRp1081
(dp1082
g73
(dp1083
g100
g101
ssg82
g1072
sg75
(lp1084
S':'
asbag68
(g89
g70
NtRp1085
(dp1086
g73
(dp1087
sg82
g1072
sg75
(lp1088
g68
(g69
g70
NtRp1089
(dp1090
g73
(dp1091
g81
I4
ssg82
g1085
sg75
(lp1092
S'en-US,en;q=0.8'
p1093
asbasbasbag68
(g84
g70
NtRp1094
(dp1095
g73
(dp1096
sg82
g846
sg75
(lp1097
g68
(g89
g70
NtRp1098
(dp1099
g73
(dp1100
g93
g94
ssg82
g1094
sg75
(lp1101
S'http_cache_control'
p1102
asbag68
(g89
g70
NtRp1103
(dp1104
g73
(dp1105
g100
g101
ssg82
g1094
sg75
(lp1106
S':'
asbag68
(g89
g70
NtRp1107
(dp1108
g73
(dp1109
sg82
g1094
sg75
(lp1110
g68
(g69
g70
NtRp1111
(dp1112
g73
(dp1113
g81
I4
ssg82
g1107
sg75
(lp1114
S'max-age=0'
p1115
asbasbasbag68
(g84
g70
NtRp1116
(dp1117
g73
(dp1118
sg82
g846
sg75
(lp1119
g68
(g89
g70
NtRp1120
(dp1121
g73
(dp1122
g93
g94
ssg82
g1116
sg75
(lp1123
S'http_connection'
p1124
asbag68
(g89
g70
NtRp1125
(dp1126
g73
(dp1127
g100
g101
ssg82
g1116
sg75
(lp1128
S':'
asbag68
(g89
g70
NtRp1129
(dp1130
g73
(dp1131
sg82
g1116
sg75
(lp1132
g68
(g69
g70
NtRp1133
(dp1134
g73
(dp1135
g81
I4
ssg82
g1129
sg75
(lp1136
S'keep-alive'
p1137
asbasbasbag68
(g84
g70
NtRp1138
(dp1139
g73
(dp1140
sg82
g846
sg75
(lp1141
g68
(g89
g70
NtRp1142
(dp1143
g73
(dp1144
g93
g94
ssg82
g1138
sg75
(lp1145
S'http_cookie'
p1146
asbag68
(g89
g70
NtRp1147
(dp1148
g73
(dp1149
g100
g101
ssg82
g1138
sg75
(lp1150
S':'
asbag68
(g89
g70
NtRp1151
(dp1152
g73
(dp1153
sg82
g1138
sg75
(lp1154
g68
(g69
g70
NtRp1155
(dp1156
g73
(dp1157
g81
I4
ssg82
g1151
sg75
(lp1158
S'session_id_911_signin=127.0.0.1-7de8cf1c-fb47-4fb9-b232-ca1b0a317dba; session_id_admin=127.0.0.1-af8da352-40e9-4dd3-8b79-59ba92c45f1a; session_id_welcome=127.0.0.1-6ee71c10-fc05-4b8c-a34c-d8ac140167f1'
p1159
asbasbasbag68
(g84
g70
NtRp1160
(dp1161
g73
(dp1162
sg82
g846
sg75
(lp1163
g68
(g89
g70
NtRp1164
(dp1165
g73
(dp1166
g93
g94
ssg82
g1160
sg75
(lp1167
S'http_host'
p1168
asbag68
(g89
g70
NtRp1169
(dp1170
g73
(dp1171
g100
g101
ssg82
g1160
sg75
(lp1172
S':'
asbag68
(g89
g70
NtRp1173
(dp1174
g73
(dp1175
sg82
g1160
sg75
(lp1176
g68
(g69
g70
NtRp1177
(dp1178
g73
(dp1179
g81
I4
ssg82
g1173
sg75
(lp1180
S'127.0.0.1:8000'
p1181
asbasbasbag68
(g84
g70
NtRp1182
(dp1183
g73
(dp1184
sg82
g846
sg75
(lp1185
g68
(g89
g70
NtRp1186
(dp1187
g73
(dp1188
g93
g94
ssg82
g1182
sg75
(lp1189
S'http_referer'
p1190
asbag68
(g89
g70
NtRp1191
(dp1192
g73
(dp1193
g100
g101
ssg82
g1182
sg75
(lp1194
S':'
asbag68
(g89
g70
NtRp1195
(dp1196
g73
(dp1197
sg82
g1182
sg75
(lp1198
g68
(g69
g70
NtRp1199
(dp1200
g73
(dp1201
g81
I4
ssg82
g1195
sg75
(lp1202
S'http://127.0.0.1:8000/911_signin/default/index'
p1203
asbasbasbag68
(g84
g70
NtRp1204
(dp1205
g73
(dp1206
sg82
g846
sg75
(lp1207
g68
(g89
g70
NtRp1208
(dp1209
g73
(dp1210
g93
g94
ssg82
g1204
sg75
(lp1211
S'http_user_agent'
p1212
asbag68
(g89
g70
NtRp1213
(dp1214
g73
(dp1215
g100
g101
ssg82
g1204
sg75
(lp1216
S':'
asbag68
(g89
g70
NtRp1217
(dp1218
g73
(dp1219
sg82
g1204
sg75
(lp1220
g68
(g69
g70
NtRp1221
(dp1222
g73
(dp1223
g81
I4
ssg82
g1217
sg75
(lp1224
S'Mozilla/5.0 (X11; Linux i686) AppleWebKit/537.31 (KHTML, like Gecko) Chrome/26.0.1410.63 Safari/537.31'
p1225
asbasbasbag68
(g84
g70
NtRp1226
(dp1227
g73
(dp1228
sg82
g846
sg75
(lp1229
g68
(g89
g70
NtRp1230
(dp1231
g73
(dp1232
g93
g94
ssg82
g1226
sg75
(lp1233
S'is_jython'
p1234
asbag68
(g89
g70
NtRp1235
(dp1236
g73
(dp1237
g100
g101
ssg82
g1226
sg75
(lp1238
S':'
asbag68
(g89
g70
NtRp1239
(dp1240
g73
(dp1241
sg82
g1226
sg75
(lp1242
g68
(g69
g70
NtRp1243
(dp1244
g73
(dp1245
g81
I4
ssg82
g1239
sg75
(lp1246
g111
asbasbasbag68
(g84
g70
NtRp1247
(dp1248
g73
(dp1249
sg82
g846
sg75
(lp1250
g68
(g89
g70
NtRp1251
(dp1252
g73
(dp1253
g93
g94
ssg82
g1247
sg75
(lp1254
S'is_pypy'
p1255
asbag68
(g89
g70
NtRp1256
(dp1257
g73
(dp1258
g100
g101
ssg82
g1247
sg75
(lp1259
S':'
asbag68
(g89
g70
NtRp1260
(dp1261
g73
(dp1262
sg82
g1247
sg75
(lp1263
g68
(g69
g70
NtRp1264
(dp1265
g73
(dp1266
g81
I4
ssg82
g1260
sg75
(lp1267
g111
asbasbasbag68
(g84
g70
NtRp1268
(dp1269
g73
(dp1270
sg82
g846
sg75
(lp1271
g68
(g89
g70
NtRp1272
(dp1273
g73
(dp1274
g93
g94
ssg82
g1268
sg75
(lp1275
S'path_info'
p1276
asbag68
(g89
g70
NtRp1277
(dp1278
g73
(dp1279
g100
g101
ssg82
g1268
sg75
(lp1280
S':'
asbag68
(g89
g70
NtRp1281
(dp1282
g73
(dp1283
sg82
g1268
sg75
(lp1284
g68
(g69
g70
NtRp1285
(dp1286
g73
(dp1287
g81
I4
ssg82
g1281
sg75
(lp1288
S'/911_signin/default/user/login'
p1289
asbasbasbag68
(g84
g70
NtRp1290
(dp1291
g73
(dp1292
sg82
g846
sg75
(lp1293
g68
(g89
g70
NtRp1294
(dp1295
g73
(dp1296
g93
g94
ssg82
g1290
sg75
(lp1297
S'query_string'
p1298
asbag68
(g89
g70
NtRp1299
(dp1300
g73
(dp1301
g100
g101
ssg82
g1290
sg75
(lp1302
S':'
asbag68
(g89
g70
NtRp1303
(dp1304
g73
(dp1305
sg82
g1290
sg75
(lp1306
g68
(g69
g70
NtRp1307
(dp1308
g73
(dp1309
g81
I4
ssg82
g1303
sg75
(lp1310
S'_next=/911_signin/default/index'
p1311
asbasbasbag68
(g84
g70
NtRp1312
(dp1313
g73
(dp1314
sg82
g846
sg75
(lp1315
g68
(g89
g70
NtRp1316
(dp1317
g73
(dp1318
g93
g94
ssg82
g1312
sg75
(lp1319
S'remote_addr'
p1320
asbag68
(g89
g70
NtRp1321
(dp1322
g73
(dp1323
g100
g101
ssg82
g1312
sg75
(lp1324
S':'
asbag68
(g89
g70
NtRp1325
(dp1326
g73
(dp1327
sg82
g1312
sg75
(lp1328
g68
(g69
g70
NtRp1329
(dp1330
g73
(dp1331
g81
I4
ssg82
g1325
sg75
(lp1332
g214
asbasbasbag68
(g84
g70
NtRp1333
(dp1334
g73
(dp1335
sg82
g846
sg75
(lp1336
g68
(g89
g70
NtRp1337
(dp1338
g73
(dp1339
g93
g94
ssg82
g1333
sg75
(lp1340
S'remote_port'
p1341
asbag68
(g89
g70
NtRp1342
(dp1343
g73
(dp1344
g100
g101
ssg82
g1333
sg75
(lp1345
S':'
asbag68
(g89
g70
NtRp1346
(dp1347
g73
(dp1348
sg82
g1333
sg75
(lp1349
g68
(g69
g70
NtRp1350
(dp1351
g73
(dp1352
g81
I4
ssg82
g1346
sg75
(lp1353
S'51771'
p1354
asbasbasbag68
(g84
g70
NtRp1355
(dp1356
g73
(dp1357
sg82
g846
sg75
(lp1358
g68
(g89
g70
NtRp1359
(dp1360
g73
(dp1361
g93
g94
ssg82
g1355
sg75
(lp1362
S'request_method'
p1363
asbag68
(g89
g70
NtRp1364
(dp1365
g73
(dp1366
g100
g101
ssg82
g1355
sg75
(lp1367
S':'
asbag68
(g89
g70
NtRp1368
(dp1369
g73
(dp1370
sg82
g1355
sg75
(lp1371
g68
(g69
g70
NtRp1372
(dp1373
g73
(dp1374
g81
I4
ssg82
g1368
sg75
(lp1375
S'GET'
p1376
asbasbasbag68
(g84
g70
NtRp1377
(dp1378
g73
(dp1379
sg82
g846
sg75
(lp1380
g68
(g89
g70
NtRp1381
(dp1382
g73
(dp1383
g93
g94
ssg82
g1377
sg75
(lp1384
S'script_name'
p1385
asbag68
(g89
g70
NtRp1386
(dp1387
g73
(dp1388
g100
g101
ssg82
g1377
sg75
(lp1389
S':'
asbag68
(g89
g70
NtRp1390
(dp1391
g73
(dp1392
sg82
g1377
sg75
(lp1393
g68
(g69
g70
NtRp1394
(dp1395
g73
(dp1396
g81
I4
ssg82
g1390
sg75
(lp1397
S''
asbasbasbag68
(g84
g70
NtRp1398
(dp1399
g73
(dp1400
sg82
g846
sg75
(lp1401
g68
(g89
g70
NtRp1402
(dp1403
g73
(dp1404
g93
g94
ssg82
g1398
sg75
(lp1405
S'server_name'
p1406
asbag68
(g89
g70
NtRp1407
(dp1408
g73
(dp1409
g100
g101
ssg82
g1398
sg75
(lp1410
S':'
asbag68
(g89
g70
NtRp1411
(dp1412
g73
(dp1413
sg82
g1398
sg75
(lp1414
g68
(g69
g70
NtRp1415
(dp1416
g73
(dp1417
g81
I4
ssg82
g1411
sg75
(lp1418
S'ubuntu'
p1419
asbasbasbag68
(g84
g70
NtRp1420
(dp1421
g73
(dp1422
sg82
g846
sg75
(lp1423
g68
(g89
g70
NtRp1424
(dp1425
g73
(dp1426
g93
g94
ssg82
g1420
sg75
(lp1427
S'server_port'
p1428
asbag68
(g89
g70
NtRp1429
(dp1430
g73
(dp1431
g100
g101
ssg82
g1420
sg75
(lp1432
S':'
asbag68
(g89
g70
NtRp1433
(dp1434
g73
(dp1435
sg82
g1420
sg75
(lp1436
g68
(g69
g70
NtRp1437
(dp1438
g73
(dp1439
g81
I4
ssg82
g1433
sg75
(lp1440
S'8000'
p1441
asbasbasbag68
(g84
g70
NtRp1442
(dp1443
g73
(dp1444
sg82
g846
sg75
(lp1445
g68
(g89
g70
NtRp1446
(dp1447
g73
(dp1448
g93
g94
ssg82
g1442
sg75
(lp1449
S'server_protocol'
p1450
asbag68
(g89
g70
NtRp1451
(dp1452
g73
(dp1453
g100
g101
ssg82
g1442
sg75
(lp1454
S':'
asbag68
(g89
g70
NtRp1455
(dp1456
g73
(dp1457
sg82
g1442
sg75
(lp1458
g68
(g69
g70
NtRp1459
(dp1460
g73
(dp1461
g81
I4
ssg82
g1455
sg75
(lp1462
S'HTTP/1.1'
p1463
asbasbasbag68
(g84
g70
NtRp1464
(dp1465
g73
(dp1466
sg82
g846
sg75
(lp1467
g68
(g89
g70
NtRp1468
(dp1469
g73
(dp1470
g93
g94
ssg82
g1464
sg75
(lp1471
S'server_software'
p1472
asbag68
(g89
g70
NtRp1473
(dp1474
g73
(dp1475
g100
g101
ssg82
g1464
sg75
(lp1476
S':'
asbag68
(g89
g70
NtRp1477
(dp1478
g73
(dp1479
sg82
g1464
sg75
(lp1480
g68
(g69
g70
NtRp1481
(dp1482
g73
(dp1483
g81
I4
ssg82
g1477
sg75
(lp1484
S'Rocket 1.2.4'
p1485
asbasbasbag68
(g84
g70
NtRp1486
(dp1487
g73
(dp1488
sg82
g846
sg75
(lp1489
g68
(g89
g70
NtRp1490
(dp1491
g73
(dp1492
g93
g94
ssg82
g1486
sg75
(lp1493
S'web2py_crontype'
p1494
asbag68
(g89
g70
NtRp1495
(dp1496
g73
(dp1497
g100
g101
ssg82
g1486
sg75
(lp1498
S':'
asbag68
(g89
g70
NtRp1499
(dp1500
g73
(dp1501
sg82
g1486
sg75
(lp1502
g68
(g69
g70
NtRp1503
(dp1504
g73
(dp1505
g81
I4
ssg82
g1499
sg75
(lp1506
S'hard'
p1507
asbasbasbag68
(g84
g70
NtRp1508
(dp1509
g73
(dp1510
sg82
g846
sg75
(lp1511
g68
(g89
g70
NtRp1512
(dp1513
g73
(dp1514
g93
g94
ssg82
g1508
sg75
(lp1515
S'web2py_path'
p1516
asbag68
(g89
g70
NtRp1517
(dp1518
g73
(dp1519
g100
g101
ssg82
g1508
sg75
(lp1520
S':'
asbag68
(g89
g70
NtRp1521
(dp1522
g73
(dp1523
sg82
g1508
sg75
(lp1524
g68
(g69
g70
NtRp1525
(dp1526
g73
(dp1527
g81
I4
ssg82
g1521
sg75
(lp1528
g893
asbasbasbag68
(g84
g70
NtRp1529
(dp1530
g73
(dp1531
sg82
g846
sg75
(lp1532
g68
(g89
g70
NtRp1533
(dp1534
g73
(dp1535
g93
g94
ssg82
g1529
sg75
(lp1536
S'web2py_version'
p1537
asbag68
(g89
g70
NtRp1538
(dp1539
g73
(dp1540
g100
g101
ssg82
g1529
sg75
(lp1541
S':'
asbag68
(g89
g70
NtRp1542
(dp1543
g73
(dp1544
sg82
g1529
sg75
(lp1545
g68
(g69
g70
NtRp1546
(dp1547
g73
(dp1548
g81
I4
ssg82
g1542
sg75
(lp1549
g68
(g77
g70
NtRp1550
(dp1551
g73
(dp1552
g81
I3
ssg82
Nsg75
(lp1553
g68
(g84
g70
NtRp1554
(dp1555
g73
(dp1556
sg82
g1550
sg75
(lp1557
g68
(g89
g70
NtRp1558
(dp1559
g73
(dp1560
sg82
g1554
sg75
(lp1561
g68
(g69
g70
NtRp1562
(dp1563
g73
(dp1564
g81
I3
ssg82
g1558
sg75
(lp1565
S'1'
asbasbasbag68
(g84
g70
NtRp1566
(dp1567
g73
(dp1568
sg82
g1550
sg75
(lp1569
g68
(g89
g70
NtRp1570
(dp1571
g73
(dp1572
sg82
g1566
sg75
(lp1573
g68
(g69
g70
NtRp1574
(dp1575
g73
(dp1576
g81
I3
ssg82
g1570
sg75
(lp1577
S'99'
p1578
asbasbasbag68
(g84
g70
NtRp1579
(dp1580
g73
(dp1581
sg82
g1550
sg75
(lp1582
g68
(g89
g70
NtRp1583
(dp1584
g73
(dp1585
sg82
g1579
sg75
(lp1586
g68
(g69
g70
NtRp1587
(dp1588
g73
(dp1589
g81
I3
ssg82
g1583
sg75
(lp1590
S'7'
asbasbasbag68
(g84
g70
NtRp1591
(dp1592
g73
(dp1593
sg82
g1550
sg75
(lp1594
g68
(g89
g70
NtRp1595
(dp1596
g73
(dp1597
sg82
g1591
sg75
(lp1598
g68
(g69
g70
NtRp1599
(dp1600
g73
(dp1601
g81
I3
ssg82
g1595
sg75
(lp1602
S'datetime.datetime(2012, 3, 4, 22, 12, 8)'
p1603
asbasbasbag68
(g84
g70
NtRp1604
(dp1605
g73
(dp1606
sg82
g1550
sg75
(lp1607
g68
(g89
g70
NtRp1608
(dp1609
g73
(dp1610
sg82
g1604
sg75
(lp1611
g68
(g69
g70
NtRp1612
(dp1613
g73
(dp1614
g81
I3
ssg82
g1608
sg75
(lp1615
S'stable'
p1616
asbasbasbasbasbasbasbag68
(g84
g70
NtRp1617
(dp1618
g73
(dp1619
sg82
g846
sg75
(lp1620
g68
(g89
g70
NtRp1621
(dp1622
g73
(dp1623
g93
g94
ssg82
g1617
sg75
(lp1624
S'wsgi_errors'
p1625
asbag68
(g89
g70
NtRp1626
(dp1627
g73
(dp1628
g100
g101
ssg82
g1617
sg75
(lp1629
S':'
asbag68
(g89
g70
NtRp1630
(dp1631
g73
(dp1632
sg82
g1617
sg75
(lp1633
g68
(g69
g70
NtRp1634
(dp1635
g73
(dp1636
g81
I4
ssg82
g1630
sg75
(lp1637
S"<open file '<stderr>', mode 'w' at 0xb72bf0d0>"
p1638
asbasbasbag68
(g84
g70
NtRp1639
(dp1640
g73
(dp1641
sg82
g846
sg75
(lp1642
g68
(g89
g70
NtRp1643
(dp1644
g73
(dp1645
g93
g94
ssg82
g1639
sg75
(lp1646
S'wsgi_file_wrapper'
p1647
asbag68
(g89
g70
NtRp1648
(dp1649
g73
(dp1650
g100
g101
ssg82
g1639
sg75
(lp1651
S':'
asbag68
(g89
g70
NtRp1652
(dp1653
g73
(dp1654
sg82
g1639
sg75
(lp1655
g68
(g69
g70
NtRp1656
(dp1657
g73
(dp1658
g81
I4
ssg82
g1652
sg75
(lp1659
S'<class wsgiref.util.FileWrapper at 0x9758e9c>'
p1660
asbasbasbag68
(g84
g70
NtRp1661
(dp1662
g73
(dp1663
sg82
g846
sg75
(lp1664
g68
(g89
g70
NtRp1665
(dp1666
g73
(dp1667
g93
g94
ssg82
g1661
sg75
(lp1668
S'wsgi_input'
p1669
asbag68
(g89
g70
NtRp1670
(dp1671
g73
(dp1672
g100
g101
ssg82
g1661
sg75
(lp1673
S':'
asbag68
(g89
g70
NtRp1674
(dp1675
g73
(dp1676
sg82
g1661
sg75
(lp1677
g68
(g69
g70
NtRp1678
(dp1679
g73
(dp1680
g81
I4
ssg82
g1674
sg75
(lp1681
S'<socket._fileobject object at 0xad41256c>'
p1682
asbasbasbag68
(g84
g70
NtRp1683
(dp1684
g73
(dp1685
sg82
g846
sg75
(lp1686
g68
(g89
g70
NtRp1687
(dp1688
g73
(dp1689
g93
g94
ssg82
g1683
sg75
(lp1690
S'wsgi_multiprocess'
p1691
asbag68
(g89
g70
NtRp1692
(dp1693
g73
(dp1694
g100
g101
ssg82
g1683
sg75
(lp1695
S':'
asbag68
(g89
g70
NtRp1696
(dp1697
g73
(dp1698
sg82
g1683
sg75
(lp1699
g68
(g69
g70
NtRp1700
(dp1701
g73
(dp1702
g81
I4
ssg82
g1696
sg75
(lp1703
g111
asbasbasbag68
(g84
g70
NtRp1704
(dp1705
g73
(dp1706
sg82
g846
sg75
(lp1707
g68
(g89
g70
NtRp1708
(dp1709
g73
(dp1710
g93
g94
ssg82
g1704
sg75
(lp1711
S'wsgi_multithread'
p1712
asbag68
(g89
g70
NtRp1713
(dp1714
g73
(dp1715
g100
g101
ssg82
g1704
sg75
(lp1716
S':'
asbag68
(g89
g70
NtRp1717
(dp1718
g73
(dp1719
sg82
g1704
sg75
(lp1720
g68
(g69
g70
NtRp1721
(dp1722
g73
(dp1723
g81
I4
ssg82
g1717
sg75
(lp1724
S'True'
p1725
asbasbasbag68
(g84
g70
NtRp1726
(dp1727
g73
(dp1728
sg82
g846
sg75
(lp1729
g68
(g89
g70
NtRp1730
(dp1731
g73
(dp1732
g93
g94
ssg82
g1726
sg75
(lp1733
S'wsgi_run_once'
p1734
asbag68
(g89
g70
NtRp1735
(dp1736
g73
(dp1737
g100
g101
ssg82
g1726
sg75
(lp1738
S':'
asbag68
(g89
g70
NtRp1739
(dp1740
g73
(dp1741
sg82
g1726
sg75
(lp1742
g68
(g69
g70
NtRp1743
(dp1744
g73
(dp1745
g81
I4
ssg82
g1739
sg75
(lp1746
g111
asbasbasbag68
(g84
g70
NtRp1747
(dp1748
g73
(dp1749
sg82
g846
sg75
(lp1750
g68
(g89
g70
NtRp1751
(dp1752
g73
(dp1753
g93
g94
ssg82
g1747
sg75
(lp1754
S'wsgi_url_scheme'
p1755
asbag68
(g89
g70
NtRp1756
(dp1757
g73
(dp1758
g100
g101
ssg82
g1747
sg75
(lp1759
S':'
asbag68
(g89
g70
NtRp1760
(dp1761
g73
(dp1762
sg82
g1747
sg75
(lp1763
g68
(g69
g70
NtRp1764
(dp1765
g73
(dp1766
g81
I4
ssg82
g1760
sg75
(lp1767
S'http'
p1768
asbasbasbag68
(g84
g70
NtRp1769
(dp1770
g73
(dp1771
sg82
g846
sg75
(lp1772
g68
(g89
g70
NtRp1773
(dp1774
g73
(dp1775
g93
g94
ssg82
g1769
sg75
(lp1776
S'wsgi_version'
p1777
asbag68
(g89
g70
NtRp1778
(dp1779
g73
(dp1780
g100
g101
ssg82
g1769
sg75
(lp1781
S':'
asbag68
(g89
g70
NtRp1782
(dp1783
g73
(dp1784
sg82
g1769
sg75
(lp1785
g68
(g69
g70
NtRp1786
(dp1787
g73
(dp1788
g81
I4
ssg82
g1782
sg75
(lp1789
g68
(g77
g70
NtRp1790
(dp1791
g73
(dp1792
g81
I3
ssg82
Nsg75
(lp1793
g68
(g84
g70
NtRp1794
(dp1795
g73
(dp1796
sg82
g1790
sg75
(lp1797
g68
(g89
g70
NtRp1798
(dp1799
g73
(dp1800
sg82
g1794
sg75
(lp1801
g68
(g69
g70
NtRp1802
(dp1803
g73
(dp1804
g81
I3
ssg82
g1798
sg75
(lp1805
S'1'
asbasbasbag68
(g84
g70
NtRp1806
(dp1807
g73
(dp1808
sg82
g1790
sg75
(lp1809
g68
(g89
g70
NtRp1810
(dp1811
g73
(dp1812
sg82
g1806
sg75
(lp1813
g68
(g69
g70
NtRp1814
(dp1815
g73
(dp1816
g81
I3
ssg82
g1810
sg75
(lp1817
S'0'
asbasbasbasbasbasbasbasbasbasbasbag68
(g84
g70
NtRp1818
(dp1819
g73
(dp1820
sg82
g78
sg75
(lp1821
g68
(g89
g70
NtRp1822
(dp1823
g73
(dp1824
g93
g94
ssg82
g1818
sg75
(lp1825
S'extension'
p1826
asbag68
(g89
g70
NtRp1827
(dp1828
g73
(dp1829
g100
g101
ssg82
g1818
sg75
(lp1830
S':'
asbag68
(g89
g70
NtRp1831
(dp1832
g73
(dp1833
sg82
g1818
sg75
(lp1834
g68
(g69
g70
NtRp1835
(dp1836
g73
(dp1837
g81
I5
ssg82
g1831
sg75
(lp1838
S'html'
p1839
asbasbasbag68
(g84
g70
NtRp1840
(dp1841
g73
(dp1842
sg82
g78
sg75
(lp1843
g68
(g89
g70
NtRp1844
(dp1845
g73
(dp1846
g93
g94
ssg82
g1840
sg75
(lp1847
S'folder'
p1848
asbag68
(g89
g70
NtRp1849
(dp1850
g73
(dp1851
g100
g101
ssg82
g1840
sg75
(lp1852
S':'
asbag68
(g89
g70
NtRp1853
(dp1854
g73
(dp1855
sg82
g1840
sg75
(lp1856
g68
(g69
g70
NtRp1857
(dp1858
g73
(dp1859
g81
I5
ssg82
g1853
sg75
(lp1860
S'/home/enigma/web2py/applications/911_signin/'
p1861
asbasbasbag68
(g84
g70
NtRp1862
(dp1863
g73
(dp1864
sg82
g78
sg75
(lp1865
g68
(g89
g70
NtRp1866
(dp1867
g73
(dp1868
g93
g94
ssg82
g1862
sg75
(lp1869
S'function'
p1870
asbag68
(g89
g70
NtRp1871
(dp1872
g73
(dp1873
g100
g101
ssg82
g1862
sg75
(lp1874
S':'
asbag68
(g89
g70
NtRp1875
(dp1876
g73
(dp1877
sg82
g1862
sg75
(lp1878
g68
(g69
g70
NtRp1879
(dp1880
g73
(dp1881
g81
I5
ssg82
g1875
sg75
(lp1882
S'user'
p1883
asbasbasbag68
(g84
g70
NtRp1884
(dp1885
g73
(dp1886
sg82
g78
sg75
(lp1887
g68
(g89
g70
NtRp1888
(dp1889
g73
(dp1890
g93
g94
ssg82
g1884
sg75
(lp1891
S'get_vars'
p1892
asbag68
(g89
g70
NtRp1893
(dp1894
g73
(dp1895
g100
g101
ssg82
g1884
sg75
(lp1896
S':'
asbag68
(g89
g70
NtRp1897
(dp1898
g73
(dp1899
sg82
g1884
sg75
(lp1900
g68
(g69
g70
NtRp1901
(dp1902
g73
(dp1903
g81
I5
ssg82
g1897
sg75
(lp1904
g68
(g77
g70
NtRp1905
(dp1906
g73
(dp1907
g81
I4
ssg82
Nsg75
(lp1908
sbasbasbasbag68
(g84
g70
NtRp1909
(dp1910
g73
(dp1911
sg82
g78
sg75
(lp1912
g68
(g89
g70
NtRp1913
(dp1914
g73
(dp1915
g93
g94
ssg82
g1909
sg75
(lp1916
S'global_settings'
p1917
asbag68
(g89
g70
NtRp1918
(dp1919
g73
(dp1920
g100
g101
ssg82
g1909
sg75
(lp1921
S':'
asbag68
(g89
g70
NtRp1922
(dp1923
g73
(dp1924
sg82
g1909
sg75
(lp1925
g68
(g69
g70
NtRp1926
(dp1927
g73
(dp1928
g81
I5
ssg82
g1922
sg75
(lp1929
g68
(g77
g70
NtRp1930
(dp1931
g73
(dp1932
g81
I4
ssg82
Nsg75
(lp1933
g68
(g84
g70
NtRp1934
(dp1935
g73
(dp1936
sg82
g1930
sg75
(lp1937
g68
(g89
g70
NtRp1938
(dp1939
g73
(dp1940
g93
g94
ssg82
g1934
sg75
(lp1941
g858
asbag68
(g89
g70
NtRp1942
(dp1943
g73
(dp1944
g100
g101
ssg82
g1934
sg75
(lp1945
S':'
asbag68
(g89
g70
NtRp1946
(dp1947
g73
(dp1948
sg82
g1934
sg75
(lp1949
g68
(g69
g70
NtRp1950
(dp1951
g73
(dp1952
g81
I4
ssg82
g1946
sg75
(lp1953
S"set(['/home/enigma/web2py/applications/admin/', '/home/enigma/web2py/applications/911_signin/', '/home/enigma/web2py/applications/welcome/'])"
p1954
asbasbasbag68
(g84
g70
NtRp1955
(dp1956
g73
(dp1957
sg82
g1930
sg75
(lp1958
g68
(g89
g70
NtRp1959
(dp1960
g73
(dp1961
g93
g94
ssg82
g1955
sg75
(lp1962
g880
asbag68
(g89
g70
NtRp1963
(dp1964
g73
(dp1965
g100
g101
ssg82
g1955
sg75
(lp1966
S':'
asbag68
(g89
g70
NtRp1967
(dp1968
g73
(dp1969
sg82
g1955
sg75
(lp1970
g68
(g69
g70
NtRp1971
(dp1972
g73
(dp1973
g81
I4
ssg82
g1967
sg75
(lp1974
g893
asbasbasbag68
(g84
g70
NtRp1975
(dp1976
g73
(dp1977
sg82
g1930
sg75
(lp1978
g68
(g89
g70
NtRp1979
(dp1980
g73
(dp1981
g93
g94
ssg82
g1975
sg75
(lp1982
g902
asbag68
(g89
g70
NtRp1983
(dp1984
g73
(dp1985
g100
g101
ssg82
g1975
sg75
(lp1986
S':'
asbag68
(g89
g70
NtRp1987
(dp1988
g73
(dp1989
sg82
g1975
sg75
(lp1990
g68
(g69
g70
NtRp1991
(dp1992
g73
(dp1993
g81
I4
ssg82
g1987
sg75
(lp1994
g68
(g77
g70
NtRp1995
(dp1996
g73
(dp1997
g81
I3
ssg82
Nsg75
(lp1998
sbasbasbasbag68
(g84
g70
NtRp1999
(dp2000
g73
(dp2001
sg82
g1930
sg75
(lp2002
g68
(g89
g70
NtRp2003
(dp2004
g73
(dp2005
g93
g94
ssg82
g1999
sg75
(lp2006
g927
asbag68
(g89
g70
NtRp2007
(dp2008
g73
(dp2009
g100
g101
ssg82
g1999
sg75
(lp2010
S':'
asbag68
(g89
g70
NtRp2011
(dp2012
g73
(dp2013
sg82
g1999
sg75
(lp2014
g68
(g69
g70
NtRp2015
(dp2016
g73
(dp2017
g81
I4
ssg82
g2011
sg75
(lp2018
S"<Values at 0x9817bec: {'verbose': False, 'ip': '127.0.0.1', 'shutdown_timeout': 5, 'taskbar': False, 'nocron': False, 'pid_filename': 'httpserver.pid', 'maxthreads': None, 'softcron': False, 'server_name': 'ubuntu', 'bpython': False, 'nogui': False, 'port': 8000, 'extcron': False, 'debuglevel': 30, 'test': None, 'folder': '/home/enigma/web2py', 'config': '', 'import_models': False, 'winservice': '', 'shell': None, 'run': '', 'log_filename': 'httpserver.log', 'args': [''], 'socket_timeout': 5, 'ssl_ca_certificate': None, 'scheduler': None, 'profiler_filename': None, 'ssl_private_key': '', 'password': '<ask>', 'request_queue_size': 5, 'ssl_certificate': '', 'cronjob': False, 'numthreads': None, 'quiet': False, 'interfaces': None, 'minthreads': None, 'timeout': 10, 'plain': False, 'nobanner': False}>"
p2019
asbasbasbag68
(g84
g70
NtRp2020
(dp2021
g73
(dp2022
sg82
g1930
sg75
(lp2023
g68
(g89
g70
NtRp2024
(dp2025
g73
(dp2026
g93
g94
ssg82
g2020
sg75
(lp2027
g949
asbag68
(g89
g70
NtRp2028
(dp2029
g73
(dp2030
g100
g101
ssg82
g2020
sg75
(lp2031
S':'
asbag68
(g89
g70
NtRp2032
(dp2033
g73
(dp2034
sg82
g2020
sg75
(lp2035
g68
(g69
g70
NtRp2036
(dp2037
g73
(dp2038
g81
I4
ssg82
g2032
sg75
(lp2039
S'set([])'
p2040
asbasbasbag68
(g84
g70
NtRp2041
(dp2042
g73
(dp2043
sg82
g1930
sg75
(lp2044
g68
(g89
g70
NtRp2045
(dp2046
g73
(dp2047
g93
g94
ssg82
g2041
sg75
(lp2048
g971
asbag68
(g89
g70
NtRp2049
(dp2050
g73
(dp2051
g100
g101
ssg82
g2041
sg75
(lp2052
S':'
asbag68
(g89
g70
NtRp2053
(dp2054
g73
(dp2055
sg82
g2041
sg75
(lp2056
g68
(g69
g70
NtRp2057
(dp2058
g73
(dp2059
g81
I4
ssg82
g2053
sg75
(lp2060
g111
asbasbasbag68
(g84
g70
NtRp2061
(dp2062
g73
(dp2063
sg82
g1930
sg75
(lp2064
g68
(g89
g70
NtRp2065
(dp2066
g73
(dp2067
g93
g94
ssg82
g2061
sg75
(lp2068
g992
asbag68
(g89
g70
NtRp2069
(dp2070
g73
(dp2071
g100
g101
ssg82
g2061
sg75
(lp2072
S':'
asbag68
(g89
g70
NtRp2073
(dp2074
g73
(dp2075
sg82
g2061
sg75
(lp2076
g68
(g69
g70
NtRp2077
(dp2078
g73
(dp2079
g81
I4
ssg82
g2073
sg75
(lp2080
g1005
asbasbasbag68
(g84
g70
NtRp2081
(dp2082
g73
(dp2083
sg82
g1930
sg75
(lp2084
g68
(g89
g70
NtRp2085
(dp2086
g73
(dp2087
g93
g94
ssg82
g2081
sg75
(lp2088
g1234
asbag68
(g89
g70
NtRp2089
(dp2090
g73
(dp2091
g100
g101
ssg82
g2081
sg75
(lp2092
S':'
asbag68
(g89
g70
NtRp2093
(dp2094
g73
(dp2095
sg82
g2081
sg75
(lp2096
g68
(g69
g70
NtRp2097
(dp2098
g73
(dp2099
g81
I4
ssg82
g2093
sg75
(lp2100
g111
asbasbasbag68
(g84
g70
NtRp2101
(dp2102
g73
(dp2103
sg82
g1930
sg75
(lp2104
g68
(g89
g70
NtRp2105
(dp2106
g73
(dp2107
g93
g94
ssg82
g2101
sg75
(lp2108
g1255
asbag68
(g89
g70
NtRp2109
(dp2110
g73
(dp2111
g100
g101
ssg82
g2101
sg75
(lp2112
S':'
asbag68
(g89
g70
NtRp2113
(dp2114
g73
(dp2115
sg82
g2101
sg75
(lp2116
g68
(g69
g70
NtRp2117
(dp2118
g73
(dp2119
g81
I4
ssg82
g2113
sg75
(lp2120
g111
asbasbasbag68
(g84
g70
NtRp2121
(dp2122
g73
(dp2123
sg82
g1930
sg75
(lp2124
g68
(g89
g70
NtRp2125
(dp2126
g73
(dp2127
g93
g94
ssg82
g2121
sg75
(lp2128
g1494
asbag68
(g89
g70
NtRp2129
(dp2130
g73
(dp2131
g100
g101
ssg82
g2121
sg75
(lp2132
S':'
asbag68
(g89
g70
NtRp2133
(dp2134
g73
(dp2135
sg82
g2121
sg75
(lp2136
g68
(g69
g70
NtRp2137
(dp2138
g73
(dp2139
g81
I4
ssg82
g2133
sg75
(lp2140
g1507
asbasbasbag68
(g84
g70
NtRp2141
(dp2142
g73
(dp2143
sg82
g1930
sg75
(lp2144
g68
(g89
g70
NtRp2145
(dp2146
g73
(dp2147
g93
g94
ssg82
g2141
sg75
(lp2148
g1537
asbag68
(g89
g70
NtRp2149
(dp2150
g73
(dp2151
g100
g101
ssg82
g2141
sg75
(lp2152
S':'
asbag68
(g89
g70
NtRp2153
(dp2154
g73
(dp2155
sg82
g2141
sg75
(lp2156
g68
(g69
g70
NtRp2157
(dp2158
g73
(dp2159
g81
I4
ssg82
g2153
sg75
(lp2160
g68
(g77
g70
NtRp2161
(dp2162
g73
(dp2163
g81
I3
ssg82
Nsg75
(lp2164
g68
(g84
g70
NtRp2165
(dp2166
g73
(dp2167
sg82
g2161
sg75
(lp2168
g68
(g89
g70
NtRp2169
(dp2170
g73
(dp2171
sg82
g2165
sg75
(lp2172
g68
(g69
g70
NtRp2173
(dp2174
g73
(dp2175
g81
I3
ssg82
g2169
sg75
(lp2176
S'1'
asbasbasbag68
(g84
g70
NtRp2177
(dp2178
g73
(dp2179
sg82
g2161
sg75
(lp2180
g68
(g89
g70
NtRp2181
(dp2182
g73
(dp2183
sg82
g2177
sg75
(lp2184
g68
(g69
g70
NtRp2185
(dp2186
g73
(dp2187
g81
I3
ssg82
g2181
sg75
(lp2188
S'99'
p2189
asbasbasbag68
(g84
g70
NtRp2190
(dp2191
g73
(dp2192
sg82
g2161
sg75
(lp2193
g68
(g89
g70
NtRp2194
(dp2195
g73
(dp2196
sg82
g2190
sg75
(lp2197
g68
(g69
g70
NtRp2198
(dp2199
g73
(dp2200
g81
I3
ssg82
g2194
sg75
(lp2201
S'7'
asbasbasbag68
(g84
g70
NtRp2202
(dp2203
g73
(dp2204
sg82
g2161
sg75
(lp2205
g68
(g89
g70
NtRp2206
(dp2207
g73
(dp2208
sg82
g2202
sg75
(lp2209
g68
(g69
g70
NtRp2210
(dp2211
g73
(dp2212
g81
I3
ssg82
g2206
sg75
(lp2213
S'datetime.datetime(2012, 3, 4, 22, 12, 8)'
p2214
asbasbasbag68
(g84
g70
NtRp2215
(dp2216
g73
(dp2217
sg82
g2161
sg75
(lp2218
g68
(g89
g70
NtRp2219
(dp2220
g73
(dp2221
sg82
g2215
sg75
(lp2222
g68
(g69
g70
NtRp2223
(dp2224
g73
(dp2225
g81
I3
ssg82
g2219
sg75
(lp2226
g1616
asbasbasbasbasbasbasbasbasbasbasbag68
(g84
g70
NtRp2227
(dp2228
g73
(dp2229
sg82
g78
sg75
(lp2230
g68
(g89
g70
NtRp2231
(dp2232
g73
(dp2233
g93
g94
ssg82
g2227
sg75
(lp2234
S'is_https'
p2235
asbag68
(g89
g70
NtRp2236
(dp2237
g73
(dp2238
g100
g101
ssg82
g2227
sg75
(lp2239
S':'
asbag68
(g89
g70
NtRp2240
(dp2241
g73
(dp2242
sg82
g2227
sg75
(lp2243
g68
(g69
g70
NtRp2244
(dp2245
g73
(dp2246
g81
I5
ssg82
g2240
sg75
(lp2247
g111
asbasbasbag68
(g84
g70
NtRp2248
(dp2249
g73
(dp2250
sg82
g78
sg75
(lp2251
g68
(g89
g70
NtRp2252
(dp2253
g73
(dp2254
g93
g94
ssg82
g2248
sg75
(lp2255
S'is_local'
p2256
asbag68
(g89
g70
NtRp2257
(dp2258
g73
(dp2259
g100
g101
ssg82
g2248
sg75
(lp2260
S':'
asbag68
(g89
g70
NtRp2261
(dp2262
g73
(dp2263
sg82
g2248
sg75
(lp2264
g68
(g69
g70
NtRp2265
(dp2266
g73
(dp2267
g81
I5
ssg82
g2261
sg75
(lp2268
g1725
asbasbasbag68
(g84
g70
NtRp2269
(dp2270
g73
(dp2271
sg82
g78
sg75
(lp2272
g68
(g89
g70
NtRp2273
(dp2274
g73
(dp2275
g93
g94
ssg82
g2269
sg75
(lp2276
S'is_restful'
p2277
asbag68
(g89
g70
NtRp2278
(dp2279
g73
(dp2280
g100
g101
ssg82
g2269
sg75
(lp2281
S':'
asbag68
(g89
g70
NtRp2282
(dp2283
g73
(dp2284
sg82
g2269
sg75
(lp2285
g68
(g69
g70
NtRp2286
(dp2287
g73
(dp2288
g81
I5
ssg82
g2282
sg75
(lp2289
g111
asbasbasbag68
(g84
g70
NtRp2290
(dp2291
g73
(dp2292
sg82
g78
sg75
(lp2293
g68
(g89
g70
NtRp2294
(dp2295
g73
(dp2296
g93
g94
ssg82
g2290
sg75
(lp2297
S'now'
p2298
asbag68
(g89
g70
NtRp2299
(dp2300
g73
(dp2301
g100
g101
ssg82
g2290
sg75
(lp2302
S':'
asbag68
(g89
g70
NtRp2303
(dp2304
g73
(dp2305
sg82
g2290
sg75
(lp2306
g68
(g69
g70
NtRp2307
(dp2308
g73
(dp2309
g81
I5
ssg82
g2303
sg75
(lp2310
S'datetime.datetime(2013, 5, 17, 18, 2, 59, 493267)'
p2311
asbasbasbag68
(g84
g70
NtRp2312
(dp2313
g73
(dp2314
sg82
g78
sg75
(lp2315
g68
(g89
g70
NtRp2316
(dp2317
g73
(dp2318
g93
g94
ssg82
g2312
sg75
(lp2319
S'post_vars'
p2320
asbag68
(g89
g70
NtRp2321
(dp2322
g73
(dp2323
g100
g101
ssg82
g2312
sg75
(lp2324
S':'
asbag68
(g89
g70
NtRp2325
(dp2326
g73
(dp2327
sg82
g2312
sg75
(lp2328
g68
(g69
g70
NtRp2329
(dp2330
g73
(dp2331
g81
I5
ssg82
g2325
sg75
(lp2332
g68
(g77
g70
NtRp2333
(dp2334
g73
(dp2335
g81
I4
ssg82
Nsg75
(lp2336
sbasbasbasbag68
(g84
g70
NtRp2337
(dp2338
g73
(dp2339
sg82
g78
sg75
(lp2340
g68
(g89
g70
NtRp2341
(dp2342
g73
(dp2343
g93
g94
ssg82
g2337
sg75
(lp2344
S'raw_args'
p2345
asbag68
(g89
g70
NtRp2346
(dp2347
g73
(dp2348
g100
g101
ssg82
g2337
sg75
(lp2349
S':'
asbag68
(g89
g70
NtRp2350
(dp2351
g73
(dp2352
sg82
g2337
sg75
(lp2353
g68
(g69
g70
NtRp2354
(dp2355
g73
(dp2356
g81
I5
ssg82
g2350
sg75
(lp2357
g170
asbasbasbag68
(g84
g70
NtRp2358
(dp2359
g73
(dp2360
sg82
g78
sg75
(lp2361
g68
(g89
g70
NtRp2362
(dp2363
g73
(dp2364
g93
g94
ssg82
g2358
sg75
(lp2365
S'url'
p2366
asbag68
(g89
g70
NtRp2367
(dp2368
g73
(dp2369
g100
g101
ssg82
g2358
sg75
(lp2370
S':'
asbag68
(g89
g70
NtRp2371
(dp2372
g73
(dp2373
sg82
g2358
sg75
(lp2374
g68
(g69
g70
NtRp2375
(dp2376
g73
(dp2377
g81
I5
ssg82
g2371
sg75
(lp2378
S'/911_signin/default/user/login'
p2379
asbasbasbag68
(g84
g70
NtRp2380
(dp2381
g73
(dp2382
sg82
g78
sg75
(lp2383
g68
(g89
g70
NtRp2384
(dp2385
g73
(dp2386
g93
g94
ssg82
g2380
sg75
(lp2387
S'utcnow'
p2388
asbag68
(g89
g70
NtRp2389
(dp2390
g73
(dp2391
g100
g101
ssg82
g2380
sg75
(lp2392
S':'
asbag68
(g89
g70
NtRp2393
(dp2394
g73
(dp2395
sg82
g2380
sg75
(lp2396
g68
(g69
g70
NtRp2397
(dp2398
g73
(dp2399
g81
I5
ssg82
g2393
sg75
(lp2400
S'datetime.datetime(2013, 5, 17, 12, 32, 59, 493325)'
p2401
asbasbasbag68
(g84
g70
NtRp2402
(dp2403
g73
(dp2404
sg82
g78
sg75
(lp2405
g68
(g89
g70
NtRp2406
(dp2407
g73
(dp2408
g93
g94
ssg82
g2402
sg75
(lp2409
S'uuid'
p2410
asbag68
(g89
g70
NtRp2411
(dp2412
g73
(dp2413
g100
g101
ssg82
g2402
sg75
(lp2414
S':'
asbag68
(g89
g70
NtRp2415
(dp2416
g73
(dp2417
sg82
g2402
sg75
(lp2418
g68
(g69
g70
NtRp2419
(dp2420
g73
(dp2421
g81
I5
ssg82
g2415
sg75
(lp2422
S'911_signin/127.0.0.1.2013-05-17.18-02-59.521f43b2-3ca0-49e0-988d-f820d0379588'
p2423
asbasbasbag68
(g84
g70
NtRp2424
(dp2425
g73
(dp2426
sg82
g78
sg75
(lp2427
g68
(g89
g70
NtRp2428
(dp2429
g73
(dp2430
g93
g94
ssg82
g2424
sg75
(lp2431
S'vars'
p2432
asbag68
(g89
g70
NtRp2433
(dp2434
g73
(dp2435
g100
g101
ssg82
g2424
sg75
(lp2436
S':'
asbag68
(g89
g70
NtRp2437
(dp2438
g73
(dp2439
sg82
g2424
sg75
(lp2440
g68
(g69
g70
NtRp2441
(dp2442
g73
(dp2443
g81
I5
ssg82
g2437
sg75
(lp2444
g68
(g77
g70
NtRp2445
(dp2446
g73
(dp2447
g81
I4
ssg82
Nsg75
(lp2448
sbasbasbasbag68
(g84
g70
NtRp2449
(dp2450
g73
(dp2451
sg82
g78
sg75
(lp2452
g68
(g89
g70
NtRp2453
(dp2454
g73
(dp2455
g93
g94
ssg82
g2449
sg75
(lp2456
S'wsgi'
p2457
asbag68
(g89
g70
NtRp2458
(dp2459
g73
(dp2460
g100
g101
ssg82
g2449
sg75
(lp2461
S':'
asbag68
(g89
g70
NtRp2462
(dp2463
g73
(dp2464
sg82
g2449
sg75
(lp2465
g68
(g69
g70
NtRp2466
(dp2467
g73
(dp2468
g81
I5
ssg82
g2462
sg75
(lp2469
g68
(g77
g70
NtRp2470
(dp2471
g73
(dp2472
g81
I4
ssg82
Nsg75
(lp2473
g68
(g84
g70
NtRp2474
(dp2475
g73
(dp2476
sg82
g2470
sg75
(lp2477
g68
(g89
g70
NtRp2478
(dp2479
g73
(dp2480
g93
g94
ssg82
g2474
sg75
(lp2481
S'environ'
p2482
asbag68
(g89
g70
NtRp2483
(dp2484
g73
(dp2485
g100
g101
ssg82
g2474
sg75
(lp2486
S':'
asbag68
(g89
g70
NtRp2487
(dp2488
g73
(dp2489
sg82
g2474
sg75
(lp2490
g68
(g69
g70
NtRp2491
(dp2492
g73
(dp2493
g81
I4
ssg82
g2487
sg75
(lp2494
g68
(g77
g70
NtRp2495
(dp2496
g73
(dp2497
g81
I3
ssg82
Nsg75
(lp2498
g68
(g84
g70
NtRp2499
(dp2500
g73
(dp2501
sg82
g2495
sg75
(lp2502
g68
(g89
g70
NtRp2503
(dp2504
g73
(dp2505
g93
g94
ssg82
g2499
sg75
(lp2506
S'HTTP_ACCEPT'
p2507
asbag68
(g89
g70
NtRp2508
(dp2509
g73
(dp2510
g100
g101
ssg82
g2499
sg75
(lp2511
S':'
asbag68
(g89
g70
NtRp2512
(dp2513
g73
(dp2514
sg82
g2499
sg75
(lp2515
g68
(g69
g70
NtRp2516
(dp2517
g73
(dp2518
g81
I3
ssg82
g2512
sg75
(lp2519
g1027
asbasbasbag68
(g84
g70
NtRp2520
(dp2521
g73
(dp2522
sg82
g2495
sg75
(lp2523
g68
(g89
g70
NtRp2524
(dp2525
g73
(dp2526
g93
g94
ssg82
g2520
sg75
(lp2527
S'HTTP_ACCEPT_CHARSET'
p2528
asbag68
(g89
g70
NtRp2529
(dp2530
g73
(dp2531
g100
g101
ssg82
g2520
sg75
(lp2532
S':'
asbag68
(g89
g70
NtRp2533
(dp2534
g73
(dp2535
sg82
g2520
sg75
(lp2536
g68
(g69
g70
NtRp2537
(dp2538
g73
(dp2539
g81
I3
ssg82
g2533
sg75
(lp2540
g1049
asbasbasbag68
(g84
g70
NtRp2541
(dp2542
g73
(dp2543
sg82
g2495
sg75
(lp2544
g68
(g89
g70
NtRp2545
(dp2546
g73
(dp2547
g93
g94
ssg82
g2541
sg75
(lp2548
S'HTTP_ACCEPT_ENCODING'
p2549
asbag68
(g89
g70
NtRp2550
(dp2551
g73
(dp2552
g100
g101
ssg82
g2541
sg75
(lp2553
S':'
asbag68
(g89
g70
NtRp2554
(dp2555
g73
(dp2556
sg82
g2541
sg75
(lp2557
g68
(g69
g70
NtRp2558
(dp2559
g73
(dp2560
g81
I3
ssg82
g2554
sg75
(lp2561
g1071
asbasbasbag68
(g84
g70
NtRp2562
(dp2563
g73
(dp2564
sg82
g2495
sg75
(lp2565
g68
(g89
g70
NtRp2566
(dp2567
g73
(dp2568
g93
g94
ssg82
g2562
sg75
(lp2569
S'HTTP_ACCEPT_LANGUAGE'
p2570
asbag68
(g89
g70
NtRp2571
(dp2572
g73
(dp2573
g100
g101
ssg82
g2562
sg75
(lp2574
S':'
asbag68
(g89
g70
NtRp2575
(dp2576
g73
(dp2577
sg82
g2562
sg75
(lp2578
g68
(g69
g70
NtRp2579
(dp2580
g73
(dp2581
g81
I3
ssg82
g2575
sg75
(lp2582
g1093
asbasbasbag68
(g84
g70
NtRp2583
(dp2584
g73
(dp2585
sg82
g2495
sg75
(lp2586
g68
(g89
g70
NtRp2587
(dp2588
g73
(dp2589
g93
g94
ssg82
g2583
sg75
(lp2590
S'HTTP_CACHE_CONTROL'
p2591
asbag68
(g89
g70
NtRp2592
(dp2593
g73
(dp2594
g100
g101
ssg82
g2583
sg75
(lp2595
S':'
asbag68
(g89
g70
NtRp2596
(dp2597
g73
(dp2598
sg82
g2583
sg75
(lp2599
g68
(g69
g70
NtRp2600
(dp2601
g73
(dp2602
g81
I3
ssg82
g2596
sg75
(lp2603
g1115
asbasbasbag68
(g84
g70
NtRp2604
(dp2605
g73
(dp2606
sg82
g2495
sg75
(lp2607
g68
(g89
g70
NtRp2608
(dp2609
g73
(dp2610
g93
g94
ssg82
g2604
sg75
(lp2611
S'HTTP_CONNECTION'
p2612
asbag68
(g89
g70
NtRp2613
(dp2614
g73
(dp2615
g100
g101
ssg82
g2604
sg75
(lp2616
S':'
asbag68
(g89
g70
NtRp2617
(dp2618
g73
(dp2619
sg82
g2604
sg75
(lp2620
g68
(g69
g70
NtRp2621
(dp2622
g73
(dp2623
g81
I3
ssg82
g2617
sg75
(lp2624
g1137
asbasbasbag68
(g84
g70
NtRp2625
(dp2626
g73
(dp2627
sg82
g2495
sg75
(lp2628
g68
(g89
g70
NtRp2629
(dp2630
g73
(dp2631
g93
g94
ssg82
g2625
sg75
(lp2632
S'HTTP_COOKIE'
p2633
asbag68
(g89
g70
NtRp2634
(dp2635
g73
(dp2636
g100
g101
ssg82
g2625
sg75
(lp2637
S':'
asbag68
(g89
g70
NtRp2638
(dp2639
g73
(dp2640
sg82
g2625
sg75
(lp2641
g68
(g69
g70
NtRp2642
(dp2643
g73
(dp2644
g81
I3
ssg82
g2638
sg75
(lp2645
g1159
asbasbasbag68
(g84
g70
NtRp2646
(dp2647
g73
(dp2648
sg82
g2495
sg75
(lp2649
g68
(g89
g70
NtRp2650
(dp2651
g73
(dp2652
g93
g94
ssg82
g2646
sg75
(lp2653
S'HTTP_HOST'
p2654
asbag68
(g89
g70
NtRp2655
(dp2656
g73
(dp2657
g100
g101
ssg82
g2646
sg75
(lp2658
S':'
asbag68
(g89
g70
NtRp2659
(dp2660
g73
(dp2661
sg82
g2646
sg75
(lp2662
g68
(g69
g70
NtRp2663
(dp2664
g73
(dp2665
g81
I3
ssg82
g2659
sg75
(lp2666
g1181
asbasbasbag68
(g84
g70
NtRp2667
(dp2668
g73
(dp2669
sg82
g2495
sg75
(lp2670
g68
(g89
g70
NtRp2671
(dp2672
g73
(dp2673
g93
g94
ssg82
g2667
sg75
(lp2674
S'HTTP_REFERER'
p2675
asbag68
(g89
g70
NtRp2676
(dp2677
g73
(dp2678
g100
g101
ssg82
g2667
sg75
(lp2679
S':'
asbag68
(g89
g70
NtRp2680
(dp2681
g73
(dp2682
sg82
g2667
sg75
(lp2683
g68
(g69
g70
NtRp2684
(dp2685
g73
(dp2686
g81
I3
ssg82
g2680
sg75
(lp2687
g1203
asbasbasbag68
(g84
g70
NtRp2688
(dp2689
g73
(dp2690
sg82
g2495
sg75
(lp2691
g68
(g89
g70
NtRp2692
(dp2693
g73
(dp2694
g93
g94
ssg82
g2688
sg75
(lp2695
S'HTTP_USER_AGENT'
p2696
asbag68
(g89
g70
NtRp2697
(dp2698
g73
(dp2699
g100
g101
ssg82
g2688
sg75
(lp2700
S':'
asbag68
(g89
g70
NtRp2701
(dp2702
g73
(dp2703
sg82
g2688
sg75
(lp2704
g68
(g69
g70
NtRp2705
(dp2706
g73
(dp2707
g81
I3
ssg82
g2701
sg75
(lp2708
g1225
asbasbasbag68
(g84
g70
NtRp2709
(dp2710
g73
(dp2711
sg82
g2495
sg75
(lp2712
g68
(g89
g70
NtRp2713
(dp2714
g73
(dp2715
g93
g94
ssg82
g2709
sg75
(lp2716
S'PATH_INFO'
p2717
asbag68
(g89
g70
NtRp2718
(dp2719
g73
(dp2720
g100
g101
ssg82
g2709
sg75
(lp2721
S':'
asbag68
(g89
g70
NtRp2722
(dp2723
g73
(dp2724
sg82
g2709
sg75
(lp2725
g68
(g69
g70
NtRp2726
(dp2727
g73
(dp2728
g81
I3
ssg82
g2722
sg75
(lp2729
g1289
asbasbasbag68
(g84
g70
NtRp2730
(dp2731
g73
(dp2732
sg82
g2495
sg75
(lp2733
g68
(g89
g70
NtRp2734
(dp2735
g73
(dp2736
g93
g94
ssg82
g2730
sg75
(lp2737
S'QUERY_STRING'
p2738
asbag68
(g89
g70
NtRp2739
(dp2740
g73
(dp2741
g100
g101
ssg82
g2730
sg75
(lp2742
S':'
asbag68
(g89
g70
NtRp2743
(dp2744
g73
(dp2745
sg82
g2730
sg75
(lp2746
g68
(g69
g70
NtRp2747
(dp2748
g73
(dp2749
g81
I3
ssg82
g2743
sg75
(lp2750
g1311
asbasbasbag68
(g84
g70
NtRp2751
(dp2752
g73
(dp2753
sg82
g2495
sg75
(lp2754
g68
(g89
g70
NtRp2755
(dp2756
g73
(dp2757
g93
g94
ssg82
g2751
sg75
(lp2758
S'REMOTE_ADDR'
p2759
asbag68
(g89
g70
NtRp2760
(dp2761
g73
(dp2762
g100
g101
ssg82
g2751
sg75
(lp2763
S':'
asbag68
(g89
g70
NtRp2764
(dp2765
g73
(dp2766
sg82
g2751
sg75
(lp2767
g68
(g69
g70
NtRp2768
(dp2769
g73
(dp2770
g81
I3
ssg82
g2764
sg75
(lp2771
g214
asbasbasbag68
(g84
g70
NtRp2772
(dp2773
g73
(dp2774
sg82
g2495
sg75
(lp2775
g68
(g89
g70
NtRp2776
(dp2777
g73
(dp2778
g93
g94
ssg82
g2772
sg75
(lp2779
S'REMOTE_PORT'
p2780
asbag68
(g89
g70
NtRp2781
(dp2782
g73
(dp2783
g100
g101
ssg82
g2772
sg75
(lp2784
S':'
asbag68
(g89
g70
NtRp2785
(dp2786
g73
(dp2787
sg82
g2772
sg75
(lp2788
g68
(g69
g70
NtRp2789
(dp2790
g73
(dp2791
g81
I3
ssg82
g2785
sg75
(lp2792
g1354
asbasbasbag68
(g84
g70
NtRp2793
(dp2794
g73
(dp2795
sg82
g2495
sg75
(lp2796
g68
(g89
g70
NtRp2797
(dp2798
g73
(dp2799
g93
g94
ssg82
g2793
sg75
(lp2800
S'REQUEST_METHOD'
p2801
asbag68
(g89
g70
NtRp2802
(dp2803
g73
(dp2804
g100
g101
ssg82
g2793
sg75
(lp2805
S':'
asbag68
(g89
g70
NtRp2806
(dp2807
g73
(dp2808
sg82
g2793
sg75
(lp2809
g68
(g69
g70
NtRp2810
(dp2811
g73
(dp2812
g81
I3
ssg82
g2806
sg75
(lp2813
g1376
asbasbasbag68
(g84
g70
NtRp2814
(dp2815
g73
(dp2816
sg82
g2495
sg75
(lp2817
g68
(g89
g70
NtRp2818
(dp2819
g73
(dp2820
g93
g94
ssg82
g2814
sg75
(lp2821
S'SCRIPT_NAME'
p2822
asbag68
(g89
g70
NtRp2823
(dp2824
g73
(dp2825
g100
g101
ssg82
g2814
sg75
(lp2826
S':'
asbag68
(g89
g70
NtRp2827
(dp2828
g73
(dp2829
sg82
g2814
sg75
(lp2830
g68
(g69
g70
NtRp2831
(dp2832
g73
(dp2833
g81
I3
ssg82
g2827
sg75
(lp2834
S''
asbasbasbag68
(g84
g70
NtRp2835
(dp2836
g73
(dp2837
sg82
g2495
sg75
(lp2838
g68
(g89
g70
NtRp2839
(dp2840
g73
(dp2841
g93
g94
ssg82
g2835
sg75
(lp2842
S'SERVER_NAME'
p2843
asbag68
(g89
g70
NtRp2844
(dp2845
g73
(dp2846
g100
g101
ssg82
g2835
sg75
(lp2847
S':'
asbag68
(g89
g70
NtRp2848
(dp2849
g73
(dp2850
sg82
g2835
sg75
(lp2851
g68
(g69
g70
NtRp2852
(dp2853
g73
(dp2854
g81
I3
ssg82
g2848
sg75
(lp2855
g1419
asbasbasbag68
(g84
g70
NtRp2856
(dp2857
g73
(dp2858
sg82
g2495
sg75
(lp2859
g68
(g89
g70
NtRp2860
(dp2861
g73
(dp2862
g93
g94
ssg82
g2856
sg75
(lp2863
S'SERVER_PORT'
p2864
asbag68
(g89
g70
NtRp2865
(dp2866
g73
(dp2867
g100
g101
ssg82
g2856
sg75
(lp2868
S':'
asbag68
(g89
g70
NtRp2869
(dp2870
g73
(dp2871
sg82
g2856
sg75
(lp2872
g68
(g69
g70
NtRp2873
(dp2874
g73
(dp2875
g81
I3
ssg82
g2869
sg75
(lp2876
g1441
asbasbasbag68
(g84
g70
NtRp2877
(dp2878
g73
(dp2879
sg82
g2495
sg75
(lp2880
g68
(g89
g70
NtRp2881
(dp2882
g73
(dp2883
g93
g94
ssg82
g2877
sg75
(lp2884
S'SERVER_PROTOCOL'
p2885
asbag68
(g89
g70
NtRp2886
(dp2887
g73
(dp2888
g100
g101
ssg82
g2877
sg75
(lp2889
S':'
asbag68
(g89
g70
NtRp2890
(dp2891
g73
(dp2892
sg82
g2877
sg75
(lp2893
g68
(g69
g70
NtRp2894
(dp2895
g73
(dp2896
g81
I3
ssg82
g2890
sg75
(lp2897
g1463
asbasbasbag68
(g84
g70
NtRp2898
(dp2899
g73
(dp2900
sg82
g2495
sg75
(lp2901
g68
(g89
g70
NtRp2902
(dp2903
g73
(dp2904
g93
g94
ssg82
g2898
sg75
(lp2905
S'SERVER_SOFTWARE'
p2906
asbag68
(g89
g70
NtRp2907
(dp2908
g73
(dp2909
g100
g101
ssg82
g2898
sg75
(lp2910
S':'
asbag68
(g89
g70
NtRp2911
(dp2912
g73
(dp2913
sg82
g2898
sg75
(lp2914
g68
(g69
g70
NtRp2915
(dp2916
g73
(dp2917
g81
I3
ssg82
g2911
sg75
(lp2918
g1485
asbasbasbag68
(g84
g70
NtRp2919
(dp2920
g73
(dp2921
sg82
g2495
sg75
(lp2922
g68
(g89
g70
NtRp2923
(dp2924
g73
(dp2925
g93
g94
ssg82
g2919
sg75
(lp2926
S'wsgi.errors'
p2927
asbag68
(g89
g70
NtRp2928
(dp2929
g73
(dp2930
g100
g101
ssg82
g2919
sg75
(lp2931
S':'
asbag68
(g89
g70
NtRp2932
(dp2933
g73
(dp2934
sg82
g2919
sg75
(lp2935
g68
(g69
g70
NtRp2936
(dp2937
g73
(dp2938
g81
I3
ssg82
g2932
sg75
(lp2939
S"<open file '<stderr>', mode 'w' at 0xb72bf0d0>"
p2940
asbasbasbag68
(g84
g70
NtRp2941
(dp2942
g73
(dp2943
sg82
g2495
sg75
(lp2944
g68
(g89
g70
NtRp2945
(dp2946
g73
(dp2947
g93
g94
ssg82
g2941
sg75
(lp2948
S'wsgi.file_wrapper'
p2949
asbag68
(g89
g70
NtRp2950
(dp2951
g73
(dp2952
g100
g101
ssg82
g2941
sg75
(lp2953
S':'
asbag68
(g89
g70
NtRp2954
(dp2955
g73
(dp2956
sg82
g2941
sg75
(lp2957
g68
(g69
g70
NtRp2958
(dp2959
g73
(dp2960
g81
I3
ssg82
g2954
sg75
(lp2961
S'<class wsgiref.util.FileWrapper at 0x9758e9c>'
p2962
asbasbasbag68
(g84
g70
NtRp2963
(dp2964
g73
(dp2965
sg82
g2495
sg75
(lp2966
g68
(g89
g70
NtRp2967
(dp2968
g73
(dp2969
g93
g94
ssg82
g2963
sg75
(lp2970
S'wsgi.input'
p2971
asbag68
(g89
g70
NtRp2972
(dp2973
g73
(dp2974
g100
g101
ssg82
g2963
sg75
(lp2975
S':'
asbag68
(g89
g70
NtRp2976
(dp2977
g73
(dp2978
sg82
g2963
sg75
(lp2979
g68
(g69
g70
NtRp2980
(dp2981
g73
(dp2982
g81
I3
ssg82
g2976
sg75
(lp2983
S'<cStringIO.StringO object at 0xad4237e0>'
p2984
asbasbasbag68
(g84
g70
NtRp2985
(dp2986
g73
(dp2987
sg82
g2495
sg75
(lp2988
g68
(g89
g70
NtRp2989
(dp2990
g73
(dp2991
g93
g94
ssg82
g2985
sg75
(lp2992
S'wsgi.multiprocess'
p2993
asbag68
(g89
g70
NtRp2994
(dp2995
g73
(dp2996
g100
g101
ssg82
g2985
sg75
(lp2997
S':'
asbag68
(g89
g70
NtRp2998
(dp2999
g73
(dp3000
sg82
g2985
sg75
(lp3001
g68
(g69
g70
NtRp3002
(dp3003
g73
(dp3004
g81
I3
ssg82
g2998
sg75
(lp3005
g111
asbasbasbag68
(g84
g70
NtRp3006
(dp3007
g73
(dp3008
sg82
g2495
sg75
(lp3009
g68
(g89
g70
NtRp3010
(dp3011
g73
(dp3012
g93
g94
ssg82
g3006
sg75
(lp3013
S'wsgi.multithread'
p3014
asbag68
(g89
g70
NtRp3015
(dp3016
g73
(dp3017
g100
g101
ssg82
g3006
sg75
(lp3018
S':'
asbag68
(g89
g70
NtRp3019
(dp3020
g73
(dp3021
sg82
g3006
sg75
(lp3022
g68
(g69
g70
NtRp3023
(dp3024
g73
(dp3025
g81
I3
ssg82
g3019
sg75
(lp3026
g1725
asbasbasbag68
(g84
g70
NtRp3027
(dp3028
g73
(dp3029
sg82
g2495
sg75
(lp3030
g68
(g89
g70
NtRp3031
(dp3032
g73
(dp3033
g93
g94
ssg82
g3027
sg75
(lp3034
S'wsgi.run_once'
p3035
asbag68
(g89
g70
NtRp3036
(dp3037
g73
(dp3038
g100
g101
ssg82
g3027
sg75
(lp3039
S':'
asbag68
(g89
g70
NtRp3040
(dp3041
g73
(dp3042
sg82
g3027
sg75
(lp3043
g68
(g69
g70
NtRp3044
(dp3045
g73
(dp3046
g81
I3
ssg82
g3040
sg75
(lp3047
g111
asbasbasbag68
(g84
g70
NtRp3048
(dp3049
g73
(dp3050
sg82
g2495
sg75
(lp3051
g68
(g89
g70
NtRp3052
(dp3053
g73
(dp3054
g93
g94
ssg82
g3048
sg75
(lp3055
S'wsgi.url_scheme'
p3056
asbag68
(g89
g70
NtRp3057
(dp3058
g73
(dp3059
g100
g101
ssg82
g3048
sg75
(lp3060
S':'
asbag68
(g89
g70
NtRp3061
(dp3062
g73
(dp3063
sg82
g3048
sg75
(lp3064
g68
(g69
g70
NtRp3065
(dp3066
g73
(dp3067
g81
I3
ssg82
g3061
sg75
(lp3068
g1768
asbasbasbag68
(g84
g70
NtRp3069
(dp3070
g73
(dp3071
sg82
g2495
sg75
(lp3072
g68
(g89
g70
NtRp3073
(dp3074
g73
(dp3075
g93
g94
ssg82
g3069
sg75
(lp3076
S'wsgi.version'
p3077
asbag68
(g89
g70
NtRp3078
(dp3079
g73
(dp3080
g100
g101
ssg82
g3069
sg75
(lp3081
S':'
asbag68
(g89
g70
NtRp3082
(dp3083
g73
(dp3084
sg82
g3069
sg75
(lp3085
g68
(g69
g70
NtRp3086
(dp3087
g73
(dp3088
g81
I3
ssg82
g3082
sg75
(lp3089
S'1'
asbasbasbasbasbasbasbasbasbasbasbasbasbsS'frames'
p3090
(lp3091
(dp3092
S'file'
p3093
S'/home/enigma/web2py/gluon/restricted.py'
p3094
sS'dump'
p3095
(dp3096
S'code'
p3097
S"'# -*- coding: utf-8 -*-\\n# this file is released ...m=crud())\\n\\nresponse._vars=response._caller(user)\\n'"
p3098
sS'layer'
p3099
S"'/home/enigma/web2py/applications/911_signin/controllers/default.py'"
p3100
sS'global compile2'
p3101
S'<function compile2>'
p3102
sS'ccode'
p3103
S'undefined'
p3104
ssS'lnum'
p3105
I204
sS'lines'
p3106
(dp3107
I199
S"    environment['__name__'] = '__restricted__'"
p3108
sI200
S'    try:'
p3109
sI201
S'        if type(code) == types.CodeType:'
p3110
sI202
S'            ccode = code'
p3111
sI203
S'        else:'
p3112
sI204
S'            ccode = compile2(code,layer)'
p3113
sI205
S'        exec ccode in environment'
p3114
sI206
S'    except HTTP:'
p3115
sI207
S'        raise'
p3116
sI208
S'    except RestrictedError:'
p3117
ssS'call'
p3118
S"(code='# -*- coding: utf-8 -*-\\n# this file is released ...m=crud())\\n\\nresponse._vars=response._caller(user)\\n', environment={'A': <class 'gluon.html.A'>, 'Auth': <class 'gluon.tools.Auth'>, 'B': <class 'gluon.html.B'>, 'BEAUTIFY': <class 'gluon.html.BEAUTIFY'>, 'BODY': <class 'gluon.html.BODY'>, 'BR': <class 'gluon.html.BR'>, 'BUTTON': <class 'gluon.html.BUTTON'>, 'CAT': <class 'gluon.html.CAT'>, 'CENTER': <class 'gluon.html.CENTER'>, 'CLEANUP': <class 'gluon.validators.CLEANUP'>, ...}, layer='/home/enigma/web2py/applications/911_signin/controllers/default.py')"
p3119
sS'func'
p3120
S'restricted'
p3121
sa(dp3122
g3093
S'/home/enigma/web2py/gluon/restricted.py'
p3123
sg3095
(dp3124
S'builtincompile'
p3125
S'<built-in function compile>'
p3126
sS'code'
p3127
S"'# -*- coding: utf-8 -*-\\n# this file is released ...m=crud())\\n\\nresponse._vars=response._caller(user)\\n'"
p3128
sS'code.rstrip'
p3129
S'<built-in method rstrip of str object>'
p3130
sS').replace'
p3131
g3104
sS'layer'
p3132
S"'/home/enigma/web2py/applications/911_signin/controllers/default.py'"
p3133
ssg3105
I189
sg3106
(dp3134
I192
S'    """'
p3135
sI193
S'    runs code in environment and returns the output. if an exception occurs'
p3136
sI184
S''
sI185
S'def compile2(code,layer):'
p3137
sI186
S'    """'
p3138
sI187
S"    The +'\\n' is necessary else compile fails when code ends in a comment."
p3139
sI188
S'    """'
p3140
sI189
S"    return compile(code.rstrip().replace('\\r\\n','\\n')+'\\n', layer, 'exec')"
p3141
sI190
S''
sI191
S"def restricted(code, environment=None, layer='Unknown'):"
p3142
ssg3118
S"(code='# -*- coding: utf-8 -*-\\n# this file is released ...m=crud())\\n\\nresponse._vars=response._caller(user)\\n', layer='/home/enigma/web2py/applications/911_signin/controllers/default.py')"
p3143
sg3120
S'compile2'
p3144
sasS'pyver'
p3145
S'Python 2.7.3: /usr/bin/python'
p3146
sS'session'
p3147
g68
(g69
g70
NtRp3148
(dp3149
g73
(dp3150
sg75
(lp3151
g68
(g77
g70
NtRp3152
(dp3153
g73
(dp3154
g81
I5
ssg82
Nsg75
(lp3155
sbasbsS'etype'
p3156
S"<type 'exceptions.IndentationError'>"
p3157
sS'date'
p3158
S'Fri May 17 18:02:59 2013'
p3159
sS'response'
p3160
g68
(g69
g70
NtRp3161
(dp3162
g73
(dp3163
sg75
(lp3164
g68
(g77
g70
NtRp3165
(dp3166
g73
(dp3167
g81
I5
ssg82
Nsg75
(lp3168
g68
(g84
g70
NtRp3169
(dp3170
g73
(dp3171
sg82
g3165
sg75
(lp3172
g68
(g89
g70
NtRp3173
(dp3174
g73
(dp3175
g93
g94
ssg82
g3169
sg75
(lp3176
g179
asbag68
(g89
g70
NtRp3177
(dp3178
g73
(dp3179
g100
g101
ssg82
g3169
sg75
(lp3180
S':'
asbag68
(g89
g70
NtRp3181
(dp3182
g73
(dp3183
sg82
g3169
sg75
(lp3184
g68
(g69
g70
NtRp3185
(dp3186
g73
(dp3187
g81
I5
ssg82
g3181
sg75
(lp3188
S'<cStringIO.StringO object at 0xad2b9cc0>'
p3189
asbasbasbag68
(g84
g70
NtRp3190
(dp3191
g73
(dp3192
sg82
g3165
sg75
(lp3193
g68
(g89
g70
NtRp3194
(dp3195
g73
(dp3196
g93
g94
ssg82
g3190
sg75
(lp3197
g245
asbag68
(g89
g70
NtRp3198
(dp3199
g73
(dp3200
g100
g101
ssg82
g3190
sg75
(lp3201
S':'
asbag68
(g89
g70
NtRp3202
(dp3203
g73
(dp3204
sg82
g3190
sg75
(lp3205
g68
(g69
g70
NtRp3206
(dp3207
g73
(dp3208
g81
I5
ssg82
g3202
sg75
(lp3209
g68
(g77
g70
NtRp3210
(dp3211
g73
(dp3212
g81
I4
ssg82
Nsg75
(lp3213
g68
(g84
g70
NtRp3214
(dp3215
g73
(dp3216
sg82
g3210
sg75
(lp3217
g68
(g89
g70
NtRp3218
(dp3219
g73
(dp3220
g93
g94
ssg82
g3214
sg75
(lp3221
S'session_id_911_signin'
p3222
asbag68
(g89
g70
NtRp3223
(dp3224
g73
(dp3225
g100
g101
ssg82
g3214
sg75
(lp3226
S':'
asbag68
(g89
g70
NtRp3227
(dp3228
g73
(dp3229
sg82
g3214
sg75
(lp3230
g68
(g69
g70
NtRp3231
(dp3232
g73
(dp3233
g81
I4
ssg82
g3227
sg75
(lp3234
g68
(g77
g70
NtRp3235
(dp3236
g73
(dp3237
g81
I3
ssg82
Nsg75
(lp3238
g68
(g84
g70
NtRp3239
(dp3240
g73
(dp3241
sg82
g3235
sg75
(lp3242
g68
(g89
g70
NtRp3243
(dp3244
g73
(dp3245
g93
g94
ssg82
g3239
sg75
(lp3246
g295
asbag68
(g89
g70
NtRp3247
(dp3248
g73
(dp3249
g100
g101
ssg82
g3239
sg75
(lp3250
S':'
asbag68
(g89
g70
NtRp3251
(dp3252
g73
(dp3253
sg82
g3239
sg75
(lp3254
g68
(g69
g70
NtRp3255
(dp3256
g73
(dp3257
g81
I3
ssg82
g3251
sg75
(lp3258
S''
asbasbasbag68
(g84
g70
NtRp3259
(dp3260
g73
(dp3261
sg82
g3235
sg75
(lp3262
g68
(g89
g70
NtRp3263
(dp3264
g73
(dp3265
g93
g94
ssg82
g3259
sg75
(lp3266
g316
asbag68
(g89
g70
NtRp3267
(dp3268
g73
(dp3269
g100
g101
ssg82
g3259
sg75
(lp3270
S':'
asbag68
(g89
g70
NtRp3271
(dp3272
g73
(dp3273
sg82
g3259
sg75
(lp3274
g68
(g69
g70
NtRp3275
(dp3276
g73
(dp3277
g81
I3
ssg82
g3271
sg75
(lp3278
S''
asbasbasbag68
(g84
g70
NtRp3279
(dp3280
g73
(dp3281
sg82
g3235
sg75
(lp3282
g68
(g89
g70
NtRp3283
(dp3284
g73
(dp3285
g93
g94
ssg82
g3279
sg75
(lp3286
g337
asbag68
(g89
g70
NtRp3287
(dp3288
g73
(dp3289
g100
g101
ssg82
g3279
sg75
(lp3290
S':'
asbag68
(g89
g70
NtRp3291
(dp3292
g73
(dp3293
sg82
g3279
sg75
(lp3294
g68
(g69
g70
NtRp3295
(dp3296
g73
(dp3297
g81
I3
ssg82
g3291
sg75
(lp3298
S''
asbasbasbag68
(g84
g70
NtRp3299
(dp3300
g73
(dp3301
sg82
g3235
sg75
(lp3302
g68
(g89
g70
NtRp3303
(dp3304
g73
(dp3305
g93
g94
ssg82
g3299
sg75
(lp3306
g358
asbag68
(g89
g70
NtRp3307
(dp3308
g73
(dp3309
g100
g101
ssg82
g3299
sg75
(lp3310
S':'
asbag68
(g89
g70
NtRp3311
(dp3312
g73
(dp3313
sg82
g3299
sg75
(lp3314
g68
(g69
g70
NtRp3315
(dp3316
g73
(dp3317
g81
I3
ssg82
g3311
sg75
(lp3318
S''
asbasbasbag68
(g84
g70
NtRp3319
(dp3320
g73
(dp3321
sg82
g3235
sg75
(lp3322
g68
(g89
g70
NtRp3323
(dp3324
g73
(dp3325
g93
g94
ssg82
g3319
sg75
(lp3326
g379
asbag68
(g89
g70
NtRp3327
(dp3328
g73
(dp3329
g100
g101
ssg82
g3319
sg75
(lp3330
S':'
asbag68
(g89
g70
NtRp3331
(dp3332
g73
(dp3333
sg82
g3319
sg75
(lp3334
g68
(g69
g70
NtRp3335
(dp3336
g73
(dp3337
g81
I3
ssg82
g3331
sg75
(lp3338
S''
asbasbasbag68
(g84
g70
NtRp3339
(dp3340
g73
(dp3341
sg82
g3235
sg75
(lp3342
g68
(g89
g70
NtRp3343
(dp3344
g73
(dp3345
g93
g94
ssg82
g3339
sg75
(lp3346
g400
asbag68
(g89
g70
NtRp3347
(dp3348
g73
(dp3349
g100
g101
ssg82
g3339
sg75
(lp3350
S':'
asbag68
(g89
g70
NtRp3351
(dp3352
g73
(dp3353
sg82
g3339
sg75
(lp3354
g68
(g69
g70
NtRp3355
(dp3356
g73
(dp3357
g81
I3
ssg82
g3351
sg75
(lp3358
S'/'
asbasbasbag68
(g84
g70
NtRp3359
(dp3360
g73
(dp3361
sg82
g3235
sg75
(lp3362
g68
(g89
g70
NtRp3363
(dp3364
g73
(dp3365
g93
g94
ssg82
g3359
sg75
(lp3366
g421
asbag68
(g89
g70
NtRp3367
(dp3368
g73
(dp3369
g100
g101
ssg82
g3359
sg75
(lp3370
S':'
asbag68
(g89
g70
NtRp3371
(dp3372
g73
(dp3373
sg82
g3359
sg75
(lp3374
g68
(g69
g70
NtRp3375
(dp3376
g73
(dp3377
g81
I3
ssg82
g3371
sg75
(lp3378
S''
asbasbasbag68
(g84
g70
NtRp3379
(dp3380
g73
(dp3381
sg82
g3235
sg75
(lp3382
g68
(g89
g70
NtRp3383
(dp3384
g73
(dp3385
g93
g94
ssg82
g3379
sg75
(lp3386
g442
asbag68
(g89
g70
NtRp3387
(dp3388
g73
(dp3389
g100
g101
ssg82
g3379
sg75
(lp3390
S':'
asbag68
(g89
g70
NtRp3391
(dp3392
g73
(dp3393
sg82
g3379
sg75
(lp3394
g68
(g69
g70
NtRp3395
(dp3396
g73
(dp3397
g81
I3
ssg82
g3391
sg75
(lp3398
S''
asbasbasbasbasbasbasbasbasbasbasbag68
(g84
g70
NtRp3399
(dp3400
g73
(dp3401
sg82
g3165
sg75
(lp3402
g68
(g89
g70
NtRp3403
(dp3404
g73
(dp3405
g93
g94
ssg82
g3399
sg75
(lp3406
S'delimiters'
p3407
asbag68
(g89
g70
NtRp3408
(dp3409
g73
(dp3410
g100
g101
ssg82
g3399
sg75
(lp3411
S':'
asbag68
(g89
g70
NtRp3412
(dp3413
g73
(dp3414
sg82
g3399
sg75
(lp3415
g68
(g69
g70
NtRp3416
(dp3417
g73
(dp3418
g81
I5
ssg82
g3412
sg75
(lp3419
g68
(g77
g70
NtRp3420
(dp3421
g73
(dp3422
g81
I4
ssg82
Nsg75
(lp3423
g68
(g84
g70
NtRp3424
(dp3425
g73
(dp3426
sg82
g3420
sg75
(lp3427
g68
(g89
g70
NtRp3428
(dp3429
g73
(dp3430
sg82
g3424
sg75
(lp3431
g68
(g69
g70
NtRp3432
(dp3433
g73
(dp3434
g81
I4
ssg82
g3428
sg75
(lp3435
S'{{'
p3436
asbasbasbag68
(g84
g70
NtRp3437
(dp3438
g73
(dp3439
sg82
g3420
sg75
(lp3440
g68
(g89
g70
NtRp3441
(dp3442
g73
(dp3443
sg82
g3437
sg75
(lp3444
g68
(g69
g70
NtRp3445
(dp3446
g73
(dp3447
g81
I4
ssg82
g3441
sg75
(lp3448
S'}}'
p3449
asbasbasbasbasbasbasbag68
(g84
g70
NtRp3450
(dp3451
g73
(dp3452
sg82
g3165
sg75
(lp3453
g68
(g89
g70
NtRp3454
(dp3455
g73
(dp3456
g93
g94
ssg82
g3450
sg75
(lp3457
S'files'
p3458
asbag68
(g89
g70
NtRp3459
(dp3460
g73
(dp3461
g100
g101
ssg82
g3450
sg75
(lp3462
S':'
asbag68
(g89
g70
NtRp3463
(dp3464
g73
(dp3465
sg82
g3450
sg75
(lp3466
g68
(g69
g70
NtRp3467
(dp3468
g73
(dp3469
g81
I5
ssg82
g3463
sg75
(lp3470
g68
(g77
g70
NtRp3471
(dp3472
g73
(dp3473
g81
I4
ssg82
Nsg75
(lp3474
sbasbasbasbag68
(g84
g70
NtRp3475
(dp3476
g73
(dp3477
sg82
g3165
sg75
(lp3478
g68
(g89
g70
NtRp3479
(dp3480
g73
(dp3481
g93
g94
ssg82
g3475
sg75
(lp3482
S'flash'
p3483
asbag68
(g89
g70
NtRp3484
(dp3485
g73
(dp3486
g100
g101
ssg82
g3475
sg75
(lp3487
S':'
asbag68
(g89
g70
NtRp3488
(dp3489
g73
(dp3490
sg82
g3475
sg75
(lp3491
g68
(g69
g70
NtRp3492
(dp3493
g73
(dp3494
g81
I5
ssg82
g3488
sg75
(lp3495
S''
asbasbasbag68
(g84
g70
NtRp3496
(dp3497
g73
(dp3498
sg82
g3165
sg75
(lp3499
g68
(g89
g70
NtRp3500
(dp3501
g73
(dp3502
g93
g94
ssg82
g3496
sg75
(lp3503
S'generic_patterns'
p3504
asbag68
(g89
g70
NtRp3505
(dp3506
g73
(dp3507
g100
g101
ssg82
g3496
sg75
(lp3508
S':'
asbag68
(g89
g70
NtRp3509
(dp3510
g73
(dp3511
sg82
g3496
sg75
(lp3512
g68
(g69
g70
NtRp3513
(dp3514
g73
(dp3515
g81
I5
ssg82
g3509
sg75
(lp3516
g68
(g77
g70
NtRp3517
(dp3518
g73
(dp3519
g81
I4
ssg82
Nsg75
(lp3520
g68
(g84
g70
NtRp3521
(dp3522
g73
(dp3523
sg82
g3517
sg75
(lp3524
g68
(g89
g70
NtRp3525
(dp3526
g73
(dp3527
sg82
g3521
sg75
(lp3528
g68
(g69
g70
NtRp3529
(dp3530
g73
(dp3531
g81
I4
ssg82
g3525
sg75
(lp3532
S'*'
asbasbasbasbasbasbasbag68
(g84
g70
NtRp3533
(dp3534
g73
(dp3535
sg82
g3165
sg75
(lp3536
g68
(g89
g70
NtRp3537
(dp3538
g73
(dp3539
g93
g94
ssg82
g3533
sg75
(lp3540
S'headers'
p3541
asbag68
(g89
g70
NtRp3542
(dp3543
g73
(dp3544
g100
g101
ssg82
g3533
sg75
(lp3545
S':'
asbag68
(g89
g70
NtRp3546
(dp3547
g73
(dp3548
sg82
g3533
sg75
(lp3549
g68
(g69
g70
NtRp3550
(dp3551
g73
(dp3552
g81
I5
ssg82
g3546
sg75
(lp3553
g68
(g77
g70
NtRp3554
(dp3555
g73
(dp3556
g81
I4
ssg82
Nsg75
(lp3557
g68
(g84
g70
NtRp3558
(dp3559
g73
(dp3560
sg82
g3554
sg75
(lp3561
g68
(g89
g70
NtRp3562
(dp3563
g73
(dp3564
g93
g94
ssg82
g3558
sg75
(lp3565
S'Cache-Control'
p3566
asbag68
(g89
g70
NtRp3567
(dp3568
g73
(dp3569
g100
g101
ssg82
g3558
sg75
(lp3570
S':'
asbag68
(g89
g70
NtRp3571
(dp3572
g73
(dp3573
sg82
g3558
sg75
(lp3574
g68
(g69
g70
NtRp3575
(dp3576
g73
(dp3577
g81
I4
ssg82
g3571
sg75
(lp3578
S'no-store, no-cache, must-revalidate, post-check=0, pre-check=0'
p3579
asbasbasbag68
(g84
g70
NtRp3580
(dp3581
g73
(dp3582
sg82
g3554
sg75
(lp3583
g68
(g89
g70
NtRp3584
(dp3585
g73
(dp3586
g93
g94
ssg82
g3580
sg75
(lp3587
S'Content-Type'
p3588
asbag68
(g89
g70
NtRp3589
(dp3590
g73
(dp3591
g100
g101
ssg82
g3580
sg75
(lp3592
S':'
asbag68
(g89
g70
NtRp3593
(dp3594
g73
(dp3595
sg82
g3580
sg75
(lp3596
g68
(g69
g70
NtRp3597
(dp3598
g73
(dp3599
g81
I4
ssg82
g3593
sg75
(lp3600
S'text/html; charset=utf-8'
p3601
asbasbasbag68
(g84
g70
NtRp3602
(dp3603
g73
(dp3604
sg82
g3554
sg75
(lp3605
g68
(g89
g70
NtRp3606
(dp3607
g73
(dp3608
g93
g94
ssg82
g3602
sg75
(lp3609
S'Expires'
p3610
asbag68
(g89
g70
NtRp3611
(dp3612
g73
(dp3613
g100
g101
ssg82
g3602
sg75
(lp3614
S':'
asbag68
(g89
g70
NtRp3615
(dp3616
g73
(dp3617
sg82
g3602
sg75
(lp3618
g68
(g69
g70
NtRp3619
(dp3620
g73
(dp3621
g81
I4
ssg82
g3615
sg75
(lp3622
S'Fri, 17 May 2013 12:32:59 GMT'
p3623
asbasbasbag68
(g84
g70
NtRp3624
(dp3625
g73
(dp3626
sg82
g3554
sg75
(lp3627
g68
(g89
g70
NtRp3628
(dp3629
g73
(dp3630
g93
g94
ssg82
g3624
sg75
(lp3631
S'Pragma'
p3632
asbag68
(g89
g70
NtRp3633
(dp3634
g73
(dp3635
g100
g101
ssg82
g3624
sg75
(lp3636
S':'
asbag68
(g89
g70
NtRp3637
(dp3638
g73
(dp3639
sg82
g3624
sg75
(lp3640
g68
(g69
g70
NtRp3641
(dp3642
g73
(dp3643
g81
I4
ssg82
g3637
sg75
(lp3644
S'no-cache'
p3645
asbasbasbag68
(g84
g70
NtRp3646
(dp3647
g73
(dp3648
sg82
g3554
sg75
(lp3649
g68
(g89
g70
NtRp3650
(dp3651
g73
(dp3652
g93
g94
ssg82
g3646
sg75
(lp3653
S'X-Powered-By'
p3654
asbag68
(g89
g70
NtRp3655
(dp3656
g73
(dp3657
g100
g101
ssg82
g3646
sg75
(lp3658
S':'
asbag68
(g89
g70
NtRp3659
(dp3660
g73
(dp3661
sg82
g3646
sg75
(lp3662
g68
(g69
g70
NtRp3663
(dp3664
g73
(dp3665
g81
I4
ssg82
g3659
sg75
(lp3666
S'web2py'
p3667
asbasbasbasbasbasbasbag68
(g84
g70
NtRp3668
(dp3669
g73
(dp3670
sg82
g3165
sg75
(lp3671
g68
(g89
g70
NtRp3672
(dp3673
g73
(dp3674
g93
g94
ssg82
g3668
sg75
(lp3675
S'menu'
p3676
asbag68
(g89
g70
NtRp3677
(dp3678
g73
(dp3679
g100
g101
ssg82
g3668
sg75
(lp3680
S':'
asbag68
(g89
g70
NtRp3681
(dp3682
g73
(dp3683
sg82
g3668
sg75
(lp3684
g68
(g69
g70
NtRp3685
(dp3686
g73
(dp3687
g81
I5
ssg82
g3681
sg75
(lp3688
g68
(g77
g70
NtRp3689
(dp3690
g73
(dp3691
g81
I4
ssg82
Nsg75
(lp3692
g68
(g84
g70
NtRp3693
(dp3694
g73
(dp3695
sg82
g3689
sg75
(lp3696
g68
(g89
g70
NtRp3697
(dp3698
g73
(dp3699
sg82
g3693
sg75
(lp3700
g68
(g69
g70
NtRp3701
(dp3702
g73
(dp3703
g81
I4
ssg82
g3697
sg75
(lp3704
g68
(g77
g70
NtRp3705
(dp3706
g73
(dp3707
g81
I3
ssg82
Nsg75
(lp3708
g68
(g84
g70
NtRp3709
(dp3710
g73
(dp3711
sg82
g3705
sg75
(lp3712
g68
(g89
g70
NtRp3713
(dp3714
g73
(dp3715
sg82
g3709
sg75
(lp3716
g68
(g69
g70
NtRp3717
(dp3718
g73
(dp3719
g81
I3
ssg82
g3713
sg75
(lp3720
cgluon.languages
lazyT_unpickle
p3721
(S't\x04\x00\x00\x00Home'
tRp3722
asbasbasbag68
(g84
g70
NtRp3723
(dp3724
g73
(dp3725
sg82
g3705
sg75
(lp3726
g68
(g89
g70
NtRp3727
(dp3728
g73
(dp3729
sg82
g3723
sg75
(lp3730
g68
(g69
g70
NtRp3731
(dp3732
g73
(dp3733
g81
I3
ssg82
g3727
sg75
(lp3734
g111
asbasbasbag68
(g84
g70
NtRp3735
(dp3736
g73
(dp3737
sg82
g3705
sg75
(lp3738
g68
(g89
g70
NtRp3739
(dp3740
g73
(dp3741
sg82
g3735
sg75
(lp3742
g68
(g69
g70
NtRp3743
(dp3744
g73
(dp3745
g81
I3
ssg82
g3739
sg75
(lp3746
S'/911_signin/default/index'
p3747
asbasbasbag68
(g84
g70
NtRp3748
(dp3749
g73
(dp3750
sg82
g3705
sg75
(lp3751
g68
(g89
g70
NtRp3752
(dp3753
g73
(dp3754
sg82
g3748
sg75
(lp3755
g68
(g69
g70
NtRp3756
(dp3757
g73
(dp3758
g81
I3
ssg82
g3752
sg75
(lp3759
g68
(g77
g70
NtRp3760
(dp3761
g73
(dp3762
g81
I2
ssg82
Nsg75
(lp3763
sbasbasbasbasbasbasbasbag68
(g84
g70
NtRp3764
(dp3765
g73
(dp3766
sg82
g3689
sg75
(lp3767
g68
(g89
g70
NtRp3768
(dp3769
g73
(dp3770
sg82
g3764
sg75
(lp3771
g68
(g69
g70
NtRp3772
(dp3773
g73
(dp3774
g81
I4
ssg82
g3768
sg75
(lp3775
g68
(g77
g70
NtRp3776
(dp3777
g73
(dp3778
g81
I3
ssg82
Nsg75
(lp3779
g68
(g84
g70
NtRp3780
(dp3781
g73
(dp3782
sg82
g3776
sg75
(lp3783
g68
(g89
g70
NtRp3784
(dp3785
g73
(dp3786
sg82
g3780
sg75
(lp3787
g68
(g69
g70
NtRp3788
(dp3789
g73
(dp3790
g81
I3
ssg82
g3784
sg75
(lp3791
g68
(cgluon.html
SPAN
p3792
g70
NtRp3793
(dp3794
g73
(dp3795
g93
S'color:yellow'
p3796
ssg82
Nsg75
(lp3797
g3667
asbasbasbasbag68
(g84
g70
NtRp3798
(dp3799
g73
(dp3800
sg82
g3776
sg75
(lp3801
g68
(g89
g70
NtRp3802
(dp3803
g73
(dp3804
sg82
g3798
sg75
(lp3805
g68
(g69
g70
NtRp3806
(dp3807
g73
(dp3808
g81
I3
ssg82
g3802
sg75
(lp3809
g111
asbasbasbag68
(g84
g70
NtRp3810
(dp3811
g73
(dp3812
sg82
g3776
sg75
(lp3813
g68
(g89
g70
NtRp3814
(dp3815
g73
(dp3816
sg82
g3810
sg75
(lp3817
g68
(g69
g70
NtRp3818
(dp3819
g73
(dp3820
g81
I3
ssg82
g3814
sg75
(lp3821
S'None'
p3822
asbasbasbag68
(g84
g70
NtRp3823
(dp3824
g73
(dp3825
sg82
g3776
sg75
(lp3826
g68
(g89
g70
NtRp3827
(dp3828
g73
(dp3829
sg82
g3823
sg75
(lp3830
g68
(g69
g70
NtRp3831
(dp3832
g73
(dp3833
g81
I3
ssg82
g3827
sg75
(lp3834
g68
(g77
g70
NtRp3835
(dp3836
g73
(dp3837
g81
I2
ssg82
Nsg75
(lp3838
g68
(g84
g70
NtRp3839
(dp3840
g73
(dp3841
sg82
g3835
sg75
(lp3842
g68
(g89
g70
NtRp3843
(dp3844
g73
(dp3845
sg82
g3839
sg75
(lp3846
g68
(g69
g70
NtRp3847
(dp3848
g73
(dp3849
g81
I2
ssg82
g3843
sg75
(lp3850
g68
(g77
g70
NtRp3851
(dp3852
g73
(dp3853
g81
I1
ssg82
Nsg75
(lp3854
g68
(g84
g70
NtRp3855
(dp3856
g73
(dp3857
sg82
g3851
sg75
(lp3858
g68
(g89
g70
NtRp3859
(dp3860
g73
(dp3861
sg82
g3855
sg75
(lp3862
g68
(g69
g70
NtRp3863
(dp3864
g73
(dp3865
g81
I1
ssg82
g3859
sg75
(lp3866
g3721
(S's\x08\x00\x00\x00My Sites'
tRp3867
asbasbasbag68
(g84
g70
NtRp3868
(dp3869
g73
(dp3870
sg82
g3851
sg75
(lp3871
g68
(g89
g70
NtRp3872
(dp3873
g73
(dp3874
sg82
g3868
sg75
(lp3875
g68
(g69
g70
NtRp3876
(dp3877
g73
(dp3878
g81
I1
ssg82
g3872
sg75
(lp3879
I00
asbasbasbag68
(g84
g70
NtRp3880
(dp3881
g73
(dp3882
sg82
g3851
sg75
(lp3883
g68
(g89
g70
NtRp3884
(dp3885
g73
(dp3886
sg82
g3880
sg75
(lp3887
g68
(g69
g70
NtRp3888
(dp3889
g73
(dp3890
g81
I1
ssg82
g3884
sg75
(lp3891
S'/admin/default/site'
p3892
asbasbasbasbasbasbasbag68
(g84
g70
NtRp3893
(dp3894
g73
(dp3895
sg82
g3835
sg75
(lp3896
g68
(g89
g70
NtRp3897
(dp3898
g73
(dp3899
sg82
g3893
sg75
(lp3900
g68
(g69
g70
NtRp3901
(dp3902
g73
(dp3903
g81
I2
ssg82
g3897
sg75
(lp3904
g68
(g77
g70
NtRp3905
(dp3906
g73
(dp3907
g81
I1
ssg82
Nsg75
(lp3908
g68
(g84
g70
NtRp3909
(dp3910
g73
(dp3911
sg82
g3905
sg75
(lp3912
g68
(g89
g70
NtRp3913
(dp3914
g73
(dp3915
sg82
g3909
sg75
(lp3916
g68
(g69
g70
NtRp3917
(dp3918
g73
(dp3919
g81
I1
ssg82
g3913
sg75
(lp3920
g3721
(S's\x08\x00\x00\x00This App'
tRp3921
asbasbasbag68
(g84
g70
NtRp3922
(dp3923
g73
(dp3924
sg82
g3905
sg75
(lp3925
g68
(g89
g70
NtRp3926
(dp3927
g73
(dp3928
sg82
g3922
sg75
(lp3929
g68
(g69
g70
NtRp3930
(dp3931
g73
(dp3932
g81
I1
ssg82
g3926
sg75
(lp3933
I00
asbasbasbag68
(g84
g70
NtRp3934
(dp3935
g73
(dp3936
sg82
g3905
sg75
(lp3937
g68
(g89
g70
NtRp3938
(dp3939
g73
(dp3940
sg82
g3934
sg75
(lp3941
g68
(g69
g70
NtRp3942
(dp3943
g73
(dp3944
g81
I1
ssg82
g3938
sg75
(lp3945
S'/admin/default/design/911_signin'
p3946
asbasbasbag68
(g84
g70
NtRp3947
(dp3948
g73
(dp3949
sg82
g3905
sg75
(lp3950
g68
(g89
g70
NtRp3951
(dp3952
g73
(dp3953
sg82
g3947
sg75
(lp3954
g68
(g69
g70
NtRp3955
(dp3956
g73
(dp3957
g81
I1
ssg82
g3951
sg75
(lp3958
(lp3959
(g3721
(S't\n\x00\x00\x00Controller'
tRp3960
I00
S'/admin/default/edit/911_signin/controllers/default.py'
tp3961
a(g3721
(S't\x04\x00\x00\x00View'
tRp3962
I00
S'/admin/default/edit/911_signin/views/default/user.html'
tp3963
a(g3721
(S't\x06\x00\x00\x00Layout'
tRp3964
I00
S'/admin/default/edit/911_signin/views/layout.html'
tp3965
a(g3721
(S't\n\x00\x00\x00Stylesheet'
tRp3966
I00
S'/admin/default/edit/911_signin/static/css/web2py.css'
tp3967
a(g3721
(S's\x08\x00\x00\x00DB Model'
tRp3968
I00
S'/admin/default/edit/911_signin/models/db.py'
tp3969
a(g3721
(S's\n\x00\x00\x00Menu Model'
tRp3970
I00
S'/admin/default/edit/911_signin/models/menu.py'
tp3971
a(g3721
(S't\x08\x00\x00\x00Database'
tRp3972
I00
S'/911_signin/appadmin/index'
tp3973
a(g3721
(S't\x06\x00\x00\x00Errors'
tRp3974
I00
S'/admin/default/errors/911_signin'
tp3975
a(g3721
(S't\x05\x00\x00\x00About'
tRp3976
I00
S'/admin/default/about/911_signin'
tp3977
aasbasbasbasbasbasbasbag68
(g84
g70
NtRp3978
(dp3979
g73
(dp3980
sg82
g3835
sg75
(lp3981
g68
(g89
g70
NtRp3982
(dp3983
g73
(dp3984
sg82
g3978
sg75
(lp3985
g68
(g69
g70
NtRp3986
(dp3987
g73
(dp3988
g81
I2
ssg82
g3982
sg75
(lp3989
g68
(g77
g70
NtRp3990
(dp3991
g73
(dp3992
g81
I1
ssg82
Nsg75
(lp3993
g68
(g84
g70
NtRp3994
(dp3995
g73
(dp3996
sg82
g3990
sg75
(lp3997
g68
(g89
g70
NtRp3998
(dp3999
g73
(dp4000
sg82
g3994
sg75
(lp4001
g68
(g69
g70
NtRp4002
(dp4003
g73
(dp4004
g81
I1
ssg82
g3998
sg75
(lp4005
S'web2py.com'
p4006
asbasbasbag68
(g84
g70
NtRp4007
(dp4008
g73
(dp4009
sg82
g3990
sg75
(lp4010
g68
(g89
g70
NtRp4011
(dp4012
g73
(dp4013
sg82
g4007
sg75
(lp4014
g68
(g69
g70
NtRp4015
(dp4016
g73
(dp4017
g81
I1
ssg82
g4011
sg75
(lp4018
I00
asbasbasbag68
(g84
g70
NtRp4019
(dp4020
g73
(dp4021
sg82
g3990
sg75
(lp4022
g68
(g89
g70
NtRp4023
(dp4024
g73
(dp4025
sg82
g4019
sg75
(lp4026
g68
(g69
g70
NtRp4027
(dp4028
g73
(dp4029
g81
I1
ssg82
g4023
sg75
(lp4030
S'http://www.web2py.com'
p4031
asbasbasbag68
(g84
g70
NtRp4032
(dp4033
g73
(dp4034
sg82
g3990
sg75
(lp4035
g68
(g89
g70
NtRp4036
(dp4037
g73
(dp4038
sg82
g4032
sg75
(lp4039
g68
(g69
g70
NtRp4040
(dp4041
g73
(dp4042
g81
I1
ssg82
g4036
sg75
(lp4043
(lp4044
(g3721
(S't\x08\x00\x00\x00Download'
tRp4045
I00
S'http://www.web2py.com/examples/default/download'
p4046
tp4047
a(g3721
(S't\x07\x00\x00\x00Support'
tRp4048
I00
S'http://www.web2py.com/examples/default/support'
p4049
tp4050
a(g3721
(S't\x04\x00\x00\x00Demo'
tRp4051
I00
S'http://web2py.com/demo_admin'
p4052
tp4053
a(g3721
(S's\x0e\x00\x00\x00Quick Examples'
tRp4054
I00
S'http://web2py.com/examples/default/examples'
p4055
tp4056
a(g3721
(S't\x03\x00\x00\x00FAQ'
tRp4057
I00
S'http://web2py.com/AlterEgo'
p4058
tp4059
a(g3721
(S't\x06\x00\x00\x00Videos'
tRp4060
I00
S'http://www.web2py.com/examples/default/videos/'
p4061
tp4062
a(g3721
(S's\x11\x00\x00\x00Free Applications'
tRp4063
I00
S'http://web2py.com/appliances'
p4064
tp4065
a(g3721
(S't\x07\x00\x00\x00Plugins'
tRp4066
I00
S'http://web2py.com/plugins'
p4067
tp4068
a(g3721
(S't\x07\x00\x00\x00Layouts'
tRp4069
I00
S'http://web2py.com/layouts'
p4070
tp4071
a(g3721
(S't\x07\x00\x00\x00Recipes'
tRp4072
I00
S'http://web2pyslices.com/'
p4073
tp4074
a(g3721
(S't\x08\x00\x00\x00Semantic'
tRp4075
I00
S'http://web2py.com/semantic'
p4076
tp4077
aasbasbasbasbasbasbasbag68
(g84
g70
NtRp4078
(dp4079
g73
(dp4080
sg82
g3835
sg75
(lp4081
g68
(g89
g70
NtRp4082
(dp4083
g73
(dp4084
sg82
g4078
sg75
(lp4085
g68
(g69
g70
NtRp4086
(dp4087
g73
(dp4088
g81
I2
ssg82
g4082
sg75
(lp4089
g68
(g77
g70
NtRp4090
(dp4091
g73
(dp4092
g81
I1
ssg82
Nsg75
(lp4093
g68
(g84
g70
NtRp4094
(dp4095
g73
(dp4096
sg82
g4090
sg75
(lp4097
g68
(g89
g70
NtRp4098
(dp4099
g73
(dp4100
sg82
g4094
sg75
(lp4101
g68
(g69
g70
NtRp4102
(dp4103
g73
(dp4104
g81
I1
ssg82
g4098
sg75
(lp4105
g3721
(S't\r\x00\x00\x00Documentation'
tRp4106
asbasbasbag68
(g84
g70
NtRp4107
(dp4108
g73
(dp4109
sg82
g4090
sg75
(lp4110
g68
(g89
g70
NtRp4111
(dp4112
g73
(dp4113
sg82
g4107
sg75
(lp4114
g68
(g69
g70
NtRp4115
(dp4116
g73
(dp4117
g81
I1
ssg82
g4111
sg75
(lp4118
I00
asbasbasbag68
(g84
g70
NtRp4119
(dp4120
g73
(dp4121
sg82
g4090
sg75
(lp4122
g68
(g89
g70
NtRp4123
(dp4124
g73
(dp4125
sg82
g4119
sg75
(lp4126
g68
(g69
g70
NtRp4127
(dp4128
g73
(dp4129
g81
I1
ssg82
g4123
sg75
(lp4130
S'http://www.web2py.com/book'
p4131
asbasbasbag68
(g84
g70
NtRp4132
(dp4133
g73
(dp4134
sg82
g4090
sg75
(lp4135
g68
(g89
g70
NtRp4136
(dp4137
g73
(dp4138
sg82
g4132
sg75
(lp4139
g68
(g69
g70
NtRp4140
(dp4141
g73
(dp4142
g81
I1
ssg82
g4136
sg75
(lp4143
(lp4144
(g3721
(S't\x07\x00\x00\x00Preface'
tRp4145
I00
S'http://www.web2py.com/book/default/chapter/00'
p4146
tp4147
a(g3721
(S't\x0c\x00\x00\x00Introduction'
tRp4148
I00
S'http://www.web2py.com/book/default/chapter/01'
p4149
tp4150
a(g3721
(S't\x06\x00\x00\x00Python'
tRp4151
I00
S'http://www.web2py.com/book/default/chapter/02'
p4152
tp4153
a(g3721
(S't\x08\x00\x00\x00Overview'
tRp4154
I00
S'http://www.web2py.com/book/default/chapter/03'
p4155
tp4156
a(g3721
(S's\x08\x00\x00\x00The Core'
tRp4157
I00
S'http://www.web2py.com/book/default/chapter/04'
p4158
tp4159
a(g3721
(S's\t\x00\x00\x00The Views'
tRp4160
I00
S'http://www.web2py.com/book/default/chapter/05'
p4161
tp4162
a(g3721
(S't\x08\x00\x00\x00Database'
tRp4163
I00
S'http://www.web2py.com/book/default/chapter/06'
p4164
tp4165
a(g3721
(S's\x14\x00\x00\x00Forms and Validators'
tRp4166
I00
S'http://www.web2py.com/book/default/chapter/07'
p4167
tp4168
a(g3721
(S's\r\x00\x00\x00Email and SMS'
tRp4169
I00
S'http://www.web2py.com/book/default/chapter/08'
p4170
tp4171
a(g3721
(S's\x0e\x00\x00\x00Access Control'
tRp4172
I00
S'http://www.web2py.com/book/default/chapter/09'
p4173
tp4174
a(g3721
(S't\x08\x00\x00\x00Services'
tRp4175
I00
S'http://www.web2py.com/book/default/chapter/10'
p4176
tp4177
a(g3721
(S's\x0c\x00\x00\x00Ajax Recipes'
tRp4178
I00
S'http://www.web2py.com/book/default/chapter/11'
p4179
tp4180
a(g3721
(S's\x16\x00\x00\x00Components and Plugins'
tRp4181
I00
S'http://www.web2py.com/book/default/chapter/12'
p4182
tp4183
a(g3721
(S's\x12\x00\x00\x00Deployment Recipes'
tRp4184
I00
S'http://www.web2py.com/book/default/chapter/13'
p4185
tp4186
a(g3721
(S's\r\x00\x00\x00Other Recipes'
tRp4187
I00
S'http://www.web2py.com/book/default/chapter/14'
p4188
tp4189
a(g3721
(S's\r\x00\x00\x00Buy this book'
tRp4190
I00
S'http://stores.lulu.com/web2py'
p4191
tp4192
aasbasbasbasbasbasbasbag68
(g84
g70
NtRp4193
(dp4194
g73
(dp4195
sg82
g3835
sg75
(lp4196
g68
(g89
g70
NtRp4197
(dp4198
g73
(dp4199
sg82
g4193
sg75
(lp4200
g68
(g69
g70
NtRp4201
(dp4202
g73
(dp4203
g81
I2
ssg82
g4197
sg75
(lp4204
g68
(g77
g70
NtRp4205
(dp4206
g73
(dp4207
g81
I1
ssg82
Nsg75
(lp4208
g68
(g84
g70
NtRp4209
(dp4210
g73
(dp4211
sg82
g4205
sg75
(lp4212
g68
(g89
g70
NtRp4213
(dp4214
g73
(dp4215
sg82
g4209
sg75
(lp4216
g68
(g69
g70
NtRp4217
(dp4218
g73
(dp4219
g81
I1
ssg82
g4213
sg75
(lp4220
g3721
(S't\t\x00\x00\x00Community'
tRp4221
asbasbasbag68
(g84
g70
NtRp4222
(dp4223
g73
(dp4224
sg82
g4205
sg75
(lp4225
g68
(g89
g70
NtRp4226
(dp4227
g73
(dp4228
sg82
g4222
sg75
(lp4229
g68
(g69
g70
NtRp4230
(dp4231
g73
(dp4232
g81
I1
ssg82
g4226
sg75
(lp4233
I00
asbasbasbag68
(g84
g70
NtRp4234
(dp4235
g73
(dp4236
sg82
g4205
sg75
(lp4237
g68
(g89
g70
NtRp4238
(dp4239
g73
(dp4240
sg82
g4234
sg75
(lp4241
g68
(g69
g70
NtRp4242
(dp4243
g73
(dp4244
g81
I1
ssg82
g4238
sg75
(lp4245
Nasbasbasbag68
(g84
g70
NtRp4246
(dp4247
g73
(dp4248
sg82
g4205
sg75
(lp4249
g68
(g89
g70
NtRp4250
(dp4251
g73
(dp4252
sg82
g4246
sg75
(lp4253
g68
(g69
g70
NtRp4254
(dp4255
g73
(dp4256
g81
I1
ssg82
g4250
sg75
(lp4257
(lp4258
(g3721
(S't\x06\x00\x00\x00Groups'
tRp4259
I00
S'http://www.web2py.com/examples/default/usergroups'
p4260
tp4261
a(g3721
(S't\x07\x00\x00\x00Twitter'
tRp4262
I00
S'http://twitter.com/web2py'
p4263
tp4264
a(g3721
(S's\t\x00\x00\x00Live Chat'
tRp4265
I00
S'http://webchat.freenode.net/?channels=web2py'
p4266
tp4267
aasbasbasbasbasbasbasbag68
(g84
g70
NtRp4268
(dp4269
g73
(dp4270
sg82
g3835
sg75
(lp4271
g68
(g89
g70
NtRp4272
(dp4273
g73
(dp4274
sg82
g4268
sg75
(lp4275
g68
(g69
g70
NtRp4276
(dp4277
g73
(dp4278
g81
I2
ssg82
g4272
sg75
(lp4279
g68
(g77
g70
NtRp4280
(dp4281
g73
(dp4282
g81
I1
ssg82
Nsg75
(lp4283
g68
(g84
g70
NtRp4284
(dp4285
g73
(dp4286
sg82
g4280
sg75
(lp4287
g68
(g89
g70
NtRp4288
(dp4289
g73
(dp4290
sg82
g4284
sg75
(lp4291
g68
(g69
g70
NtRp4292
(dp4293
g73
(dp4294
g81
I1
ssg82
g4288
sg75
(lp4295
g3721
(S't\x07\x00\x00\x00Plugins'
tRp4296
asbasbasbag68
(g84
g70
NtRp4297
(dp4298
g73
(dp4299
sg82
g4280
sg75
(lp4300
g68
(g89
g70
NtRp4301
(dp4302
g73
(dp4303
sg82
g4297
sg75
(lp4304
g68
(g69
g70
NtRp4305
(dp4306
g73
(dp4307
g81
I1
ssg82
g4301
sg75
(lp4308
I00
asbasbasbag68
(g84
g70
NtRp4309
(dp4310
g73
(dp4311
sg82
g4280
sg75
(lp4312
g68
(g89
g70
NtRp4313
(dp4314
g73
(dp4315
sg82
g4309
sg75
(lp4316
g68
(g69
g70
NtRp4317
(dp4318
g73
(dp4319
g81
I1
ssg82
g4313
sg75
(lp4320
Nasbasbasbag68
(g84
g70
NtRp4321
(dp4322
g73
(dp4323
sg82
g4280
sg75
(lp4324
g68
(g89
g70
NtRp4325
(dp4326
g73
(dp4327
sg82
g4321
sg75
(lp4328
g68
(g69
g70
NtRp4329
(dp4330
g73
(dp4331
g81
I1
ssg82
g4325
sg75
(lp4332
(lp4333
(S'plugin_wiki'
p4334
I00
S'http://web2py.com/examples/default/download'
p4335
tp4336
a(g3721
(S's\r\x00\x00\x00Other Plugins'
tRp4337
I00
g4067
tp4338
a(g3721
(S's\x0e\x00\x00\x00Layout Plugins'
tRp4339
I00
g4070
tp4340
aasbasbasbasbasbasbasbasbasbasbasbasbasbasbasbasbasbasbasbag68
(g84
g70
NtRp4341
(dp4342
g73
(dp4343
sg82
g3165
sg75
(lp4344
g68
(g89
g70
NtRp4345
(dp4346
g73
(dp4347
g93
g94
ssg82
g4341
sg75
(lp4348
S'meta'
p4349
asbag68
(g89
g70
NtRp4350
(dp4351
g73
(dp4352
g100
g101
ssg82
g4341
sg75
(lp4353
S':'
asbag68
(g89
g70
NtRp4354
(dp4355
g73
(dp4356
sg82
g4341
sg75
(lp4357
g68
(g69
g70
NtRp4358
(dp4359
g73
(dp4360
g81
I5
ssg82
g4354
sg75
(lp4361
g68
(g77
g70
NtRp4362
(dp4363
g73
(dp4364
g81
I4
ssg82
Nsg75
(lp4365
g68
(g84
g70
NtRp4366
(dp4367
g73
(dp4368
sg82
g4362
sg75
(lp4369
g68
(g89
g70
NtRp4370
(dp4371
g73
(dp4372
g93
g94
ssg82
g4366
sg75
(lp4373
S'author'
p4374
asbag68
(g89
g70
NtRp4375
(dp4376
g73
(dp4377
g100
g101
ssg82
g4366
sg75
(lp4378
S':'
asbag68
(g89
g70
NtRp4379
(dp4380
g73
(dp4381
sg82
g4366
sg75
(lp4382
g68
(g69
g70
NtRp4383
(dp4384
g73
(dp4385
g81
I4
ssg82
g4379
sg75
(lp4386
S'Your Name <you@example.com>'
p4387
asbasbasbag68
(g84
g70
NtRp4388
(dp4389
g73
(dp4390
sg82
g4362
sg75
(lp4391
g68
(g89
g70
NtRp4392
(dp4393
g73
(dp4394
g93
g94
ssg82
g4388
sg75
(lp4395
S'copyright'
p4396
asbag68
(g89
g70
NtRp4397
(dp4398
g73
(dp4399
g100
g101
ssg82
g4388
sg75
(lp4400
S':'
asbag68
(g89
g70
NtRp4401
(dp4402
g73
(dp4403
sg82
g4388
sg75
(lp4404
g68
(g69
g70
NtRp4405
(dp4406
g73
(dp4407
g81
I4
ssg82
g4401
sg75
(lp4408
S'Copyright 2011'
p4409
asbasbasbag68
(g84
g70
NtRp4410
(dp4411
g73
(dp4412
sg82
g4362
sg75
(lp4413
g68
(g89
g70
NtRp4414
(dp4415
g73
(dp4416
g93
g94
ssg82
g4410
sg75
(lp4417
S'description'
p4418
asbag68
(g89
g70
NtRp4419
(dp4420
g73
(dp4421
g100
g101
ssg82
g4410
sg75
(lp4422
S':'
asbag68
(g89
g70
NtRp4423
(dp4424
g73
(dp4425
sg82
g4410
sg75
(lp4426
g68
(g69
g70
NtRp4427
(dp4428
g73
(dp4429
g81
I4
ssg82
g4423
sg75
(lp4430
S'a cool new app'
p4431
asbasbasbag68
(g84
g70
NtRp4432
(dp4433
g73
(dp4434
sg82
g4362
sg75
(lp4435
g68
(g89
g70
NtRp4436
(dp4437
g73
(dp4438
g93
g94
ssg82
g4432
sg75
(lp4439
S'generator'
p4440
asbag68
(g89
g70
NtRp4441
(dp4442
g73
(dp4443
g100
g101
ssg82
g4432
sg75
(lp4444
S':'
asbag68
(g89
g70
NtRp4445
(dp4446
g73
(dp4447
sg82
g4432
sg75
(lp4448
g68
(g69
g70
NtRp4449
(dp4450
g73
(dp4451
g81
I4
ssg82
g4445
sg75
(lp4452
S'Web2py Web Framework'
p4453
asbasbasbag68
(g84
g70
NtRp4454
(dp4455
g73
(dp4456
sg82
g4362
sg75
(lp4457
g68
(g89
g70
NtRp4458
(dp4459
g73
(dp4460
g93
g94
ssg82
g4454
sg75
(lp4461
S'keywords'
p4462
asbag68
(g89
g70
NtRp4463
(dp4464
g73
(dp4465
g100
g101
ssg82
g4454
sg75
(lp4466
S':'
asbag68
(g89
g70
NtRp4467
(dp4468
g73
(dp4469
sg82
g4454
sg75
(lp4470
g68
(g69
g70
NtRp4471
(dp4472
g73
(dp4473
g81
I4
ssg82
g4467
sg75
(lp4474
S'web2py, python, framework'
p4475
asbasbasbasbasbasbasbag68
(g84
g70
NtRp4476
(dp4477
g73
(dp4478
sg82
g3165
sg75
(lp4479
g68
(g89
g70
NtRp4480
(dp4481
g73
(dp4482
g93
g94
ssg82
g4476
sg75
(lp4483
S'postprocessing'
p4484
asbag68
(g89
g70
NtRp4485
(dp4486
g73
(dp4487
g100
g101
ssg82
g4476
sg75
(lp4488
S':'
asbag68
(g89
g70
NtRp4489
(dp4490
g73
(dp4491
sg82
g4476
sg75
(lp4492
g68
(g69
g70
NtRp4493
(dp4494
g73
(dp4495
g81
I5
ssg82
g4489
sg75
(lp4496
g68
(g77
g70
NtRp4497
(dp4498
g73
(dp4499
g81
I4
ssg82
Nsg75
(lp4500
sbasbasbasbag68
(g84
g70
NtRp4501
(dp4502
g73
(dp4503
sg82
g3165
sg75
(lp4504
g68
(g89
g70
NtRp4505
(dp4506
g73
(dp4507
g93
g94
ssg82
g4501
sg75
(lp4508
S'session_file'
p4509
asbag68
(g89
g70
NtRp4510
(dp4511
g73
(dp4512
g100
g101
ssg82
g4501
sg75
(lp4513
S':'
asbag68
(g89
g70
NtRp4514
(dp4515
g73
(dp4516
sg82
g4501
sg75
(lp4517
g68
(g69
g70
NtRp4518
(dp4519
g73
(dp4520
g81
I5
ssg82
g4514
sg75
(lp4521
S"<open file '/home/enigma/web2py/applications/911_signin/sessions/127.0.0.1-7de8cf1c-fb47-4fb9-b232-ca1b0a317dba', mode 'rb+' at 0x9aa42e0>"
p4522
asbasbasbag68
(g84
g70
NtRp4523
(dp4524
g73
(dp4525
sg82
g3165
sg75
(lp4526
g68
(g89
g70
NtRp4527
(dp4528
g73
(dp4529
g93
g94
ssg82
g4523
sg75
(lp4530
S'session_filename'
p4531
asbag68
(g89
g70
NtRp4532
(dp4533
g73
(dp4534
g100
g101
ssg82
g4523
sg75
(lp4535
S':'
asbag68
(g89
g70
NtRp4536
(dp4537
g73
(dp4538
sg82
g4523
sg75
(lp4539
g68
(g69
g70
NtRp4540
(dp4541
g73
(dp4542
g81
I5
ssg82
g4536
sg75
(lp4543
S'/home/enigma/web2py/applications/911_signin/sessions/127.0.0.1-7de8cf1c-fb47-4fb9-b232-ca1b0a317dba'
p4544
asbasbasbag68
(g84
g70
NtRp4545
(dp4546
g73
(dp4547
sg82
g3165
sg75
(lp4548
g68
(g89
g70
NtRp4549
(dp4550
g73
(dp4551
g93
g94
ssg82
g4545
sg75
(lp4552
S'session_id'
p4553
asbag68
(g89
g70
NtRp4554
(dp4555
g73
(dp4556
g100
g101
ssg82
g4545
sg75
(lp4557
S':'
asbag68
(g89
g70
NtRp4558
(dp4559
g73
(dp4560
sg82
g4545
sg75
(lp4561
g68
(g69
g70
NtRp4562
(dp4563
g73
(dp4564
g81
I5
ssg82
g4558
sg75
(lp4565
S'127.0.0.1-7de8cf1c-fb47-4fb9-b232-ca1b0a317dba'
p4566
asbasbasbag68
(g84
g70
NtRp4567
(dp4568
g73
(dp4569
sg82
g3165
sg75
(lp4570
g68
(g89
g70
NtRp4571
(dp4572
g73
(dp4573
g93
g94
ssg82
g4567
sg75
(lp4574
S'session_id_name'
p4575
asbag68
(g89
g70
NtRp4576
(dp4577
g73
(dp4578
g100
g101
ssg82
g4567
sg75
(lp4579
S':'
asbag68
(g89
g70
NtRp4580
(dp4581
g73
(dp4582
sg82
g4567
sg75
(lp4583
g68
(g69
g70
NtRp4584
(dp4585
g73
(dp4586
g81
I5
ssg82
g4580
sg75
(lp4587
g3222
asbasbasbag68
(g84
g70
NtRp4588
(dp4589
g73
(dp4590
sg82
g3165
sg75
(lp4591
g68
(g89
g70
NtRp4592
(dp4593
g73
(dp4594
g93
g94
ssg82
g4588
sg75
(lp4595
S'session_locked'
p4596
asbag68
(g89
g70
NtRp4597
(dp4598
g73
(dp4599
g100
g101
ssg82
g4588
sg75
(lp4600
S':'
asbag68
(g89
g70
NtRp4601
(dp4602
g73
(dp4603
sg82
g4588
sg75
(lp4604
g68
(g69
g70
NtRp4605
(dp4606
g73
(dp4607
g81
I5
ssg82
g4601
sg75
(lp4608
g1725
asbasbasbag68
(g84
g70
NtRp4609
(dp4610
g73
(dp4611
sg82
g3165
sg75
(lp4612
g68
(g89
g70
NtRp4613
(dp4614
g73
(dp4615
g93
g94
ssg82
g4609
sg75
(lp4616
S'session_new'
p4617
asbag68
(g89
g70
NtRp4618
(dp4619
g73
(dp4620
g100
g101
ssg82
g4609
sg75
(lp4621
S':'
asbag68
(g89
g70
NtRp4622
(dp4623
g73
(dp4624
sg82
g4609
sg75
(lp4625
g68
(g69
g70
NtRp4626
(dp4627
g73
(dp4628
g81
I5
ssg82
g4622
sg75
(lp4629
g111
asbasbasbag68
(g84
g70
NtRp4630
(dp4631
g73
(dp4632
sg82
g3165
sg75
(lp4633
g68
(g89
g70
NtRp4634
(dp4635
g73
(dp4636
g93
g94
ssg82
g4630
sg75
(lp4637
S'status'
p4638
asbag68
(g89
g70
NtRp4639
(dp4640
g73
(dp4641
g100
g101
ssg82
g4630
sg75
(lp4642
S':'
asbag68
(g89
g70
NtRp4643
(dp4644
g73
(dp4645
sg82
g4630
sg75
(lp4646
g68
(g69
g70
NtRp4647
(dp4648
g73
(dp4649
g81
I5
ssg82
g4643
sg75
(lp4650
S'200'
p4651
asbasbasbag68
(g84
g70
NtRp4652
(dp4653
g73
(dp4654
sg82
g3165
sg75
(lp4655
g68
(g89
g70
NtRp4656
(dp4657
g73
(dp4658
g93
g94
ssg82
g4652
sg75
(lp4659
S'subtitle'
p4660
asbag68
(g89
g70
NtRp4661
(dp4662
g73
(dp4663
g100
g101
ssg82
g4652
sg75
(lp4664
S':'
asbag68
(g89
g70
NtRp4665
(dp4666
g73
(dp4667
sg82
g4652
sg75
(lp4668
g68
(g69
g70
NtRp4669
(dp4670
g73
(dp4671
g81
I5
ssg82
g4665
sg75
(lp4672
g3721
(S's\r\x00\x00\x00customize me!'
tRp4673
asbasbasbag68
(g84
g70
NtRp4674
(dp4675
g73
(dp4676
sg82
g3165
sg75
(lp4677
g68
(g89
g70
NtRp4678
(dp4679
g73
(dp4680
g93
g94
ssg82
g4674
sg75
(lp4681
S'title'
p4682
asbag68
(g89
g70
NtRp4683
(dp4684
g73
(dp4685
g100
g101
ssg82
g4674
sg75
(lp4686
S':'
asbag68
(g89
g70
NtRp4687
(dp4688
g73
(dp4689
sg82
g4674
sg75
(lp4690
g68
(g69
g70
NtRp4691
(dp4692
g73
(dp4693
g81
I5
ssg82
g4687
sg75
(lp4694
S'911 Signin'
p4695
asbasbasbag68
(g84
g70
NtRp4696
(dp4697
g73
(dp4698
sg82
g3165
sg75
(lp4699
g68
(g89
g70
NtRp4700
(dp4701
g73
(dp4702
g93
g94
ssg82
g4696
sg75
(lp4703
g2410
asbag68
(g89
g70
NtRp4704
(dp4705
g73
(dp4706
g100
g101
ssg82
g4696
sg75
(lp4707
S':'
asbag68
(g89
g70
NtRp4708
(dp4709
g73
(dp4710
sg82
g4696
sg75
(lp4711
g68
(g69
g70
NtRp4712
(dp4713
g73
(dp4714
g81
I5
ssg82
g4708
sg75
(lp4715
g2423
asbasbasbag68
(g84
g70
NtRp4716
(dp4717
g73
(dp4718
sg82
g3165
sg75
(lp4719
g68
(g89
g70
NtRp4720
(dp4721
g73
(dp4722
g93
g94
ssg82
g4716
sg75
(lp4723
S'view'
p4724
asbag68
(g89
g70
NtRp4725
(dp4726
g73
(dp4727
g100
g101
ssg82
g4716
sg75
(lp4728
S':'
asbag68
(g89
g70
NtRp4729
(dp4730
g73
(dp4731
sg82
g4716
sg75
(lp4732
g68
(g69
g70
NtRp4733
(dp4734
g73
(dp4735
g81
I5
ssg82
g4729
sg75
(lp4736
S'default/user.html'
p4737
asbasbasbasbasbsS'locals'
p4738
(dp4739
g4
S"'/home/enigma/web2py/applications/911_signin/controllers/default.py'"
p4740
sg6
S"'# -*- coding: utf-8 -*-\\n# this file is released ...m=crud())\\n\\nresponse._vars=response._caller(user)\\n'"
p4741
sssS'traceback'
p4742
S'Traceback (most recent call last):\n  File "/home/enigma/web2py/gluon/restricted.py", line 204, in restricted\n    ccode = compile2(code,layer)\n  File "/home/enigma/web2py/gluon/restricted.py", line 189, in compile2\n    return compile(code.rstrip().replace(\'\\r\\n\',\'\\n\')+\'\\n\', layer, \'exec\')\n  File "/home/enigma/web2py/applications/911_signin/controllers/default.py", line 38\n    form_jainrain = use_janrain(auth,filename=\'private/janrain.key\')\n   ^\nIndentationError: unexpected indent\n'
p4743
s.