(dp1
S'output'
p2
S"<type 'exceptions.ValueError'> invalid literal for int() with base 10: ''"
p3
sS'layer'
p4
S'/home/enigma/web2py/applications/911_signin/models/db.py'
p5
sS'code'
p6
S'# -*- coding: utf-8 -*-\n\n#########################################################################\n## This scaffolding model makes your app work on Google App Engine too\n## File is released under public domain and you can use without limitations\n#########################################################################\n\n## if SSL/HTTPS is properly configured and you want all HTTP requests to\n## be redirected to HTTPS, uncomment the line below:\n# request.requires_https()\n\nif not request.env.web2py_runtime_gae:\n    ## if NOT running on Google App Engine use SQLite or other DB\n    db = DAL(\'sqlite://storage.sqlite\')\nelse:\n    ## connect to Google BigTable (optional \'google:datastore://namespace\')\n    db = DAL(\'google:datastore\')\n    ## store sessions and tickets there\n    session.connect(request, response, db = db)\n    ## or store session in Memcache, Redis, etc.\n    ## from gluon.contrib.memdb import MEMDB\n    ## from google.appengine.api.memcache import Client\n    ## session.connect(request, response, db = MEMDB(Client()))\n\n## by default give a view/generic.extension to all actions from localhost\n## none otherwise. a pattern can be \'controller/function.extension\'\nresponse.generic_patterns = [\'*\'] if request.is_local else []\n## (optional) optimize handling of static files\n# response.optimize_css = \'concat,minify,inline\'\n# response.optimize_js = \'concat,minify,inline\'\n\n#########################################################################\n## Here is sample code if you need for\n## - email capabilities\n## - authentication (registration, login, logout, ... )\n## - authorization (role based authorization)\n## - services (xml, csv, json, xmlrpc, jsonrpc, amf, rss)\n## - old style crud actions\n## (more options discussed in gluon/tools.py)\n#########################################################################\n\nfrom gluon.tools import Auth, Crud, Service, PluginManager, prettydate, Mail\nauth = Auth(db=db, hmac_key=Auth.get_or_create_key())\ncrud, service, plugins = Crud(db), Service(), PluginManager()\n\n## create all tables needed by auth if not custom tables\nauth.define_tables()\n\n## configure email\nmail=auth.settings.mailer\nmail.settings.server = \'smtp.gmail.com:587\'\nmail.settings.sender = \'chandantheshadow@gmail.com\'\nmail.settings.login = \'chandantheshadow:fireinthehole27\'\n\n## configure auth policy\nauth.settings.registration_requires_verification = False\nauth.settings.registration_requires_approval = False\nauth.settings.reset_password_requires_verification = True\n\n## if you need to use OpenID, Facebook, MySpace, Twitter, Linkedin, etc.\n## register with janrain.com, write your domain:api_key in private/janrain.key\n#from gluon.contrib.login_methods.rpx_account import use_janrain\n#use_janrain(auth,filename=\'private/janrain.key\')\n\n#########################################################################\n## Define your tables below (or better in another model file) for example\n##\n## >>> db.define_table(\'mytable\',Field(\'myfield\',\'string\'))\n##\n## Fields can be \'string\',\'text\',\'password\',\'integer\',\'double\',\'boolean\'\n##       \'date\',\'time\',\'datetime\',\'blob\',\'upload\', \'reference TABLENAME\'\n## There is an implicit \'id integer autoincrement\' field\n## Consult manual for more options, validators, etc.\n##\n## More API examples for controllers:\n##\n## >>> db.mytable.insert(myfield=\'value\')\n## >>> rows=db(db.mytable.myfield==\'value\').select(db.mytable.ALL)\n## >>> for row in rows: print row.id, row.myfield\n#########################################################################\n\nauth.settings.table_user = db.define_table(\n\t"auth_users",\n\tField(\'first_name\', requires = [IS_NOT_EMPTY(), IS_LENGTH(32), IS_ALPHANUMERIC()]),\n\tField(\'last_name\', requires = [IS_NOT_EMPTY(), IS_LENGTH(32), IS_ALPHANUMERIC()]),\n\tField(\'username\', length=32, unique = True, requires = [IS_NOT_EMPTY(), IS_LENGTH(32)]),\n\tField(\'email\', length=128, unique = True, default=\'\', requires = [IS_EMAIL(), IS_NOT_EMPTY()]),\n\tField(\'password\', \'password\', readable=False, label=\'Password\', requires=CRYPT(digest_alg=\'sha512\')), \n\tField(\'registration_key\', length=128, writable=False, readable=False, default=\'\'),\n\tField(\'unread_ctr\', \'decimal\', default=0, writable=False, readable=False))\n\t\ndb.define_table(\'users\',\n\tField(\'first_name\', requires = [IS_NOT_EMPTY(), IS_LENGTH(32), IS_ALPHANUMERIC()]),\n\tField(\'last_name\', requires = [IS_NOT_EMPTY(), IS_LENGTH(32), IS_ALPHANUMERIC()]),\n\tField(\'username\', length=32, writable=False),\n\tField(\'email\', writable=False))\n\ndb.define_table(\'message\',\n    Field(\'sender\', length=32, writable=False, readable=False),\n    Field(\'reciever\', length=32, requires = [IS_NOT_EMPTY(), IS_LENGTH(32)]),\n\tField(\'subject\', length=200, requires = [IS_LENGTH(200)]),\n\tField(\'message\', \'text\', length=1000, requires = [IS_LENGTH(1000)]),\n\tField(\'read\', \'boolean\', writable=False, readable=False)\n\t)\n'
p7
sS'snapshot'
p8
(dp9
S'exception'
p10
(dp11
S'__hash__'
p12
S"<method-wrapper '__hash__' of exceptions.ValueError object>"
p13
sS'__setattr__'
p14
S"<method-wrapper '__setattr__' of exceptions.ValueError object>"
p15
sS'__reduce_ex__'
p16
S'<built-in method __reduce_ex__ of exceptions.ValueError object>'
p17
sS'__getslice__'
p18
S"<method-wrapper '__getslice__' of exceptions.ValueError object>"
p19
sS'__getitem__'
p20
S"<method-wrapper '__getitem__' of exceptions.ValueError object>"
p21
sS'__setstate__'
p22
S'<built-in method __setstate__ of exceptions.ValueError object>'
p23
sS'__reduce__'
p24
S'<built-in method __reduce__ of exceptions.ValueError object>'
p25
sS'__str__'
p26
S"<method-wrapper '__str__' of exceptions.ValueError object>"
p27
sS'__format__'
p28
S'<built-in method __format__ of exceptions.ValueError object>'
p29
sS'__getattribute__'
p30
S"<method-wrapper '__getattribute__' of exceptions.ValueError object>"
p31
sS'__class__'
p32
S"<type 'exceptions.ValueError'>"
p33
sS'__unicode__'
p34
S'<built-in method __unicode__ of exceptions.ValueError object>'
p35
sS'__delattr__'
p36
S"<method-wrapper '__delattr__' of exceptions.ValueError object>"
p37
sS'__subclasshook__'
p38
S'<built-in method __subclasshook__ of type object>'
p39
sS'__repr__'
p40
S"<method-wrapper '__repr__' of exceptions.ValueError object>"
p41
sS'args'
p42
S'("invalid literal for int() with base 10: \'\'",)'
p43
sS'__dict__'
p44
S'{}'
p45
sS'__sizeof__'
p46
S'<built-in method __sizeof__ of exceptions.ValueError object>'
p47
sS'__doc__'
p48
S"'Inappropriate argument value (of correct type).'"
p49
sS'__init__'
p50
S"<method-wrapper '__init__' of exceptions.ValueError object>"
p51
sS'__new__'
p52
S'<built-in method __new__ of type object>'
p53
ssS'evalue'
p54
S"invalid literal for int() with base 10: ''"
p55
sS'request'
p56
ccopy_reg
_reconstructor
p57
(cgluon.html
BEAUTIFY
p58
c__builtin__
object
p59
NtRp60
(dp61
S'attributes'
p62
(dp63
sS'components'
p64
(lp65
g57
(cgluon.html
TABLE
p66
g59
NtRp67
(dp68
g62
(dp69
S'level'
p70
I5
ssS'parent'
p71
Nsg64
(lp72
g57
(cgluon.html
TR
p73
g59
NtRp74
(dp75
g62
(dp76
sg71
g67
sg64
(lp77
g57
(cgluon.html
TD
p78
g59
NtRp79
(dp80
g62
(dp81
S'_style'
p82
S'font-weight:bold;vertical-align:top'
p83
ssg71
g74
sg64
(lp84
S'ajax'
p85
asbag57
(g78
g59
NtRp86
(dp87
g62
(dp88
S'_valign'
p89
S'top'
p90
ssg71
g74
sg64
(lp91
S':'
asbag57
(g78
g59
NtRp92
(dp93
g62
(dp94
sg71
g74
sg64
(lp95
g57
(g58
g59
NtRp96
(dp97
g62
(dp98
g70
I5
ssg71
g92
sg64
(lp99
S'False'
p100
asbasbasbag57
(g73
g59
NtRp101
(dp102
g62
(dp103
sg71
g67
sg64
(lp104
g57
(g78
g59
NtRp105
(dp106
g62
(dp107
g82
g83
ssg71
g101
sg64
(lp108
S'application'
p109
asbag57
(g78
g59
NtRp110
(dp111
g62
(dp112
g89
g90
ssg71
g101
sg64
(lp113
S':'
asbag57
(g78
g59
NtRp114
(dp115
g62
(dp116
sg71
g101
sg64
(lp117
g57
(g58
g59
NtRp118
(dp119
g62
(dp120
g70
I5
ssg71
g114
sg64
(lp121
S'911_signin'
p122
asbasbasbag57
(g73
g59
NtRp123
(dp124
g62
(dp125
sg71
g67
sg64
(lp126
g57
(g78
g59
NtRp127
(dp128
g62
(dp129
g82
g83
ssg71
g123
sg64
(lp130
g42
asbag57
(g78
g59
NtRp131
(dp132
g62
(dp133
g89
g90
ssg71
g123
sg64
(lp134
S':'
asbag57
(g78
g59
NtRp135
(dp136
g62
(dp137
sg71
g123
sg64
(lp138
g57
(g58
g59
NtRp139
(dp140
g62
(dp141
g70
I5
ssg71
g135
sg64
(lp142
g57
(g66
g59
NtRp143
(dp144
g62
(dp145
g70
I4
ssg71
Nsg64
(lp146
sbasbasbasbag57
(g73
g59
NtRp147
(dp148
g62
(dp149
sg71
g67
sg64
(lp150
g57
(g78
g59
NtRp151
(dp152
g62
(dp153
g82
g83
ssg71
g147
sg64
(lp154
S'body'
p155
asbag57
(g78
g59
NtRp156
(dp157
g62
(dp158
g89
g90
ssg71
g147
sg64
(lp159
S':'
asbag57
(g78
g59
NtRp160
(dp161
g62
(dp162
sg71
g147
sg64
(lp163
g57
(g58
g59
NtRp164
(dp165
g62
(dp166
g70
I5
ssg71
g160
sg64
(lp167
S"<open file '<fdopen>', mode 'w+b' at 0xa1eb128>"
p168
asbasbasbag57
(g73
g59
NtRp169
(dp170
g62
(dp171
sg71
g67
sg64
(lp172
g57
(g78
g59
NtRp173
(dp174
g62
(dp175
g82
g83
ssg71
g169
sg64
(lp176
S'client'
p177
asbag57
(g78
g59
NtRp178
(dp179
g62
(dp180
g89
g90
ssg71
g169
sg64
(lp181
S':'
asbag57
(g78
g59
NtRp182
(dp183
g62
(dp184
sg71
g169
sg64
(lp185
g57
(g58
g59
NtRp186
(dp187
g62
(dp188
g70
I5
ssg71
g182
sg64
(lp189
S'127.0.0.1'
p190
asbasbasbag57
(g73
g59
NtRp191
(dp192
g62
(dp193
sg71
g67
sg64
(lp194
g57
(g78
g59
NtRp195
(dp196
g62
(dp197
g82
g83
ssg71
g191
sg64
(lp198
S'controller'
p199
asbag57
(g78
g59
NtRp200
(dp201
g62
(dp202
g89
g90
ssg71
g191
sg64
(lp203
S':'
asbag57
(g78
g59
NtRp204
(dp205
g62
(dp206
sg71
g191
sg64
(lp207
g57
(g58
g59
NtRp208
(dp209
g62
(dp210
g70
I5
ssg71
g204
sg64
(lp211
S'default'
p212
asbasbasbag57
(g73
g59
NtRp213
(dp214
g62
(dp215
sg71
g67
sg64
(lp216
g57
(g78
g59
NtRp217
(dp218
g62
(dp219
g82
g83
ssg71
g213
sg64
(lp220
S'cookies'
p221
asbag57
(g78
g59
NtRp222
(dp223
g62
(dp224
g89
g90
ssg71
g213
sg64
(lp225
S':'
asbag57
(g78
g59
NtRp226
(dp227
g62
(dp228
sg71
g213
sg64
(lp229
g57
(g58
g59
NtRp230
(dp231
g62
(dp232
g70
I5
ssg71
g226
sg64
(lp233
g57
(g66
g59
NtRp234
(dp235
g62
(dp236
g70
I4
ssg71
Nsg64
(lp237
g57
(g73
g59
NtRp238
(dp239
g62
(dp240
sg71
g234
sg64
(lp241
g57
(g78
g59
NtRp242
(dp243
g62
(dp244
g82
g83
ssg71
g238
sg64
(lp245
S'session_id_911_signin'
p246
asbag57
(g78
g59
NtRp247
(dp248
g62
(dp249
g89
g90
ssg71
g238
sg64
(lp250
S':'
asbag57
(g78
g59
NtRp251
(dp252
g62
(dp253
sg71
g238
sg64
(lp254
g57
(g58
g59
NtRp255
(dp256
g62
(dp257
g70
I4
ssg71
g251
sg64
(lp258
g57
(g66
g59
NtRp259
(dp260
g62
(dp261
g70
I3
ssg71
Nsg64
(lp262
g57
(g73
g59
NtRp263
(dp264
g62
(dp265
sg71
g259
sg64
(lp266
g57
(g78
g59
NtRp267
(dp268
g62
(dp269
g82
g83
ssg71
g263
sg64
(lp270
S'comment'
p271
asbag57
(g78
g59
NtRp272
(dp273
g62
(dp274
g89
g90
ssg71
g263
sg64
(lp275
S':'
asbag57
(g78
g59
NtRp276
(dp277
g62
(dp278
sg71
g263
sg64
(lp279
g57
(g58
g59
NtRp280
(dp281
g62
(dp282
g70
I3
ssg71
g276
sg64
(lp283
S''
asbasbasbag57
(g73
g59
NtRp284
(dp285
g62
(dp286
sg71
g259
sg64
(lp287
g57
(g78
g59
NtRp288
(dp289
g62
(dp290
g82
g83
ssg71
g284
sg64
(lp291
S'domain'
p292
asbag57
(g78
g59
NtRp293
(dp294
g62
(dp295
g89
g90
ssg71
g284
sg64
(lp296
S':'
asbag57
(g78
g59
NtRp297
(dp298
g62
(dp299
sg71
g284
sg64
(lp300
g57
(g58
g59
NtRp301
(dp302
g62
(dp303
g70
I3
ssg71
g297
sg64
(lp304
S''
asbasbasbag57
(g73
g59
NtRp305
(dp306
g62
(dp307
sg71
g259
sg64
(lp308
g57
(g78
g59
NtRp309
(dp310
g62
(dp311
g82
g83
ssg71
g305
sg64
(lp312
S'expires'
p313
asbag57
(g78
g59
NtRp314
(dp315
g62
(dp316
g89
g90
ssg71
g305
sg64
(lp317
S':'
asbag57
(g78
g59
NtRp318
(dp319
g62
(dp320
sg71
g305
sg64
(lp321
g57
(g58
g59
NtRp322
(dp323
g62
(dp324
g70
I3
ssg71
g318
sg64
(lp325
S''
asbasbasbag57
(g73
g59
NtRp326
(dp327
g62
(dp328
sg71
g259
sg64
(lp329
g57
(g78
g59
NtRp330
(dp331
g62
(dp332
g82
g83
ssg71
g326
sg64
(lp333
S'httponly'
p334
asbag57
(g78
g59
NtRp335
(dp336
g62
(dp337
g89
g90
ssg71
g326
sg64
(lp338
S':'
asbag57
(g78
g59
NtRp339
(dp340
g62
(dp341
sg71
g326
sg64
(lp342
g57
(g58
g59
NtRp343
(dp344
g62
(dp345
g70
I3
ssg71
g339
sg64
(lp346
S''
asbasbasbag57
(g73
g59
NtRp347
(dp348
g62
(dp349
sg71
g259
sg64
(lp350
g57
(g78
g59
NtRp351
(dp352
g62
(dp353
g82
g83
ssg71
g347
sg64
(lp354
S'max-age'
p355
asbag57
(g78
g59
NtRp356
(dp357
g62
(dp358
g89
g90
ssg71
g347
sg64
(lp359
S':'
asbag57
(g78
g59
NtRp360
(dp361
g62
(dp362
sg71
g347
sg64
(lp363
g57
(g58
g59
NtRp364
(dp365
g62
(dp366
g70
I3
ssg71
g360
sg64
(lp367
S''
asbasbasbag57
(g73
g59
NtRp368
(dp369
g62
(dp370
sg71
g259
sg64
(lp371
g57
(g78
g59
NtRp372
(dp373
g62
(dp374
g82
g83
ssg71
g368
sg64
(lp375
S'path'
p376
asbag57
(g78
g59
NtRp377
(dp378
g62
(dp379
g89
g90
ssg71
g368
sg64
(lp380
S':'
asbag57
(g78
g59
NtRp381
(dp382
g62
(dp383
sg71
g368
sg64
(lp384
g57
(g58
g59
NtRp385
(dp386
g62
(dp387
g70
I3
ssg71
g381
sg64
(lp388
S''
asbasbasbag57
(g73
g59
NtRp389
(dp390
g62
(dp391
sg71
g259
sg64
(lp392
g57
(g78
g59
NtRp393
(dp394
g62
(dp395
g82
g83
ssg71
g389
sg64
(lp396
S'secure'
p397
asbag57
(g78
g59
NtRp398
(dp399
g62
(dp400
g89
g90
ssg71
g389
sg64
(lp401
S':'
asbag57
(g78
g59
NtRp402
(dp403
g62
(dp404
sg71
g389
sg64
(lp405
g57
(g58
g59
NtRp406
(dp407
g62
(dp408
g70
I3
ssg71
g402
sg64
(lp409
S''
asbasbasbag57
(g73
g59
NtRp410
(dp411
g62
(dp412
sg71
g259
sg64
(lp413
g57
(g78
g59
NtRp414
(dp415
g62
(dp416
g82
g83
ssg71
g410
sg64
(lp417
S'version'
p418
asbag57
(g78
g59
NtRp419
(dp420
g62
(dp421
g89
g90
ssg71
g410
sg64
(lp422
S':'
asbag57
(g78
g59
NtRp423
(dp424
g62
(dp425
sg71
g410
sg64
(lp426
g57
(g58
g59
NtRp427
(dp428
g62
(dp429
g70
I3
ssg71
g423
sg64
(lp430
S''
asbasbasbasbasbasbasbag57
(g73
g59
NtRp431
(dp432
g62
(dp433
sg71
g234
sg64
(lp434
g57
(g78
g59
NtRp435
(dp436
g62
(dp437
g82
g83
ssg71
g431
sg64
(lp438
S'session_id_admin'
p439
asbag57
(g78
g59
NtRp440
(dp441
g62
(dp442
g89
g90
ssg71
g431
sg64
(lp443
S':'
asbag57
(g78
g59
NtRp444
(dp445
g62
(dp446
sg71
g431
sg64
(lp447
g57
(g58
g59
NtRp448
(dp449
g62
(dp450
g70
I4
ssg71
g444
sg64
(lp451
g57
(g66
g59
NtRp452
(dp453
g62
(dp454
g70
I3
ssg71
Nsg64
(lp455
g57
(g73
g59
NtRp456
(dp457
g62
(dp458
sg71
g452
sg64
(lp459
g57
(g78
g59
NtRp460
(dp461
g62
(dp462
g82
g83
ssg71
g456
sg64
(lp463
g271
asbag57
(g78
g59
NtRp464
(dp465
g62
(dp466
g89
g90
ssg71
g456
sg64
(lp467
S':'
asbag57
(g78
g59
NtRp468
(dp469
g62
(dp470
sg71
g456
sg64
(lp471
g57
(g58
g59
NtRp472
(dp473
g62
(dp474
g70
I3
ssg71
g468
sg64
(lp475
S''
asbasbasbag57
(g73
g59
NtRp476
(dp477
g62
(dp478
sg71
g452
sg64
(lp479
g57
(g78
g59
NtRp480
(dp481
g62
(dp482
g82
g83
ssg71
g476
sg64
(lp483
g292
asbag57
(g78
g59
NtRp484
(dp485
g62
(dp486
g89
g90
ssg71
g476
sg64
(lp487
S':'
asbag57
(g78
g59
NtRp488
(dp489
g62
(dp490
sg71
g476
sg64
(lp491
g57
(g58
g59
NtRp492
(dp493
g62
(dp494
g70
I3
ssg71
g488
sg64
(lp495
S''
asbasbasbag57
(g73
g59
NtRp496
(dp497
g62
(dp498
sg71
g452
sg64
(lp499
g57
(g78
g59
NtRp500
(dp501
g62
(dp502
g82
g83
ssg71
g496
sg64
(lp503
g313
asbag57
(g78
g59
NtRp504
(dp505
g62
(dp506
g89
g90
ssg71
g496
sg64
(lp507
S':'
asbag57
(g78
g59
NtRp508
(dp509
g62
(dp510
sg71
g496
sg64
(lp511
g57
(g58
g59
NtRp512
(dp513
g62
(dp514
g70
I3
ssg71
g508
sg64
(lp515
S''
asbasbasbag57
(g73
g59
NtRp516
(dp517
g62
(dp518
sg71
g452
sg64
(lp519
g57
(g78
g59
NtRp520
(dp521
g62
(dp522
g82
g83
ssg71
g516
sg64
(lp523
g334
asbag57
(g78
g59
NtRp524
(dp525
g62
(dp526
g89
g90
ssg71
g516
sg64
(lp527
S':'
asbag57
(g78
g59
NtRp528
(dp529
g62
(dp530
sg71
g516
sg64
(lp531
g57
(g58
g59
NtRp532
(dp533
g62
(dp534
g70
I3
ssg71
g528
sg64
(lp535
S''
asbasbasbag57
(g73
g59
NtRp536
(dp537
g62
(dp538
sg71
g452
sg64
(lp539
g57
(g78
g59
NtRp540
(dp541
g62
(dp542
g82
g83
ssg71
g536
sg64
(lp543
g355
asbag57
(g78
g59
NtRp544
(dp545
g62
(dp546
g89
g90
ssg71
g536
sg64
(lp547
S':'
asbag57
(g78
g59
NtRp548
(dp549
g62
(dp550
sg71
g536
sg64
(lp551
g57
(g58
g59
NtRp552
(dp553
g62
(dp554
g70
I3
ssg71
g548
sg64
(lp555
S''
asbasbasbag57
(g73
g59
NtRp556
(dp557
g62
(dp558
sg71
g452
sg64
(lp559
g57
(g78
g59
NtRp560
(dp561
g62
(dp562
g82
g83
ssg71
g556
sg64
(lp563
g376
asbag57
(g78
g59
NtRp564
(dp565
g62
(dp566
g89
g90
ssg71
g556
sg64
(lp567
S':'
asbag57
(g78
g59
NtRp568
(dp569
g62
(dp570
sg71
g556
sg64
(lp571
g57
(g58
g59
NtRp572
(dp573
g62
(dp574
g70
I3
ssg71
g568
sg64
(lp575
S''
asbasbasbag57
(g73
g59
NtRp576
(dp577
g62
(dp578
sg71
g452
sg64
(lp579
g57
(g78
g59
NtRp580
(dp581
g62
(dp582
g82
g83
ssg71
g576
sg64
(lp583
g397
asbag57
(g78
g59
NtRp584
(dp585
g62
(dp586
g89
g90
ssg71
g576
sg64
(lp587
S':'
asbag57
(g78
g59
NtRp588
(dp589
g62
(dp590
sg71
g576
sg64
(lp591
g57
(g58
g59
NtRp592
(dp593
g62
(dp594
g70
I3
ssg71
g588
sg64
(lp595
S''
asbasbasbag57
(g73
g59
NtRp596
(dp597
g62
(dp598
sg71
g452
sg64
(lp599
g57
(g78
g59
NtRp600
(dp601
g62
(dp602
g82
g83
ssg71
g596
sg64
(lp603
g418
asbag57
(g78
g59
NtRp604
(dp605
g62
(dp606
g89
g90
ssg71
g596
sg64
(lp607
S':'
asbag57
(g78
g59
NtRp608
(dp609
g62
(dp610
sg71
g596
sg64
(lp611
g57
(g58
g59
NtRp612
(dp613
g62
(dp614
g70
I3
ssg71
g608
sg64
(lp615
S''
asbasbasbasbasbasbasbasbasbasbasbag57
(g73
g59
NtRp616
(dp617
g62
(dp618
sg71
g67
sg64
(lp619
g57
(g78
g59
NtRp620
(dp621
g62
(dp622
g82
g83
ssg71
g616
sg64
(lp623
S'env'
p624
asbag57
(g78
g59
NtRp625
(dp626
g62
(dp627
g89
g90
ssg71
g616
sg64
(lp628
S':'
asbag57
(g78
g59
NtRp629
(dp630
g62
(dp631
sg71
g616
sg64
(lp632
g57
(g58
g59
NtRp633
(dp634
g62
(dp635
g70
I5
ssg71
g629
sg64
(lp636
g57
(g66
g59
NtRp637
(dp638
g62
(dp639
g70
I4
ssg71
Nsg64
(lp640
g57
(g73
g59
NtRp641
(dp642
g62
(dp643
sg71
g637
sg64
(lp644
g57
(g78
g59
NtRp645
(dp646
g62
(dp647
g82
g83
ssg71
g641
sg64
(lp648
S'app_folders'
p649
asbag57
(g78
g59
NtRp650
(dp651
g62
(dp652
g89
g90
ssg71
g641
sg64
(lp653
S':'
asbag57
(g78
g59
NtRp654
(dp655
g62
(dp656
sg71
g641
sg64
(lp657
g57
(g58
g59
NtRp658
(dp659
g62
(dp660
g70
I4
ssg71
g654
sg64
(lp661
S"set(['/home/enigma/web2py/applications/admin/', '/home/enigma/web2py/applications/911_signin/', '/home/enigma/web2py/applications/welcome/'])"
p662
asbasbasbag57
(g73
g59
NtRp663
(dp664
g62
(dp665
sg71
g637
sg64
(lp666
g57
(g78
g59
NtRp667
(dp668
g62
(dp669
g82
g83
ssg71
g663
sg64
(lp670
S'applications_parent'
p671
asbag57
(g78
g59
NtRp672
(dp673
g62
(dp674
g89
g90
ssg71
g663
sg64
(lp675
S':'
asbag57
(g78
g59
NtRp676
(dp677
g62
(dp678
sg71
g663
sg64
(lp679
g57
(g58
g59
NtRp680
(dp681
g62
(dp682
g70
I4
ssg71
g676
sg64
(lp683
S'/home/enigma/web2py'
p684
asbasbasbag57
(g73
g59
NtRp685
(dp686
g62
(dp687
sg71
g637
sg64
(lp688
g57
(g78
g59
NtRp689
(dp690
g62
(dp691
g82
g83
ssg71
g685
sg64
(lp692
S'cmd_args'
p693
asbag57
(g78
g59
NtRp694
(dp695
g62
(dp696
g89
g90
ssg71
g685
sg64
(lp697
S':'
asbag57
(g78
g59
NtRp698
(dp699
g62
(dp700
sg71
g685
sg64
(lp701
g57
(g58
g59
NtRp702
(dp703
g62
(dp704
g70
I4
ssg71
g698
sg64
(lp705
g57
(g66
g59
NtRp706
(dp707
g62
(dp708
g70
I3
ssg71
Nsg64
(lp709
sbasbasbasbag57
(g73
g59
NtRp710
(dp711
g62
(dp712
sg71
g637
sg64
(lp713
g57
(g78
g59
NtRp714
(dp715
g62
(dp716
g82
g83
ssg71
g710
sg64
(lp717
S'cmd_options'
p718
asbag57
(g78
g59
NtRp719
(dp720
g62
(dp721
g89
g90
ssg71
g710
sg64
(lp722
S':'
asbag57
(g78
g59
NtRp723
(dp724
g62
(dp725
sg71
g710
sg64
(lp726
g57
(g58
g59
NtRp727
(dp728
g62
(dp729
g70
I4
ssg71
g723
sg64
(lp730
S"<Values at 0x9e53bcc: {'verbose': False, 'ip': '127.0.0.1', 'shutdown_timeout': 5, 'taskbar': False, 'nocron': False, 'pid_filename': 'httpserver.pid', 'maxthreads': None, 'softcron': False, 'server_name': 'ubuntu', 'bpython': False, 'nogui': False, 'port': 8000, 'extcron': False, 'debuglevel': 30, 'test': None, 'folder': '/home/enigma/web2py', 'config': '', 'import_models': False, 'winservice': '', 'shell': None, 'run': '', 'log_filename': 'httpserver.log', 'args': [''], 'socket_timeout': 5, 'ssl_ca_certificate': None, 'scheduler': None, 'profiler_filename': None, 'ssl_private_key': '', 'password': '<ask>', 'request_queue_size': 5, 'ssl_certificate': '', 'cronjob': False, 'numthreads': None, 'quiet': False, 'interfaces': None, 'minthreads': None, 'timeout': 10, 'plain': False, 'nobanner': False}>"
p731
asbasbasbag57
(g73
g59
NtRp732
(dp733
g62
(dp734
sg71
g637
sg64
(lp735
g57
(g78
g59
NtRp736
(dp737
g62
(dp738
g82
g83
ssg71
g732
sg64
(lp739
S'content_length'
p740
asbag57
(g78
g59
NtRp741
(dp742
g62
(dp743
g89
g90
ssg71
g732
sg64
(lp744
S':'
asbag57
(g78
g59
NtRp745
(dp746
g62
(dp747
sg71
g732
sg64
(lp748
g57
(g58
g59
NtRp749
(dp750
g62
(dp751
g70
I4
ssg71
g745
sg64
(lp752
S'583'
p753
asbasbasbag57
(g73
g59
NtRp754
(dp755
g62
(dp756
sg71
g637
sg64
(lp757
g57
(g78
g59
NtRp758
(dp759
g62
(dp760
g82
g83
ssg71
g754
sg64
(lp761
S'content_type'
p762
asbag57
(g78
g59
NtRp763
(dp764
g62
(dp765
g89
g90
ssg71
g754
sg64
(lp766
S':'
asbag57
(g78
g59
NtRp767
(dp768
g62
(dp769
sg71
g754
sg64
(lp770
g57
(g58
g59
NtRp771
(dp772
g62
(dp773
g70
I4
ssg71
g767
sg64
(lp774
S'multipart/form-data; boundary=----WebKitFormBoundarypA3rAKpXoOzVOEA7'
p775
asbasbasbag57
(g73
g59
NtRp776
(dp777
g62
(dp778
sg71
g637
sg64
(lp779
g57
(g78
g59
NtRp780
(dp781
g62
(dp782
g82
g83
ssg71
g776
sg64
(lp783
S'db_sessions'
p784
asbag57
(g78
g59
NtRp785
(dp786
g62
(dp787
g89
g90
ssg71
g776
sg64
(lp788
S':'
asbag57
(g78
g59
NtRp789
(dp790
g62
(dp791
sg71
g776
sg64
(lp792
g57
(g58
g59
NtRp793
(dp794
g62
(dp795
g70
I4
ssg71
g789
sg64
(lp796
S'set([])'
p797
asbasbasbag57
(g73
g59
NtRp798
(dp799
g62
(dp800
sg71
g637
sg64
(lp801
g57
(g78
g59
NtRp802
(dp803
g62
(dp804
g82
g83
ssg71
g798
sg64
(lp805
S'debugging'
p806
asbag57
(g78
g59
NtRp807
(dp808
g62
(dp809
g89
g90
ssg71
g798
sg64
(lp810
S':'
asbag57
(g78
g59
NtRp811
(dp812
g62
(dp813
sg71
g798
sg64
(lp814
g57
(g58
g59
NtRp815
(dp816
g62
(dp817
g70
I4
ssg71
g811
sg64
(lp818
g100
asbasbasbag57
(g73
g59
NtRp819
(dp820
g62
(dp821
sg71
g637
sg64
(lp822
g57
(g78
g59
NtRp823
(dp824
g62
(dp825
g82
g83
ssg71
g819
sg64
(lp826
S'gluon_parent'
p827
asbag57
(g78
g59
NtRp828
(dp829
g62
(dp830
g89
g90
ssg71
g819
sg64
(lp831
S':'
asbag57
(g78
g59
NtRp832
(dp833
g62
(dp834
sg71
g819
sg64
(lp835
g57
(g58
g59
NtRp836
(dp837
g62
(dp838
g70
I4
ssg71
g832
sg64
(lp839
S'/home/enigma/web2py'
p840
asbasbasbag57
(g73
g59
NtRp841
(dp842
g62
(dp843
sg71
g637
sg64
(lp844
g57
(g78
g59
NtRp845
(dp846
g62
(dp847
g82
g83
ssg71
g841
sg64
(lp848
S'http_accept'
p849
asbag57
(g78
g59
NtRp850
(dp851
g62
(dp852
g89
g90
ssg71
g841
sg64
(lp853
S':'
asbag57
(g78
g59
NtRp854
(dp855
g62
(dp856
sg71
g841
sg64
(lp857
g57
(g58
g59
NtRp858
(dp859
g62
(dp860
g70
I4
ssg71
g854
sg64
(lp861
S'text/html,application/xhtml+xml,application/xml;q=0.9,*/*;q=0.8'
p862
asbasbasbag57
(g73
g59
NtRp863
(dp864
g62
(dp865
sg71
g637
sg64
(lp866
g57
(g78
g59
NtRp867
(dp868
g62
(dp869
g82
g83
ssg71
g863
sg64
(lp870
S'http_accept_charset'
p871
asbag57
(g78
g59
NtRp872
(dp873
g62
(dp874
g89
g90
ssg71
g863
sg64
(lp875
S':'
asbag57
(g78
g59
NtRp876
(dp877
g62
(dp878
sg71
g863
sg64
(lp879
g57
(g58
g59
NtRp880
(dp881
g62
(dp882
g70
I4
ssg71
g876
sg64
(lp883
S'ISO-8859-1,utf-8;q=0.7,*;q=0.3'
p884
asbasbasbag57
(g73
g59
NtRp885
(dp886
g62
(dp887
sg71
g637
sg64
(lp888
g57
(g78
g59
NtRp889
(dp890
g62
(dp891
g82
g83
ssg71
g885
sg64
(lp892
S'http_accept_encoding'
p893
asbag57
(g78
g59
NtRp894
(dp895
g62
(dp896
g89
g90
ssg71
g885
sg64
(lp897
S':'
asbag57
(g78
g59
NtRp898
(dp899
g62
(dp900
sg71
g885
sg64
(lp901
g57
(g58
g59
NtRp902
(dp903
g62
(dp904
g70
I4
ssg71
g898
sg64
(lp905
S'gzip,deflate,sdch'
p906
asbasbasbag57
(g73
g59
NtRp907
(dp908
g62
(dp909
sg71
g637
sg64
(lp910
g57
(g78
g59
NtRp911
(dp912
g62
(dp913
g82
g83
ssg71
g907
sg64
(lp914
S'http_accept_language'
p915
asbag57
(g78
g59
NtRp916
(dp917
g62
(dp918
g89
g90
ssg71
g907
sg64
(lp919
S':'
asbag57
(g78
g59
NtRp920
(dp921
g62
(dp922
sg71
g907
sg64
(lp923
g57
(g58
g59
NtRp924
(dp925
g62
(dp926
g70
I4
ssg71
g920
sg64
(lp927
S'en-US,en;q=0.8'
p928
asbasbasbag57
(g73
g59
NtRp929
(dp930
g62
(dp931
sg71
g637
sg64
(lp932
g57
(g78
g59
NtRp933
(dp934
g62
(dp935
g82
g83
ssg71
g929
sg64
(lp936
S'http_cache_control'
p937
asbag57
(g78
g59
NtRp938
(dp939
g62
(dp940
g89
g90
ssg71
g929
sg64
(lp941
S':'
asbag57
(g78
g59
NtRp942
(dp943
g62
(dp944
sg71
g929
sg64
(lp945
g57
(g58
g59
NtRp946
(dp947
g62
(dp948
g70
I4
ssg71
g942
sg64
(lp949
S'max-age=0'
p950
asbasbasbag57
(g73
g59
NtRp951
(dp952
g62
(dp953
sg71
g637
sg64
(lp954
g57
(g78
g59
NtRp955
(dp956
g62
(dp957
g82
g83
ssg71
g951
sg64
(lp958
S'http_connection'
p959
asbag57
(g78
g59
NtRp960
(dp961
g62
(dp962
g89
g90
ssg71
g951
sg64
(lp963
S':'
asbag57
(g78
g59
NtRp964
(dp965
g62
(dp966
sg71
g951
sg64
(lp967
g57
(g58
g59
NtRp968
(dp969
g62
(dp970
g70
I4
ssg71
g964
sg64
(lp971
S'keep-alive'
p972
asbasbasbag57
(g73
g59
NtRp973
(dp974
g62
(dp975
sg71
g637
sg64
(lp976
g57
(g78
g59
NtRp977
(dp978
g62
(dp979
g82
g83
ssg71
g973
sg64
(lp980
S'http_content_length'
p981
asbag57
(g78
g59
NtRp982
(dp983
g62
(dp984
g89
g90
ssg71
g973
sg64
(lp985
S':'
asbag57
(g78
g59
NtRp986
(dp987
g62
(dp988
sg71
g973
sg64
(lp989
g57
(g58
g59
NtRp990
(dp991
g62
(dp992
g70
I4
ssg71
g986
sg64
(lp993
g753
asbasbasbag57
(g73
g59
NtRp994
(dp995
g62
(dp996
sg71
g637
sg64
(lp997
g57
(g78
g59
NtRp998
(dp999
g62
(dp1000
g82
g83
ssg71
g994
sg64
(lp1001
S'http_content_type'
p1002
asbag57
(g78
g59
NtRp1003
(dp1004
g62
(dp1005
g89
g90
ssg71
g994
sg64
(lp1006
S':'
asbag57
(g78
g59
NtRp1007
(dp1008
g62
(dp1009
sg71
g994
sg64
(lp1010
g57
(g58
g59
NtRp1011
(dp1012
g62
(dp1013
g70
I4
ssg71
g1007
sg64
(lp1014
g775
asbasbasbag57
(g73
g59
NtRp1015
(dp1016
g62
(dp1017
sg71
g637
sg64
(lp1018
g57
(g78
g59
NtRp1019
(dp1020
g62
(dp1021
g82
g83
ssg71
g1015
sg64
(lp1022
S'http_cookie'
p1023
asbag57
(g78
g59
NtRp1024
(dp1025
g62
(dp1026
g89
g90
ssg71
g1015
sg64
(lp1027
S':'
asbag57
(g78
g59
NtRp1028
(dp1029
g62
(dp1030
sg71
g1015
sg64
(lp1031
g57
(g58
g59
NtRp1032
(dp1033
g62
(dp1034
g70
I4
ssg71
g1028
sg64
(lp1035
S'session_id_911_signin=127.0.0.1-b88a988d-b3c7-4a7a-a25c-3c7013a0aea9; session_id_admin=127.0.0.1-7538e8c4-af7f-4495-897b-1bb9c22bceb7'
p1036
asbasbasbag57
(g73
g59
NtRp1037
(dp1038
g62
(dp1039
sg71
g637
sg64
(lp1040
g57
(g78
g59
NtRp1041
(dp1042
g62
(dp1043
g82
g83
ssg71
g1037
sg64
(lp1044
S'http_host'
p1045
asbag57
(g78
g59
NtRp1046
(dp1047
g62
(dp1048
g89
g90
ssg71
g1037
sg64
(lp1049
S':'
asbag57
(g78
g59
NtRp1050
(dp1051
g62
(dp1052
sg71
g1037
sg64
(lp1053
g57
(g58
g59
NtRp1054
(dp1055
g62
(dp1056
g70
I4
ssg71
g1050
sg64
(lp1057
S'127.0.0.1:8000'
p1058
asbasbasbag57
(g73
g59
NtRp1059
(dp1060
g62
(dp1061
sg71
g637
sg64
(lp1062
g57
(g78
g59
NtRp1063
(dp1064
g62
(dp1065
g82
g83
ssg71
g1059
sg64
(lp1066
S'http_origin'
p1067
asbag57
(g78
g59
NtRp1068
(dp1069
g62
(dp1070
g89
g90
ssg71
g1059
sg64
(lp1071
S':'
asbag57
(g78
g59
NtRp1072
(dp1073
g62
(dp1074
sg71
g1059
sg64
(lp1075
g57
(g58
g59
NtRp1076
(dp1077
g62
(dp1078
g70
I4
ssg71
g1072
sg64
(lp1079
S'http://127.0.0.1:8000'
p1080
asbasbasbag57
(g73
g59
NtRp1081
(dp1082
g62
(dp1083
sg71
g637
sg64
(lp1084
g57
(g78
g59
NtRp1085
(dp1086
g62
(dp1087
g82
g83
ssg71
g1081
sg64
(lp1088
S'http_referer'
p1089
asbag57
(g78
g59
NtRp1090
(dp1091
g62
(dp1092
g89
g90
ssg71
g1081
sg64
(lp1093
S':'
asbag57
(g78
g59
NtRp1094
(dp1095
g62
(dp1096
sg71
g1081
sg64
(lp1097
g57
(g58
g59
NtRp1098
(dp1099
g62
(dp1100
g70
I4
ssg71
g1094
sg64
(lp1101
S'http://127.0.0.1:8000/911_signin/default/compose'
p1102
asbasbasbag57
(g73
g59
NtRp1103
(dp1104
g62
(dp1105
sg71
g637
sg64
(lp1106
g57
(g78
g59
NtRp1107
(dp1108
g62
(dp1109
g82
g83
ssg71
g1103
sg64
(lp1110
S'http_user_agent'
p1111
asbag57
(g78
g59
NtRp1112
(dp1113
g62
(dp1114
g89
g90
ssg71
g1103
sg64
(lp1115
S':'
asbag57
(g78
g59
NtRp1116
(dp1117
g62
(dp1118
sg71
g1103
sg64
(lp1119
g57
(g58
g59
NtRp1120
(dp1121
g62
(dp1122
g70
I4
ssg71
g1116
sg64
(lp1123
S'Mozilla/5.0 (X11; Linux i686) AppleWebKit/537.31 (KHTML, like Gecko) Chrome/26.0.1410.63 Safari/537.31'
p1124
asbasbasbag57
(g73
g59
NtRp1125
(dp1126
g62
(dp1127
sg71
g637
sg64
(lp1128
g57
(g78
g59
NtRp1129
(dp1130
g62
(dp1131
g82
g83
ssg71
g1125
sg64
(lp1132
S'is_jython'
p1133
asbag57
(g78
g59
NtRp1134
(dp1135
g62
(dp1136
g89
g90
ssg71
g1125
sg64
(lp1137
S':'
asbag57
(g78
g59
NtRp1138
(dp1139
g62
(dp1140
sg71
g1125
sg64
(lp1141
g57
(g58
g59
NtRp1142
(dp1143
g62
(dp1144
g70
I4
ssg71
g1138
sg64
(lp1145
g100
asbasbasbag57
(g73
g59
NtRp1146
(dp1147
g62
(dp1148
sg71
g637
sg64
(lp1149
g57
(g78
g59
NtRp1150
(dp1151
g62
(dp1152
g82
g83
ssg71
g1146
sg64
(lp1153
S'is_pypy'
p1154
asbag57
(g78
g59
NtRp1155
(dp1156
g62
(dp1157
g89
g90
ssg71
g1146
sg64
(lp1158
S':'
asbag57
(g78
g59
NtRp1159
(dp1160
g62
(dp1161
sg71
g1146
sg64
(lp1162
g57
(g58
g59
NtRp1163
(dp1164
g62
(dp1165
g70
I4
ssg71
g1159
sg64
(lp1166
g100
asbasbasbag57
(g73
g59
NtRp1167
(dp1168
g62
(dp1169
sg71
g637
sg64
(lp1170
g57
(g78
g59
NtRp1171
(dp1172
g62
(dp1173
g82
g83
ssg71
g1167
sg64
(lp1174
S'path_info'
p1175
asbag57
(g78
g59
NtRp1176
(dp1177
g62
(dp1178
g89
g90
ssg71
g1167
sg64
(lp1179
S':'
asbag57
(g78
g59
NtRp1180
(dp1181
g62
(dp1182
sg71
g1167
sg64
(lp1183
g57
(g58
g59
NtRp1184
(dp1185
g62
(dp1186
g70
I4
ssg71
g1180
sg64
(lp1187
S'/911_signin/default/compose'
p1188
asbasbasbag57
(g73
g59
NtRp1189
(dp1190
g62
(dp1191
sg71
g637
sg64
(lp1192
g57
(g78
g59
NtRp1193
(dp1194
g62
(dp1195
g82
g83
ssg71
g1189
sg64
(lp1196
S'query_string'
p1197
asbag57
(g78
g59
NtRp1198
(dp1199
g62
(dp1200
g89
g90
ssg71
g1189
sg64
(lp1201
S':'
asbag57
(g78
g59
NtRp1202
(dp1203
g62
(dp1204
sg71
g1189
sg64
(lp1205
g57
(g58
g59
NtRp1206
(dp1207
g62
(dp1208
g70
I4
ssg71
g1202
sg64
(lp1209
S''
asbasbasbag57
(g73
g59
NtRp1210
(dp1211
g62
(dp1212
sg71
g637
sg64
(lp1213
g57
(g78
g59
NtRp1214
(dp1215
g62
(dp1216
g82
g83
ssg71
g1210
sg64
(lp1217
S'remote_addr'
p1218
asbag57
(g78
g59
NtRp1219
(dp1220
g62
(dp1221
g89
g90
ssg71
g1210
sg64
(lp1222
S':'
asbag57
(g78
g59
NtRp1223
(dp1224
g62
(dp1225
sg71
g1210
sg64
(lp1226
g57
(g58
g59
NtRp1227
(dp1228
g62
(dp1229
g70
I4
ssg71
g1223
sg64
(lp1230
g190
asbasbasbag57
(g73
g59
NtRp1231
(dp1232
g62
(dp1233
sg71
g637
sg64
(lp1234
g57
(g78
g59
NtRp1235
(dp1236
g62
(dp1237
g82
g83
ssg71
g1231
sg64
(lp1238
S'remote_port'
p1239
asbag57
(g78
g59
NtRp1240
(dp1241
g62
(dp1242
g89
g90
ssg71
g1231
sg64
(lp1243
S':'
asbag57
(g78
g59
NtRp1244
(dp1245
g62
(dp1246
sg71
g1231
sg64
(lp1247
g57
(g58
g59
NtRp1248
(dp1249
g62
(dp1250
g70
I4
ssg71
g1244
sg64
(lp1251
S'39917'
p1252
asbasbasbag57
(g73
g59
NtRp1253
(dp1254
g62
(dp1255
sg71
g637
sg64
(lp1256
g57
(g78
g59
NtRp1257
(dp1258
g62
(dp1259
g82
g83
ssg71
g1253
sg64
(lp1260
S'request_method'
p1261
asbag57
(g78
g59
NtRp1262
(dp1263
g62
(dp1264
g89
g90
ssg71
g1253
sg64
(lp1265
S':'
asbag57
(g78
g59
NtRp1266
(dp1267
g62
(dp1268
sg71
g1253
sg64
(lp1269
g57
(g58
g59
NtRp1270
(dp1271
g62
(dp1272
g70
I4
ssg71
g1266
sg64
(lp1273
S'POST'
p1274
asbasbasbag57
(g73
g59
NtRp1275
(dp1276
g62
(dp1277
sg71
g637
sg64
(lp1278
g57
(g78
g59
NtRp1279
(dp1280
g62
(dp1281
g82
g83
ssg71
g1275
sg64
(lp1282
S'script_name'
p1283
asbag57
(g78
g59
NtRp1284
(dp1285
g62
(dp1286
g89
g90
ssg71
g1275
sg64
(lp1287
S':'
asbag57
(g78
g59
NtRp1288
(dp1289
g62
(dp1290
sg71
g1275
sg64
(lp1291
g57
(g58
g59
NtRp1292
(dp1293
g62
(dp1294
g70
I4
ssg71
g1288
sg64
(lp1295
S''
asbasbasbag57
(g73
g59
NtRp1296
(dp1297
g62
(dp1298
sg71
g637
sg64
(lp1299
g57
(g78
g59
NtRp1300
(dp1301
g62
(dp1302
g82
g83
ssg71
g1296
sg64
(lp1303
S'server_name'
p1304
asbag57
(g78
g59
NtRp1305
(dp1306
g62
(dp1307
g89
g90
ssg71
g1296
sg64
(lp1308
S':'
asbag57
(g78
g59
NtRp1309
(dp1310
g62
(dp1311
sg71
g1296
sg64
(lp1312
g57
(g58
g59
NtRp1313
(dp1314
g62
(dp1315
g70
I4
ssg71
g1309
sg64
(lp1316
S'ubuntu'
p1317
asbasbasbag57
(g73
g59
NtRp1318
(dp1319
g62
(dp1320
sg71
g637
sg64
(lp1321
g57
(g78
g59
NtRp1322
(dp1323
g62
(dp1324
g82
g83
ssg71
g1318
sg64
(lp1325
S'server_port'
p1326
asbag57
(g78
g59
NtRp1327
(dp1328
g62
(dp1329
g89
g90
ssg71
g1318
sg64
(lp1330
S':'
asbag57
(g78
g59
NtRp1331
(dp1332
g62
(dp1333
sg71
g1318
sg64
(lp1334
g57
(g58
g59
NtRp1335
(dp1336
g62
(dp1337
g70
I4
ssg71
g1331
sg64
(lp1338
S'8000'
p1339
asbasbasbag57
(g73
g59
NtRp1340
(dp1341
g62
(dp1342
sg71
g637
sg64
(lp1343
g57
(g78
g59
NtRp1344
(dp1345
g62
(dp1346
g82
g83
ssg71
g1340
sg64
(lp1347
S'server_protocol'
p1348
asbag57
(g78
g59
NtRp1349
(dp1350
g62
(dp1351
g89
g90
ssg71
g1340
sg64
(lp1352
S':'
asbag57
(g78
g59
NtRp1353
(dp1354
g62
(dp1355
sg71
g1340
sg64
(lp1356
g57
(g58
g59
NtRp1357
(dp1358
g62
(dp1359
g70
I4
ssg71
g1353
sg64
(lp1360
S'HTTP/1.1'
p1361
asbasbasbag57
(g73
g59
NtRp1362
(dp1363
g62
(dp1364
sg71
g637
sg64
(lp1365
g57
(g78
g59
NtRp1366
(dp1367
g62
(dp1368
g82
g83
ssg71
g1362
sg64
(lp1369
S'server_software'
p1370
asbag57
(g78
g59
NtRp1371
(dp1372
g62
(dp1373
g89
g90
ssg71
g1362
sg64
(lp1374
S':'
asbag57
(g78
g59
NtRp1375
(dp1376
g62
(dp1377
sg71
g1362
sg64
(lp1378
g57
(g58
g59
NtRp1379
(dp1380
g62
(dp1381
g70
I4
ssg71
g1375
sg64
(lp1382
S'Rocket 1.2.4'
p1383
asbasbasbag57
(g73
g59
NtRp1384
(dp1385
g62
(dp1386
sg71
g637
sg64
(lp1387
g57
(g78
g59
NtRp1388
(dp1389
g62
(dp1390
g82
g83
ssg71
g1384
sg64
(lp1391
S'web2py_crontype'
p1392
asbag57
(g78
g59
NtRp1393
(dp1394
g62
(dp1395
g89
g90
ssg71
g1384
sg64
(lp1396
S':'
asbag57
(g78
g59
NtRp1397
(dp1398
g62
(dp1399
sg71
g1384
sg64
(lp1400
g57
(g58
g59
NtRp1401
(dp1402
g62
(dp1403
g70
I4
ssg71
g1397
sg64
(lp1404
S'hard'
p1405
asbasbasbag57
(g73
g59
NtRp1406
(dp1407
g62
(dp1408
sg71
g637
sg64
(lp1409
g57
(g78
g59
NtRp1410
(dp1411
g62
(dp1412
g82
g83
ssg71
g1406
sg64
(lp1413
S'web2py_path'
p1414
asbag57
(g78
g59
NtRp1415
(dp1416
g62
(dp1417
g89
g90
ssg71
g1406
sg64
(lp1418
S':'
asbag57
(g78
g59
NtRp1419
(dp1420
g62
(dp1421
sg71
g1406
sg64
(lp1422
g57
(g58
g59
NtRp1423
(dp1424
g62
(dp1425
g70
I4
ssg71
g1419
sg64
(lp1426
g684
asbasbasbag57
(g73
g59
NtRp1427
(dp1428
g62
(dp1429
sg71
g637
sg64
(lp1430
g57
(g78
g59
NtRp1431
(dp1432
g62
(dp1433
g82
g83
ssg71
g1427
sg64
(lp1434
S'web2py_version'
p1435
asbag57
(g78
g59
NtRp1436
(dp1437
g62
(dp1438
g89
g90
ssg71
g1427
sg64
(lp1439
S':'
asbag57
(g78
g59
NtRp1440
(dp1441
g62
(dp1442
sg71
g1427
sg64
(lp1443
g57
(g58
g59
NtRp1444
(dp1445
g62
(dp1446
g70
I4
ssg71
g1440
sg64
(lp1447
g57
(g66
g59
NtRp1448
(dp1449
g62
(dp1450
g70
I3
ssg71
Nsg64
(lp1451
g57
(g73
g59
NtRp1452
(dp1453
g62
(dp1454
sg71
g1448
sg64
(lp1455
g57
(g78
g59
NtRp1456
(dp1457
g62
(dp1458
sg71
g1452
sg64
(lp1459
g57
(g58
g59
NtRp1460
(dp1461
g62
(dp1462
g70
I3
ssg71
g1456
sg64
(lp1463
S'1'
asbasbasbag57
(g73
g59
NtRp1464
(dp1465
g62
(dp1466
sg71
g1448
sg64
(lp1467
g57
(g78
g59
NtRp1468
(dp1469
g62
(dp1470
sg71
g1464
sg64
(lp1471
g57
(g58
g59
NtRp1472
(dp1473
g62
(dp1474
g70
I3
ssg71
g1468
sg64
(lp1475
S'99'
p1476
asbasbasbag57
(g73
g59
NtRp1477
(dp1478
g62
(dp1479
sg71
g1448
sg64
(lp1480
g57
(g78
g59
NtRp1481
(dp1482
g62
(dp1483
sg71
g1477
sg64
(lp1484
g57
(g58
g59
NtRp1485
(dp1486
g62
(dp1487
g70
I3
ssg71
g1481
sg64
(lp1488
S'7'
asbasbasbag57
(g73
g59
NtRp1489
(dp1490
g62
(dp1491
sg71
g1448
sg64
(lp1492
g57
(g78
g59
NtRp1493
(dp1494
g62
(dp1495
sg71
g1489
sg64
(lp1496
g57
(g58
g59
NtRp1497
(dp1498
g62
(dp1499
g70
I3
ssg71
g1493
sg64
(lp1500
S'datetime.datetime(2012, 3, 4, 22, 12, 8)'
p1501
asbasbasbag57
(g73
g59
NtRp1502
(dp1503
g62
(dp1504
sg71
g1448
sg64
(lp1505
g57
(g78
g59
NtRp1506
(dp1507
g62
(dp1508
sg71
g1502
sg64
(lp1509
g57
(g58
g59
NtRp1510
(dp1511
g62
(dp1512
g70
I3
ssg71
g1506
sg64
(lp1513
S'stable'
p1514
asbasbasbasbasbasbasbag57
(g73
g59
NtRp1515
(dp1516
g62
(dp1517
sg71
g637
sg64
(lp1518
g57
(g78
g59
NtRp1519
(dp1520
g62
(dp1521
g82
g83
ssg71
g1515
sg64
(lp1522
S'wsgi_errors'
p1523
asbag57
(g78
g59
NtRp1524
(dp1525
g62
(dp1526
g89
g90
ssg71
g1515
sg64
(lp1527
S':'
asbag57
(g78
g59
NtRp1528
(dp1529
g62
(dp1530
sg71
g1515
sg64
(lp1531
g57
(g58
g59
NtRp1532
(dp1533
g62
(dp1534
g70
I4
ssg71
g1528
sg64
(lp1535
S"<open file '<stderr>', mode 'w' at 0xb72d60d0>"
p1536
asbasbasbag57
(g73
g59
NtRp1537
(dp1538
g62
(dp1539
sg71
g637
sg64
(lp1540
g57
(g78
g59
NtRp1541
(dp1542
g62
(dp1543
g82
g83
ssg71
g1537
sg64
(lp1544
S'wsgi_file_wrapper'
p1545
asbag57
(g78
g59
NtRp1546
(dp1547
g62
(dp1548
g89
g90
ssg71
g1537
sg64
(lp1549
S':'
asbag57
(g78
g59
NtRp1550
(dp1551
g62
(dp1552
sg71
g1537
sg64
(lp1553
g57
(g58
g59
NtRp1554
(dp1555
g62
(dp1556
g70
I4
ssg71
g1550
sg64
(lp1557
S'<class wsgiref.util.FileWrapper at 0x9d94e9c>'
p1558
asbasbasbag57
(g73
g59
NtRp1559
(dp1560
g62
(dp1561
sg71
g637
sg64
(lp1562
g57
(g78
g59
NtRp1563
(dp1564
g62
(dp1565
g82
g83
ssg71
g1559
sg64
(lp1566
S'wsgi_input'
p1567
asbag57
(g78
g59
NtRp1568
(dp1569
g62
(dp1570
g89
g90
ssg71
g1559
sg64
(lp1571
S':'
asbag57
(g78
g59
NtRp1572
(dp1573
g62
(dp1574
sg71
g1559
sg64
(lp1575
g57
(g58
g59
NtRp1576
(dp1577
g62
(dp1578
g70
I4
ssg71
g1572
sg64
(lp1579
S'<socket._fileobject object at 0xa4096ac>'
p1580
asbasbasbag57
(g73
g59
NtRp1581
(dp1582
g62
(dp1583
sg71
g637
sg64
(lp1584
g57
(g78
g59
NtRp1585
(dp1586
g62
(dp1587
g82
g83
ssg71
g1581
sg64
(lp1588
S'wsgi_multiprocess'
p1589
asbag57
(g78
g59
NtRp1590
(dp1591
g62
(dp1592
g89
g90
ssg71
g1581
sg64
(lp1593
S':'
asbag57
(g78
g59
NtRp1594
(dp1595
g62
(dp1596
sg71
g1581
sg64
(lp1597
g57
(g58
g59
NtRp1598
(dp1599
g62
(dp1600
g70
I4
ssg71
g1594
sg64
(lp1601
g100
asbasbasbag57
(g73
g59
NtRp1602
(dp1603
g62
(dp1604
sg71
g637
sg64
(lp1605
g57
(g78
g59
NtRp1606
(dp1607
g62
(dp1608
g82
g83
ssg71
g1602
sg64
(lp1609
S'wsgi_multithread'
p1610
asbag57
(g78
g59
NtRp1611
(dp1612
g62
(dp1613
g89
g90
ssg71
g1602
sg64
(lp1614
S':'
asbag57
(g78
g59
NtRp1615
(dp1616
g62
(dp1617
sg71
g1602
sg64
(lp1618
g57
(g58
g59
NtRp1619
(dp1620
g62
(dp1621
g70
I4
ssg71
g1615
sg64
(lp1622
S'True'
p1623
asbasbasbag57
(g73
g59
NtRp1624
(dp1625
g62
(dp1626
sg71
g637
sg64
(lp1627
g57
(g78
g59
NtRp1628
(dp1629
g62
(dp1630
g82
g83
ssg71
g1624
sg64
(lp1631
S'wsgi_run_once'
p1632
asbag57
(g78
g59
NtRp1633
(dp1634
g62
(dp1635
g89
g90
ssg71
g1624
sg64
(lp1636
S':'
asbag57
(g78
g59
NtRp1637
(dp1638
g62
(dp1639
sg71
g1624
sg64
(lp1640
g57
(g58
g59
NtRp1641
(dp1642
g62
(dp1643
g70
I4
ssg71
g1637
sg64
(lp1644
g100
asbasbasbag57
(g73
g59
NtRp1645
(dp1646
g62
(dp1647
sg71
g637
sg64
(lp1648
g57
(g78
g59
NtRp1649
(dp1650
g62
(dp1651
g82
g83
ssg71
g1645
sg64
(lp1652
S'wsgi_url_scheme'
p1653
asbag57
(g78
g59
NtRp1654
(dp1655
g62
(dp1656
g89
g90
ssg71
g1645
sg64
(lp1657
S':'
asbag57
(g78
g59
NtRp1658
(dp1659
g62
(dp1660
sg71
g1645
sg64
(lp1661
g57
(g58
g59
NtRp1662
(dp1663
g62
(dp1664
g70
I4
ssg71
g1658
sg64
(lp1665
S'http'
p1666
asbasbasbag57
(g73
g59
NtRp1667
(dp1668
g62
(dp1669
sg71
g637
sg64
(lp1670
g57
(g78
g59
NtRp1671
(dp1672
g62
(dp1673
g82
g83
ssg71
g1667
sg64
(lp1674
S'wsgi_version'
p1675
asbag57
(g78
g59
NtRp1676
(dp1677
g62
(dp1678
g89
g90
ssg71
g1667
sg64
(lp1679
S':'
asbag57
(g78
g59
NtRp1680
(dp1681
g62
(dp1682
sg71
g1667
sg64
(lp1683
g57
(g58
g59
NtRp1684
(dp1685
g62
(dp1686
g70
I4
ssg71
g1680
sg64
(lp1687
g57
(g66
g59
NtRp1688
(dp1689
g62
(dp1690
g70
I3
ssg71
Nsg64
(lp1691
g57
(g73
g59
NtRp1692
(dp1693
g62
(dp1694
sg71
g1688
sg64
(lp1695
g57
(g78
g59
NtRp1696
(dp1697
g62
(dp1698
sg71
g1692
sg64
(lp1699
g57
(g58
g59
NtRp1700
(dp1701
g62
(dp1702
g70
I3
ssg71
g1696
sg64
(lp1703
S'1'
asbasbasbag57
(g73
g59
NtRp1704
(dp1705
g62
(dp1706
sg71
g1688
sg64
(lp1707
g57
(g78
g59
NtRp1708
(dp1709
g62
(dp1710
sg71
g1704
sg64
(lp1711
g57
(g58
g59
NtRp1712
(dp1713
g62
(dp1714
g70
I3
ssg71
g1708
sg64
(lp1715
S'0'
asbasbasbasbasbasbasbasbasbasbasbag57
(g73
g59
NtRp1716
(dp1717
g62
(dp1718
sg71
g67
sg64
(lp1719
g57
(g78
g59
NtRp1720
(dp1721
g62
(dp1722
g82
g83
ssg71
g1716
sg64
(lp1723
S'extension'
p1724
asbag57
(g78
g59
NtRp1725
(dp1726
g62
(dp1727
g89
g90
ssg71
g1716
sg64
(lp1728
S':'
asbag57
(g78
g59
NtRp1729
(dp1730
g62
(dp1731
sg71
g1716
sg64
(lp1732
g57
(g58
g59
NtRp1733
(dp1734
g62
(dp1735
g70
I5
ssg71
g1729
sg64
(lp1736
S'html'
p1737
asbasbasbag57
(g73
g59
NtRp1738
(dp1739
g62
(dp1740
sg71
g67
sg64
(lp1741
g57
(g78
g59
NtRp1742
(dp1743
g62
(dp1744
g82
g83
ssg71
g1738
sg64
(lp1745
S'folder'
p1746
asbag57
(g78
g59
NtRp1747
(dp1748
g62
(dp1749
g89
g90
ssg71
g1738
sg64
(lp1750
S':'
asbag57
(g78
g59
NtRp1751
(dp1752
g62
(dp1753
sg71
g1738
sg64
(lp1754
g57
(g58
g59
NtRp1755
(dp1756
g62
(dp1757
g70
I5
ssg71
g1751
sg64
(lp1758
S'/home/enigma/web2py/applications/911_signin/'
p1759
asbasbasbag57
(g73
g59
NtRp1760
(dp1761
g62
(dp1762
sg71
g67
sg64
(lp1763
g57
(g78
g59
NtRp1764
(dp1765
g62
(dp1766
g82
g83
ssg71
g1760
sg64
(lp1767
S'function'
p1768
asbag57
(g78
g59
NtRp1769
(dp1770
g62
(dp1771
g89
g90
ssg71
g1760
sg64
(lp1772
S':'
asbag57
(g78
g59
NtRp1773
(dp1774
g62
(dp1775
sg71
g1760
sg64
(lp1776
g57
(g58
g59
NtRp1777
(dp1778
g62
(dp1779
g70
I5
ssg71
g1773
sg64
(lp1780
S'compose'
p1781
asbasbasbag57
(g73
g59
NtRp1782
(dp1783
g62
(dp1784
sg71
g67
sg64
(lp1785
g57
(g78
g59
NtRp1786
(dp1787
g62
(dp1788
g82
g83
ssg71
g1782
sg64
(lp1789
S'get_vars'
p1790
asbag57
(g78
g59
NtRp1791
(dp1792
g62
(dp1793
g89
g90
ssg71
g1782
sg64
(lp1794
S':'
asbag57
(g78
g59
NtRp1795
(dp1796
g62
(dp1797
sg71
g1782
sg64
(lp1798
g57
(g58
g59
NtRp1799
(dp1800
g62
(dp1801
g70
I5
ssg71
g1795
sg64
(lp1802
g57
(g66
g59
NtRp1803
(dp1804
g62
(dp1805
g70
I4
ssg71
Nsg64
(lp1806
sbasbasbasbag57
(g73
g59
NtRp1807
(dp1808
g62
(dp1809
sg71
g67
sg64
(lp1810
g57
(g78
g59
NtRp1811
(dp1812
g62
(dp1813
g82
g83
ssg71
g1807
sg64
(lp1814
S'global_settings'
p1815
asbag57
(g78
g59
NtRp1816
(dp1817
g62
(dp1818
g89
g90
ssg71
g1807
sg64
(lp1819
S':'
asbag57
(g78
g59
NtRp1820
(dp1821
g62
(dp1822
sg71
g1807
sg64
(lp1823
g57
(g58
g59
NtRp1824
(dp1825
g62
(dp1826
g70
I5
ssg71
g1820
sg64
(lp1827
g57
(g66
g59
NtRp1828
(dp1829
g62
(dp1830
g70
I4
ssg71
Nsg64
(lp1831
g57
(g73
g59
NtRp1832
(dp1833
g62
(dp1834
sg71
g1828
sg64
(lp1835
g57
(g78
g59
NtRp1836
(dp1837
g62
(dp1838
g82
g83
ssg71
g1832
sg64
(lp1839
g649
asbag57
(g78
g59
NtRp1840
(dp1841
g62
(dp1842
g89
g90
ssg71
g1832
sg64
(lp1843
S':'
asbag57
(g78
g59
NtRp1844
(dp1845
g62
(dp1846
sg71
g1832
sg64
(lp1847
g57
(g58
g59
NtRp1848
(dp1849
g62
(dp1850
g70
I4
ssg71
g1844
sg64
(lp1851
S"set(['/home/enigma/web2py/applications/admin/', '/home/enigma/web2py/applications/911_signin/', '/home/enigma/web2py/applications/welcome/'])"
p1852
asbasbasbag57
(g73
g59
NtRp1853
(dp1854
g62
(dp1855
sg71
g1828
sg64
(lp1856
g57
(g78
g59
NtRp1857
(dp1858
g62
(dp1859
g82
g83
ssg71
g1853
sg64
(lp1860
g671
asbag57
(g78
g59
NtRp1861
(dp1862
g62
(dp1863
g89
g90
ssg71
g1853
sg64
(lp1864
S':'
asbag57
(g78
g59
NtRp1865
(dp1866
g62
(dp1867
sg71
g1853
sg64
(lp1868
g57
(g58
g59
NtRp1869
(dp1870
g62
(dp1871
g70
I4
ssg71
g1865
sg64
(lp1872
g684
asbasbasbag57
(g73
g59
NtRp1873
(dp1874
g62
(dp1875
sg71
g1828
sg64
(lp1876
g57
(g78
g59
NtRp1877
(dp1878
g62
(dp1879
g82
g83
ssg71
g1873
sg64
(lp1880
g693
asbag57
(g78
g59
NtRp1881
(dp1882
g62
(dp1883
g89
g90
ssg71
g1873
sg64
(lp1884
S':'
asbag57
(g78
g59
NtRp1885
(dp1886
g62
(dp1887
sg71
g1873
sg64
(lp1888
g57
(g58
g59
NtRp1889
(dp1890
g62
(dp1891
g70
I4
ssg71
g1885
sg64
(lp1892
g57
(g66
g59
NtRp1893
(dp1894
g62
(dp1895
g70
I3
ssg71
Nsg64
(lp1896
sbasbasbasbag57
(g73
g59
NtRp1897
(dp1898
g62
(dp1899
sg71
g1828
sg64
(lp1900
g57
(g78
g59
NtRp1901
(dp1902
g62
(dp1903
g82
g83
ssg71
g1897
sg64
(lp1904
g718
asbag57
(g78
g59
NtRp1905
(dp1906
g62
(dp1907
g89
g90
ssg71
g1897
sg64
(lp1908
S':'
asbag57
(g78
g59
NtRp1909
(dp1910
g62
(dp1911
sg71
g1897
sg64
(lp1912
g57
(g58
g59
NtRp1913
(dp1914
g62
(dp1915
g70
I4
ssg71
g1909
sg64
(lp1916
S"<Values at 0x9e53bcc: {'verbose': False, 'ip': '127.0.0.1', 'shutdown_timeout': 5, 'taskbar': False, 'nocron': False, 'pid_filename': 'httpserver.pid', 'maxthreads': None, 'softcron': False, 'server_name': 'ubuntu', 'bpython': False, 'nogui': False, 'port': 8000, 'extcron': False, 'debuglevel': 30, 'test': None, 'folder': '/home/enigma/web2py', 'config': '', 'import_models': False, 'winservice': '', 'shell': None, 'run': '', 'log_filename': 'httpserver.log', 'args': [''], 'socket_timeout': 5, 'ssl_ca_certificate': None, 'scheduler': None, 'profiler_filename': None, 'ssl_private_key': '', 'password': '<ask>', 'request_queue_size': 5, 'ssl_certificate': '', 'cronjob': False, 'numthreads': None, 'quiet': False, 'interfaces': None, 'minthreads': None, 'timeout': 10, 'plain': False, 'nobanner': False}>"
p1917
asbasbasbag57
(g73
g59
NtRp1918
(dp1919
g62
(dp1920
sg71
g1828
sg64
(lp1921
g57
(g78
g59
NtRp1922
(dp1923
g62
(dp1924
g82
g83
ssg71
g1918
sg64
(lp1925
g784
asbag57
(g78
g59
NtRp1926
(dp1927
g62
(dp1928
g89
g90
ssg71
g1918
sg64
(lp1929
S':'
asbag57
(g78
g59
NtRp1930
(dp1931
g62
(dp1932
sg71
g1918
sg64
(lp1933
g57
(g58
g59
NtRp1934
(dp1935
g62
(dp1936
g70
I4
ssg71
g1930
sg64
(lp1937
S'set([])'
p1938
asbasbasbag57
(g73
g59
NtRp1939
(dp1940
g62
(dp1941
sg71
g1828
sg64
(lp1942
g57
(g78
g59
NtRp1943
(dp1944
g62
(dp1945
g82
g83
ssg71
g1939
sg64
(lp1946
g806
asbag57
(g78
g59
NtRp1947
(dp1948
g62
(dp1949
g89
g90
ssg71
g1939
sg64
(lp1950
S':'
asbag57
(g78
g59
NtRp1951
(dp1952
g62
(dp1953
sg71
g1939
sg64
(lp1954
g57
(g58
g59
NtRp1955
(dp1956
g62
(dp1957
g70
I4
ssg71
g1951
sg64
(lp1958
g100
asbasbasbag57
(g73
g59
NtRp1959
(dp1960
g62
(dp1961
sg71
g1828
sg64
(lp1962
g57
(g78
g59
NtRp1963
(dp1964
g62
(dp1965
g82
g83
ssg71
g1959
sg64
(lp1966
g827
asbag57
(g78
g59
NtRp1967
(dp1968
g62
(dp1969
g89
g90
ssg71
g1959
sg64
(lp1970
S':'
asbag57
(g78
g59
NtRp1971
(dp1972
g62
(dp1973
sg71
g1959
sg64
(lp1974
g57
(g58
g59
NtRp1975
(dp1976
g62
(dp1977
g70
I4
ssg71
g1971
sg64
(lp1978
g840
asbasbasbag57
(g73
g59
NtRp1979
(dp1980
g62
(dp1981
sg71
g1828
sg64
(lp1982
g57
(g78
g59
NtRp1983
(dp1984
g62
(dp1985
g82
g83
ssg71
g1979
sg64
(lp1986
g1133
asbag57
(g78
g59
NtRp1987
(dp1988
g62
(dp1989
g89
g90
ssg71
g1979
sg64
(lp1990
S':'
asbag57
(g78
g59
NtRp1991
(dp1992
g62
(dp1993
sg71
g1979
sg64
(lp1994
g57
(g58
g59
NtRp1995
(dp1996
g62
(dp1997
g70
I4
ssg71
g1991
sg64
(lp1998
g100
asbasbasbag57
(g73
g59
NtRp1999
(dp2000
g62
(dp2001
sg71
g1828
sg64
(lp2002
g57
(g78
g59
NtRp2003
(dp2004
g62
(dp2005
g82
g83
ssg71
g1999
sg64
(lp2006
g1154
asbag57
(g78
g59
NtRp2007
(dp2008
g62
(dp2009
g89
g90
ssg71
g1999
sg64
(lp2010
S':'
asbag57
(g78
g59
NtRp2011
(dp2012
g62
(dp2013
sg71
g1999
sg64
(lp2014
g57
(g58
g59
NtRp2015
(dp2016
g62
(dp2017
g70
I4
ssg71
g2011
sg64
(lp2018
g100
asbasbasbag57
(g73
g59
NtRp2019
(dp2020
g62
(dp2021
sg71
g1828
sg64
(lp2022
g57
(g78
g59
NtRp2023
(dp2024
g62
(dp2025
g82
g83
ssg71
g2019
sg64
(lp2026
g1392
asbag57
(g78
g59
NtRp2027
(dp2028
g62
(dp2029
g89
g90
ssg71
g2019
sg64
(lp2030
S':'
asbag57
(g78
g59
NtRp2031
(dp2032
g62
(dp2033
sg71
g2019
sg64
(lp2034
g57
(g58
g59
NtRp2035
(dp2036
g62
(dp2037
g70
I4
ssg71
g2031
sg64
(lp2038
g1405
asbasbasbag57
(g73
g59
NtRp2039
(dp2040
g62
(dp2041
sg71
g1828
sg64
(lp2042
g57
(g78
g59
NtRp2043
(dp2044
g62
(dp2045
g82
g83
ssg71
g2039
sg64
(lp2046
g1435
asbag57
(g78
g59
NtRp2047
(dp2048
g62
(dp2049
g89
g90
ssg71
g2039
sg64
(lp2050
S':'
asbag57
(g78
g59
NtRp2051
(dp2052
g62
(dp2053
sg71
g2039
sg64
(lp2054
g57
(g58
g59
NtRp2055
(dp2056
g62
(dp2057
g70
I4
ssg71
g2051
sg64
(lp2058
g57
(g66
g59
NtRp2059
(dp2060
g62
(dp2061
g70
I3
ssg71
Nsg64
(lp2062
g57
(g73
g59
NtRp2063
(dp2064
g62
(dp2065
sg71
g2059
sg64
(lp2066
g57
(g78
g59
NtRp2067
(dp2068
g62
(dp2069
sg71
g2063
sg64
(lp2070
g57
(g58
g59
NtRp2071
(dp2072
g62
(dp2073
g70
I3
ssg71
g2067
sg64
(lp2074
S'1'
asbasbasbag57
(g73
g59
NtRp2075
(dp2076
g62
(dp2077
sg71
g2059
sg64
(lp2078
g57
(g78
g59
NtRp2079
(dp2080
g62
(dp2081
sg71
g2075
sg64
(lp2082
g57
(g58
g59
NtRp2083
(dp2084
g62
(dp2085
g70
I3
ssg71
g2079
sg64
(lp2086
S'99'
p2087
asbasbasbag57
(g73
g59
NtRp2088
(dp2089
g62
(dp2090
sg71
g2059
sg64
(lp2091
g57
(g78
g59
NtRp2092
(dp2093
g62
(dp2094
sg71
g2088
sg64
(lp2095
g57
(g58
g59
NtRp2096
(dp2097
g62
(dp2098
g70
I3
ssg71
g2092
sg64
(lp2099
S'7'
asbasbasbag57
(g73
g59
NtRp2100
(dp2101
g62
(dp2102
sg71
g2059
sg64
(lp2103
g57
(g78
g59
NtRp2104
(dp2105
g62
(dp2106
sg71
g2100
sg64
(lp2107
g57
(g58
g59
NtRp2108
(dp2109
g62
(dp2110
g70
I3
ssg71
g2104
sg64
(lp2111
S'datetime.datetime(2012, 3, 4, 22, 12, 8)'
p2112
asbasbasbag57
(g73
g59
NtRp2113
(dp2114
g62
(dp2115
sg71
g2059
sg64
(lp2116
g57
(g78
g59
NtRp2117
(dp2118
g62
(dp2119
sg71
g2113
sg64
(lp2120
g57
(g58
g59
NtRp2121
(dp2122
g62
(dp2123
g70
I3
ssg71
g2117
sg64
(lp2124
g1514
asbasbasbasbasbasbasbasbasbasbasbag57
(g73
g59
NtRp2125
(dp2126
g62
(dp2127
sg71
g67
sg64
(lp2128
g57
(g78
g59
NtRp2129
(dp2130
g62
(dp2131
g82
g83
ssg71
g2125
sg64
(lp2132
S'is_https'
p2133
asbag57
(g78
g59
NtRp2134
(dp2135
g62
(dp2136
g89
g90
ssg71
g2125
sg64
(lp2137
S':'
asbag57
(g78
g59
NtRp2138
(dp2139
g62
(dp2140
sg71
g2125
sg64
(lp2141
g57
(g58
g59
NtRp2142
(dp2143
g62
(dp2144
g70
I5
ssg71
g2138
sg64
(lp2145
g100
asbasbasbag57
(g73
g59
NtRp2146
(dp2147
g62
(dp2148
sg71
g67
sg64
(lp2149
g57
(g78
g59
NtRp2150
(dp2151
g62
(dp2152
g82
g83
ssg71
g2146
sg64
(lp2153
S'is_local'
p2154
asbag57
(g78
g59
NtRp2155
(dp2156
g62
(dp2157
g89
g90
ssg71
g2146
sg64
(lp2158
S':'
asbag57
(g78
g59
NtRp2159
(dp2160
g62
(dp2161
sg71
g2146
sg64
(lp2162
g57
(g58
g59
NtRp2163
(dp2164
g62
(dp2165
g70
I5
ssg71
g2159
sg64
(lp2166
g1623
asbasbasbag57
(g73
g59
NtRp2167
(dp2168
g62
(dp2169
sg71
g67
sg64
(lp2170
g57
(g78
g59
NtRp2171
(dp2172
g62
(dp2173
g82
g83
ssg71
g2167
sg64
(lp2174
S'is_restful'
p2175
asbag57
(g78
g59
NtRp2176
(dp2177
g62
(dp2178
g89
g90
ssg71
g2167
sg64
(lp2179
S':'
asbag57
(g78
g59
NtRp2180
(dp2181
g62
(dp2182
sg71
g2167
sg64
(lp2183
g57
(g58
g59
NtRp2184
(dp2185
g62
(dp2186
g70
I5
ssg71
g2180
sg64
(lp2187
g100
asbasbasbag57
(g73
g59
NtRp2188
(dp2189
g62
(dp2190
sg71
g67
sg64
(lp2191
g57
(g78
g59
NtRp2192
(dp2193
g62
(dp2194
g82
g83
ssg71
g2188
sg64
(lp2195
S'now'
p2196
asbag57
(g78
g59
NtRp2197
(dp2198
g62
(dp2199
g89
g90
ssg71
g2188
sg64
(lp2200
S':'
asbag57
(g78
g59
NtRp2201
(dp2202
g62
(dp2203
sg71
g2188
sg64
(lp2204
g57
(g58
g59
NtRp2205
(dp2206
g62
(dp2207
g70
I5
ssg71
g2201
sg64
(lp2208
S'datetime.datetime(2013, 6, 3, 17, 21, 1, 840236)'
p2209
asbasbasbag57
(g73
g59
NtRp2210
(dp2211
g62
(dp2212
sg71
g67
sg64
(lp2213
g57
(g78
g59
NtRp2214
(dp2215
g62
(dp2216
g82
g83
ssg71
g2210
sg64
(lp2217
S'post_vars'
p2218
asbag57
(g78
g59
NtRp2219
(dp2220
g62
(dp2221
g89
g90
ssg71
g2210
sg64
(lp2222
S':'
asbag57
(g78
g59
NtRp2223
(dp2224
g62
(dp2225
sg71
g2210
sg64
(lp2226
g57
(g58
g59
NtRp2227
(dp2228
g62
(dp2229
g70
I5
ssg71
g2223
sg64
(lp2230
g57
(g66
g59
NtRp2231
(dp2232
g62
(dp2233
g70
I4
ssg71
Nsg64
(lp2234
g57
(g73
g59
NtRp2235
(dp2236
g62
(dp2237
sg71
g2231
sg64
(lp2238
g57
(g78
g59
NtRp2239
(dp2240
g62
(dp2241
g82
g83
ssg71
g2235
sg64
(lp2242
S'message'
p2243
asbag57
(g78
g59
NtRp2244
(dp2245
g62
(dp2246
g89
g90
ssg71
g2235
sg64
(lp2247
S':'
asbag57
(g78
g59
NtRp2248
(dp2249
g62
(dp2250
sg71
g2235
sg64
(lp2251
g57
(g58
g59
NtRp2252
(dp2253
g62
(dp2254
g70
I4
ssg71
g2248
sg64
(lp2255
S'newwwww'
p2256
asbasbasbag57
(g73
g59
NtRp2257
(dp2258
g62
(dp2259
sg71
g2231
sg64
(lp2260
g57
(g78
g59
NtRp2261
(dp2262
g62
(dp2263
g82
g83
ssg71
g2257
sg64
(lp2264
S'reciever'
p2265
asbag57
(g78
g59
NtRp2266
(dp2267
g62
(dp2268
g89
g90
ssg71
g2257
sg64
(lp2269
S':'
asbag57
(g78
g59
NtRp2270
(dp2271
g62
(dp2272
sg71
g2257
sg64
(lp2273
g57
(g58
g59
NtRp2274
(dp2275
g62
(dp2276
g70
I4
ssg71
g2270
sg64
(lp2277
S'root'
p2278
asbasbasbag57
(g73
g59
NtRp2279
(dp2280
g62
(dp2281
sg71
g2231
sg64
(lp2282
g57
(g78
g59
NtRp2283
(dp2284
g62
(dp2285
g82
g83
ssg71
g2279
sg64
(lp2286
S'subject'
p2287
asbag57
(g78
g59
NtRp2288
(dp2289
g62
(dp2290
g89
g90
ssg71
g2279
sg64
(lp2291
S':'
asbag57
(g78
g59
NtRp2292
(dp2293
g62
(dp2294
sg71
g2279
sg64
(lp2295
g57
(g58
g59
NtRp2296
(dp2297
g62
(dp2298
g70
I4
ssg71
g2292
sg64
(lp2299
S'new2'
p2300
asbasbasbasbasbasbasbag57
(g73
g59
NtRp2301
(dp2302
g62
(dp2303
sg71
g67
sg64
(lp2304
g57
(g78
g59
NtRp2305
(dp2306
g62
(dp2307
g82
g83
ssg71
g2301
sg64
(lp2308
S'url'
p2309
asbag57
(g78
g59
NtRp2310
(dp2311
g62
(dp2312
g89
g90
ssg71
g2301
sg64
(lp2313
S':'
asbag57
(g78
g59
NtRp2314
(dp2315
g62
(dp2316
sg71
g2301
sg64
(lp2317
g57
(g58
g59
NtRp2318
(dp2319
g62
(dp2320
g70
I5
ssg71
g2314
sg64
(lp2321
S'/911_signin/default/compose'
p2322
asbasbasbag57
(g73
g59
NtRp2323
(dp2324
g62
(dp2325
sg71
g67
sg64
(lp2326
g57
(g78
g59
NtRp2327
(dp2328
g62
(dp2329
g82
g83
ssg71
g2323
sg64
(lp2330
S'utcnow'
p2331
asbag57
(g78
g59
NtRp2332
(dp2333
g62
(dp2334
g89
g90
ssg71
g2323
sg64
(lp2335
S':'
asbag57
(g78
g59
NtRp2336
(dp2337
g62
(dp2338
sg71
g2323
sg64
(lp2339
g57
(g58
g59
NtRp2340
(dp2341
g62
(dp2342
g70
I5
ssg71
g2336
sg64
(lp2343
S'datetime.datetime(2013, 6, 3, 11, 51, 1, 840272)'
p2344
asbasbasbag57
(g73
g59
NtRp2345
(dp2346
g62
(dp2347
sg71
g67
sg64
(lp2348
g57
(g78
g59
NtRp2349
(dp2350
g62
(dp2351
g82
g83
ssg71
g2345
sg64
(lp2352
S'uuid'
p2353
asbag57
(g78
g59
NtRp2354
(dp2355
g62
(dp2356
g89
g90
ssg71
g2345
sg64
(lp2357
S':'
asbag57
(g78
g59
NtRp2358
(dp2359
g62
(dp2360
sg71
g2345
sg64
(lp2361
g57
(g58
g59
NtRp2362
(dp2363
g62
(dp2364
g70
I5
ssg71
g2358
sg64
(lp2365
S'911_signin/127.0.0.1.2013-06-03.17-21-01.9b33d5a4-b29c-4cc1-8c09-d4a9e68fd1f9'
p2366
asbasbasbag57
(g73
g59
NtRp2367
(dp2368
g62
(dp2369
sg71
g67
sg64
(lp2370
g57
(g78
g59
NtRp2371
(dp2372
g62
(dp2373
g82
g83
ssg71
g2367
sg64
(lp2374
S'vars'
p2375
asbag57
(g78
g59
NtRp2376
(dp2377
g62
(dp2378
g89
g90
ssg71
g2367
sg64
(lp2379
S':'
asbag57
(g78
g59
NtRp2380
(dp2381
g62
(dp2382
sg71
g2367
sg64
(lp2383
g57
(g58
g59
NtRp2384
(dp2385
g62
(dp2386
g70
I5
ssg71
g2380
sg64
(lp2387
g57
(g66
g59
NtRp2388
(dp2389
g62
(dp2390
g70
I4
ssg71
Nsg64
(lp2391
g57
(g73
g59
NtRp2392
(dp2393
g62
(dp2394
sg71
g2388
sg64
(lp2395
g57
(g78
g59
NtRp2396
(dp2397
g62
(dp2398
g82
g83
ssg71
g2392
sg64
(lp2399
g2243
asbag57
(g78
g59
NtRp2400
(dp2401
g62
(dp2402
g89
g90
ssg71
g2392
sg64
(lp2403
S':'
asbag57
(g78
g59
NtRp2404
(dp2405
g62
(dp2406
sg71
g2392
sg64
(lp2407
g57
(g58
g59
NtRp2408
(dp2409
g62
(dp2410
g70
I4
ssg71
g2404
sg64
(lp2411
g2256
asbasbasbag57
(g73
g59
NtRp2412
(dp2413
g62
(dp2414
sg71
g2388
sg64
(lp2415
g57
(g78
g59
NtRp2416
(dp2417
g62
(dp2418
g82
g83
ssg71
g2412
sg64
(lp2419
g2265
asbag57
(g78
g59
NtRp2420
(dp2421
g62
(dp2422
g89
g90
ssg71
g2412
sg64
(lp2423
S':'
asbag57
(g78
g59
NtRp2424
(dp2425
g62
(dp2426
sg71
g2412
sg64
(lp2427
g57
(g58
g59
NtRp2428
(dp2429
g62
(dp2430
g70
I4
ssg71
g2424
sg64
(lp2431
g2278
asbasbasbag57
(g73
g59
NtRp2432
(dp2433
g62
(dp2434
sg71
g2388
sg64
(lp2435
g57
(g78
g59
NtRp2436
(dp2437
g62
(dp2438
g82
g83
ssg71
g2432
sg64
(lp2439
g2287
asbag57
(g78
g59
NtRp2440
(dp2441
g62
(dp2442
g89
g90
ssg71
g2432
sg64
(lp2443
S':'
asbag57
(g78
g59
NtRp2444
(dp2445
g62
(dp2446
sg71
g2432
sg64
(lp2447
g57
(g58
g59
NtRp2448
(dp2449
g62
(dp2450
g70
I4
ssg71
g2444
sg64
(lp2451
g2300
asbasbasbasbasbasbasbag57
(g73
g59
NtRp2452
(dp2453
g62
(dp2454
sg71
g67
sg64
(lp2455
g57
(g78
g59
NtRp2456
(dp2457
g62
(dp2458
g82
g83
ssg71
g2452
sg64
(lp2459
S'wsgi'
p2460
asbag57
(g78
g59
NtRp2461
(dp2462
g62
(dp2463
g89
g90
ssg71
g2452
sg64
(lp2464
S':'
asbag57
(g78
g59
NtRp2465
(dp2466
g62
(dp2467
sg71
g2452
sg64
(lp2468
g57
(g58
g59
NtRp2469
(dp2470
g62
(dp2471
g70
I5
ssg71
g2465
sg64
(lp2472
g57
(g66
g59
NtRp2473
(dp2474
g62
(dp2475
g70
I4
ssg71
Nsg64
(lp2476
g57
(g73
g59
NtRp2477
(dp2478
g62
(dp2479
sg71
g2473
sg64
(lp2480
g57
(g78
g59
NtRp2481
(dp2482
g62
(dp2483
g82
g83
ssg71
g2477
sg64
(lp2484
S'environ'
p2485
asbag57
(g78
g59
NtRp2486
(dp2487
g62
(dp2488
g89
g90
ssg71
g2477
sg64
(lp2489
S':'
asbag57
(g78
g59
NtRp2490
(dp2491
g62
(dp2492
sg71
g2477
sg64
(lp2493
g57
(g58
g59
NtRp2494
(dp2495
g62
(dp2496
g70
I4
ssg71
g2490
sg64
(lp2497
g57
(g66
g59
NtRp2498
(dp2499
g62
(dp2500
g70
I3
ssg71
Nsg64
(lp2501
g57
(g73
g59
NtRp2502
(dp2503
g62
(dp2504
sg71
g2498
sg64
(lp2505
g57
(g78
g59
NtRp2506
(dp2507
g62
(dp2508
g82
g83
ssg71
g2502
sg64
(lp2509
S'CONTENT_LENGTH'
p2510
asbag57
(g78
g59
NtRp2511
(dp2512
g62
(dp2513
g89
g90
ssg71
g2502
sg64
(lp2514
S':'
asbag57
(g78
g59
NtRp2515
(dp2516
g62
(dp2517
sg71
g2502
sg64
(lp2518
g57
(g58
g59
NtRp2519
(dp2520
g62
(dp2521
g70
I3
ssg71
g2515
sg64
(lp2522
g753
asbasbasbag57
(g73
g59
NtRp2523
(dp2524
g62
(dp2525
sg71
g2498
sg64
(lp2526
g57
(g78
g59
NtRp2527
(dp2528
g62
(dp2529
g82
g83
ssg71
g2523
sg64
(lp2530
S'CONTENT_TYPE'
p2531
asbag57
(g78
g59
NtRp2532
(dp2533
g62
(dp2534
g89
g90
ssg71
g2523
sg64
(lp2535
S':'
asbag57
(g78
g59
NtRp2536
(dp2537
g62
(dp2538
sg71
g2523
sg64
(lp2539
g57
(g58
g59
NtRp2540
(dp2541
g62
(dp2542
g70
I3
ssg71
g2536
sg64
(lp2543
g775
asbasbasbag57
(g73
g59
NtRp2544
(dp2545
g62
(dp2546
sg71
g2498
sg64
(lp2547
g57
(g78
g59
NtRp2548
(dp2549
g62
(dp2550
g82
g83
ssg71
g2544
sg64
(lp2551
S'HTTP_ACCEPT'
p2552
asbag57
(g78
g59
NtRp2553
(dp2554
g62
(dp2555
g89
g90
ssg71
g2544
sg64
(lp2556
S':'
asbag57
(g78
g59
NtRp2557
(dp2558
g62
(dp2559
sg71
g2544
sg64
(lp2560
g57
(g58
g59
NtRp2561
(dp2562
g62
(dp2563
g70
I3
ssg71
g2557
sg64
(lp2564
g862
asbasbasbag57
(g73
g59
NtRp2565
(dp2566
g62
(dp2567
sg71
g2498
sg64
(lp2568
g57
(g78
g59
NtRp2569
(dp2570
g62
(dp2571
g82
g83
ssg71
g2565
sg64
(lp2572
S'HTTP_ACCEPT_CHARSET'
p2573
asbag57
(g78
g59
NtRp2574
(dp2575
g62
(dp2576
g89
g90
ssg71
g2565
sg64
(lp2577
S':'
asbag57
(g78
g59
NtRp2578
(dp2579
g62
(dp2580
sg71
g2565
sg64
(lp2581
g57
(g58
g59
NtRp2582
(dp2583
g62
(dp2584
g70
I3
ssg71
g2578
sg64
(lp2585
g884
asbasbasbag57
(g73
g59
NtRp2586
(dp2587
g62
(dp2588
sg71
g2498
sg64
(lp2589
g57
(g78
g59
NtRp2590
(dp2591
g62
(dp2592
g82
g83
ssg71
g2586
sg64
(lp2593
S'HTTP_ACCEPT_ENCODING'
p2594
asbag57
(g78
g59
NtRp2595
(dp2596
g62
(dp2597
g89
g90
ssg71
g2586
sg64
(lp2598
S':'
asbag57
(g78
g59
NtRp2599
(dp2600
g62
(dp2601
sg71
g2586
sg64
(lp2602
g57
(g58
g59
NtRp2603
(dp2604
g62
(dp2605
g70
I3
ssg71
g2599
sg64
(lp2606
g906
asbasbasbag57
(g73
g59
NtRp2607
(dp2608
g62
(dp2609
sg71
g2498
sg64
(lp2610
g57
(g78
g59
NtRp2611
(dp2612
g62
(dp2613
g82
g83
ssg71
g2607
sg64
(lp2614
S'HTTP_ACCEPT_LANGUAGE'
p2615
asbag57
(g78
g59
NtRp2616
(dp2617
g62
(dp2618
g89
g90
ssg71
g2607
sg64
(lp2619
S':'
asbag57
(g78
g59
NtRp2620
(dp2621
g62
(dp2622
sg71
g2607
sg64
(lp2623
g57
(g58
g59
NtRp2624
(dp2625
g62
(dp2626
g70
I3
ssg71
g2620
sg64
(lp2627
g928
asbasbasbag57
(g73
g59
NtRp2628
(dp2629
g62
(dp2630
sg71
g2498
sg64
(lp2631
g57
(g78
g59
NtRp2632
(dp2633
g62
(dp2634
g82
g83
ssg71
g2628
sg64
(lp2635
S'HTTP_CACHE_CONTROL'
p2636
asbag57
(g78
g59
NtRp2637
(dp2638
g62
(dp2639
g89
g90
ssg71
g2628
sg64
(lp2640
S':'
asbag57
(g78
g59
NtRp2641
(dp2642
g62
(dp2643
sg71
g2628
sg64
(lp2644
g57
(g58
g59
NtRp2645
(dp2646
g62
(dp2647
g70
I3
ssg71
g2641
sg64
(lp2648
g950
asbasbasbag57
(g73
g59
NtRp2649
(dp2650
g62
(dp2651
sg71
g2498
sg64
(lp2652
g57
(g78
g59
NtRp2653
(dp2654
g62
(dp2655
g82
g83
ssg71
g2649
sg64
(lp2656
S'HTTP_CONNECTION'
p2657
asbag57
(g78
g59
NtRp2658
(dp2659
g62
(dp2660
g89
g90
ssg71
g2649
sg64
(lp2661
S':'
asbag57
(g78
g59
NtRp2662
(dp2663
g62
(dp2664
sg71
g2649
sg64
(lp2665
g57
(g58
g59
NtRp2666
(dp2667
g62
(dp2668
g70
I3
ssg71
g2662
sg64
(lp2669
g972
asbasbasbag57
(g73
g59
NtRp2670
(dp2671
g62
(dp2672
sg71
g2498
sg64
(lp2673
g57
(g78
g59
NtRp2674
(dp2675
g62
(dp2676
g82
g83
ssg71
g2670
sg64
(lp2677
S'HTTP_CONTENT_LENGTH'
p2678
asbag57
(g78
g59
NtRp2679
(dp2680
g62
(dp2681
g89
g90
ssg71
g2670
sg64
(lp2682
S':'
asbag57
(g78
g59
NtRp2683
(dp2684
g62
(dp2685
sg71
g2670
sg64
(lp2686
g57
(g58
g59
NtRp2687
(dp2688
g62
(dp2689
g70
I3
ssg71
g2683
sg64
(lp2690
g753
asbasbasbag57
(g73
g59
NtRp2691
(dp2692
g62
(dp2693
sg71
g2498
sg64
(lp2694
g57
(g78
g59
NtRp2695
(dp2696
g62
(dp2697
g82
g83
ssg71
g2691
sg64
(lp2698
S'HTTP_CONTENT_TYPE'
p2699
asbag57
(g78
g59
NtRp2700
(dp2701
g62
(dp2702
g89
g90
ssg71
g2691
sg64
(lp2703
S':'
asbag57
(g78
g59
NtRp2704
(dp2705
g62
(dp2706
sg71
g2691
sg64
(lp2707
g57
(g58
g59
NtRp2708
(dp2709
g62
(dp2710
g70
I3
ssg71
g2704
sg64
(lp2711
g775
asbasbasbag57
(g73
g59
NtRp2712
(dp2713
g62
(dp2714
sg71
g2498
sg64
(lp2715
g57
(g78
g59
NtRp2716
(dp2717
g62
(dp2718
g82
g83
ssg71
g2712
sg64
(lp2719
S'HTTP_COOKIE'
p2720
asbag57
(g78
g59
NtRp2721
(dp2722
g62
(dp2723
g89
g90
ssg71
g2712
sg64
(lp2724
S':'
asbag57
(g78
g59
NtRp2725
(dp2726
g62
(dp2727
sg71
g2712
sg64
(lp2728
g57
(g58
g59
NtRp2729
(dp2730
g62
(dp2731
g70
I3
ssg71
g2725
sg64
(lp2732
g1036
asbasbasbag57
(g73
g59
NtRp2733
(dp2734
g62
(dp2735
sg71
g2498
sg64
(lp2736
g57
(g78
g59
NtRp2737
(dp2738
g62
(dp2739
g82
g83
ssg71
g2733
sg64
(lp2740
S'HTTP_HOST'
p2741
asbag57
(g78
g59
NtRp2742
(dp2743
g62
(dp2744
g89
g90
ssg71
g2733
sg64
(lp2745
S':'
asbag57
(g78
g59
NtRp2746
(dp2747
g62
(dp2748
sg71
g2733
sg64
(lp2749
g57
(g58
g59
NtRp2750
(dp2751
g62
(dp2752
g70
I3
ssg71
g2746
sg64
(lp2753
g1058
asbasbasbag57
(g73
g59
NtRp2754
(dp2755
g62
(dp2756
sg71
g2498
sg64
(lp2757
g57
(g78
g59
NtRp2758
(dp2759
g62
(dp2760
g82
g83
ssg71
g2754
sg64
(lp2761
S'HTTP_ORIGIN'
p2762
asbag57
(g78
g59
NtRp2763
(dp2764
g62
(dp2765
g89
g90
ssg71
g2754
sg64
(lp2766
S':'
asbag57
(g78
g59
NtRp2767
(dp2768
g62
(dp2769
sg71
g2754
sg64
(lp2770
g57
(g58
g59
NtRp2771
(dp2772
g62
(dp2773
g70
I3
ssg71
g2767
sg64
(lp2774
g1080
asbasbasbag57
(g73
g59
NtRp2775
(dp2776
g62
(dp2777
sg71
g2498
sg64
(lp2778
g57
(g78
g59
NtRp2779
(dp2780
g62
(dp2781
g82
g83
ssg71
g2775
sg64
(lp2782
S'HTTP_REFERER'
p2783
asbag57
(g78
g59
NtRp2784
(dp2785
g62
(dp2786
g89
g90
ssg71
g2775
sg64
(lp2787
S':'
asbag57
(g78
g59
NtRp2788
(dp2789
g62
(dp2790
sg71
g2775
sg64
(lp2791
g57
(g58
g59
NtRp2792
(dp2793
g62
(dp2794
g70
I3
ssg71
g2788
sg64
(lp2795
g1102
asbasbasbag57
(g73
g59
NtRp2796
(dp2797
g62
(dp2798
sg71
g2498
sg64
(lp2799
g57
(g78
g59
NtRp2800
(dp2801
g62
(dp2802
g82
g83
ssg71
g2796
sg64
(lp2803
S'HTTP_USER_AGENT'
p2804
asbag57
(g78
g59
NtRp2805
(dp2806
g62
(dp2807
g89
g90
ssg71
g2796
sg64
(lp2808
S':'
asbag57
(g78
g59
NtRp2809
(dp2810
g62
(dp2811
sg71
g2796
sg64
(lp2812
g57
(g58
g59
NtRp2813
(dp2814
g62
(dp2815
g70
I3
ssg71
g2809
sg64
(lp2816
g1124
asbasbasbag57
(g73
g59
NtRp2817
(dp2818
g62
(dp2819
sg71
g2498
sg64
(lp2820
g57
(g78
g59
NtRp2821
(dp2822
g62
(dp2823
g82
g83
ssg71
g2817
sg64
(lp2824
S'PATH_INFO'
p2825
asbag57
(g78
g59
NtRp2826
(dp2827
g62
(dp2828
g89
g90
ssg71
g2817
sg64
(lp2829
S':'
asbag57
(g78
g59
NtRp2830
(dp2831
g62
(dp2832
sg71
g2817
sg64
(lp2833
g57
(g58
g59
NtRp2834
(dp2835
g62
(dp2836
g70
I3
ssg71
g2830
sg64
(lp2837
g1188
asbasbasbag57
(g73
g59
NtRp2838
(dp2839
g62
(dp2840
sg71
g2498
sg64
(lp2841
g57
(g78
g59
NtRp2842
(dp2843
g62
(dp2844
g82
g83
ssg71
g2838
sg64
(lp2845
S'QUERY_STRING'
p2846
asbag57
(g78
g59
NtRp2847
(dp2848
g62
(dp2849
g89
g90
ssg71
g2838
sg64
(lp2850
S':'
asbag57
(g78
g59
NtRp2851
(dp2852
g62
(dp2853
sg71
g2838
sg64
(lp2854
g57
(g58
g59
NtRp2855
(dp2856
g62
(dp2857
g70
I3
ssg71
g2851
sg64
(lp2858
S''
asbasbasbag57
(g73
g59
NtRp2859
(dp2860
g62
(dp2861
sg71
g2498
sg64
(lp2862
g57
(g78
g59
NtRp2863
(dp2864
g62
(dp2865
g82
g83
ssg71
g2859
sg64
(lp2866
S'REMOTE_ADDR'
p2867
asbag57
(g78
g59
NtRp2868
(dp2869
g62
(dp2870
g89
g90
ssg71
g2859
sg64
(lp2871
S':'
asbag57
(g78
g59
NtRp2872
(dp2873
g62
(dp2874
sg71
g2859
sg64
(lp2875
g57
(g58
g59
NtRp2876
(dp2877
g62
(dp2878
g70
I3
ssg71
g2872
sg64
(lp2879
g190
asbasbasbag57
(g73
g59
NtRp2880
(dp2881
g62
(dp2882
sg71
g2498
sg64
(lp2883
g57
(g78
g59
NtRp2884
(dp2885
g62
(dp2886
g82
g83
ssg71
g2880
sg64
(lp2887
S'REMOTE_PORT'
p2888
asbag57
(g78
g59
NtRp2889
(dp2890
g62
(dp2891
g89
g90
ssg71
g2880
sg64
(lp2892
S':'
asbag57
(g78
g59
NtRp2893
(dp2894
g62
(dp2895
sg71
g2880
sg64
(lp2896
g57
(g58
g59
NtRp2897
(dp2898
g62
(dp2899
g70
I3
ssg71
g2893
sg64
(lp2900
g1252
asbasbasbag57
(g73
g59
NtRp2901
(dp2902
g62
(dp2903
sg71
g2498
sg64
(lp2904
g57
(g78
g59
NtRp2905
(dp2906
g62
(dp2907
g82
g83
ssg71
g2901
sg64
(lp2908
S'REQUEST_METHOD'
p2909
asbag57
(g78
g59
NtRp2910
(dp2911
g62
(dp2912
g89
g90
ssg71
g2901
sg64
(lp2913
S':'
asbag57
(g78
g59
NtRp2914
(dp2915
g62
(dp2916
sg71
g2901
sg64
(lp2917
g57
(g58
g59
NtRp2918
(dp2919
g62
(dp2920
g70
I3
ssg71
g2914
sg64
(lp2921
g1274
asbasbasbag57
(g73
g59
NtRp2922
(dp2923
g62
(dp2924
sg71
g2498
sg64
(lp2925
g57
(g78
g59
NtRp2926
(dp2927
g62
(dp2928
g82
g83
ssg71
g2922
sg64
(lp2929
S'SCRIPT_NAME'
p2930
asbag57
(g78
g59
NtRp2931
(dp2932
g62
(dp2933
g89
g90
ssg71
g2922
sg64
(lp2934
S':'
asbag57
(g78
g59
NtRp2935
(dp2936
g62
(dp2937
sg71
g2922
sg64
(lp2938
g57
(g58
g59
NtRp2939
(dp2940
g62
(dp2941
g70
I3
ssg71
g2935
sg64
(lp2942
S''
asbasbasbag57
(g73
g59
NtRp2943
(dp2944
g62
(dp2945
sg71
g2498
sg64
(lp2946
g57
(g78
g59
NtRp2947
(dp2948
g62
(dp2949
g82
g83
ssg71
g2943
sg64
(lp2950
S'SERVER_NAME'
p2951
asbag57
(g78
g59
NtRp2952
(dp2953
g62
(dp2954
g89
g90
ssg71
g2943
sg64
(lp2955
S':'
asbag57
(g78
g59
NtRp2956
(dp2957
g62
(dp2958
sg71
g2943
sg64
(lp2959
g57
(g58
g59
NtRp2960
(dp2961
g62
(dp2962
g70
I3
ssg71
g2956
sg64
(lp2963
g1317
asbasbasbag57
(g73
g59
NtRp2964
(dp2965
g62
(dp2966
sg71
g2498
sg64
(lp2967
g57
(g78
g59
NtRp2968
(dp2969
g62
(dp2970
g82
g83
ssg71
g2964
sg64
(lp2971
S'SERVER_PORT'
p2972
asbag57
(g78
g59
NtRp2973
(dp2974
g62
(dp2975
g89
g90
ssg71
g2964
sg64
(lp2976
S':'
asbag57
(g78
g59
NtRp2977
(dp2978
g62
(dp2979
sg71
g2964
sg64
(lp2980
g57
(g58
g59
NtRp2981
(dp2982
g62
(dp2983
g70
I3
ssg71
g2977
sg64
(lp2984
g1339
asbasbasbag57
(g73
g59
NtRp2985
(dp2986
g62
(dp2987
sg71
g2498
sg64
(lp2988
g57
(g78
g59
NtRp2989
(dp2990
g62
(dp2991
g82
g83
ssg71
g2985
sg64
(lp2992
S'SERVER_PROTOCOL'
p2993
asbag57
(g78
g59
NtRp2994
(dp2995
g62
(dp2996
g89
g90
ssg71
g2985
sg64
(lp2997
S':'
asbag57
(g78
g59
NtRp2998
(dp2999
g62
(dp3000
sg71
g2985
sg64
(lp3001
g57
(g58
g59
NtRp3002
(dp3003
g62
(dp3004
g70
I3
ssg71
g2998
sg64
(lp3005
g1361
asbasbasbag57
(g73
g59
NtRp3006
(dp3007
g62
(dp3008
sg71
g2498
sg64
(lp3009
g57
(g78
g59
NtRp3010
(dp3011
g62
(dp3012
g82
g83
ssg71
g3006
sg64
(lp3013
S'SERVER_SOFTWARE'
p3014
asbag57
(g78
g59
NtRp3015
(dp3016
g62
(dp3017
g89
g90
ssg71
g3006
sg64
(lp3018
S':'
asbag57
(g78
g59
NtRp3019
(dp3020
g62
(dp3021
sg71
g3006
sg64
(lp3022
g57
(g58
g59
NtRp3023
(dp3024
g62
(dp3025
g70
I3
ssg71
g3019
sg64
(lp3026
g1383
asbasbasbag57
(g73
g59
NtRp3027
(dp3028
g62
(dp3029
sg71
g2498
sg64
(lp3030
g57
(g78
g59
NtRp3031
(dp3032
g62
(dp3033
g82
g83
ssg71
g3027
sg64
(lp3034
S'wsgi.errors'
p3035
asbag57
(g78
g59
NtRp3036
(dp3037
g62
(dp3038
g89
g90
ssg71
g3027
sg64
(lp3039
S':'
asbag57
(g78
g59
NtRp3040
(dp3041
g62
(dp3042
sg71
g3027
sg64
(lp3043
g57
(g58
g59
NtRp3044
(dp3045
g62
(dp3046
g70
I3
ssg71
g3040
sg64
(lp3047
S"<open file '<stderr>', mode 'w' at 0xb72d60d0>"
p3048
asbasbasbag57
(g73
g59
NtRp3049
(dp3050
g62
(dp3051
sg71
g2498
sg64
(lp3052
g57
(g78
g59
NtRp3053
(dp3054
g62
(dp3055
g82
g83
ssg71
g3049
sg64
(lp3056
S'wsgi.file_wrapper'
p3057
asbag57
(g78
g59
NtRp3058
(dp3059
g62
(dp3060
g89
g90
ssg71
g3049
sg64
(lp3061
S':'
asbag57
(g78
g59
NtRp3062
(dp3063
g62
(dp3064
sg71
g3049
sg64
(lp3065
g57
(g58
g59
NtRp3066
(dp3067
g62
(dp3068
g70
I3
ssg71
g3062
sg64
(lp3069
S'<class wsgiref.util.FileWrapper at 0x9d94e9c>'
p3070
asbasbasbag57
(g73
g59
NtRp3071
(dp3072
g62
(dp3073
sg71
g2498
sg64
(lp3074
g57
(g78
g59
NtRp3075
(dp3076
g62
(dp3077
g82
g83
ssg71
g3071
sg64
(lp3078
S'wsgi.input'
p3079
asbag57
(g78
g59
NtRp3080
(dp3081
g62
(dp3082
g89
g90
ssg71
g3071
sg64
(lp3083
S':'
asbag57
(g78
g59
NtRp3084
(dp3085
g62
(dp3086
sg71
g3071
sg64
(lp3087
g57
(g58
g59
NtRp3088
(dp3089
g62
(dp3090
g70
I3
ssg71
g3084
sg64
(lp3091
S"<open file '<fdopen>', mode 'w+b' at 0xa1eb128>"
p3092
asbasbasbag57
(g73
g59
NtRp3093
(dp3094
g62
(dp3095
sg71
g2498
sg64
(lp3096
g57
(g78
g59
NtRp3097
(dp3098
g62
(dp3099
g82
g83
ssg71
g3093
sg64
(lp3100
S'wsgi.multiprocess'
p3101
asbag57
(g78
g59
NtRp3102
(dp3103
g62
(dp3104
g89
g90
ssg71
g3093
sg64
(lp3105
S':'
asbag57
(g78
g59
NtRp3106
(dp3107
g62
(dp3108
sg71
g3093
sg64
(lp3109
g57
(g58
g59
NtRp3110
(dp3111
g62
(dp3112
g70
I3
ssg71
g3106
sg64
(lp3113
g100
asbasbasbag57
(g73
g59
NtRp3114
(dp3115
g62
(dp3116
sg71
g2498
sg64
(lp3117
g57
(g78
g59
NtRp3118
(dp3119
g62
(dp3120
g82
g83
ssg71
g3114
sg64
(lp3121
S'wsgi.multithread'
p3122
asbag57
(g78
g59
NtRp3123
(dp3124
g62
(dp3125
g89
g90
ssg71
g3114
sg64
(lp3126
S':'
asbag57
(g78
g59
NtRp3127
(dp3128
g62
(dp3129
sg71
g3114
sg64
(lp3130
g57
(g58
g59
NtRp3131
(dp3132
g62
(dp3133
g70
I3
ssg71
g3127
sg64
(lp3134
g1623
asbasbasbag57
(g73
g59
NtRp3135
(dp3136
g62
(dp3137
sg71
g2498
sg64
(lp3138
g57
(g78
g59
NtRp3139
(dp3140
g62
(dp3141
g82
g83
ssg71
g3135
sg64
(lp3142
S'wsgi.run_once'
p3143
asbag57
(g78
g59
NtRp3144
(dp3145
g62
(dp3146
g89
g90
ssg71
g3135
sg64
(lp3147
S':'
asbag57
(g78
g59
NtRp3148
(dp3149
g62
(dp3150
sg71
g3135
sg64
(lp3151
g57
(g58
g59
NtRp3152
(dp3153
g62
(dp3154
g70
I3
ssg71
g3148
sg64
(lp3155
g100
asbasbasbag57
(g73
g59
NtRp3156
(dp3157
g62
(dp3158
sg71
g2498
sg64
(lp3159
g57
(g78
g59
NtRp3160
(dp3161
g62
(dp3162
g82
g83
ssg71
g3156
sg64
(lp3163
S'wsgi.url_scheme'
p3164
asbag57
(g78
g59
NtRp3165
(dp3166
g62
(dp3167
g89
g90
ssg71
g3156
sg64
(lp3168
S':'
asbag57
(g78
g59
NtRp3169
(dp3170
g62
(dp3171
sg71
g3156
sg64
(lp3172
g57
(g58
g59
NtRp3173
(dp3174
g62
(dp3175
g70
I3
ssg71
g3169
sg64
(lp3176
g1666
asbasbasbag57
(g73
g59
NtRp3177
(dp3178
g62
(dp3179
sg71
g2498
sg64
(lp3180
g57
(g78
g59
NtRp3181
(dp3182
g62
(dp3183
g82
g83
ssg71
g3177
sg64
(lp3184
S'wsgi.version'
p3185
asbag57
(g78
g59
NtRp3186
(dp3187
g62
(dp3188
g89
g90
ssg71
g3177
sg64
(lp3189
S':'
asbag57
(g78
g59
NtRp3190
(dp3191
g62
(dp3192
sg71
g3177
sg64
(lp3193
g57
(g58
g59
NtRp3194
(dp3195
g62
(dp3196
g70
I3
ssg71
g3190
sg64
(lp3197
S'1'
asbasbasbasbasbasbasbasbasbasbasbasbasbsS'frames'
p3198
(lp3199
(dp3200
S'file'
p3201
S'/home/enigma/web2py/gluon/restricted.py'
p3202
sS'dump'
p3203
(dp3204
S'environment'
p3205
S"{'A': <class 'gluon.html.A'>, 'Auth': <class 'gluon.tools.Auth'>, 'B': <class 'gluon.html.B'>, 'BEAUTIFY': <class 'gluon.html.BEAUTIFY'>, 'BODY': <class 'gluon.html.BODY'>, 'BR': <class 'gluon.html.BR'>, 'BUTTON': <class 'gluon.html.BUTTON'>, 'CAT': <class 'gluon.html.CAT'>, 'CENTER': <class 'gluon.html.CENTER'>, 'CLEANUP': <class 'gluon.validators.CLEANUP'>, ...}"
p3206
sS'ccode'
p3207
S'<code object <module> at 0xa412188, file "/home/...y/applications/911_signin/models/db.py", line 12>'
p3208
ssS'lnum'
p3209
I205
sS'lines'
p3210
(dp3211
I200
S'    try:'
p3212
sI201
S'        if type(code) == types.CodeType:'
p3213
sI202
S'            ccode = code'
p3214
sI203
S'        else:'
p3215
sI204
S'            ccode = compile2(code,layer)'
p3216
sI205
S'        exec ccode in environment'
p3217
sI206
S'    except HTTP:'
p3218
sI207
S'        raise'
p3219
sI208
S'    except RestrictedError:'
p3220
sI209
S'        # do not encapsulate (obfuscate) the original RestrictedError'
p3221
ssS'call'
p3222
S'(code="# -*- coding: utf-8 -*-\\n\\n#######################...\', \'boolean\', writable=False, readable=False)\\n\\t)\\n", environment={\'A\': <class \'gluon.html.A\'>, \'Auth\': <class \'gluon.tools.Auth\'>, \'B\': <class \'gluon.html.B\'>, \'BEAUTIFY\': <class \'gluon.html.BEAUTIFY\'>, \'BODY\': <class \'gluon.html.BODY\'>, \'BR\': <class \'gluon.html.BR\'>, \'BUTTON\': <class \'gluon.html.BUTTON\'>, \'CAT\': <class \'gluon.html.CAT\'>, \'CENTER\': <class \'gluon.html.CENTER\'>, \'CLEANUP\': <class \'gluon.validators.CLEANUP\'>, ...}, layer=\'/home/enigma/web2py/applications/911_signin/models/db.py\')'
p3223
sS'func'
p3224
S'restricted'
p3225
sa(dp3226
g3201
S'/home/enigma/web2py/applications/911_signin/models/db.py'
p3227
sg3203
(dp3228
S'default'
p3229
S'undefined'
p3230
sS'Field'
p3231
S"<class 'gluon.dal.Field'>"
p3232
sS'writable'
p3233
g3230
sS'readable'
p3234
g3230
sS'builtinFalse'
p3235
g100
ssg3209
I90
sg3210
(dp3236
I85
S"\tField('last_name', requires = [IS_NOT_EMPTY(), IS_LENGTH(32), IS_ALPHANUMERIC()]),"
p3237
sI86
S"\tField('username', length=32, unique = True, requires = [IS_NOT_EMPTY(), IS_LENGTH(32)]),"
p3238
sI87
S"\tField('email', length=128, unique = True, default='', requires = [IS_EMAIL(), IS_NOT_EMPTY()]),"
p3239
sI88
S"\tField('password', 'password', readable=False, label='Password', requires=CRYPT(digest_alg='sha512')),"
p3240
sI89
S"\tField('registration_key', length=128, writable=False, readable=False, default=''),"
p3241
sI90
S"\tField('unread_ctr', 'decimal', default=0, writable=False, readable=False))"
p3242
sI91
S''
sI92
S"db.define_table('users',"
p3243
sI93
S"\tField('first_name', requires = [IS_NOT_EMPTY(), IS_LENGTH(32), IS_ALPHANUMERIC()]),"
p3244
sI94
S"\tField('last_name', requires = [IS_NOT_EMPTY(), IS_LENGTH(32), IS_ALPHANUMERIC()]),"
p3245
ssg3222
S'()'
p3246
sg3224
S'<module>'
p3247
sa(dp3248
g3201
S'/home/enigma/web2py/gluon/dal.py'
p3249
sg3203
(dp3250
S'polymodel'
p3251
S'None'
p3252
ssg3209
I6320
sg3210
(dp3253
I6315
S"        if migrate or self._adapter.dbengine=='google:datastore':"
p3254
sI6316
S'            try:'
p3255
sI6317
S'                sql_locker.acquire()'
p3256
sI6318
S'                self._adapter.create_table(t,migrate=migrate,'
p3257
sI6319
S'                                           fake_migrate=fake_migrate,'
p3258
sI6320
S'                                           polymodel=polymodel)'
p3259
sI6321
S'            finally:'
p3260
sI6322
S'                sql_locker.release()'
p3261
sI6323
S'        else:'
p3262
sI6324
S'            t._dbt = None'
p3263
ssg3222
S"(self=<DAL {'auth_event': <Table {'origin': <gluon.dal..._key': <gluon.dal.Field object at 0xad1536ec>}>}>, tablename='auth_users', *fields=(<gluon.dal.Field object>, <gluon.dal.Field object>, <gluon.dal.Field object>, <gluon.dal.Field object>, <gluon.dal.Field object>, <gluon.dal.Field object>, <gluon.dal.Field object>), **args={})"
p3264
sg3224
S'define_table'
p3265
sa(dp3266
g3201
S'/home/enigma/web2py/gluon/dal.py'
p3267
sg3203
(dp3268
S'scale'
p3269
g3230
sS'field.type'
p3270
S"'decimal'"
p3271
sS'precision'
p3272
g3230
sS'field'
p3273
S'<gluon.dal.Field object>'
p3274
sS'builtinint'
p3275
S"<type 'int'>"
p3276
sS'].split'
p3277
S'<built-in method split of str object>'
p3278
sS'builtinmap'
p3279
S'<built-in function map>'
p3280
ssg3209
I633
sg3210
(dp3281
I628
S"                               foreign_key=referenced + ('(%s)' % id_fieldname),"
p3282
sI629
S'                               on_delete_action=field.ondelete)'
p3283
sI630
S"            elif field.type.startswith('list:reference'):"
p3284
sI631
S'                ftype = self.types[field.type[:14]]'
p3285
sI632
S"            elif field.type.startswith('decimal'):"
p3286
sI633
S"                precision, scale = map(int,field.type[8:-1].split(','))"
p3287
sI634
S'                ftype = self.types[field.type[:7]] % \\'
p3288
sI635
S'                    dict(precision=precision,scale=scale)'
p3289
sI636
S'            elif not field.type in self.types:'
p3290
sI637
S"                raise SyntaxError, 'Field: unknown field type: %s for %s' % \\"
p3291
ssg3222
S"(self=<gluon.dal.SQLiteAdapter object>, table=<Table {'username': <gluon.dal.Field object at 0...>, 'id': <gluon.dal.Field object at 0xad17180c>}>, migrate=True, fake_migrate=False, polymodel=None)"
p3292
sg3224
S'create_table'
p3293
sasS'pyver'
p3294
S'Python 2.7.3: /usr/bin/python'
p3295
sS'session'
p3296
g57
(g58
g59
NtRp3297
(dp3298
g62
(dp3299
sg64
(lp3300
g57
(g66
g59
NtRp3301
(dp3302
g62
(dp3303
g70
I5
ssg71
Nsg64
(lp3304
g57
(g73
g59
NtRp3305
(dp3306
g62
(dp3307
sg71
g3301
sg64
(lp3308
g57
(g78
g59
NtRp3309
(dp3310
g62
(dp3311
g82
g83
ssg71
g3305
sg64
(lp3312
S'auth'
p3313
asbag57
(g78
g59
NtRp3314
(dp3315
g62
(dp3316
g89
g90
ssg71
g3305
sg64
(lp3317
S':'
asbag57
(g78
g59
NtRp3318
(dp3319
g62
(dp3320
sg71
g3305
sg64
(lp3321
g57
(g58
g59
NtRp3322
(dp3323
g62
(dp3324
g70
I5
ssg71
g3318
sg64
(lp3325
g57
(g66
g59
NtRp3326
(dp3327
g62
(dp3328
g70
I4
ssg71
Nsg64
(lp3329
g57
(g73
g59
NtRp3330
(dp3331
g62
(dp3332
sg71
g3326
sg64
(lp3333
g57
(g78
g59
NtRp3334
(dp3335
g62
(dp3336
g82
g83
ssg71
g3330
sg64
(lp3337
S'expiration'
p3338
asbag57
(g78
g59
NtRp3339
(dp3340
g62
(dp3341
g89
g90
ssg71
g3330
sg64
(lp3342
S':'
asbag57
(g78
g59
NtRp3343
(dp3344
g62
(dp3345
sg71
g3330
sg64
(lp3346
g57
(g58
g59
NtRp3347
(dp3348
g62
(dp3349
g70
I4
ssg71
g3343
sg64
(lp3350
S'3600'
p3351
asbasbasbag57
(g73
g59
NtRp3352
(dp3353
g62
(dp3354
sg71
g3326
sg64
(lp3355
g57
(g78
g59
NtRp3356
(dp3357
g62
(dp3358
g82
g83
ssg71
g3352
sg64
(lp3359
S'hmac_key'
p3360
asbag57
(g78
g59
NtRp3361
(dp3362
g62
(dp3363
g89
g90
ssg71
g3352
sg64
(lp3364
S':'
asbag57
(g78
g59
NtRp3365
(dp3366
g62
(dp3367
sg71
g3352
sg64
(lp3368
g57
(g58
g59
NtRp3369
(dp3370
g62
(dp3371
g70
I4
ssg71
g3365
sg64
(lp3372
S'71a06bc5-80fa-4563-ba60-0db1df190f82'
p3373
asbasbasbag57
(g73
g59
NtRp3374
(dp3375
g62
(dp3376
sg71
g3326
sg64
(lp3377
g57
(g78
g59
NtRp3378
(dp3379
g62
(dp3380
g82
g83
ssg71
g3374
sg64
(lp3381
S'last_visit'
p3382
asbag57
(g78
g59
NtRp3383
(dp3384
g62
(dp3385
g89
g90
ssg71
g3374
sg64
(lp3386
S':'
asbag57
(g78
g59
NtRp3387
(dp3388
g62
(dp3389
sg71
g3374
sg64
(lp3390
g57
(g58
g59
NtRp3391
(dp3392
g62
(dp3393
g70
I4
ssg71
g3387
sg64
(lp3394
S'datetime.datetime(2013, 6, 3, 17, 16, 13, 864805)'
p3395
asbasbasbag57
(g73
g59
NtRp3396
(dp3397
g62
(dp3398
sg71
g3326
sg64
(lp3399
g57
(g78
g59
NtRp3400
(dp3401
g62
(dp3402
g82
g83
ssg71
g3396
sg64
(lp3403
S'remember'
p3404
asbag57
(g78
g59
NtRp3405
(dp3406
g62
(dp3407
g89
g90
ssg71
g3396
sg64
(lp3408
S':'
asbag57
(g78
g59
NtRp3409
(dp3410
g62
(dp3411
sg71
g3396
sg64
(lp3412
g57
(g58
g59
NtRp3413
(dp3414
g62
(dp3415
g70
I4
ssg71
g3409
sg64
(lp3416
g100
asbasbasbag57
(g73
g59
NtRp3417
(dp3418
g62
(dp3419
sg71
g3326
sg64
(lp3420
g57
(g78
g59
NtRp3421
(dp3422
g62
(dp3423
g82
g83
ssg71
g3417
sg64
(lp3424
S'user'
p3425
asbag57
(g78
g59
NtRp3426
(dp3427
g62
(dp3428
g89
g90
ssg71
g3417
sg64
(lp3429
S':'
asbag57
(g78
g59
NtRp3430
(dp3431
g62
(dp3432
sg71
g3417
sg64
(lp3433
g57
(g58
g59
NtRp3434
(dp3435
g62
(dp3436
g70
I4
ssg71
g3430
sg64
(lp3437
g57
(g66
g59
NtRp3438
(dp3439
g62
(dp3440
g70
I3
ssg71
Nsg64
(lp3441
g57
(g73
g59
NtRp3442
(dp3443
g62
(dp3444
sg71
g3438
sg64
(lp3445
g57
(g78
g59
NtRp3446
(dp3447
g62
(dp3448
g82
g83
ssg71
g3442
sg64
(lp3449
S'email'
p3450
asbag57
(g78
g59
NtRp3451
(dp3452
g62
(dp3453
g89
g90
ssg71
g3442
sg64
(lp3454
S':'
asbag57
(g78
g59
NtRp3455
(dp3456
g62
(dp3457
sg71
g3442
sg64
(lp3458
g57
(g58
g59
NtRp3459
(dp3460
g62
(dp3461
g70
I3
ssg71
g3455
sg64
(lp3462
S'csshadow26@gmail.com'
p3463
asbasbasbag57
(g73
g59
NtRp3464
(dp3465
g62
(dp3466
sg71
g3438
sg64
(lp3467
g57
(g78
g59
NtRp3468
(dp3469
g62
(dp3470
g82
g83
ssg71
g3464
sg64
(lp3471
S'first_name'
p3472
asbag57
(g78
g59
NtRp3473
(dp3474
g62
(dp3475
g89
g90
ssg71
g3464
sg64
(lp3476
S':'
asbag57
(g78
g59
NtRp3477
(dp3478
g62
(dp3479
sg71
g3464
sg64
(lp3480
g57
(g58
g59
NtRp3481
(dp3482
g62
(dp3483
g70
I3
ssg71
g3477
sg64
(lp3484
S'Chandan'
p3485
asbasbasbag57
(g73
g59
NtRp3486
(dp3487
g62
(dp3488
sg71
g3438
sg64
(lp3489
g57
(g78
g59
NtRp3490
(dp3491
g62
(dp3492
g82
g83
ssg71
g3486
sg64
(lp3493
S'id'
p3494
asbag57
(g78
g59
NtRp3495
(dp3496
g62
(dp3497
g89
g90
ssg71
g3486
sg64
(lp3498
S':'
asbag57
(g78
g59
NtRp3499
(dp3500
g62
(dp3501
sg71
g3486
sg64
(lp3502
g57
(g58
g59
NtRp3503
(dp3504
g62
(dp3505
g70
I3
ssg71
g3499
sg64
(lp3506
S'6'
asbasbasbag57
(g73
g59
NtRp3507
(dp3508
g62
(dp3509
sg71
g3438
sg64
(lp3510
g57
(g78
g59
NtRp3511
(dp3512
g62
(dp3513
g82
g83
ssg71
g3507
sg64
(lp3514
S'last_name'
p3515
asbag57
(g78
g59
NtRp3516
(dp3517
g62
(dp3518
g89
g90
ssg71
g3507
sg64
(lp3519
S':'
asbag57
(g78
g59
NtRp3520
(dp3521
g62
(dp3522
sg71
g3507
sg64
(lp3523
g57
(g58
g59
NtRp3524
(dp3525
g62
(dp3526
g70
I3
ssg71
g3520
sg64
(lp3527
S'Singh'
p3528
asbasbasbag57
(g73
g59
NtRp3529
(dp3530
g62
(dp3531
sg71
g3438
sg64
(lp3532
g57
(g78
g59
NtRp3533
(dp3534
g62
(dp3535
g82
g83
ssg71
g3529
sg64
(lp3536
S'password'
p3537
asbag57
(g78
g59
NtRp3538
(dp3539
g62
(dp3540
g89
g90
ssg71
g3529
sg64
(lp3541
S':'
asbag57
(g78
g59
NtRp3542
(dp3543
g62
(dp3544
sg71
g3529
sg64
(lp3545
g57
(g58
g59
NtRp3546
(dp3547
g62
(dp3548
g70
I3
ssg71
g3542
sg64
(lp3549
S'0dd3e512642c97ca3f747f9a76e374fbda73f9292823c0313be9d78add7cdd8f72235af0c553dd26797e78e1854edee0ae002f8aba074b066dfce1af114e32f8'
p3550
asbasbasbag57
(g73
g59
NtRp3551
(dp3552
g62
(dp3553
sg71
g3438
sg64
(lp3554
g57
(g78
g59
NtRp3555
(dp3556
g62
(dp3557
g82
g83
ssg71
g3551
sg64
(lp3558
S'registration_key'
p3559
asbag57
(g78
g59
NtRp3560
(dp3561
g62
(dp3562
g89
g90
ssg71
g3551
sg64
(lp3563
S':'
asbag57
(g78
g59
NtRp3564
(dp3565
g62
(dp3566
sg71
g3551
sg64
(lp3567
g57
(g58
g59
NtRp3568
(dp3569
g62
(dp3570
g70
I3
ssg71
g3564
sg64
(lp3571
S''
asbasbasbag57
(g73
g59
NtRp3572
(dp3573
g62
(dp3574
sg71
g3438
sg64
(lp3575
g57
(g78
g59
NtRp3576
(dp3577
g62
(dp3578
g82
g83
ssg71
g3572
sg64
(lp3579
S'unread_ctr'
p3580
asbag57
(g78
g59
NtRp3581
(dp3582
g62
(dp3583
g89
g90
ssg71
g3572
sg64
(lp3584
S':'
asbag57
(g78
g59
NtRp3585
(dp3586
g62
(dp3587
sg71
g3572
sg64
(lp3588
g57
(g58
g59
NtRp3589
(dp3590
g62
(dp3591
g70
I3
ssg71
g3585
sg64
(lp3592
S'0'
asbasbasbag57
(g73
g59
NtRp3593
(dp3594
g62
(dp3595
sg71
g3438
sg64
(lp3596
g57
(g78
g59
NtRp3597
(dp3598
g62
(dp3599
g82
g83
ssg71
g3593
sg64
(lp3600
S'username'
p3601
asbag57
(g78
g59
NtRp3602
(dp3603
g62
(dp3604
g89
g90
ssg71
g3593
sg64
(lp3605
S':'
asbag57
(g78
g59
NtRp3606
(dp3607
g62
(dp3608
sg71
g3593
sg64
(lp3609
g57
(g58
g59
NtRp3610
(dp3611
g62
(dp3612
g70
I3
ssg71
g3606
sg64
(lp3613
S'csshadow'
p3614
asbasbasbasbasbasbasbag57
(g73
g59
NtRp3615
(dp3616
g62
(dp3617
sg71
g3326
sg64
(lp3618
g57
(g78
g59
NtRp3619
(dp3620
g62
(dp3621
g82
g83
ssg71
g3615
sg64
(lp3622
S'user_groups'
p3623
asbag57
(g78
g59
NtRp3624
(dp3625
g62
(dp3626
g89
g90
ssg71
g3615
sg64
(lp3627
S':'
asbag57
(g78
g59
NtRp3628
(dp3629
g62
(dp3630
sg71
g3615
sg64
(lp3631
g57
(g58
g59
NtRp3632
(dp3633
g62
(dp3634
g70
I4
ssg71
g3628
sg64
(lp3635
g57
(g66
g59
NtRp3636
(dp3637
g62
(dp3638
g70
I3
ssg71
Nsg64
(lp3639
g57
(g73
g59
NtRp3640
(dp3641
g62
(dp3642
sg71
g3636
sg64
(lp3643
g57
(g78
g59
NtRp3644
(dp3645
g62
(dp3646
g82
g83
ssg71
g3640
sg64
(lp3647
S'7'
asbag57
(g78
g59
NtRp3648
(dp3649
g62
(dp3650
g89
g90
ssg71
g3640
sg64
(lp3651
S':'
asbag57
(g78
g59
NtRp3652
(dp3653
g62
(dp3654
sg71
g3640
sg64
(lp3655
g57
(g58
g59
NtRp3656
(dp3657
g62
(dp3658
g70
I3
ssg71
g3652
sg64
(lp3659
S'user_6'
p3660
asbasbasbasbasbasbasbasbasbasbasbag57
(g73
g59
NtRp3661
(dp3662
g62
(dp3663
sg71
g3301
sg64
(lp3664
g57
(g78
g59
NtRp3665
(dp3666
g62
(dp3667
g82
g83
ssg71
g3661
sg64
(lp3668
S'last_query'
p3669
asbag57
(g78
g59
NtRp3670
(dp3671
g62
(dp3672
g89
g90
ssg71
g3661
sg64
(lp3673
S':'
asbag57
(g78
g59
NtRp3674
(dp3675
g62
(dp3676
sg71
g3661
sg64
(lp3677
g57
(g58
g59
NtRp3678
(dp3679
g62
(dp3680
g70
I5
ssg71
g3674
sg64
(lp3681
S'db.auth_users.id>0'
p3682
asbasbasbasbasbsS'etype'
p3683
S"<type 'exceptions.ValueError'>"
p3684
sS'date'
p3685
S'Mon Jun  3 17:21:01 2013'
p3686
sS'response'
p3687
g57
(g58
g59
NtRp3688
(dp3689
g62
(dp3690
sg64
(lp3691
g57
(g66
g59
NtRp3692
(dp3693
g62
(dp3694
g70
I5
ssg71
Nsg64
(lp3695
g57
(g73
g59
NtRp3696
(dp3697
g62
(dp3698
sg71
g3692
sg64
(lp3699
g57
(g78
g59
NtRp3700
(dp3701
g62
(dp3702
g82
g83
ssg71
g3696
sg64
(lp3703
g155
asbag57
(g78
g59
NtRp3704
(dp3705
g62
(dp3706
g89
g90
ssg71
g3696
sg64
(lp3707
S':'
asbag57
(g78
g59
NtRp3708
(dp3709
g62
(dp3710
sg71
g3696
sg64
(lp3711
g57
(g58
g59
NtRp3712
(dp3713
g62
(dp3714
g70
I5
ssg71
g3708
sg64
(lp3715
S'<cStringIO.StringO object at 0xad808e20>'
p3716
asbasbasbag57
(g73
g59
NtRp3717
(dp3718
g62
(dp3719
sg71
g3692
sg64
(lp3720
g57
(g78
g59
NtRp3721
(dp3722
g62
(dp3723
g82
g83
ssg71
g3717
sg64
(lp3724
g221
asbag57
(g78
g59
NtRp3725
(dp3726
g62
(dp3727
g89
g90
ssg71
g3717
sg64
(lp3728
S':'
asbag57
(g78
g59
NtRp3729
(dp3730
g62
(dp3731
sg71
g3717
sg64
(lp3732
g57
(g58
g59
NtRp3733
(dp3734
g62
(dp3735
g70
I5
ssg71
g3729
sg64
(lp3736
g57
(g66
g59
NtRp3737
(dp3738
g62
(dp3739
g70
I4
ssg71
Nsg64
(lp3740
g57
(g73
g59
NtRp3741
(dp3742
g62
(dp3743
sg71
g3737
sg64
(lp3744
g57
(g78
g59
NtRp3745
(dp3746
g62
(dp3747
g82
g83
ssg71
g3741
sg64
(lp3748
S'session_id_911_signin'
p3749
asbag57
(g78
g59
NtRp3750
(dp3751
g62
(dp3752
g89
g90
ssg71
g3741
sg64
(lp3753
S':'
asbag57
(g78
g59
NtRp3754
(dp3755
g62
(dp3756
sg71
g3741
sg64
(lp3757
g57
(g58
g59
NtRp3758
(dp3759
g62
(dp3760
g70
I4
ssg71
g3754
sg64
(lp3761
g57
(g66
g59
NtRp3762
(dp3763
g62
(dp3764
g70
I3
ssg71
Nsg64
(lp3765
g57
(g73
g59
NtRp3766
(dp3767
g62
(dp3768
sg71
g3762
sg64
(lp3769
g57
(g78
g59
NtRp3770
(dp3771
g62
(dp3772
g82
g83
ssg71
g3766
sg64
(lp3773
g271
asbag57
(g78
g59
NtRp3774
(dp3775
g62
(dp3776
g89
g90
ssg71
g3766
sg64
(lp3777
S':'
asbag57
(g78
g59
NtRp3778
(dp3779
g62
(dp3780
sg71
g3766
sg64
(lp3781
g57
(g58
g59
NtRp3782
(dp3783
g62
(dp3784
g70
I3
ssg71
g3778
sg64
(lp3785
S''
asbasbasbag57
(g73
g59
NtRp3786
(dp3787
g62
(dp3788
sg71
g3762
sg64
(lp3789
g57
(g78
g59
NtRp3790
(dp3791
g62
(dp3792
g82
g83
ssg71
g3786
sg64
(lp3793
g292
asbag57
(g78
g59
NtRp3794
(dp3795
g62
(dp3796
g89
g90
ssg71
g3786
sg64
(lp3797
S':'
asbag57
(g78
g59
NtRp3798
(dp3799
g62
(dp3800
sg71
g3786
sg64
(lp3801
g57
(g58
g59
NtRp3802
(dp3803
g62
(dp3804
g70
I3
ssg71
g3798
sg64
(lp3805
S''
asbasbasbag57
(g73
g59
NtRp3806
(dp3807
g62
(dp3808
sg71
g3762
sg64
(lp3809
g57
(g78
g59
NtRp3810
(dp3811
g62
(dp3812
g82
g83
ssg71
g3806
sg64
(lp3813
g313
asbag57
(g78
g59
NtRp3814
(dp3815
g62
(dp3816
g89
g90
ssg71
g3806
sg64
(lp3817
S':'
asbag57
(g78
g59
NtRp3818
(dp3819
g62
(dp3820
sg71
g3806
sg64
(lp3821
g57
(g58
g59
NtRp3822
(dp3823
g62
(dp3824
g70
I3
ssg71
g3818
sg64
(lp3825
S''
asbasbasbag57
(g73
g59
NtRp3826
(dp3827
g62
(dp3828
sg71
g3762
sg64
(lp3829
g57
(g78
g59
NtRp3830
(dp3831
g62
(dp3832
g82
g83
ssg71
g3826
sg64
(lp3833
g334
asbag57
(g78
g59
NtRp3834
(dp3835
g62
(dp3836
g89
g90
ssg71
g3826
sg64
(lp3837
S':'
asbag57
(g78
g59
NtRp3838
(dp3839
g62
(dp3840
sg71
g3826
sg64
(lp3841
g57
(g58
g59
NtRp3842
(dp3843
g62
(dp3844
g70
I3
ssg71
g3838
sg64
(lp3845
S''
asbasbasbag57
(g73
g59
NtRp3846
(dp3847
g62
(dp3848
sg71
g3762
sg64
(lp3849
g57
(g78
g59
NtRp3850
(dp3851
g62
(dp3852
g82
g83
ssg71
g3846
sg64
(lp3853
g355
asbag57
(g78
g59
NtRp3854
(dp3855
g62
(dp3856
g89
g90
ssg71
g3846
sg64
(lp3857
S':'
asbag57
(g78
g59
NtRp3858
(dp3859
g62
(dp3860
sg71
g3846
sg64
(lp3861
g57
(g58
g59
NtRp3862
(dp3863
g62
(dp3864
g70
I3
ssg71
g3858
sg64
(lp3865
S''
asbasbasbag57
(g73
g59
NtRp3866
(dp3867
g62
(dp3868
sg71
g3762
sg64
(lp3869
g57
(g78
g59
NtRp3870
(dp3871
g62
(dp3872
g82
g83
ssg71
g3866
sg64
(lp3873
g376
asbag57
(g78
g59
NtRp3874
(dp3875
g62
(dp3876
g89
g90
ssg71
g3866
sg64
(lp3877
S':'
asbag57
(g78
g59
NtRp3878
(dp3879
g62
(dp3880
sg71
g3866
sg64
(lp3881
g57
(g58
g59
NtRp3882
(dp3883
g62
(dp3884
g70
I3
ssg71
g3878
sg64
(lp3885
S'/'
asbasbasbag57
(g73
g59
NtRp3886
(dp3887
g62
(dp3888
sg71
g3762
sg64
(lp3889
g57
(g78
g59
NtRp3890
(dp3891
g62
(dp3892
g82
g83
ssg71
g3886
sg64
(lp3893
g397
asbag57
(g78
g59
NtRp3894
(dp3895
g62
(dp3896
g89
g90
ssg71
g3886
sg64
(lp3897
S':'
asbag57
(g78
g59
NtRp3898
(dp3899
g62
(dp3900
sg71
g3886
sg64
(lp3901
g57
(g58
g59
NtRp3902
(dp3903
g62
(dp3904
g70
I3
ssg71
g3898
sg64
(lp3905
S''
asbasbasbag57
(g73
g59
NtRp3906
(dp3907
g62
(dp3908
sg71
g3762
sg64
(lp3909
g57
(g78
g59
NtRp3910
(dp3911
g62
(dp3912
g82
g83
ssg71
g3906
sg64
(lp3913
g418
asbag57
(g78
g59
NtRp3914
(dp3915
g62
(dp3916
g89
g90
ssg71
g3906
sg64
(lp3917
S':'
asbag57
(g78
g59
NtRp3918
(dp3919
g62
(dp3920
sg71
g3906
sg64
(lp3921
g57
(g58
g59
NtRp3922
(dp3923
g62
(dp3924
g70
I3
ssg71
g3918
sg64
(lp3925
S''
asbasbasbasbasbasbasbasbasbasbasbag57
(g73
g59
NtRp3926
(dp3927
g62
(dp3928
sg71
g3692
sg64
(lp3929
g57
(g78
g59
NtRp3930
(dp3931
g62
(dp3932
g82
g83
ssg71
g3926
sg64
(lp3933
S'delimiters'
p3934
asbag57
(g78
g59
NtRp3935
(dp3936
g62
(dp3937
g89
g90
ssg71
g3926
sg64
(lp3938
S':'
asbag57
(g78
g59
NtRp3939
(dp3940
g62
(dp3941
sg71
g3926
sg64
(lp3942
g57
(g58
g59
NtRp3943
(dp3944
g62
(dp3945
g70
I5
ssg71
g3939
sg64
(lp3946
g57
(g66
g59
NtRp3947
(dp3948
g62
(dp3949
g70
I4
ssg71
Nsg64
(lp3950
g57
(g73
g59
NtRp3951
(dp3952
g62
(dp3953
sg71
g3947
sg64
(lp3954
g57
(g78
g59
NtRp3955
(dp3956
g62
(dp3957
sg71
g3951
sg64
(lp3958
g57
(g58
g59
NtRp3959
(dp3960
g62
(dp3961
g70
I4
ssg71
g3955
sg64
(lp3962
S'{{'
p3963
asbasbasbag57
(g73
g59
NtRp3964
(dp3965
g62
(dp3966
sg71
g3947
sg64
(lp3967
g57
(g78
g59
NtRp3968
(dp3969
g62
(dp3970
sg71
g3964
sg64
(lp3971
g57
(g58
g59
NtRp3972
(dp3973
g62
(dp3974
g70
I4
ssg71
g3968
sg64
(lp3975
S'}}'
p3976
asbasbasbasbasbasbasbag57
(g73
g59
NtRp3977
(dp3978
g62
(dp3979
sg71
g3692
sg64
(lp3980
g57
(g78
g59
NtRp3981
(dp3982
g62
(dp3983
g82
g83
ssg71
g3977
sg64
(lp3984
S'files'
p3985
asbag57
(g78
g59
NtRp3986
(dp3987
g62
(dp3988
g89
g90
ssg71
g3977
sg64
(lp3989
S':'
asbag57
(g78
g59
NtRp3990
(dp3991
g62
(dp3992
sg71
g3977
sg64
(lp3993
g57
(g58
g59
NtRp3994
(dp3995
g62
(dp3996
g70
I5
ssg71
g3990
sg64
(lp3997
g57
(g66
g59
NtRp3998
(dp3999
g62
(dp4000
g70
I4
ssg71
Nsg64
(lp4001
sbasbasbasbag57
(g73
g59
NtRp4002
(dp4003
g62
(dp4004
sg71
g3692
sg64
(lp4005
g57
(g78
g59
NtRp4006
(dp4007
g62
(dp4008
g82
g83
ssg71
g4002
sg64
(lp4009
S'flash'
p4010
asbag57
(g78
g59
NtRp4011
(dp4012
g62
(dp4013
g89
g90
ssg71
g4002
sg64
(lp4014
S':'
asbag57
(g78
g59
NtRp4015
(dp4016
g62
(dp4017
sg71
g4002
sg64
(lp4018
g57
(g58
g59
NtRp4019
(dp4020
g62
(dp4021
g70
I5
ssg71
g4015
sg64
(lp4022
S''
asbasbasbag57
(g73
g59
NtRp4023
(dp4024
g62
(dp4025
sg71
g3692
sg64
(lp4026
g57
(g78
g59
NtRp4027
(dp4028
g62
(dp4029
g82
g83
ssg71
g4023
sg64
(lp4030
S'generic_patterns'
p4031
asbag57
(g78
g59
NtRp4032
(dp4033
g62
(dp4034
g89
g90
ssg71
g4023
sg64
(lp4035
S':'
asbag57
(g78
g59
NtRp4036
(dp4037
g62
(dp4038
sg71
g4023
sg64
(lp4039
g57
(g58
g59
NtRp4040
(dp4041
g62
(dp4042
g70
I5
ssg71
g4036
sg64
(lp4043
g57
(g66
g59
NtRp4044
(dp4045
g62
(dp4046
g70
I4
ssg71
Nsg64
(lp4047
g57
(g73
g59
NtRp4048
(dp4049
g62
(dp4050
sg71
g4044
sg64
(lp4051
g57
(g78
g59
NtRp4052
(dp4053
g62
(dp4054
sg71
g4048
sg64
(lp4055
g57
(g58
g59
NtRp4056
(dp4057
g62
(dp4058
g70
I4
ssg71
g4052
sg64
(lp4059
S'*'
asbasbasbasbasbasbasbag57
(g73
g59
NtRp4060
(dp4061
g62
(dp4062
sg71
g3692
sg64
(lp4063
g57
(g78
g59
NtRp4064
(dp4065
g62
(dp4066
g82
g83
ssg71
g4060
sg64
(lp4067
S'headers'
p4068
asbag57
(g78
g59
NtRp4069
(dp4070
g62
(dp4071
g89
g90
ssg71
g4060
sg64
(lp4072
S':'
asbag57
(g78
g59
NtRp4073
(dp4074
g62
(dp4075
sg71
g4060
sg64
(lp4076
g57
(g58
g59
NtRp4077
(dp4078
g62
(dp4079
g70
I5
ssg71
g4073
sg64
(lp4080
g57
(g66
g59
NtRp4081
(dp4082
g62
(dp4083
g70
I4
ssg71
Nsg64
(lp4084
g57
(g73
g59
NtRp4085
(dp4086
g62
(dp4087
sg71
g4081
sg64
(lp4088
g57
(g78
g59
NtRp4089
(dp4090
g62
(dp4091
g82
g83
ssg71
g4085
sg64
(lp4092
S'Cache-Control'
p4093
asbag57
(g78
g59
NtRp4094
(dp4095
g62
(dp4096
g89
g90
ssg71
g4085
sg64
(lp4097
S':'
asbag57
(g78
g59
NtRp4098
(dp4099
g62
(dp4100
sg71
g4085
sg64
(lp4101
g57
(g58
g59
NtRp4102
(dp4103
g62
(dp4104
g70
I4
ssg71
g4098
sg64
(lp4105
S'no-store, no-cache, must-revalidate, post-check=0, pre-check=0'
p4106
asbasbasbag57
(g73
g59
NtRp4107
(dp4108
g62
(dp4109
sg71
g4081
sg64
(lp4110
g57
(g78
g59
NtRp4111
(dp4112
g62
(dp4113
g82
g83
ssg71
g4107
sg64
(lp4114
S'Content-Type'
p4115
asbag57
(g78
g59
NtRp4116
(dp4117
g62
(dp4118
g89
g90
ssg71
g4107
sg64
(lp4119
S':'
asbag57
(g78
g59
NtRp4120
(dp4121
g62
(dp4122
sg71
g4107
sg64
(lp4123
g57
(g58
g59
NtRp4124
(dp4125
g62
(dp4126
g70
I4
ssg71
g4120
sg64
(lp4127
S'text/html; charset=utf-8'
p4128
asbasbasbag57
(g73
g59
NtRp4129
(dp4130
g62
(dp4131
sg71
g4081
sg64
(lp4132
g57
(g78
g59
NtRp4133
(dp4134
g62
(dp4135
g82
g83
ssg71
g4129
sg64
(lp4136
S'Expires'
p4137
asbag57
(g78
g59
NtRp4138
(dp4139
g62
(dp4140
g89
g90
ssg71
g4129
sg64
(lp4141
S':'
asbag57
(g78
g59
NtRp4142
(dp4143
g62
(dp4144
sg71
g4129
sg64
(lp4145
g57
(g58
g59
NtRp4146
(dp4147
g62
(dp4148
g70
I4
ssg71
g4142
sg64
(lp4149
S'Mon, 03 Jun 2013 11:51:01 GMT'
p4150
asbasbasbag57
(g73
g59
NtRp4151
(dp4152
g62
(dp4153
sg71
g4081
sg64
(lp4154
g57
(g78
g59
NtRp4155
(dp4156
g62
(dp4157
g82
g83
ssg71
g4151
sg64
(lp4158
S'Pragma'
p4159
asbag57
(g78
g59
NtRp4160
(dp4161
g62
(dp4162
g89
g90
ssg71
g4151
sg64
(lp4163
S':'
asbag57
(g78
g59
NtRp4164
(dp4165
g62
(dp4166
sg71
g4151
sg64
(lp4167
g57
(g58
g59
NtRp4168
(dp4169
g62
(dp4170
g70
I4
ssg71
g4164
sg64
(lp4171
S'no-cache'
p4172
asbasbasbag57
(g73
g59
NtRp4173
(dp4174
g62
(dp4175
sg71
g4081
sg64
(lp4176
g57
(g78
g59
NtRp4177
(dp4178
g62
(dp4179
g82
g83
ssg71
g4173
sg64
(lp4180
S'X-Powered-By'
p4181
asbag57
(g78
g59
NtRp4182
(dp4183
g62
(dp4184
g89
g90
ssg71
g4173
sg64
(lp4185
S':'
asbag57
(g78
g59
NtRp4186
(dp4187
g62
(dp4188
sg71
g4173
sg64
(lp4189
g57
(g58
g59
NtRp4190
(dp4191
g62
(dp4192
g70
I4
ssg71
g4186
sg64
(lp4193
S'web2py'
p4194
asbasbasbasbasbasbasbag57
(g73
g59
NtRp4195
(dp4196
g62
(dp4197
sg71
g3692
sg64
(lp4198
g57
(g78
g59
NtRp4199
(dp4200
g62
(dp4201
g82
g83
ssg71
g4195
sg64
(lp4202
S'menu'
p4203
asbag57
(g78
g59
NtRp4204
(dp4205
g62
(dp4206
g89
g90
ssg71
g4195
sg64
(lp4207
S':'
asbag57
(g78
g59
NtRp4208
(dp4209
g62
(dp4210
sg71
g4195
sg64
(lp4211
g57
(g58
g59
NtRp4212
(dp4213
g62
(dp4214
g70
I5
ssg71
g4208
sg64
(lp4215
g57
(g66
g59
NtRp4216
(dp4217
g62
(dp4218
g70
I4
ssg71
Nsg64
(lp4219
sbasbasbasbag57
(g73
g59
NtRp4220
(dp4221
g62
(dp4222
sg71
g3692
sg64
(lp4223
g57
(g78
g59
NtRp4224
(dp4225
g62
(dp4226
g82
g83
ssg71
g4220
sg64
(lp4227
S'meta'
p4228
asbag57
(g78
g59
NtRp4229
(dp4230
g62
(dp4231
g89
g90
ssg71
g4220
sg64
(lp4232
S':'
asbag57
(g78
g59
NtRp4233
(dp4234
g62
(dp4235
sg71
g4220
sg64
(lp4236
g57
(g58
g59
NtRp4237
(dp4238
g62
(dp4239
g70
I5
ssg71
g4233
sg64
(lp4240
g57
(g66
g59
NtRp4241
(dp4242
g62
(dp4243
g70
I4
ssg71
Nsg64
(lp4244
sbasbasbasbag57
(g73
g59
NtRp4245
(dp4246
g62
(dp4247
sg71
g3692
sg64
(lp4248
g57
(g78
g59
NtRp4249
(dp4250
g62
(dp4251
g82
g83
ssg71
g4245
sg64
(lp4252
S'postprocessing'
p4253
asbag57
(g78
g59
NtRp4254
(dp4255
g62
(dp4256
g89
g90
ssg71
g4245
sg64
(lp4257
S':'
asbag57
(g78
g59
NtRp4258
(dp4259
g62
(dp4260
sg71
g4245
sg64
(lp4261
g57
(g58
g59
NtRp4262
(dp4263
g62
(dp4264
g70
I5
ssg71
g4258
sg64
(lp4265
g57
(g66
g59
NtRp4266
(dp4267
g62
(dp4268
g70
I4
ssg71
Nsg64
(lp4269
sbasbasbasbag57
(g73
g59
NtRp4270
(dp4271
g62
(dp4272
sg71
g3692
sg64
(lp4273
g57
(g78
g59
NtRp4274
(dp4275
g62
(dp4276
g82
g83
ssg71
g4270
sg64
(lp4277
S'session_file'
p4278
asbag57
(g78
g59
NtRp4279
(dp4280
g62
(dp4281
g89
g90
ssg71
g4270
sg64
(lp4282
S':'
asbag57
(g78
g59
NtRp4283
(dp4284
g62
(dp4285
sg71
g4270
sg64
(lp4286
g57
(g58
g59
NtRp4287
(dp4288
g62
(dp4289
g70
I5
ssg71
g4283
sg64
(lp4290
S"<open file '/home/enigma/web2py/applications/911_signin/sessions/127.0.0.1-b88a988d-b3c7-4a7a-a25c-3c7013a0aea9', mode 'rb+' at 0xa1eb288>"
p4291
asbasbasbag57
(g73
g59
NtRp4292
(dp4293
g62
(dp4294
sg71
g3692
sg64
(lp4295
g57
(g78
g59
NtRp4296
(dp4297
g62
(dp4298
g82
g83
ssg71
g4292
sg64
(lp4299
S'session_filename'
p4300
asbag57
(g78
g59
NtRp4301
(dp4302
g62
(dp4303
g89
g90
ssg71
g4292
sg64
(lp4304
S':'
asbag57
(g78
g59
NtRp4305
(dp4306
g62
(dp4307
sg71
g4292
sg64
(lp4308
g57
(g58
g59
NtRp4309
(dp4310
g62
(dp4311
g70
I5
ssg71
g4305
sg64
(lp4312
S'/home/enigma/web2py/applications/911_signin/sessions/127.0.0.1-b88a988d-b3c7-4a7a-a25c-3c7013a0aea9'
p4313
asbasbasbag57
(g73
g59
NtRp4314
(dp4315
g62
(dp4316
sg71
g3692
sg64
(lp4317
g57
(g78
g59
NtRp4318
(dp4319
g62
(dp4320
g82
g83
ssg71
g4314
sg64
(lp4321
S'session_id'
p4322
asbag57
(g78
g59
NtRp4323
(dp4324
g62
(dp4325
g89
g90
ssg71
g4314
sg64
(lp4326
S':'
asbag57
(g78
g59
NtRp4327
(dp4328
g62
(dp4329
sg71
g4314
sg64
(lp4330
g57
(g58
g59
NtRp4331
(dp4332
g62
(dp4333
g70
I5
ssg71
g4327
sg64
(lp4334
S'127.0.0.1-b88a988d-b3c7-4a7a-a25c-3c7013a0aea9'
p4335
asbasbasbag57
(g73
g59
NtRp4336
(dp4337
g62
(dp4338
sg71
g3692
sg64
(lp4339
g57
(g78
g59
NtRp4340
(dp4341
g62
(dp4342
g82
g83
ssg71
g4336
sg64
(lp4343
S'session_id_name'
p4344
asbag57
(g78
g59
NtRp4345
(dp4346
g62
(dp4347
g89
g90
ssg71
g4336
sg64
(lp4348
S':'
asbag57
(g78
g59
NtRp4349
(dp4350
g62
(dp4351
sg71
g4336
sg64
(lp4352
g57
(g58
g59
NtRp4353
(dp4354
g62
(dp4355
g70
I5
ssg71
g4349
sg64
(lp4356
g3749
asbasbasbag57
(g73
g59
NtRp4357
(dp4358
g62
(dp4359
sg71
g3692
sg64
(lp4360
g57
(g78
g59
NtRp4361
(dp4362
g62
(dp4363
g82
g83
ssg71
g4357
sg64
(lp4364
S'session_locked'
p4365
asbag57
(g78
g59
NtRp4366
(dp4367
g62
(dp4368
g89
g90
ssg71
g4357
sg64
(lp4369
S':'
asbag57
(g78
g59
NtRp4370
(dp4371
g62
(dp4372
sg71
g4357
sg64
(lp4373
g57
(g58
g59
NtRp4374
(dp4375
g62
(dp4376
g70
I5
ssg71
g4370
sg64
(lp4377
g1623
asbasbasbag57
(g73
g59
NtRp4378
(dp4379
g62
(dp4380
sg71
g3692
sg64
(lp4381
g57
(g78
g59
NtRp4382
(dp4383
g62
(dp4384
g82
g83
ssg71
g4378
sg64
(lp4385
S'session_new'
p4386
asbag57
(g78
g59
NtRp4387
(dp4388
g62
(dp4389
g89
g90
ssg71
g4378
sg64
(lp4390
S':'
asbag57
(g78
g59
NtRp4391
(dp4392
g62
(dp4393
sg71
g4378
sg64
(lp4394
g57
(g58
g59
NtRp4395
(dp4396
g62
(dp4397
g70
I5
ssg71
g4391
sg64
(lp4398
g100
asbasbasbag57
(g73
g59
NtRp4399
(dp4400
g62
(dp4401
sg71
g3692
sg64
(lp4402
g57
(g78
g59
NtRp4403
(dp4404
g62
(dp4405
g82
g83
ssg71
g4399
sg64
(lp4406
S'status'
p4407
asbag57
(g78
g59
NtRp4408
(dp4409
g62
(dp4410
g89
g90
ssg71
g4399
sg64
(lp4411
S':'
asbag57
(g78
g59
NtRp4412
(dp4413
g62
(dp4414
sg71
g4399
sg64
(lp4415
g57
(g58
g59
NtRp4416
(dp4417
g62
(dp4418
g70
I5
ssg71
g4412
sg64
(lp4419
S'200'
p4420
asbasbasbag57
(g73
g59
NtRp4421
(dp4422
g62
(dp4423
sg71
g3692
sg64
(lp4424
g57
(g78
g59
NtRp4425
(dp4426
g62
(dp4427
g82
g83
ssg71
g4421
sg64
(lp4428
g2353
asbag57
(g78
g59
NtRp4429
(dp4430
g62
(dp4431
g89
g90
ssg71
g4421
sg64
(lp4432
S':'
asbag57
(g78
g59
NtRp4433
(dp4434
g62
(dp4435
sg71
g4421
sg64
(lp4436
g57
(g58
g59
NtRp4437
(dp4438
g62
(dp4439
g70
I5
ssg71
g4433
sg64
(lp4440
g2366
asbasbasbag57
(g73
g59
NtRp4441
(dp4442
g62
(dp4443
sg71
g3692
sg64
(lp4444
g57
(g78
g59
NtRp4445
(dp4446
g62
(dp4447
g82
g83
ssg71
g4441
sg64
(lp4448
S'view'
p4449
asbag57
(g78
g59
NtRp4450
(dp4451
g62
(dp4452
g89
g90
ssg71
g4441
sg64
(lp4453
S':'
asbag57
(g78
g59
NtRp4454
(dp4455
g62
(dp4456
sg71
g4441
sg64
(lp4457
g57
(g58
g59
NtRp4458
(dp4459
g62
(dp4460
g70
I5
ssg71
g4454
sg64
(lp4461
S'default/compose.html'
p4462
asbasbasbasbasbsS'locals'
p4463
(dp4464
S'polymodel'
p4465
S'None'
p4466
sS'sortable'
p4467
S'8'
sS'sql_fields_aux'
p4468
S"{'email': {'sql': 'CHAR(128) UNIQUE'}, 'first_name': {'sql': 'CHAR(512)'}, 'id': {'sql': 'INTEGER PRIMARY KEY AUTOINCREMENT'}, 'last_name': {'sql': 'CHAR(512)'}, 'password': {'sql': 'CHAR(512)'}, 'registration_key': {'sql': 'CHAR(128)'}, 'username': {'sql': 'CHAR(32) UNIQUE'}}"
p4469
sS'TFK'
p4470
g45
sS'not_null'
p4471
S'"NOT NULL DEFAULT \'\'"'
p4472
sS'migrate'
p4473
g1623
sS'fields'
p4474
S"['id INTEGER PRIMARY KEY AUTOINCREMENT', 'first_name CHAR(512)', 'last_name CHAR(512)', 'username CHAR(32) UNIQUE', 'email CHAR(128) UNIQUE', 'password CHAR(512)', 'registration_key CHAR(128)']"
p4475
sS'k'
S"'unread_ctr'"
p4476
sS'tablename'
p4477
S"'auth_users'"
p4478
sS'fake_migrate'
p4479
g100
sS'field'
p4480
S'<gluon.dal.Field object>'
p4481
sS'ftype'
p4482
S"'CHAR(128)'"
p4483
sS'table'
p4484
S"<Table {'username': <gluon.dal.Field object at 0...>, 'id': <gluon.dal.Field object at 0xad17180c>}>"
p4485
sS'sql_fields'
p4486
S"{'email': {'sortable': 5, 'sql': 'CHAR(128) UNIQUE', 'type': 'string'}, 'first_name': {'sortable': 2, 'sql': 'CHAR(512)', 'type': 'string'}, 'id': {'sortable': 1, 'sql': 'INTEGER PRIMARY KEY AUTOINCREMENT', 'type': 'id'}, 'last_name': {'sortable': 3, 'sql': 'CHAR(512)', 'type': 'string'}, 'password': {'sortable': 6, 'sql': 'CHAR(512)', 'type': 'password'}, 'registration_key': {'sortable': 7, 'sql': 'CHAR(128)', 'type': 'string'}, 'username': {'sortable': 4, 'sql': 'CHAR(32) UNIQUE', 'type': 'string'}}"
p4487
sS'self'
p4488
S'<gluon.dal.SQLiteAdapter object>'
p4489
sssS'traceback'
p4490
S'Traceback (most recent call last):\n  File "/home/enigma/web2py/gluon/restricted.py", line 205, in restricted\n    exec ccode in environment\n  File "/home/enigma/web2py/applications/911_signin/models/db.py", line 90, in <module>\n    Field(\'unread_ctr\', \'decimal\', default=0, writable=False, readable=False))\n  File "/home/enigma/web2py/gluon/dal.py", line 6320, in define_table\n    polymodel=polymodel)\n  File "/home/enigma/web2py/gluon/dal.py", line 633, in create_table\n    precision, scale = map(int,field.type[8:-1].split(\',\'))\nValueError: invalid literal for int() with base 10: \'\'\n'
p4491
s.