(dp1
S'output'
p2
S"<type 'exceptions.SyntaxError'> No fields to update"
p3
sS'layer'
p4
S'/home/enigma/web2py/applications/911_signin/controllers/default.py'
p5
sS'code'
p6
S'# -*- coding: utf-8 -*-\n# this file is released under public domain and you can use without limitations\n\n#########################################################################\n## This is a samples controller\n## - index is the default action of any application\n## - user is required for authentication and authorization\n## - download is for downloading files uploaded in the db (does streaming)\n## - call exposes all registered services (none by default)\n#########################################################################\n\ndef index():\n    """\n    example action using the internationalization operator T and flash\n    rendered by views/default/index.html or views/generic.html\n    """\n    response.flash = "Welcome to web2py!"\n    return dict(message=T(\'Hello World\'))\n\n\ndef user():\n    """\n    exposes:\n    http://..../[app]/default/user/login\n    http://..../[app]/default/user/logout\n    http://..../[app]/default/user/register\n    http://..../[app]/default/user/profile\n    http://..../[app]/default/user/retrieve_password\n    http://..../[app]/default/user/change_password\n    use @auth.requires_login()\n        @auth.requires_membership(\'group name\')\n        @auth.requires_permission(\'read\',\'table name\',record_id)\n    to decorate functions that need access control\n    """\n    return dict(form=auth())\n\n\ndef home():\n    return dict(uid=auth.user_id)\n\ndef download():\n    """\n    allows downloading of uploaded files\n    http://..../[app]/default/download/[filename]\n    """\n    return response.download(request,db)\n\n\ndef call():\n    """\n    exposes services. for example:\n    http://..../[app]/default/call/jsonrpc\n    decorate with @services.jsonrpc the functions to expose\n    supports xml, json, xmlrpc, jsonrpc, amfrpc, rss, csv\n    """\n    return service()\n\n\n@auth.requires_signature()\ndef data():\n    """\n    http://..../[app]/default/data/tables\n    http://..../[app]/default/data/create/[table]\n    http://..../[app]/default/data/read/[table]/[id]\n    http://..../[app]/default/data/update/[table]/[id]\n    http://..../[app]/default/data/delete/[table]/[id]\n    http://..../[app]/default/data/select/[table]\n    http://..../[app]/default/data/search/[table]\n    but URLs must be signed, i.e. linked with\n      A(\'table\',_href=URL(\'data/tables\',user_signature=True))\n    or with the signed load operator\n      LOAD(\'default\',\'data.load\',args=\'tables\',ajax=True,user_signature=True)\n    """\n    return dict(form=crud())\n\nresponse._vars=response._caller(user)\n'
p7
sS'snapshot'
p8
(dp9
S'exception'
p10
(dp11
S'__getslice__'
p12
S"<method-wrapper '__getslice__' of exceptions.SyntaxError object>"
p13
sS'text'
p14
S'None'
p15
sS'__str__'
p16
S"<method-wrapper '__str__' of exceptions.SyntaxError object>"
p17
sS'__reduce__'
p18
S'<built-in method __reduce__ of exceptions.SyntaxError object>'
p19
sS'__dict__'
p20
S'{}'
p21
sS'__sizeof__'
p22
S'<built-in method __sizeof__ of exceptions.SyntaxError object>'
p23
sS'__init__'
p24
S"<method-wrapper '__init__' of exceptions.SyntaxError object>"
p25
sS'__setattr__'
p26
S"<method-wrapper '__setattr__' of exceptions.SyntaxError object>"
p27
sS'__reduce_ex__'
p28
S'<built-in method __reduce_ex__ of exceptions.SyntaxError object>'
p29
sS'__new__'
p30
S'<built-in method __new__ of type object>'
p31
sS'__format__'
p32
S'<built-in method __format__ of exceptions.SyntaxError object>'
p33
sS'__class__'
p34
S"<type 'exceptions.SyntaxError'>"
p35
sS'filename'
p36
S'None'
p37
sS'lineno'
p38
S'None'
p39
sS'msg'
p40
S"'No fields to update'"
p41
sS'__doc__'
p42
S"'Invalid syntax.'"
p43
sS'__getitem__'
p44
S"<method-wrapper '__getitem__' of exceptions.SyntaxError object>"
p45
sS'__setstate__'
p46
S'<built-in method __setstate__ of exceptions.SyntaxError object>'
p47
sS'__getattribute__'
p48
S"<method-wrapper '__getattribute__' of exceptions.SyntaxError object>"
p49
sS'print_file_and_line'
p50
S'None'
p51
sS'args'
p52
S"('No fields to update',)"
p53
sS'__subclasshook__'
p54
S'<built-in method __subclasshook__ of type object>'
p55
sS'offset'
p56
S'None'
p57
sS'__unicode__'
p58
S'<built-in method __unicode__ of exceptions.SyntaxError object>'
p59
sS'__delattr__'
p60
S"<method-wrapper '__delattr__' of exceptions.SyntaxError object>"
p61
sS'__repr__'
p62
S"<method-wrapper '__repr__' of exceptions.SyntaxError object>"
p63
sS'__hash__'
p64
S"<method-wrapper '__hash__' of exceptions.SyntaxError object>"
p65
ssS'evalue'
p66
S'No fields to update'
p67
sS'request'
p68
ccopy_reg
_reconstructor
p69
(cgluon.html
BEAUTIFY
p70
c__builtin__
object
p71
NtRp72
(dp73
S'attributes'
p74
(dp75
sS'components'
p76
(lp77
g69
(cgluon.html
TABLE
p78
g71
NtRp79
(dp80
g74
(dp81
S'level'
p82
I5
ssS'parent'
p83
Nsg76
(lp84
g69
(cgluon.html
TR
p85
g71
NtRp86
(dp87
g74
(dp88
sg83
g79
sg76
(lp89
g69
(cgluon.html
TD
p90
g71
NtRp91
(dp92
g74
(dp93
S'_style'
p94
S'font-weight:bold;vertical-align:top'
p95
ssg83
g86
sg76
(lp96
S'ajax'
p97
asbag69
(g90
g71
NtRp98
(dp99
g74
(dp100
S'_valign'
p101
S'top'
p102
ssg83
g86
sg76
(lp103
S':'
asbag69
(g90
g71
NtRp104
(dp105
g74
(dp106
sg83
g86
sg76
(lp107
g69
(g70
g71
NtRp108
(dp109
g74
(dp110
g82
I5
ssg83
g104
sg76
(lp111
S'False'
p112
asbasbasbag69
(g85
g71
NtRp113
(dp114
g74
(dp115
sg83
g79
sg76
(lp116
g69
(g90
g71
NtRp117
(dp118
g74
(dp119
g94
g95
ssg83
g113
sg76
(lp120
S'application'
p121
asbag69
(g90
g71
NtRp122
(dp123
g74
(dp124
g101
g102
ssg83
g113
sg76
(lp125
S':'
asbag69
(g90
g71
NtRp126
(dp127
g74
(dp128
sg83
g113
sg76
(lp129
g69
(g70
g71
NtRp130
(dp131
g74
(dp132
g82
I5
ssg83
g126
sg76
(lp133
S'911_signin'
p134
asbasbasbag69
(g85
g71
NtRp135
(dp136
g74
(dp137
sg83
g79
sg76
(lp138
g69
(g90
g71
NtRp139
(dp140
g74
(dp141
g94
g95
ssg83
g135
sg76
(lp142
g52
asbag69
(g90
g71
NtRp143
(dp144
g74
(dp145
g101
g102
ssg83
g135
sg76
(lp146
S':'
asbag69
(g90
g71
NtRp147
(dp148
g74
(dp149
sg83
g135
sg76
(lp150
g69
(g70
g71
NtRp151
(dp152
g74
(dp153
g82
I5
ssg83
g147
sg76
(lp154
g69
(g78
g71
NtRp155
(dp156
g74
(dp157
g82
I4
ssg83
Nsg76
(lp158
g69
(g85
g71
NtRp159
(dp160
g74
(dp161
sg83
g155
sg76
(lp162
g69
(g90
g71
NtRp163
(dp164
g74
(dp165
sg83
g159
sg76
(lp166
g69
(g70
g71
NtRp167
(dp168
g74
(dp169
g82
I4
ssg83
g163
sg76
(lp170
S'request_reset_password'
p171
asbasbasbasbasbasbasbag69
(g85
g71
NtRp172
(dp173
g74
(dp174
sg83
g79
sg76
(lp175
g69
(g90
g71
NtRp176
(dp177
g74
(dp178
g94
g95
ssg83
g172
sg76
(lp179
S'body'
p180
asbag69
(g90
g71
NtRp181
(dp182
g74
(dp183
g101
g102
ssg83
g172
sg76
(lp184
S':'
asbag69
(g90
g71
NtRp185
(dp186
g74
(dp187
sg83
g172
sg76
(lp188
g69
(g70
g71
NtRp189
(dp190
g74
(dp191
g82
I5
ssg83
g185
sg76
(lp192
S"<open file '<fdopen>', mode 'w+b' at 0xa910d30>"
p193
asbasbasbag69
(g85
g71
NtRp194
(dp195
g74
(dp196
sg83
g79
sg76
(lp197
g69
(g90
g71
NtRp198
(dp199
g74
(dp200
g94
g95
ssg83
g194
sg76
(lp201
S'client'
p202
asbag69
(g90
g71
NtRp203
(dp204
g74
(dp205
g101
g102
ssg83
g194
sg76
(lp206
S':'
asbag69
(g90
g71
NtRp207
(dp208
g74
(dp209
sg83
g194
sg76
(lp210
g69
(g70
g71
NtRp211
(dp212
g74
(dp213
g82
I5
ssg83
g207
sg76
(lp214
S'127.0.0.1'
p215
asbasbasbag69
(g85
g71
NtRp216
(dp217
g74
(dp218
sg83
g79
sg76
(lp219
g69
(g90
g71
NtRp220
(dp221
g74
(dp222
g94
g95
ssg83
g216
sg76
(lp223
S'controller'
p224
asbag69
(g90
g71
NtRp225
(dp226
g74
(dp227
g101
g102
ssg83
g216
sg76
(lp228
S':'
asbag69
(g90
g71
NtRp229
(dp230
g74
(dp231
sg83
g216
sg76
(lp232
g69
(g70
g71
NtRp233
(dp234
g74
(dp235
g82
I5
ssg83
g229
sg76
(lp236
S'default'
p237
asbasbasbag69
(g85
g71
NtRp238
(dp239
g74
(dp240
sg83
g79
sg76
(lp241
g69
(g90
g71
NtRp242
(dp243
g74
(dp244
g94
g95
ssg83
g238
sg76
(lp245
S'cookies'
p246
asbag69
(g90
g71
NtRp247
(dp248
g74
(dp249
g101
g102
ssg83
g238
sg76
(lp250
S':'
asbag69
(g90
g71
NtRp251
(dp252
g74
(dp253
sg83
g238
sg76
(lp254
g69
(g70
g71
NtRp255
(dp256
g74
(dp257
g82
I5
ssg83
g251
sg76
(lp258
g69
(g78
g71
NtRp259
(dp260
g74
(dp261
g82
I4
ssg83
Nsg76
(lp262
g69
(g85
g71
NtRp263
(dp264
g74
(dp265
sg83
g259
sg76
(lp266
g69
(g90
g71
NtRp267
(dp268
g74
(dp269
g94
g95
ssg83
g263
sg76
(lp270
S'session_id_911_signin'
p271
asbag69
(g90
g71
NtRp272
(dp273
g74
(dp274
g101
g102
ssg83
g263
sg76
(lp275
S':'
asbag69
(g90
g71
NtRp276
(dp277
g74
(dp278
sg83
g263
sg76
(lp279
g69
(g70
g71
NtRp280
(dp281
g74
(dp282
g82
I4
ssg83
g276
sg76
(lp283
g69
(g78
g71
NtRp284
(dp285
g74
(dp286
g82
I3
ssg83
Nsg76
(lp287
g69
(g85
g71
NtRp288
(dp289
g74
(dp290
sg83
g284
sg76
(lp291
g69
(g90
g71
NtRp292
(dp293
g74
(dp294
g94
g95
ssg83
g288
sg76
(lp295
S'comment'
p296
asbag69
(g90
g71
NtRp297
(dp298
g74
(dp299
g101
g102
ssg83
g288
sg76
(lp300
S':'
asbag69
(g90
g71
NtRp301
(dp302
g74
(dp303
sg83
g288
sg76
(lp304
g69
(g70
g71
NtRp305
(dp306
g74
(dp307
g82
I3
ssg83
g301
sg76
(lp308
S''
asbasbasbag69
(g85
g71
NtRp309
(dp310
g74
(dp311
sg83
g284
sg76
(lp312
g69
(g90
g71
NtRp313
(dp314
g74
(dp315
g94
g95
ssg83
g309
sg76
(lp316
S'domain'
p317
asbag69
(g90
g71
NtRp318
(dp319
g74
(dp320
g101
g102
ssg83
g309
sg76
(lp321
S':'
asbag69
(g90
g71
NtRp322
(dp323
g74
(dp324
sg83
g309
sg76
(lp325
g69
(g70
g71
NtRp326
(dp327
g74
(dp328
g82
I3
ssg83
g322
sg76
(lp329
S''
asbasbasbag69
(g85
g71
NtRp330
(dp331
g74
(dp332
sg83
g284
sg76
(lp333
g69
(g90
g71
NtRp334
(dp335
g74
(dp336
g94
g95
ssg83
g330
sg76
(lp337
S'expires'
p338
asbag69
(g90
g71
NtRp339
(dp340
g74
(dp341
g101
g102
ssg83
g330
sg76
(lp342
S':'
asbag69
(g90
g71
NtRp343
(dp344
g74
(dp345
sg83
g330
sg76
(lp346
g69
(g70
g71
NtRp347
(dp348
g74
(dp349
g82
I3
ssg83
g343
sg76
(lp350
S''
asbasbasbag69
(g85
g71
NtRp351
(dp352
g74
(dp353
sg83
g284
sg76
(lp354
g69
(g90
g71
NtRp355
(dp356
g74
(dp357
g94
g95
ssg83
g351
sg76
(lp358
S'httponly'
p359
asbag69
(g90
g71
NtRp360
(dp361
g74
(dp362
g101
g102
ssg83
g351
sg76
(lp363
S':'
asbag69
(g90
g71
NtRp364
(dp365
g74
(dp366
sg83
g351
sg76
(lp367
g69
(g70
g71
NtRp368
(dp369
g74
(dp370
g82
I3
ssg83
g364
sg76
(lp371
S''
asbasbasbag69
(g85
g71
NtRp372
(dp373
g74
(dp374
sg83
g284
sg76
(lp375
g69
(g90
g71
NtRp376
(dp377
g74
(dp378
g94
g95
ssg83
g372
sg76
(lp379
S'max-age'
p380
asbag69
(g90
g71
NtRp381
(dp382
g74
(dp383
g101
g102
ssg83
g372
sg76
(lp384
S':'
asbag69
(g90
g71
NtRp385
(dp386
g74
(dp387
sg83
g372
sg76
(lp388
g69
(g70
g71
NtRp389
(dp390
g74
(dp391
g82
I3
ssg83
g385
sg76
(lp392
S''
asbasbasbag69
(g85
g71
NtRp393
(dp394
g74
(dp395
sg83
g284
sg76
(lp396
g69
(g90
g71
NtRp397
(dp398
g74
(dp399
g94
g95
ssg83
g393
sg76
(lp400
S'path'
p401
asbag69
(g90
g71
NtRp402
(dp403
g74
(dp404
g101
g102
ssg83
g393
sg76
(lp405
S':'
asbag69
(g90
g71
NtRp406
(dp407
g74
(dp408
sg83
g393
sg76
(lp409
g69
(g70
g71
NtRp410
(dp411
g74
(dp412
g82
I3
ssg83
g406
sg76
(lp413
S''
asbasbasbag69
(g85
g71
NtRp414
(dp415
g74
(dp416
sg83
g284
sg76
(lp417
g69
(g90
g71
NtRp418
(dp419
g74
(dp420
g94
g95
ssg83
g414
sg76
(lp421
S'secure'
p422
asbag69
(g90
g71
NtRp423
(dp424
g74
(dp425
g101
g102
ssg83
g414
sg76
(lp426
S':'
asbag69
(g90
g71
NtRp427
(dp428
g74
(dp429
sg83
g414
sg76
(lp430
g69
(g70
g71
NtRp431
(dp432
g74
(dp433
g82
I3
ssg83
g427
sg76
(lp434
S''
asbasbasbag69
(g85
g71
NtRp435
(dp436
g74
(dp437
sg83
g284
sg76
(lp438
g69
(g90
g71
NtRp439
(dp440
g74
(dp441
g94
g95
ssg83
g435
sg76
(lp442
S'version'
p443
asbag69
(g90
g71
NtRp444
(dp445
g74
(dp446
g101
g102
ssg83
g435
sg76
(lp447
S':'
asbag69
(g90
g71
NtRp448
(dp449
g74
(dp450
sg83
g435
sg76
(lp451
g69
(g70
g71
NtRp452
(dp453
g74
(dp454
g82
I3
ssg83
g448
sg76
(lp455
S''
asbasbasbasbasbasbasbag69
(g85
g71
NtRp456
(dp457
g74
(dp458
sg83
g259
sg76
(lp459
g69
(g90
g71
NtRp460
(dp461
g74
(dp462
g94
g95
ssg83
g456
sg76
(lp463
S'session_id_welcome'
p464
asbag69
(g90
g71
NtRp465
(dp466
g74
(dp467
g101
g102
ssg83
g456
sg76
(lp468
S':'
asbag69
(g90
g71
NtRp469
(dp470
g74
(dp471
sg83
g456
sg76
(lp472
g69
(g70
g71
NtRp473
(dp474
g74
(dp475
g82
I4
ssg83
g469
sg76
(lp476
g69
(g78
g71
NtRp477
(dp478
g74
(dp479
g82
I3
ssg83
Nsg76
(lp480
g69
(g85
g71
NtRp481
(dp482
g74
(dp483
sg83
g477
sg76
(lp484
g69
(g90
g71
NtRp485
(dp486
g74
(dp487
g94
g95
ssg83
g481
sg76
(lp488
g296
asbag69
(g90
g71
NtRp489
(dp490
g74
(dp491
g101
g102
ssg83
g481
sg76
(lp492
S':'
asbag69
(g90
g71
NtRp493
(dp494
g74
(dp495
sg83
g481
sg76
(lp496
g69
(g70
g71
NtRp497
(dp498
g74
(dp499
g82
I3
ssg83
g493
sg76
(lp500
S''
asbasbasbag69
(g85
g71
NtRp501
(dp502
g74
(dp503
sg83
g477
sg76
(lp504
g69
(g90
g71
NtRp505
(dp506
g74
(dp507
g94
g95
ssg83
g501
sg76
(lp508
g317
asbag69
(g90
g71
NtRp509
(dp510
g74
(dp511
g101
g102
ssg83
g501
sg76
(lp512
S':'
asbag69
(g90
g71
NtRp513
(dp514
g74
(dp515
sg83
g501
sg76
(lp516
g69
(g70
g71
NtRp517
(dp518
g74
(dp519
g82
I3
ssg83
g513
sg76
(lp520
S''
asbasbasbag69
(g85
g71
NtRp521
(dp522
g74
(dp523
sg83
g477
sg76
(lp524
g69
(g90
g71
NtRp525
(dp526
g74
(dp527
g94
g95
ssg83
g521
sg76
(lp528
g338
asbag69
(g90
g71
NtRp529
(dp530
g74
(dp531
g101
g102
ssg83
g521
sg76
(lp532
S':'
asbag69
(g90
g71
NtRp533
(dp534
g74
(dp535
sg83
g521
sg76
(lp536
g69
(g70
g71
NtRp537
(dp538
g74
(dp539
g82
I3
ssg83
g533
sg76
(lp540
S''
asbasbasbag69
(g85
g71
NtRp541
(dp542
g74
(dp543
sg83
g477
sg76
(lp544
g69
(g90
g71
NtRp545
(dp546
g74
(dp547
g94
g95
ssg83
g541
sg76
(lp548
g359
asbag69
(g90
g71
NtRp549
(dp550
g74
(dp551
g101
g102
ssg83
g541
sg76
(lp552
S':'
asbag69
(g90
g71
NtRp553
(dp554
g74
(dp555
sg83
g541
sg76
(lp556
g69
(g70
g71
NtRp557
(dp558
g74
(dp559
g82
I3
ssg83
g553
sg76
(lp560
S''
asbasbasbag69
(g85
g71
NtRp561
(dp562
g74
(dp563
sg83
g477
sg76
(lp564
g69
(g90
g71
NtRp565
(dp566
g74
(dp567
g94
g95
ssg83
g561
sg76
(lp568
g380
asbag69
(g90
g71
NtRp569
(dp570
g74
(dp571
g101
g102
ssg83
g561
sg76
(lp572
S':'
asbag69
(g90
g71
NtRp573
(dp574
g74
(dp575
sg83
g561
sg76
(lp576
g69
(g70
g71
NtRp577
(dp578
g74
(dp579
g82
I3
ssg83
g573
sg76
(lp580
S''
asbasbasbag69
(g85
g71
NtRp581
(dp582
g74
(dp583
sg83
g477
sg76
(lp584
g69
(g90
g71
NtRp585
(dp586
g74
(dp587
g94
g95
ssg83
g581
sg76
(lp588
g401
asbag69
(g90
g71
NtRp589
(dp590
g74
(dp591
g101
g102
ssg83
g581
sg76
(lp592
S':'
asbag69
(g90
g71
NtRp593
(dp594
g74
(dp595
sg83
g581
sg76
(lp596
g69
(g70
g71
NtRp597
(dp598
g74
(dp599
g82
I3
ssg83
g593
sg76
(lp600
S''
asbasbasbag69
(g85
g71
NtRp601
(dp602
g74
(dp603
sg83
g477
sg76
(lp604
g69
(g90
g71
NtRp605
(dp606
g74
(dp607
g94
g95
ssg83
g601
sg76
(lp608
g422
asbag69
(g90
g71
NtRp609
(dp610
g74
(dp611
g101
g102
ssg83
g601
sg76
(lp612
S':'
asbag69
(g90
g71
NtRp613
(dp614
g74
(dp615
sg83
g601
sg76
(lp616
g69
(g70
g71
NtRp617
(dp618
g74
(dp619
g82
I3
ssg83
g613
sg76
(lp620
S''
asbasbasbag69
(g85
g71
NtRp621
(dp622
g74
(dp623
sg83
g477
sg76
(lp624
g69
(g90
g71
NtRp625
(dp626
g74
(dp627
g94
g95
ssg83
g621
sg76
(lp628
g443
asbag69
(g90
g71
NtRp629
(dp630
g74
(dp631
g101
g102
ssg83
g621
sg76
(lp632
S':'
asbag69
(g90
g71
NtRp633
(dp634
g74
(dp635
sg83
g621
sg76
(lp636
g69
(g70
g71
NtRp637
(dp638
g74
(dp639
g82
I3
ssg83
g633
sg76
(lp640
S''
asbasbasbasbasbasbasbasbasbasbasbag69
(g85
g71
NtRp641
(dp642
g74
(dp643
sg83
g79
sg76
(lp644
g69
(g90
g71
NtRp645
(dp646
g74
(dp647
g94
g95
ssg83
g641
sg76
(lp648
S'env'
p649
asbag69
(g90
g71
NtRp650
(dp651
g74
(dp652
g101
g102
ssg83
g641
sg76
(lp653
S':'
asbag69
(g90
g71
NtRp654
(dp655
g74
(dp656
sg83
g641
sg76
(lp657
g69
(g70
g71
NtRp658
(dp659
g74
(dp660
g82
I5
ssg83
g654
sg76
(lp661
g69
(g78
g71
NtRp662
(dp663
g74
(dp664
g82
I4
ssg83
Nsg76
(lp665
g69
(g85
g71
NtRp666
(dp667
g74
(dp668
sg83
g662
sg76
(lp669
g69
(g90
g71
NtRp670
(dp671
g74
(dp672
g94
g95
ssg83
g666
sg76
(lp673
S'app_folders'
p674
asbag69
(g90
g71
NtRp675
(dp676
g74
(dp677
g101
g102
ssg83
g666
sg76
(lp678
S':'
asbag69
(g90
g71
NtRp679
(dp680
g74
(dp681
sg83
g666
sg76
(lp682
g69
(g70
g71
NtRp683
(dp684
g74
(dp685
g82
I4
ssg83
g679
sg76
(lp686
S"set(['/home/enigma/web2py/applications/911_signin/', '/home/enigma/web2py/applications/welcome/'])"
p687
asbasbasbag69
(g85
g71
NtRp688
(dp689
g74
(dp690
sg83
g662
sg76
(lp691
g69
(g90
g71
NtRp692
(dp693
g74
(dp694
g94
g95
ssg83
g688
sg76
(lp695
S'applications_parent'
p696
asbag69
(g90
g71
NtRp697
(dp698
g74
(dp699
g101
g102
ssg83
g688
sg76
(lp700
S':'
asbag69
(g90
g71
NtRp701
(dp702
g74
(dp703
sg83
g688
sg76
(lp704
g69
(g70
g71
NtRp705
(dp706
g74
(dp707
g82
I4
ssg83
g701
sg76
(lp708
S'/home/enigma/web2py'
p709
asbasbasbag69
(g85
g71
NtRp710
(dp711
g74
(dp712
sg83
g662
sg76
(lp713
g69
(g90
g71
NtRp714
(dp715
g74
(dp716
g94
g95
ssg83
g710
sg76
(lp717
S'cmd_args'
p718
asbag69
(g90
g71
NtRp719
(dp720
g74
(dp721
g101
g102
ssg83
g710
sg76
(lp722
S':'
asbag69
(g90
g71
NtRp723
(dp724
g74
(dp725
sg83
g710
sg76
(lp726
g69
(g70
g71
NtRp727
(dp728
g74
(dp729
g82
I4
ssg83
g723
sg76
(lp730
g69
(g78
g71
NtRp731
(dp732
g74
(dp733
g82
I3
ssg83
Nsg76
(lp734
sbasbasbasbag69
(g85
g71
NtRp735
(dp736
g74
(dp737
sg83
g662
sg76
(lp738
g69
(g90
g71
NtRp739
(dp740
g74
(dp741
g94
g95
ssg83
g735
sg76
(lp742
S'cmd_options'
p743
asbag69
(g90
g71
NtRp744
(dp745
g74
(dp746
g101
g102
ssg83
g735
sg76
(lp747
S':'
asbag69
(g90
g71
NtRp748
(dp749
g74
(dp750
sg83
g735
sg76
(lp751
g69
(g70
g71
NtRp752
(dp753
g74
(dp754
g82
I4
ssg83
g748
sg76
(lp755
S"<Values at 0xa624bec: {'verbose': False, 'ip': '127.0.0.1', 'shutdown_timeout': 5, 'taskbar': False, 'nocron': False, 'pid_filename': 'httpserver.pid', 'maxthreads': None, 'softcron': False, 'server_name': 'ubuntu', 'bpython': False, 'nogui': False, 'port': 8000, 'extcron': False, 'debuglevel': 30, 'test': None, 'folder': '/home/enigma/web2py', 'config': '', 'import_models': False, 'winservice': '', 'shell': None, 'run': '', 'log_filename': 'httpserver.log', 'args': [''], 'socket_timeout': 5, 'ssl_ca_certificate': None, 'scheduler': None, 'profiler_filename': None, 'ssl_private_key': '', 'password': '<ask>', 'request_queue_size': 5, 'ssl_certificate': '', 'cronjob': False, 'numthreads': None, 'quiet': False, 'interfaces': None, 'minthreads': None, 'timeout': 10, 'plain': False, 'nobanner': False}>"
p756
asbasbasbag69
(g85
g71
NtRp757
(dp758
g74
(dp759
sg83
g662
sg76
(lp760
g69
(g90
g71
NtRp761
(dp762
g74
(dp763
g94
g95
ssg83
g757
sg76
(lp764
S'content_length'
p765
asbag69
(g90
g71
NtRp766
(dp767
g74
(dp768
g101
g102
ssg83
g757
sg76
(lp769
S':'
asbag69
(g90
g71
NtRp770
(dp771
g74
(dp772
sg83
g757
sg76
(lp773
g69
(g70
g71
NtRp774
(dp775
g74
(dp776
g82
I4
ssg83
g770
sg76
(lp777
S'514'
p778
asbasbasbag69
(g85
g71
NtRp779
(dp780
g74
(dp781
sg83
g662
sg76
(lp782
g69
(g90
g71
NtRp783
(dp784
g74
(dp785
g94
g95
ssg83
g779
sg76
(lp786
S'content_type'
p787
asbag69
(g90
g71
NtRp788
(dp789
g74
(dp790
g101
g102
ssg83
g779
sg76
(lp791
S':'
asbag69
(g90
g71
NtRp792
(dp793
g74
(dp794
sg83
g779
sg76
(lp795
g69
(g70
g71
NtRp796
(dp797
g74
(dp798
g82
I4
ssg83
g792
sg76
(lp799
S'multipart/form-data; boundary=----WebKitFormBoundaryLbxiozFDyIYPvF2h'
p800
asbasbasbag69
(g85
g71
NtRp801
(dp802
g74
(dp803
sg83
g662
sg76
(lp804
g69
(g90
g71
NtRp805
(dp806
g74
(dp807
g94
g95
ssg83
g801
sg76
(lp808
S'db_sessions'
p809
asbag69
(g90
g71
NtRp810
(dp811
g74
(dp812
g101
g102
ssg83
g801
sg76
(lp813
S':'
asbag69
(g90
g71
NtRp814
(dp815
g74
(dp816
sg83
g801
sg76
(lp817
g69
(g70
g71
NtRp818
(dp819
g74
(dp820
g82
I4
ssg83
g814
sg76
(lp821
S'set([])'
p822
asbasbasbag69
(g85
g71
NtRp823
(dp824
g74
(dp825
sg83
g662
sg76
(lp826
g69
(g90
g71
NtRp827
(dp828
g74
(dp829
g94
g95
ssg83
g823
sg76
(lp830
S'debugging'
p831
asbag69
(g90
g71
NtRp832
(dp833
g74
(dp834
g101
g102
ssg83
g823
sg76
(lp835
S':'
asbag69
(g90
g71
NtRp836
(dp837
g74
(dp838
sg83
g823
sg76
(lp839
g69
(g70
g71
NtRp840
(dp841
g74
(dp842
g82
I4
ssg83
g836
sg76
(lp843
g112
asbasbasbag69
(g85
g71
NtRp844
(dp845
g74
(dp846
sg83
g662
sg76
(lp847
g69
(g90
g71
NtRp848
(dp849
g74
(dp850
g94
g95
ssg83
g844
sg76
(lp851
S'gluon_parent'
p852
asbag69
(g90
g71
NtRp853
(dp854
g74
(dp855
g101
g102
ssg83
g844
sg76
(lp856
S':'
asbag69
(g90
g71
NtRp857
(dp858
g74
(dp859
sg83
g844
sg76
(lp860
g69
(g70
g71
NtRp861
(dp862
g74
(dp863
g82
I4
ssg83
g857
sg76
(lp864
S'/home/enigma/web2py'
p865
asbasbasbag69
(g85
g71
NtRp866
(dp867
g74
(dp868
sg83
g662
sg76
(lp869
g69
(g90
g71
NtRp870
(dp871
g74
(dp872
g94
g95
ssg83
g866
sg76
(lp873
S'http_accept'
p874
asbag69
(g90
g71
NtRp875
(dp876
g74
(dp877
g101
g102
ssg83
g866
sg76
(lp878
S':'
asbag69
(g90
g71
NtRp879
(dp880
g74
(dp881
sg83
g866
sg76
(lp882
g69
(g70
g71
NtRp883
(dp884
g74
(dp885
g82
I4
ssg83
g879
sg76
(lp886
S'text/html,application/xhtml+xml,application/xml;q=0.9,*/*;q=0.8'
p887
asbasbasbag69
(g85
g71
NtRp888
(dp889
g74
(dp890
sg83
g662
sg76
(lp891
g69
(g90
g71
NtRp892
(dp893
g74
(dp894
g94
g95
ssg83
g888
sg76
(lp895
S'http_accept_charset'
p896
asbag69
(g90
g71
NtRp897
(dp898
g74
(dp899
g101
g102
ssg83
g888
sg76
(lp900
S':'
asbag69
(g90
g71
NtRp901
(dp902
g74
(dp903
sg83
g888
sg76
(lp904
g69
(g70
g71
NtRp905
(dp906
g74
(dp907
g82
I4
ssg83
g901
sg76
(lp908
S'ISO-8859-1,utf-8;q=0.7,*;q=0.3'
p909
asbasbasbag69
(g85
g71
NtRp910
(dp911
g74
(dp912
sg83
g662
sg76
(lp913
g69
(g90
g71
NtRp914
(dp915
g74
(dp916
g94
g95
ssg83
g910
sg76
(lp917
S'http_accept_encoding'
p918
asbag69
(g90
g71
NtRp919
(dp920
g74
(dp921
g101
g102
ssg83
g910
sg76
(lp922
S':'
asbag69
(g90
g71
NtRp923
(dp924
g74
(dp925
sg83
g910
sg76
(lp926
g69
(g70
g71
NtRp927
(dp928
g74
(dp929
g82
I4
ssg83
g923
sg76
(lp930
S'gzip,deflate,sdch'
p931
asbasbasbag69
(g85
g71
NtRp932
(dp933
g74
(dp934
sg83
g662
sg76
(lp935
g69
(g90
g71
NtRp936
(dp937
g74
(dp938
g94
g95
ssg83
g932
sg76
(lp939
S'http_accept_language'
p940
asbag69
(g90
g71
NtRp941
(dp942
g74
(dp943
g101
g102
ssg83
g932
sg76
(lp944
S':'
asbag69
(g90
g71
NtRp945
(dp946
g74
(dp947
sg83
g932
sg76
(lp948
g69
(g70
g71
NtRp949
(dp950
g74
(dp951
g82
I4
ssg83
g945
sg76
(lp952
S'en-US,en;q=0.8'
p953
asbasbasbag69
(g85
g71
NtRp954
(dp955
g74
(dp956
sg83
g662
sg76
(lp957
g69
(g90
g71
NtRp958
(dp959
g74
(dp960
g94
g95
ssg83
g954
sg76
(lp961
S'http_cache_control'
p962
asbag69
(g90
g71
NtRp963
(dp964
g74
(dp965
g101
g102
ssg83
g954
sg76
(lp966
S':'
asbag69
(g90
g71
NtRp967
(dp968
g74
(dp969
sg83
g954
sg76
(lp970
g69
(g70
g71
NtRp971
(dp972
g74
(dp973
g82
I4
ssg83
g967
sg76
(lp974
S'max-age=0'
p975
asbasbasbag69
(g85
g71
NtRp976
(dp977
g74
(dp978
sg83
g662
sg76
(lp979
g69
(g90
g71
NtRp980
(dp981
g74
(dp982
g94
g95
ssg83
g976
sg76
(lp983
S'http_connection'
p984
asbag69
(g90
g71
NtRp985
(dp986
g74
(dp987
g101
g102
ssg83
g976
sg76
(lp988
S':'
asbag69
(g90
g71
NtRp989
(dp990
g74
(dp991
sg83
g976
sg76
(lp992
g69
(g70
g71
NtRp993
(dp994
g74
(dp995
g82
I4
ssg83
g989
sg76
(lp996
S'keep-alive'
p997
asbasbasbag69
(g85
g71
NtRp998
(dp999
g74
(dp1000
sg83
g662
sg76
(lp1001
g69
(g90
g71
NtRp1002
(dp1003
g74
(dp1004
g94
g95
ssg83
g998
sg76
(lp1005
S'http_content_length'
p1006
asbag69
(g90
g71
NtRp1007
(dp1008
g74
(dp1009
g101
g102
ssg83
g998
sg76
(lp1010
S':'
asbag69
(g90
g71
NtRp1011
(dp1012
g74
(dp1013
sg83
g998
sg76
(lp1014
g69
(g70
g71
NtRp1015
(dp1016
g74
(dp1017
g82
I4
ssg83
g1011
sg76
(lp1018
g778
asbasbasbag69
(g85
g71
NtRp1019
(dp1020
g74
(dp1021
sg83
g662
sg76
(lp1022
g69
(g90
g71
NtRp1023
(dp1024
g74
(dp1025
g94
g95
ssg83
g1019
sg76
(lp1026
S'http_content_type'
p1027
asbag69
(g90
g71
NtRp1028
(dp1029
g74
(dp1030
g101
g102
ssg83
g1019
sg76
(lp1031
S':'
asbag69
(g90
g71
NtRp1032
(dp1033
g74
(dp1034
sg83
g1019
sg76
(lp1035
g69
(g70
g71
NtRp1036
(dp1037
g74
(dp1038
g82
I4
ssg83
g1032
sg76
(lp1039
g800
asbasbasbag69
(g85
g71
NtRp1040
(dp1041
g74
(dp1042
sg83
g662
sg76
(lp1043
g69
(g90
g71
NtRp1044
(dp1045
g74
(dp1046
g94
g95
ssg83
g1040
sg76
(lp1047
S'http_cookie'
p1048
asbag69
(g90
g71
NtRp1049
(dp1050
g74
(dp1051
g101
g102
ssg83
g1040
sg76
(lp1052
S':'
asbag69
(g90
g71
NtRp1053
(dp1054
g74
(dp1055
sg83
g1040
sg76
(lp1056
g69
(g70
g71
NtRp1057
(dp1058
g74
(dp1059
g82
I4
ssg83
g1053
sg76
(lp1060
S'session_id_welcome=127.0.0.1-6ee71c10-fc05-4b8c-a34c-d8ac140167f1; session_id_911_signin=127.0.0.1-7de8cf1c-fb47-4fb9-b232-ca1b0a317dba'
p1061
asbasbasbag69
(g85
g71
NtRp1062
(dp1063
g74
(dp1064
sg83
g662
sg76
(lp1065
g69
(g90
g71
NtRp1066
(dp1067
g74
(dp1068
g94
g95
ssg83
g1062
sg76
(lp1069
S'http_host'
p1070
asbag69
(g90
g71
NtRp1071
(dp1072
g74
(dp1073
g101
g102
ssg83
g1062
sg76
(lp1074
S':'
asbag69
(g90
g71
NtRp1075
(dp1076
g74
(dp1077
sg83
g1062
sg76
(lp1078
g69
(g70
g71
NtRp1079
(dp1080
g74
(dp1081
g82
I4
ssg83
g1075
sg76
(lp1082
S'127.0.0.1:8000'
p1083
asbasbasbag69
(g85
g71
NtRp1084
(dp1085
g74
(dp1086
sg83
g662
sg76
(lp1087
g69
(g90
g71
NtRp1088
(dp1089
g74
(dp1090
g94
g95
ssg83
g1084
sg76
(lp1091
S'http_origin'
p1092
asbag69
(g90
g71
NtRp1093
(dp1094
g74
(dp1095
g101
g102
ssg83
g1084
sg76
(lp1096
S':'
asbag69
(g90
g71
NtRp1097
(dp1098
g74
(dp1099
sg83
g1084
sg76
(lp1100
g69
(g70
g71
NtRp1101
(dp1102
g74
(dp1103
g82
I4
ssg83
g1097
sg76
(lp1104
S'http://127.0.0.1:8000'
p1105
asbasbasbag69
(g85
g71
NtRp1106
(dp1107
g74
(dp1108
sg83
g662
sg76
(lp1109
g69
(g90
g71
NtRp1110
(dp1111
g74
(dp1112
g94
g95
ssg83
g1106
sg76
(lp1113
S'http_referer'
p1114
asbag69
(g90
g71
NtRp1115
(dp1116
g74
(dp1117
g101
g102
ssg83
g1106
sg76
(lp1118
S':'
asbag69
(g90
g71
NtRp1119
(dp1120
g74
(dp1121
sg83
g1106
sg76
(lp1122
g69
(g70
g71
NtRp1123
(dp1124
g74
(dp1125
g82
I4
ssg83
g1119
sg76
(lp1126
S'http://127.0.0.1:8000/911_signin/default/user/request_reset_password?_next=/911_signin/default/index'
p1127
asbasbasbag69
(g85
g71
NtRp1128
(dp1129
g74
(dp1130
sg83
g662
sg76
(lp1131
g69
(g90
g71
NtRp1132
(dp1133
g74
(dp1134
g94
g95
ssg83
g1128
sg76
(lp1135
S'http_user_agent'
p1136
asbag69
(g90
g71
NtRp1137
(dp1138
g74
(dp1139
g101
g102
ssg83
g1128
sg76
(lp1140
S':'
asbag69
(g90
g71
NtRp1141
(dp1142
g74
(dp1143
sg83
g1128
sg76
(lp1144
g69
(g70
g71
NtRp1145
(dp1146
g74
(dp1147
g82
I4
ssg83
g1141
sg76
(lp1148
S'Mozilla/5.0 (X11; Linux i686) AppleWebKit/537.31 (KHTML, like Gecko) Chrome/26.0.1410.63 Safari/537.31'
p1149
asbasbasbag69
(g85
g71
NtRp1150
(dp1151
g74
(dp1152
sg83
g662
sg76
(lp1153
g69
(g90
g71
NtRp1154
(dp1155
g74
(dp1156
g94
g95
ssg83
g1150
sg76
(lp1157
S'is_jython'
p1158
asbag69
(g90
g71
NtRp1159
(dp1160
g74
(dp1161
g101
g102
ssg83
g1150
sg76
(lp1162
S':'
asbag69
(g90
g71
NtRp1163
(dp1164
g74
(dp1165
sg83
g1150
sg76
(lp1166
g69
(g70
g71
NtRp1167
(dp1168
g74
(dp1169
g82
I4
ssg83
g1163
sg76
(lp1170
g112
asbasbasbag69
(g85
g71
NtRp1171
(dp1172
g74
(dp1173
sg83
g662
sg76
(lp1174
g69
(g90
g71
NtRp1175
(dp1176
g74
(dp1177
g94
g95
ssg83
g1171
sg76
(lp1178
S'is_pypy'
p1179
asbag69
(g90
g71
NtRp1180
(dp1181
g74
(dp1182
g101
g102
ssg83
g1171
sg76
(lp1183
S':'
asbag69
(g90
g71
NtRp1184
(dp1185
g74
(dp1186
sg83
g1171
sg76
(lp1187
g69
(g70
g71
NtRp1188
(dp1189
g74
(dp1190
g82
I4
ssg83
g1184
sg76
(lp1191
g112
asbasbasbag69
(g85
g71
NtRp1192
(dp1193
g74
(dp1194
sg83
g662
sg76
(lp1195
g69
(g90
g71
NtRp1196
(dp1197
g74
(dp1198
g94
g95
ssg83
g1192
sg76
(lp1199
S'path_info'
p1200
asbag69
(g90
g71
NtRp1201
(dp1202
g74
(dp1203
g101
g102
ssg83
g1192
sg76
(lp1204
S':'
asbag69
(g90
g71
NtRp1205
(dp1206
g74
(dp1207
sg83
g1192
sg76
(lp1208
g69
(g70
g71
NtRp1209
(dp1210
g74
(dp1211
g82
I4
ssg83
g1205
sg76
(lp1212
S'/911_signin/default/user/request_reset_password'
p1213
asbasbasbag69
(g85
g71
NtRp1214
(dp1215
g74
(dp1216
sg83
g662
sg76
(lp1217
g69
(g90
g71
NtRp1218
(dp1219
g74
(dp1220
g94
g95
ssg83
g1214
sg76
(lp1221
S'query_string'
p1222
asbag69
(g90
g71
NtRp1223
(dp1224
g74
(dp1225
g101
g102
ssg83
g1214
sg76
(lp1226
S':'
asbag69
(g90
g71
NtRp1227
(dp1228
g74
(dp1229
sg83
g1214
sg76
(lp1230
g69
(g70
g71
NtRp1231
(dp1232
g74
(dp1233
g82
I4
ssg83
g1227
sg76
(lp1234
S'_next=/911_signin/default/index'
p1235
asbasbasbag69
(g85
g71
NtRp1236
(dp1237
g74
(dp1238
sg83
g662
sg76
(lp1239
g69
(g90
g71
NtRp1240
(dp1241
g74
(dp1242
g94
g95
ssg83
g1236
sg76
(lp1243
S'remote_addr'
p1244
asbag69
(g90
g71
NtRp1245
(dp1246
g74
(dp1247
g101
g102
ssg83
g1236
sg76
(lp1248
S':'
asbag69
(g90
g71
NtRp1249
(dp1250
g74
(dp1251
sg83
g1236
sg76
(lp1252
g69
(g70
g71
NtRp1253
(dp1254
g74
(dp1255
g82
I4
ssg83
g1249
sg76
(lp1256
g215
asbasbasbag69
(g85
g71
NtRp1257
(dp1258
g74
(dp1259
sg83
g662
sg76
(lp1260
g69
(g90
g71
NtRp1261
(dp1262
g74
(dp1263
g94
g95
ssg83
g1257
sg76
(lp1264
S'remote_port'
p1265
asbag69
(g90
g71
NtRp1266
(dp1267
g74
(dp1268
g101
g102
ssg83
g1257
sg76
(lp1269
S':'
asbag69
(g90
g71
NtRp1270
(dp1271
g74
(dp1272
sg83
g1257
sg76
(lp1273
g69
(g70
g71
NtRp1274
(dp1275
g74
(dp1276
g82
I4
ssg83
g1270
sg76
(lp1277
S'50059'
p1278
asbasbasbag69
(g85
g71
NtRp1279
(dp1280
g74
(dp1281
sg83
g662
sg76
(lp1282
g69
(g90
g71
NtRp1283
(dp1284
g74
(dp1285
g94
g95
ssg83
g1279
sg76
(lp1286
S'request_method'
p1287
asbag69
(g90
g71
NtRp1288
(dp1289
g74
(dp1290
g101
g102
ssg83
g1279
sg76
(lp1291
S':'
asbag69
(g90
g71
NtRp1292
(dp1293
g74
(dp1294
sg83
g1279
sg76
(lp1295
g69
(g70
g71
NtRp1296
(dp1297
g74
(dp1298
g82
I4
ssg83
g1292
sg76
(lp1299
S'POST'
p1300
asbasbasbag69
(g85
g71
NtRp1301
(dp1302
g74
(dp1303
sg83
g662
sg76
(lp1304
g69
(g90
g71
NtRp1305
(dp1306
g74
(dp1307
g94
g95
ssg83
g1301
sg76
(lp1308
S'script_name'
p1309
asbag69
(g90
g71
NtRp1310
(dp1311
g74
(dp1312
g101
g102
ssg83
g1301
sg76
(lp1313
S':'
asbag69
(g90
g71
NtRp1314
(dp1315
g74
(dp1316
sg83
g1301
sg76
(lp1317
g69
(g70
g71
NtRp1318
(dp1319
g74
(dp1320
g82
I4
ssg83
g1314
sg76
(lp1321
S''
asbasbasbag69
(g85
g71
NtRp1322
(dp1323
g74
(dp1324
sg83
g662
sg76
(lp1325
g69
(g90
g71
NtRp1326
(dp1327
g74
(dp1328
g94
g95
ssg83
g1322
sg76
(lp1329
S'server_name'
p1330
asbag69
(g90
g71
NtRp1331
(dp1332
g74
(dp1333
g101
g102
ssg83
g1322
sg76
(lp1334
S':'
asbag69
(g90
g71
NtRp1335
(dp1336
g74
(dp1337
sg83
g1322
sg76
(lp1338
g69
(g70
g71
NtRp1339
(dp1340
g74
(dp1341
g82
I4
ssg83
g1335
sg76
(lp1342
S'ubuntu'
p1343
asbasbasbag69
(g85
g71
NtRp1344
(dp1345
g74
(dp1346
sg83
g662
sg76
(lp1347
g69
(g90
g71
NtRp1348
(dp1349
g74
(dp1350
g94
g95
ssg83
g1344
sg76
(lp1351
S'server_port'
p1352
asbag69
(g90
g71
NtRp1353
(dp1354
g74
(dp1355
g101
g102
ssg83
g1344
sg76
(lp1356
S':'
asbag69
(g90
g71
NtRp1357
(dp1358
g74
(dp1359
sg83
g1344
sg76
(lp1360
g69
(g70
g71
NtRp1361
(dp1362
g74
(dp1363
g82
I4
ssg83
g1357
sg76
(lp1364
S'8000'
p1365
asbasbasbag69
(g85
g71
NtRp1366
(dp1367
g74
(dp1368
sg83
g662
sg76
(lp1369
g69
(g90
g71
NtRp1370
(dp1371
g74
(dp1372
g94
g95
ssg83
g1366
sg76
(lp1373
S'server_protocol'
p1374
asbag69
(g90
g71
NtRp1375
(dp1376
g74
(dp1377
g101
g102
ssg83
g1366
sg76
(lp1378
S':'
asbag69
(g90
g71
NtRp1379
(dp1380
g74
(dp1381
sg83
g1366
sg76
(lp1382
g69
(g70
g71
NtRp1383
(dp1384
g74
(dp1385
g82
I4
ssg83
g1379
sg76
(lp1386
S'HTTP/1.1'
p1387
asbasbasbag69
(g85
g71
NtRp1388
(dp1389
g74
(dp1390
sg83
g662
sg76
(lp1391
g69
(g90
g71
NtRp1392
(dp1393
g74
(dp1394
g94
g95
ssg83
g1388
sg76
(lp1395
S'server_software'
p1396
asbag69
(g90
g71
NtRp1397
(dp1398
g74
(dp1399
g101
g102
ssg83
g1388
sg76
(lp1400
S':'
asbag69
(g90
g71
NtRp1401
(dp1402
g74
(dp1403
sg83
g1388
sg76
(lp1404
g69
(g70
g71
NtRp1405
(dp1406
g74
(dp1407
g82
I4
ssg83
g1401
sg76
(lp1408
S'Rocket 1.2.4'
p1409
asbasbasbag69
(g85
g71
NtRp1410
(dp1411
g74
(dp1412
sg83
g662
sg76
(lp1413
g69
(g90
g71
NtRp1414
(dp1415
g74
(dp1416
g94
g95
ssg83
g1410
sg76
(lp1417
S'web2py_crontype'
p1418
asbag69
(g90
g71
NtRp1419
(dp1420
g74
(dp1421
g101
g102
ssg83
g1410
sg76
(lp1422
S':'
asbag69
(g90
g71
NtRp1423
(dp1424
g74
(dp1425
sg83
g1410
sg76
(lp1426
g69
(g70
g71
NtRp1427
(dp1428
g74
(dp1429
g82
I4
ssg83
g1423
sg76
(lp1430
S'hard'
p1431
asbasbasbag69
(g85
g71
NtRp1432
(dp1433
g74
(dp1434
sg83
g662
sg76
(lp1435
g69
(g90
g71
NtRp1436
(dp1437
g74
(dp1438
g94
g95
ssg83
g1432
sg76
(lp1439
S'web2py_path'
p1440
asbag69
(g90
g71
NtRp1441
(dp1442
g74
(dp1443
g101
g102
ssg83
g1432
sg76
(lp1444
S':'
asbag69
(g90
g71
NtRp1445
(dp1446
g74
(dp1447
sg83
g1432
sg76
(lp1448
g69
(g70
g71
NtRp1449
(dp1450
g74
(dp1451
g82
I4
ssg83
g1445
sg76
(lp1452
g709
asbasbasbag69
(g85
g71
NtRp1453
(dp1454
g74
(dp1455
sg83
g662
sg76
(lp1456
g69
(g90
g71
NtRp1457
(dp1458
g74
(dp1459
g94
g95
ssg83
g1453
sg76
(lp1460
S'web2py_version'
p1461
asbag69
(g90
g71
NtRp1462
(dp1463
g74
(dp1464
g101
g102
ssg83
g1453
sg76
(lp1465
S':'
asbag69
(g90
g71
NtRp1466
(dp1467
g74
(dp1468
sg83
g1453
sg76
(lp1469
g69
(g70
g71
NtRp1470
(dp1471
g74
(dp1472
g82
I4
ssg83
g1466
sg76
(lp1473
g69
(g78
g71
NtRp1474
(dp1475
g74
(dp1476
g82
I3
ssg83
Nsg76
(lp1477
g69
(g85
g71
NtRp1478
(dp1479
g74
(dp1480
sg83
g1474
sg76
(lp1481
g69
(g90
g71
NtRp1482
(dp1483
g74
(dp1484
sg83
g1478
sg76
(lp1485
g69
(g70
g71
NtRp1486
(dp1487
g74
(dp1488
g82
I3
ssg83
g1482
sg76
(lp1489
S'1'
asbasbasbag69
(g85
g71
NtRp1490
(dp1491
g74
(dp1492
sg83
g1474
sg76
(lp1493
g69
(g90
g71
NtRp1494
(dp1495
g74
(dp1496
sg83
g1490
sg76
(lp1497
g69
(g70
g71
NtRp1498
(dp1499
g74
(dp1500
g82
I3
ssg83
g1494
sg76
(lp1501
S'99'
p1502
asbasbasbag69
(g85
g71
NtRp1503
(dp1504
g74
(dp1505
sg83
g1474
sg76
(lp1506
g69
(g90
g71
NtRp1507
(dp1508
g74
(dp1509
sg83
g1503
sg76
(lp1510
g69
(g70
g71
NtRp1511
(dp1512
g74
(dp1513
g82
I3
ssg83
g1507
sg76
(lp1514
S'7'
asbasbasbag69
(g85
g71
NtRp1515
(dp1516
g74
(dp1517
sg83
g1474
sg76
(lp1518
g69
(g90
g71
NtRp1519
(dp1520
g74
(dp1521
sg83
g1515
sg76
(lp1522
g69
(g70
g71
NtRp1523
(dp1524
g74
(dp1525
g82
I3
ssg83
g1519
sg76
(lp1526
S'datetime.datetime(2012, 3, 4, 22, 12, 8)'
p1527
asbasbasbag69
(g85
g71
NtRp1528
(dp1529
g74
(dp1530
sg83
g1474
sg76
(lp1531
g69
(g90
g71
NtRp1532
(dp1533
g74
(dp1534
sg83
g1528
sg76
(lp1535
g69
(g70
g71
NtRp1536
(dp1537
g74
(dp1538
g82
I3
ssg83
g1532
sg76
(lp1539
S'stable'
p1540
asbasbasbasbasbasbasbag69
(g85
g71
NtRp1541
(dp1542
g74
(dp1543
sg83
g662
sg76
(lp1544
g69
(g90
g71
NtRp1545
(dp1546
g74
(dp1547
g94
g95
ssg83
g1541
sg76
(lp1548
S'wsgi_errors'
p1549
asbag69
(g90
g71
NtRp1550
(dp1551
g74
(dp1552
g101
g102
ssg83
g1541
sg76
(lp1553
S':'
asbag69
(g90
g71
NtRp1554
(dp1555
g74
(dp1556
sg83
g1541
sg76
(lp1557
g69
(g70
g71
NtRp1558
(dp1559
g74
(dp1560
g82
I4
ssg83
g1554
sg76
(lp1561
S"<open file '<stderr>', mode 'w' at 0xb73230d0>"
p1562
asbasbasbag69
(g85
g71
NtRp1563
(dp1564
g74
(dp1565
sg83
g662
sg76
(lp1566
g69
(g90
g71
NtRp1567
(dp1568
g74
(dp1569
g94
g95
ssg83
g1563
sg76
(lp1570
S'wsgi_file_wrapper'
p1571
asbag69
(g90
g71
NtRp1572
(dp1573
g74
(dp1574
g101
g102
ssg83
g1563
sg76
(lp1575
S':'
asbag69
(g90
g71
NtRp1576
(dp1577
g74
(dp1578
sg83
g1563
sg76
(lp1579
g69
(g70
g71
NtRp1580
(dp1581
g74
(dp1582
g82
I4
ssg83
g1576
sg76
(lp1583
S'<class wsgiref.util.FileWrapper at 0xa565e9c>'
p1584
asbasbasbag69
(g85
g71
NtRp1585
(dp1586
g74
(dp1587
sg83
g662
sg76
(lp1588
g69
(g90
g71
NtRp1589
(dp1590
g74
(dp1591
g94
g95
ssg83
g1585
sg76
(lp1592
S'wsgi_input'
p1593
asbag69
(g90
g71
NtRp1594
(dp1595
g74
(dp1596
g101
g102
ssg83
g1585
sg76
(lp1597
S':'
asbag69
(g90
g71
NtRp1598
(dp1599
g74
(dp1600
sg83
g1585
sg76
(lp1601
g69
(g70
g71
NtRp1602
(dp1603
g74
(dp1604
g82
I4
ssg83
g1598
sg76
(lp1605
S'<socket._fileobject object at 0xb2456e6c>'
p1606
asbasbasbag69
(g85
g71
NtRp1607
(dp1608
g74
(dp1609
sg83
g662
sg76
(lp1610
g69
(g90
g71
NtRp1611
(dp1612
g74
(dp1613
g94
g95
ssg83
g1607
sg76
(lp1614
S'wsgi_multiprocess'
p1615
asbag69
(g90
g71
NtRp1616
(dp1617
g74
(dp1618
g101
g102
ssg83
g1607
sg76
(lp1619
S':'
asbag69
(g90
g71
NtRp1620
(dp1621
g74
(dp1622
sg83
g1607
sg76
(lp1623
g69
(g70
g71
NtRp1624
(dp1625
g74
(dp1626
g82
I4
ssg83
g1620
sg76
(lp1627
g112
asbasbasbag69
(g85
g71
NtRp1628
(dp1629
g74
(dp1630
sg83
g662
sg76
(lp1631
g69
(g90
g71
NtRp1632
(dp1633
g74
(dp1634
g94
g95
ssg83
g1628
sg76
(lp1635
S'wsgi_multithread'
p1636
asbag69
(g90
g71
NtRp1637
(dp1638
g74
(dp1639
g101
g102
ssg83
g1628
sg76
(lp1640
S':'
asbag69
(g90
g71
NtRp1641
(dp1642
g74
(dp1643
sg83
g1628
sg76
(lp1644
g69
(g70
g71
NtRp1645
(dp1646
g74
(dp1647
g82
I4
ssg83
g1641
sg76
(lp1648
S'True'
p1649
asbasbasbag69
(g85
g71
NtRp1650
(dp1651
g74
(dp1652
sg83
g662
sg76
(lp1653
g69
(g90
g71
NtRp1654
(dp1655
g74
(dp1656
g94
g95
ssg83
g1650
sg76
(lp1657
S'wsgi_run_once'
p1658
asbag69
(g90
g71
NtRp1659
(dp1660
g74
(dp1661
g101
g102
ssg83
g1650
sg76
(lp1662
S':'
asbag69
(g90
g71
NtRp1663
(dp1664
g74
(dp1665
sg83
g1650
sg76
(lp1666
g69
(g70
g71
NtRp1667
(dp1668
g74
(dp1669
g82
I4
ssg83
g1663
sg76
(lp1670
g112
asbasbasbag69
(g85
g71
NtRp1671
(dp1672
g74
(dp1673
sg83
g662
sg76
(lp1674
g69
(g90
g71
NtRp1675
(dp1676
g74
(dp1677
g94
g95
ssg83
g1671
sg76
(lp1678
S'wsgi_url_scheme'
p1679
asbag69
(g90
g71
NtRp1680
(dp1681
g74
(dp1682
g101
g102
ssg83
g1671
sg76
(lp1683
S':'
asbag69
(g90
g71
NtRp1684
(dp1685
g74
(dp1686
sg83
g1671
sg76
(lp1687
g69
(g70
g71
NtRp1688
(dp1689
g74
(dp1690
g82
I4
ssg83
g1684
sg76
(lp1691
S'http'
p1692
asbasbasbag69
(g85
g71
NtRp1693
(dp1694
g74
(dp1695
sg83
g662
sg76
(lp1696
g69
(g90
g71
NtRp1697
(dp1698
g74
(dp1699
g94
g95
ssg83
g1693
sg76
(lp1700
S'wsgi_version'
p1701
asbag69
(g90
g71
NtRp1702
(dp1703
g74
(dp1704
g101
g102
ssg83
g1693
sg76
(lp1705
S':'
asbag69
(g90
g71
NtRp1706
(dp1707
g74
(dp1708
sg83
g1693
sg76
(lp1709
g69
(g70
g71
NtRp1710
(dp1711
g74
(dp1712
g82
I4
ssg83
g1706
sg76
(lp1713
g69
(g78
g71
NtRp1714
(dp1715
g74
(dp1716
g82
I3
ssg83
Nsg76
(lp1717
g69
(g85
g71
NtRp1718
(dp1719
g74
(dp1720
sg83
g1714
sg76
(lp1721
g69
(g90
g71
NtRp1722
(dp1723
g74
(dp1724
sg83
g1718
sg76
(lp1725
g69
(g70
g71
NtRp1726
(dp1727
g74
(dp1728
g82
I3
ssg83
g1722
sg76
(lp1729
S'1'
asbasbasbag69
(g85
g71
NtRp1730
(dp1731
g74
(dp1732
sg83
g1714
sg76
(lp1733
g69
(g90
g71
NtRp1734
(dp1735
g74
(dp1736
sg83
g1730
sg76
(lp1737
g69
(g70
g71
NtRp1738
(dp1739
g74
(dp1740
g82
I3
ssg83
g1734
sg76
(lp1741
S'0'
asbasbasbasbasbasbasbasbasbasbasbag69
(g85
g71
NtRp1742
(dp1743
g74
(dp1744
sg83
g79
sg76
(lp1745
g69
(g90
g71
NtRp1746
(dp1747
g74
(dp1748
g94
g95
ssg83
g1742
sg76
(lp1749
S'extension'
p1750
asbag69
(g90
g71
NtRp1751
(dp1752
g74
(dp1753
g101
g102
ssg83
g1742
sg76
(lp1754
S':'
asbag69
(g90
g71
NtRp1755
(dp1756
g74
(dp1757
sg83
g1742
sg76
(lp1758
g69
(g70
g71
NtRp1759
(dp1760
g74
(dp1761
g82
I5
ssg83
g1755
sg76
(lp1762
S'html'
p1763
asbasbasbag69
(g85
g71
NtRp1764
(dp1765
g74
(dp1766
sg83
g79
sg76
(lp1767
g69
(g90
g71
NtRp1768
(dp1769
g74
(dp1770
g94
g95
ssg83
g1764
sg76
(lp1771
S'folder'
p1772
asbag69
(g90
g71
NtRp1773
(dp1774
g74
(dp1775
g101
g102
ssg83
g1764
sg76
(lp1776
S':'
asbag69
(g90
g71
NtRp1777
(dp1778
g74
(dp1779
sg83
g1764
sg76
(lp1780
g69
(g70
g71
NtRp1781
(dp1782
g74
(dp1783
g82
I5
ssg83
g1777
sg76
(lp1784
S'/home/enigma/web2py/applications/911_signin/'
p1785
asbasbasbag69
(g85
g71
NtRp1786
(dp1787
g74
(dp1788
sg83
g79
sg76
(lp1789
g69
(g90
g71
NtRp1790
(dp1791
g74
(dp1792
g94
g95
ssg83
g1786
sg76
(lp1793
S'function'
p1794
asbag69
(g90
g71
NtRp1795
(dp1796
g74
(dp1797
g101
g102
ssg83
g1786
sg76
(lp1798
S':'
asbag69
(g90
g71
NtRp1799
(dp1800
g74
(dp1801
sg83
g1786
sg76
(lp1802
g69
(g70
g71
NtRp1803
(dp1804
g74
(dp1805
g82
I5
ssg83
g1799
sg76
(lp1806
S'user'
p1807
asbasbasbag69
(g85
g71
NtRp1808
(dp1809
g74
(dp1810
sg83
g79
sg76
(lp1811
g69
(g90
g71
NtRp1812
(dp1813
g74
(dp1814
g94
g95
ssg83
g1808
sg76
(lp1815
S'get_vars'
p1816
asbag69
(g90
g71
NtRp1817
(dp1818
g74
(dp1819
g101
g102
ssg83
g1808
sg76
(lp1820
S':'
asbag69
(g90
g71
NtRp1821
(dp1822
g74
(dp1823
sg83
g1808
sg76
(lp1824
g69
(g70
g71
NtRp1825
(dp1826
g74
(dp1827
g82
I5
ssg83
g1821
sg76
(lp1828
g69
(g78
g71
NtRp1829
(dp1830
g74
(dp1831
g82
I4
ssg83
Nsg76
(lp1832
sbasbasbasbag69
(g85
g71
NtRp1833
(dp1834
g74
(dp1835
sg83
g79
sg76
(lp1836
g69
(g90
g71
NtRp1837
(dp1838
g74
(dp1839
g94
g95
ssg83
g1833
sg76
(lp1840
S'global_settings'
p1841
asbag69
(g90
g71
NtRp1842
(dp1843
g74
(dp1844
g101
g102
ssg83
g1833
sg76
(lp1845
S':'
asbag69
(g90
g71
NtRp1846
(dp1847
g74
(dp1848
sg83
g1833
sg76
(lp1849
g69
(g70
g71
NtRp1850
(dp1851
g74
(dp1852
g82
I5
ssg83
g1846
sg76
(lp1853
g69
(g78
g71
NtRp1854
(dp1855
g74
(dp1856
g82
I4
ssg83
Nsg76
(lp1857
g69
(g85
g71
NtRp1858
(dp1859
g74
(dp1860
sg83
g1854
sg76
(lp1861
g69
(g90
g71
NtRp1862
(dp1863
g74
(dp1864
g94
g95
ssg83
g1858
sg76
(lp1865
g674
asbag69
(g90
g71
NtRp1866
(dp1867
g74
(dp1868
g101
g102
ssg83
g1858
sg76
(lp1869
S':'
asbag69
(g90
g71
NtRp1870
(dp1871
g74
(dp1872
sg83
g1858
sg76
(lp1873
g69
(g70
g71
NtRp1874
(dp1875
g74
(dp1876
g82
I4
ssg83
g1870
sg76
(lp1877
S"set(['/home/enigma/web2py/applications/911_signin/', '/home/enigma/web2py/applications/welcome/'])"
p1878
asbasbasbag69
(g85
g71
NtRp1879
(dp1880
g74
(dp1881
sg83
g1854
sg76
(lp1882
g69
(g90
g71
NtRp1883
(dp1884
g74
(dp1885
g94
g95
ssg83
g1879
sg76
(lp1886
g696
asbag69
(g90
g71
NtRp1887
(dp1888
g74
(dp1889
g101
g102
ssg83
g1879
sg76
(lp1890
S':'
asbag69
(g90
g71
NtRp1891
(dp1892
g74
(dp1893
sg83
g1879
sg76
(lp1894
g69
(g70
g71
NtRp1895
(dp1896
g74
(dp1897
g82
I4
ssg83
g1891
sg76
(lp1898
g709
asbasbasbag69
(g85
g71
NtRp1899
(dp1900
g74
(dp1901
sg83
g1854
sg76
(lp1902
g69
(g90
g71
NtRp1903
(dp1904
g74
(dp1905
g94
g95
ssg83
g1899
sg76
(lp1906
g718
asbag69
(g90
g71
NtRp1907
(dp1908
g74
(dp1909
g101
g102
ssg83
g1899
sg76
(lp1910
S':'
asbag69
(g90
g71
NtRp1911
(dp1912
g74
(dp1913
sg83
g1899
sg76
(lp1914
g69
(g70
g71
NtRp1915
(dp1916
g74
(dp1917
g82
I4
ssg83
g1911
sg76
(lp1918
g69
(g78
g71
NtRp1919
(dp1920
g74
(dp1921
g82
I3
ssg83
Nsg76
(lp1922
sbasbasbasbag69
(g85
g71
NtRp1923
(dp1924
g74
(dp1925
sg83
g1854
sg76
(lp1926
g69
(g90
g71
NtRp1927
(dp1928
g74
(dp1929
g94
g95
ssg83
g1923
sg76
(lp1930
g743
asbag69
(g90
g71
NtRp1931
(dp1932
g74
(dp1933
g101
g102
ssg83
g1923
sg76
(lp1934
S':'
asbag69
(g90
g71
NtRp1935
(dp1936
g74
(dp1937
sg83
g1923
sg76
(lp1938
g69
(g70
g71
NtRp1939
(dp1940
g74
(dp1941
g82
I4
ssg83
g1935
sg76
(lp1942
S"<Values at 0xa624bec: {'verbose': False, 'ip': '127.0.0.1', 'shutdown_timeout': 5, 'taskbar': False, 'nocron': False, 'pid_filename': 'httpserver.pid', 'maxthreads': None, 'softcron': False, 'server_name': 'ubuntu', 'bpython': False, 'nogui': False, 'port': 8000, 'extcron': False, 'debuglevel': 30, 'test': None, 'folder': '/home/enigma/web2py', 'config': '', 'import_models': False, 'winservice': '', 'shell': None, 'run': '', 'log_filename': 'httpserver.log', 'args': [''], 'socket_timeout': 5, 'ssl_ca_certificate': None, 'scheduler': None, 'profiler_filename': None, 'ssl_private_key': '', 'password': '<ask>', 'request_queue_size': 5, 'ssl_certificate': '', 'cronjob': False, 'numthreads': None, 'quiet': False, 'interfaces': None, 'minthreads': None, 'timeout': 10, 'plain': False, 'nobanner': False}>"
p1943
asbasbasbag69
(g85
g71
NtRp1944
(dp1945
g74
(dp1946
sg83
g1854
sg76
(lp1947
g69
(g90
g71
NtRp1948
(dp1949
g74
(dp1950
g94
g95
ssg83
g1944
sg76
(lp1951
g809
asbag69
(g90
g71
NtRp1952
(dp1953
g74
(dp1954
g101
g102
ssg83
g1944
sg76
(lp1955
S':'
asbag69
(g90
g71
NtRp1956
(dp1957
g74
(dp1958
sg83
g1944
sg76
(lp1959
g69
(g70
g71
NtRp1960
(dp1961
g74
(dp1962
g82
I4
ssg83
g1956
sg76
(lp1963
S'set([])'
p1964
asbasbasbag69
(g85
g71
NtRp1965
(dp1966
g74
(dp1967
sg83
g1854
sg76
(lp1968
g69
(g90
g71
NtRp1969
(dp1970
g74
(dp1971
g94
g95
ssg83
g1965
sg76
(lp1972
g831
asbag69
(g90
g71
NtRp1973
(dp1974
g74
(dp1975
g101
g102
ssg83
g1965
sg76
(lp1976
S':'
asbag69
(g90
g71
NtRp1977
(dp1978
g74
(dp1979
sg83
g1965
sg76
(lp1980
g69
(g70
g71
NtRp1981
(dp1982
g74
(dp1983
g82
I4
ssg83
g1977
sg76
(lp1984
g112
asbasbasbag69
(g85
g71
NtRp1985
(dp1986
g74
(dp1987
sg83
g1854
sg76
(lp1988
g69
(g90
g71
NtRp1989
(dp1990
g74
(dp1991
g94
g95
ssg83
g1985
sg76
(lp1992
g852
asbag69
(g90
g71
NtRp1993
(dp1994
g74
(dp1995
g101
g102
ssg83
g1985
sg76
(lp1996
S':'
asbag69
(g90
g71
NtRp1997
(dp1998
g74
(dp1999
sg83
g1985
sg76
(lp2000
g69
(g70
g71
NtRp2001
(dp2002
g74
(dp2003
g82
I4
ssg83
g1997
sg76
(lp2004
g865
asbasbasbag69
(g85
g71
NtRp2005
(dp2006
g74
(dp2007
sg83
g1854
sg76
(lp2008
g69
(g90
g71
NtRp2009
(dp2010
g74
(dp2011
g94
g95
ssg83
g2005
sg76
(lp2012
g1158
asbag69
(g90
g71
NtRp2013
(dp2014
g74
(dp2015
g101
g102
ssg83
g2005
sg76
(lp2016
S':'
asbag69
(g90
g71
NtRp2017
(dp2018
g74
(dp2019
sg83
g2005
sg76
(lp2020
g69
(g70
g71
NtRp2021
(dp2022
g74
(dp2023
g82
I4
ssg83
g2017
sg76
(lp2024
g112
asbasbasbag69
(g85
g71
NtRp2025
(dp2026
g74
(dp2027
sg83
g1854
sg76
(lp2028
g69
(g90
g71
NtRp2029
(dp2030
g74
(dp2031
g94
g95
ssg83
g2025
sg76
(lp2032
g1179
asbag69
(g90
g71
NtRp2033
(dp2034
g74
(dp2035
g101
g102
ssg83
g2025
sg76
(lp2036
S':'
asbag69
(g90
g71
NtRp2037
(dp2038
g74
(dp2039
sg83
g2025
sg76
(lp2040
g69
(g70
g71
NtRp2041
(dp2042
g74
(dp2043
g82
I4
ssg83
g2037
sg76
(lp2044
g112
asbasbasbag69
(g85
g71
NtRp2045
(dp2046
g74
(dp2047
sg83
g1854
sg76
(lp2048
g69
(g90
g71
NtRp2049
(dp2050
g74
(dp2051
g94
g95
ssg83
g2045
sg76
(lp2052
g1418
asbag69
(g90
g71
NtRp2053
(dp2054
g74
(dp2055
g101
g102
ssg83
g2045
sg76
(lp2056
S':'
asbag69
(g90
g71
NtRp2057
(dp2058
g74
(dp2059
sg83
g2045
sg76
(lp2060
g69
(g70
g71
NtRp2061
(dp2062
g74
(dp2063
g82
I4
ssg83
g2057
sg76
(lp2064
g1431
asbasbasbag69
(g85
g71
NtRp2065
(dp2066
g74
(dp2067
sg83
g1854
sg76
(lp2068
g69
(g90
g71
NtRp2069
(dp2070
g74
(dp2071
g94
g95
ssg83
g2065
sg76
(lp2072
g1461
asbag69
(g90
g71
NtRp2073
(dp2074
g74
(dp2075
g101
g102
ssg83
g2065
sg76
(lp2076
S':'
asbag69
(g90
g71
NtRp2077
(dp2078
g74
(dp2079
sg83
g2065
sg76
(lp2080
g69
(g70
g71
NtRp2081
(dp2082
g74
(dp2083
g82
I4
ssg83
g2077
sg76
(lp2084
g69
(g78
g71
NtRp2085
(dp2086
g74
(dp2087
g82
I3
ssg83
Nsg76
(lp2088
g69
(g85
g71
NtRp2089
(dp2090
g74
(dp2091
sg83
g2085
sg76
(lp2092
g69
(g90
g71
NtRp2093
(dp2094
g74
(dp2095
sg83
g2089
sg76
(lp2096
g69
(g70
g71
NtRp2097
(dp2098
g74
(dp2099
g82
I3
ssg83
g2093
sg76
(lp2100
S'1'
asbasbasbag69
(g85
g71
NtRp2101
(dp2102
g74
(dp2103
sg83
g2085
sg76
(lp2104
g69
(g90
g71
NtRp2105
(dp2106
g74
(dp2107
sg83
g2101
sg76
(lp2108
g69
(g70
g71
NtRp2109
(dp2110
g74
(dp2111
g82
I3
ssg83
g2105
sg76
(lp2112
S'99'
p2113
asbasbasbag69
(g85
g71
NtRp2114
(dp2115
g74
(dp2116
sg83
g2085
sg76
(lp2117
g69
(g90
g71
NtRp2118
(dp2119
g74
(dp2120
sg83
g2114
sg76
(lp2121
g69
(g70
g71
NtRp2122
(dp2123
g74
(dp2124
g82
I3
ssg83
g2118
sg76
(lp2125
S'7'
asbasbasbag69
(g85
g71
NtRp2126
(dp2127
g74
(dp2128
sg83
g2085
sg76
(lp2129
g69
(g90
g71
NtRp2130
(dp2131
g74
(dp2132
sg83
g2126
sg76
(lp2133
g69
(g70
g71
NtRp2134
(dp2135
g74
(dp2136
g82
I3
ssg83
g2130
sg76
(lp2137
S'datetime.datetime(2012, 3, 4, 22, 12, 8)'
p2138
asbasbasbag69
(g85
g71
NtRp2139
(dp2140
g74
(dp2141
sg83
g2085
sg76
(lp2142
g69
(g90
g71
NtRp2143
(dp2144
g74
(dp2145
sg83
g2139
sg76
(lp2146
g69
(g70
g71
NtRp2147
(dp2148
g74
(dp2149
g82
I3
ssg83
g2143
sg76
(lp2150
g1540
asbasbasbasbasbasbasbasbasbasbasbag69
(g85
g71
NtRp2151
(dp2152
g74
(dp2153
sg83
g79
sg76
(lp2154
g69
(g90
g71
NtRp2155
(dp2156
g74
(dp2157
g94
g95
ssg83
g2151
sg76
(lp2158
S'is_https'
p2159
asbag69
(g90
g71
NtRp2160
(dp2161
g74
(dp2162
g101
g102
ssg83
g2151
sg76
(lp2163
S':'
asbag69
(g90
g71
NtRp2164
(dp2165
g74
(dp2166
sg83
g2151
sg76
(lp2167
g69
(g70
g71
NtRp2168
(dp2169
g74
(dp2170
g82
I5
ssg83
g2164
sg76
(lp2171
g112
asbasbasbag69
(g85
g71
NtRp2172
(dp2173
g74
(dp2174
sg83
g79
sg76
(lp2175
g69
(g90
g71
NtRp2176
(dp2177
g74
(dp2178
g94
g95
ssg83
g2172
sg76
(lp2179
S'is_local'
p2180
asbag69
(g90
g71
NtRp2181
(dp2182
g74
(dp2183
g101
g102
ssg83
g2172
sg76
(lp2184
S':'
asbag69
(g90
g71
NtRp2185
(dp2186
g74
(dp2187
sg83
g2172
sg76
(lp2188
g69
(g70
g71
NtRp2189
(dp2190
g74
(dp2191
g82
I5
ssg83
g2185
sg76
(lp2192
g1649
asbasbasbag69
(g85
g71
NtRp2193
(dp2194
g74
(dp2195
sg83
g79
sg76
(lp2196
g69
(g90
g71
NtRp2197
(dp2198
g74
(dp2199
g94
g95
ssg83
g2193
sg76
(lp2200
S'is_restful'
p2201
asbag69
(g90
g71
NtRp2202
(dp2203
g74
(dp2204
g101
g102
ssg83
g2193
sg76
(lp2205
S':'
asbag69
(g90
g71
NtRp2206
(dp2207
g74
(dp2208
sg83
g2193
sg76
(lp2209
g69
(g70
g71
NtRp2210
(dp2211
g74
(dp2212
g82
I5
ssg83
g2206
sg76
(lp2213
g112
asbasbasbag69
(g85
g71
NtRp2214
(dp2215
g74
(dp2216
sg83
g79
sg76
(lp2217
g69
(g90
g71
NtRp2218
(dp2219
g74
(dp2220
g94
g95
ssg83
g2214
sg76
(lp2221
S'now'
p2222
asbag69
(g90
g71
NtRp2223
(dp2224
g74
(dp2225
g101
g102
ssg83
g2214
sg76
(lp2226
S':'
asbag69
(g90
g71
NtRp2227
(dp2228
g74
(dp2229
sg83
g2214
sg76
(lp2230
g69
(g70
g71
NtRp2231
(dp2232
g74
(dp2233
g82
I5
ssg83
g2227
sg76
(lp2234
S'datetime.datetime(2013, 5, 17, 15, 4, 7, 156201)'
p2235
asbasbasbag69
(g85
g71
NtRp2236
(dp2237
g74
(dp2238
sg83
g79
sg76
(lp2239
g69
(g90
g71
NtRp2240
(dp2241
g74
(dp2242
g94
g95
ssg83
g2236
sg76
(lp2243
S'post_vars'
p2244
asbag69
(g90
g71
NtRp2245
(dp2246
g74
(dp2247
g101
g102
ssg83
g2236
sg76
(lp2248
S':'
asbag69
(g90
g71
NtRp2249
(dp2250
g74
(dp2251
sg83
g2236
sg76
(lp2252
g69
(g70
g71
NtRp2253
(dp2254
g74
(dp2255
g82
I5
ssg83
g2249
sg76
(lp2256
g69
(g78
g71
NtRp2257
(dp2258
g74
(dp2259
g82
I4
ssg83
Nsg76
(lp2260
g69
(g85
g71
NtRp2261
(dp2262
g74
(dp2263
sg83
g2257
sg76
(lp2264
g69
(g90
g71
NtRp2265
(dp2266
g74
(dp2267
g94
g95
ssg83
g2261
sg76
(lp2268
S'email'
p2269
asbag69
(g90
g71
NtRp2270
(dp2271
g74
(dp2272
g101
g102
ssg83
g2261
sg76
(lp2273
S':'
asbag69
(g90
g71
NtRp2274
(dp2275
g74
(dp2276
sg83
g2261
sg76
(lp2277
g69
(g70
g71
NtRp2278
(dp2279
g74
(dp2280
g82
I4
ssg83
g2274
sg76
(lp2281
S'csshadow26@gmail.com'
p2282
asbasbasbasbasbasbasbag69
(g85
g71
NtRp2283
(dp2284
g74
(dp2285
sg83
g79
sg76
(lp2286
g69
(g90
g71
NtRp2287
(dp2288
g74
(dp2289
g94
g95
ssg83
g2283
sg76
(lp2290
S'raw_args'
p2291
asbag69
(g90
g71
NtRp2292
(dp2293
g74
(dp2294
g101
g102
ssg83
g2283
sg76
(lp2295
S':'
asbag69
(g90
g71
NtRp2296
(dp2297
g74
(dp2298
sg83
g2283
sg76
(lp2299
g69
(g70
g71
NtRp2300
(dp2301
g74
(dp2302
g82
I5
ssg83
g2296
sg76
(lp2303
g171
asbasbasbag69
(g85
g71
NtRp2304
(dp2305
g74
(dp2306
sg83
g79
sg76
(lp2307
g69
(g90
g71
NtRp2308
(dp2309
g74
(dp2310
g94
g95
ssg83
g2304
sg76
(lp2311
S'url'
p2312
asbag69
(g90
g71
NtRp2313
(dp2314
g74
(dp2315
g101
g102
ssg83
g2304
sg76
(lp2316
S':'
asbag69
(g90
g71
NtRp2317
(dp2318
g74
(dp2319
sg83
g2304
sg76
(lp2320
g69
(g70
g71
NtRp2321
(dp2322
g74
(dp2323
g82
I5
ssg83
g2317
sg76
(lp2324
S'/911_signin/default/user/request_reset_password'
p2325
asbasbasbag69
(g85
g71
NtRp2326
(dp2327
g74
(dp2328
sg83
g79
sg76
(lp2329
g69
(g90
g71
NtRp2330
(dp2331
g74
(dp2332
g94
g95
ssg83
g2326
sg76
(lp2333
S'utcnow'
p2334
asbag69
(g90
g71
NtRp2335
(dp2336
g74
(dp2337
g101
g102
ssg83
g2326
sg76
(lp2338
S':'
asbag69
(g90
g71
NtRp2339
(dp2340
g74
(dp2341
sg83
g2326
sg76
(lp2342
g69
(g70
g71
NtRp2343
(dp2344
g74
(dp2345
g82
I5
ssg83
g2339
sg76
(lp2346
S'datetime.datetime(2013, 5, 17, 9, 34, 7, 156259)'
p2347
asbasbasbag69
(g85
g71
NtRp2348
(dp2349
g74
(dp2350
sg83
g79
sg76
(lp2351
g69
(g90
g71
NtRp2352
(dp2353
g74
(dp2354
g94
g95
ssg83
g2348
sg76
(lp2355
S'uuid'
p2356
asbag69
(g90
g71
NtRp2357
(dp2358
g74
(dp2359
g101
g102
ssg83
g2348
sg76
(lp2360
S':'
asbag69
(g90
g71
NtRp2361
(dp2362
g74
(dp2363
sg83
g2348
sg76
(lp2364
g69
(g70
g71
NtRp2365
(dp2366
g74
(dp2367
g82
I5
ssg83
g2361
sg76
(lp2368
S'911_signin/127.0.0.1.2013-05-17.15-04-07.d9bbffec-a827-455b-8d9a-dab72eb7a35a'
p2369
asbasbasbag69
(g85
g71
NtRp2370
(dp2371
g74
(dp2372
sg83
g79
sg76
(lp2373
g69
(g90
g71
NtRp2374
(dp2375
g74
(dp2376
g94
g95
ssg83
g2370
sg76
(lp2377
S'vars'
p2378
asbag69
(g90
g71
NtRp2379
(dp2380
g74
(dp2381
g101
g102
ssg83
g2370
sg76
(lp2382
S':'
asbag69
(g90
g71
NtRp2383
(dp2384
g74
(dp2385
sg83
g2370
sg76
(lp2386
g69
(g70
g71
NtRp2387
(dp2388
g74
(dp2389
g82
I5
ssg83
g2383
sg76
(lp2390
g69
(g78
g71
NtRp2391
(dp2392
g74
(dp2393
g82
I4
ssg83
Nsg76
(lp2394
g69
(g85
g71
NtRp2395
(dp2396
g74
(dp2397
sg83
g2391
sg76
(lp2398
g69
(g90
g71
NtRp2399
(dp2400
g74
(dp2401
g94
g95
ssg83
g2395
sg76
(lp2402
g2269
asbag69
(g90
g71
NtRp2403
(dp2404
g74
(dp2405
g101
g102
ssg83
g2395
sg76
(lp2406
S':'
asbag69
(g90
g71
NtRp2407
(dp2408
g74
(dp2409
sg83
g2395
sg76
(lp2410
g69
(g70
g71
NtRp2411
(dp2412
g74
(dp2413
g82
I4
ssg83
g2407
sg76
(lp2414
g2282
asbasbasbasbasbasbasbag69
(g85
g71
NtRp2415
(dp2416
g74
(dp2417
sg83
g79
sg76
(lp2418
g69
(g90
g71
NtRp2419
(dp2420
g74
(dp2421
g94
g95
ssg83
g2415
sg76
(lp2422
S'wsgi'
p2423
asbag69
(g90
g71
NtRp2424
(dp2425
g74
(dp2426
g101
g102
ssg83
g2415
sg76
(lp2427
S':'
asbag69
(g90
g71
NtRp2428
(dp2429
g74
(dp2430
sg83
g2415
sg76
(lp2431
g69
(g70
g71
NtRp2432
(dp2433
g74
(dp2434
g82
I5
ssg83
g2428
sg76
(lp2435
g69
(g78
g71
NtRp2436
(dp2437
g74
(dp2438
g82
I4
ssg83
Nsg76
(lp2439
g69
(g85
g71
NtRp2440
(dp2441
g74
(dp2442
sg83
g2436
sg76
(lp2443
g69
(g90
g71
NtRp2444
(dp2445
g74
(dp2446
g94
g95
ssg83
g2440
sg76
(lp2447
S'environ'
p2448
asbag69
(g90
g71
NtRp2449
(dp2450
g74
(dp2451
g101
g102
ssg83
g2440
sg76
(lp2452
S':'
asbag69
(g90
g71
NtRp2453
(dp2454
g74
(dp2455
sg83
g2440
sg76
(lp2456
g69
(g70
g71
NtRp2457
(dp2458
g74
(dp2459
g82
I4
ssg83
g2453
sg76
(lp2460
g69
(g78
g71
NtRp2461
(dp2462
g74
(dp2463
g82
I3
ssg83
Nsg76
(lp2464
g69
(g85
g71
NtRp2465
(dp2466
g74
(dp2467
sg83
g2461
sg76
(lp2468
g69
(g90
g71
NtRp2469
(dp2470
g74
(dp2471
g94
g95
ssg83
g2465
sg76
(lp2472
S'CONTENT_LENGTH'
p2473
asbag69
(g90
g71
NtRp2474
(dp2475
g74
(dp2476
g101
g102
ssg83
g2465
sg76
(lp2477
S':'
asbag69
(g90
g71
NtRp2478
(dp2479
g74
(dp2480
sg83
g2465
sg76
(lp2481
g69
(g70
g71
NtRp2482
(dp2483
g74
(dp2484
g82
I3
ssg83
g2478
sg76
(lp2485
g778
asbasbasbag69
(g85
g71
NtRp2486
(dp2487
g74
(dp2488
sg83
g2461
sg76
(lp2489
g69
(g90
g71
NtRp2490
(dp2491
g74
(dp2492
g94
g95
ssg83
g2486
sg76
(lp2493
S'CONTENT_TYPE'
p2494
asbag69
(g90
g71
NtRp2495
(dp2496
g74
(dp2497
g101
g102
ssg83
g2486
sg76
(lp2498
S':'
asbag69
(g90
g71
NtRp2499
(dp2500
g74
(dp2501
sg83
g2486
sg76
(lp2502
g69
(g70
g71
NtRp2503
(dp2504
g74
(dp2505
g82
I3
ssg83
g2499
sg76
(lp2506
g800
asbasbasbag69
(g85
g71
NtRp2507
(dp2508
g74
(dp2509
sg83
g2461
sg76
(lp2510
g69
(g90
g71
NtRp2511
(dp2512
g74
(dp2513
g94
g95
ssg83
g2507
sg76
(lp2514
S'HTTP_ACCEPT'
p2515
asbag69
(g90
g71
NtRp2516
(dp2517
g74
(dp2518
g101
g102
ssg83
g2507
sg76
(lp2519
S':'
asbag69
(g90
g71
NtRp2520
(dp2521
g74
(dp2522
sg83
g2507
sg76
(lp2523
g69
(g70
g71
NtRp2524
(dp2525
g74
(dp2526
g82
I3
ssg83
g2520
sg76
(lp2527
g887
asbasbasbag69
(g85
g71
NtRp2528
(dp2529
g74
(dp2530
sg83
g2461
sg76
(lp2531
g69
(g90
g71
NtRp2532
(dp2533
g74
(dp2534
g94
g95
ssg83
g2528
sg76
(lp2535
S'HTTP_ACCEPT_CHARSET'
p2536
asbag69
(g90
g71
NtRp2537
(dp2538
g74
(dp2539
g101
g102
ssg83
g2528
sg76
(lp2540
S':'
asbag69
(g90
g71
NtRp2541
(dp2542
g74
(dp2543
sg83
g2528
sg76
(lp2544
g69
(g70
g71
NtRp2545
(dp2546
g74
(dp2547
g82
I3
ssg83
g2541
sg76
(lp2548
g909
asbasbasbag69
(g85
g71
NtRp2549
(dp2550
g74
(dp2551
sg83
g2461
sg76
(lp2552
g69
(g90
g71
NtRp2553
(dp2554
g74
(dp2555
g94
g95
ssg83
g2549
sg76
(lp2556
S'HTTP_ACCEPT_ENCODING'
p2557
asbag69
(g90
g71
NtRp2558
(dp2559
g74
(dp2560
g101
g102
ssg83
g2549
sg76
(lp2561
S':'
asbag69
(g90
g71
NtRp2562
(dp2563
g74
(dp2564
sg83
g2549
sg76
(lp2565
g69
(g70
g71
NtRp2566
(dp2567
g74
(dp2568
g82
I3
ssg83
g2562
sg76
(lp2569
g931
asbasbasbag69
(g85
g71
NtRp2570
(dp2571
g74
(dp2572
sg83
g2461
sg76
(lp2573
g69
(g90
g71
NtRp2574
(dp2575
g74
(dp2576
g94
g95
ssg83
g2570
sg76
(lp2577
S'HTTP_ACCEPT_LANGUAGE'
p2578
asbag69
(g90
g71
NtRp2579
(dp2580
g74
(dp2581
g101
g102
ssg83
g2570
sg76
(lp2582
S':'
asbag69
(g90
g71
NtRp2583
(dp2584
g74
(dp2585
sg83
g2570
sg76
(lp2586
g69
(g70
g71
NtRp2587
(dp2588
g74
(dp2589
g82
I3
ssg83
g2583
sg76
(lp2590
g953
asbasbasbag69
(g85
g71
NtRp2591
(dp2592
g74
(dp2593
sg83
g2461
sg76
(lp2594
g69
(g90
g71
NtRp2595
(dp2596
g74
(dp2597
g94
g95
ssg83
g2591
sg76
(lp2598
S'HTTP_CACHE_CONTROL'
p2599
asbag69
(g90
g71
NtRp2600
(dp2601
g74
(dp2602
g101
g102
ssg83
g2591
sg76
(lp2603
S':'
asbag69
(g90
g71
NtRp2604
(dp2605
g74
(dp2606
sg83
g2591
sg76
(lp2607
g69
(g70
g71
NtRp2608
(dp2609
g74
(dp2610
g82
I3
ssg83
g2604
sg76
(lp2611
g975
asbasbasbag69
(g85
g71
NtRp2612
(dp2613
g74
(dp2614
sg83
g2461
sg76
(lp2615
g69
(g90
g71
NtRp2616
(dp2617
g74
(dp2618
g94
g95
ssg83
g2612
sg76
(lp2619
S'HTTP_CONNECTION'
p2620
asbag69
(g90
g71
NtRp2621
(dp2622
g74
(dp2623
g101
g102
ssg83
g2612
sg76
(lp2624
S':'
asbag69
(g90
g71
NtRp2625
(dp2626
g74
(dp2627
sg83
g2612
sg76
(lp2628
g69
(g70
g71
NtRp2629
(dp2630
g74
(dp2631
g82
I3
ssg83
g2625
sg76
(lp2632
g997
asbasbasbag69
(g85
g71
NtRp2633
(dp2634
g74
(dp2635
sg83
g2461
sg76
(lp2636
g69
(g90
g71
NtRp2637
(dp2638
g74
(dp2639
g94
g95
ssg83
g2633
sg76
(lp2640
S'HTTP_CONTENT_LENGTH'
p2641
asbag69
(g90
g71
NtRp2642
(dp2643
g74
(dp2644
g101
g102
ssg83
g2633
sg76
(lp2645
S':'
asbag69
(g90
g71
NtRp2646
(dp2647
g74
(dp2648
sg83
g2633
sg76
(lp2649
g69
(g70
g71
NtRp2650
(dp2651
g74
(dp2652
g82
I3
ssg83
g2646
sg76
(lp2653
g778
asbasbasbag69
(g85
g71
NtRp2654
(dp2655
g74
(dp2656
sg83
g2461
sg76
(lp2657
g69
(g90
g71
NtRp2658
(dp2659
g74
(dp2660
g94
g95
ssg83
g2654
sg76
(lp2661
S'HTTP_CONTENT_TYPE'
p2662
asbag69
(g90
g71
NtRp2663
(dp2664
g74
(dp2665
g101
g102
ssg83
g2654
sg76
(lp2666
S':'
asbag69
(g90
g71
NtRp2667
(dp2668
g74
(dp2669
sg83
g2654
sg76
(lp2670
g69
(g70
g71
NtRp2671
(dp2672
g74
(dp2673
g82
I3
ssg83
g2667
sg76
(lp2674
g800
asbasbasbag69
(g85
g71
NtRp2675
(dp2676
g74
(dp2677
sg83
g2461
sg76
(lp2678
g69
(g90
g71
NtRp2679
(dp2680
g74
(dp2681
g94
g95
ssg83
g2675
sg76
(lp2682
S'HTTP_COOKIE'
p2683
asbag69
(g90
g71
NtRp2684
(dp2685
g74
(dp2686
g101
g102
ssg83
g2675
sg76
(lp2687
S':'
asbag69
(g90
g71
NtRp2688
(dp2689
g74
(dp2690
sg83
g2675
sg76
(lp2691
g69
(g70
g71
NtRp2692
(dp2693
g74
(dp2694
g82
I3
ssg83
g2688
sg76
(lp2695
g1061
asbasbasbag69
(g85
g71
NtRp2696
(dp2697
g74
(dp2698
sg83
g2461
sg76
(lp2699
g69
(g90
g71
NtRp2700
(dp2701
g74
(dp2702
g94
g95
ssg83
g2696
sg76
(lp2703
S'HTTP_HOST'
p2704
asbag69
(g90
g71
NtRp2705
(dp2706
g74
(dp2707
g101
g102
ssg83
g2696
sg76
(lp2708
S':'
asbag69
(g90
g71
NtRp2709
(dp2710
g74
(dp2711
sg83
g2696
sg76
(lp2712
g69
(g70
g71
NtRp2713
(dp2714
g74
(dp2715
g82
I3
ssg83
g2709
sg76
(lp2716
g1083
asbasbasbag69
(g85
g71
NtRp2717
(dp2718
g74
(dp2719
sg83
g2461
sg76
(lp2720
g69
(g90
g71
NtRp2721
(dp2722
g74
(dp2723
g94
g95
ssg83
g2717
sg76
(lp2724
S'HTTP_ORIGIN'
p2725
asbag69
(g90
g71
NtRp2726
(dp2727
g74
(dp2728
g101
g102
ssg83
g2717
sg76
(lp2729
S':'
asbag69
(g90
g71
NtRp2730
(dp2731
g74
(dp2732
sg83
g2717
sg76
(lp2733
g69
(g70
g71
NtRp2734
(dp2735
g74
(dp2736
g82
I3
ssg83
g2730
sg76
(lp2737
g1105
asbasbasbag69
(g85
g71
NtRp2738
(dp2739
g74
(dp2740
sg83
g2461
sg76
(lp2741
g69
(g90
g71
NtRp2742
(dp2743
g74
(dp2744
g94
g95
ssg83
g2738
sg76
(lp2745
S'HTTP_REFERER'
p2746
asbag69
(g90
g71
NtRp2747
(dp2748
g74
(dp2749
g101
g102
ssg83
g2738
sg76
(lp2750
S':'
asbag69
(g90
g71
NtRp2751
(dp2752
g74
(dp2753
sg83
g2738
sg76
(lp2754
g69
(g70
g71
NtRp2755
(dp2756
g74
(dp2757
g82
I3
ssg83
g2751
sg76
(lp2758
g1127
asbasbasbag69
(g85
g71
NtRp2759
(dp2760
g74
(dp2761
sg83
g2461
sg76
(lp2762
g69
(g90
g71
NtRp2763
(dp2764
g74
(dp2765
g94
g95
ssg83
g2759
sg76
(lp2766
S'HTTP_USER_AGENT'
p2767
asbag69
(g90
g71
NtRp2768
(dp2769
g74
(dp2770
g101
g102
ssg83
g2759
sg76
(lp2771
S':'
asbag69
(g90
g71
NtRp2772
(dp2773
g74
(dp2774
sg83
g2759
sg76
(lp2775
g69
(g70
g71
NtRp2776
(dp2777
g74
(dp2778
g82
I3
ssg83
g2772
sg76
(lp2779
g1149
asbasbasbag69
(g85
g71
NtRp2780
(dp2781
g74
(dp2782
sg83
g2461
sg76
(lp2783
g69
(g90
g71
NtRp2784
(dp2785
g74
(dp2786
g94
g95
ssg83
g2780
sg76
(lp2787
S'PATH_INFO'
p2788
asbag69
(g90
g71
NtRp2789
(dp2790
g74
(dp2791
g101
g102
ssg83
g2780
sg76
(lp2792
S':'
asbag69
(g90
g71
NtRp2793
(dp2794
g74
(dp2795
sg83
g2780
sg76
(lp2796
g69
(g70
g71
NtRp2797
(dp2798
g74
(dp2799
g82
I3
ssg83
g2793
sg76
(lp2800
g1213
asbasbasbag69
(g85
g71
NtRp2801
(dp2802
g74
(dp2803
sg83
g2461
sg76
(lp2804
g69
(g90
g71
NtRp2805
(dp2806
g74
(dp2807
g94
g95
ssg83
g2801
sg76
(lp2808
S'QUERY_STRING'
p2809
asbag69
(g90
g71
NtRp2810
(dp2811
g74
(dp2812
g101
g102
ssg83
g2801
sg76
(lp2813
S':'
asbag69
(g90
g71
NtRp2814
(dp2815
g74
(dp2816
sg83
g2801
sg76
(lp2817
g69
(g70
g71
NtRp2818
(dp2819
g74
(dp2820
g82
I3
ssg83
g2814
sg76
(lp2821
g1235
asbasbasbag69
(g85
g71
NtRp2822
(dp2823
g74
(dp2824
sg83
g2461
sg76
(lp2825
g69
(g90
g71
NtRp2826
(dp2827
g74
(dp2828
g94
g95
ssg83
g2822
sg76
(lp2829
S'REMOTE_ADDR'
p2830
asbag69
(g90
g71
NtRp2831
(dp2832
g74
(dp2833
g101
g102
ssg83
g2822
sg76
(lp2834
S':'
asbag69
(g90
g71
NtRp2835
(dp2836
g74
(dp2837
sg83
g2822
sg76
(lp2838
g69
(g70
g71
NtRp2839
(dp2840
g74
(dp2841
g82
I3
ssg83
g2835
sg76
(lp2842
g215
asbasbasbag69
(g85
g71
NtRp2843
(dp2844
g74
(dp2845
sg83
g2461
sg76
(lp2846
g69
(g90
g71
NtRp2847
(dp2848
g74
(dp2849
g94
g95
ssg83
g2843
sg76
(lp2850
S'REMOTE_PORT'
p2851
asbag69
(g90
g71
NtRp2852
(dp2853
g74
(dp2854
g101
g102
ssg83
g2843
sg76
(lp2855
S':'
asbag69
(g90
g71
NtRp2856
(dp2857
g74
(dp2858
sg83
g2843
sg76
(lp2859
g69
(g70
g71
NtRp2860
(dp2861
g74
(dp2862
g82
I3
ssg83
g2856
sg76
(lp2863
g1278
asbasbasbag69
(g85
g71
NtRp2864
(dp2865
g74
(dp2866
sg83
g2461
sg76
(lp2867
g69
(g90
g71
NtRp2868
(dp2869
g74
(dp2870
g94
g95
ssg83
g2864
sg76
(lp2871
S'REQUEST_METHOD'
p2872
asbag69
(g90
g71
NtRp2873
(dp2874
g74
(dp2875
g101
g102
ssg83
g2864
sg76
(lp2876
S':'
asbag69
(g90
g71
NtRp2877
(dp2878
g74
(dp2879
sg83
g2864
sg76
(lp2880
g69
(g70
g71
NtRp2881
(dp2882
g74
(dp2883
g82
I3
ssg83
g2877
sg76
(lp2884
g1300
asbasbasbag69
(g85
g71
NtRp2885
(dp2886
g74
(dp2887
sg83
g2461
sg76
(lp2888
g69
(g90
g71
NtRp2889
(dp2890
g74
(dp2891
g94
g95
ssg83
g2885
sg76
(lp2892
S'SCRIPT_NAME'
p2893
asbag69
(g90
g71
NtRp2894
(dp2895
g74
(dp2896
g101
g102
ssg83
g2885
sg76
(lp2897
S':'
asbag69
(g90
g71
NtRp2898
(dp2899
g74
(dp2900
sg83
g2885
sg76
(lp2901
g69
(g70
g71
NtRp2902
(dp2903
g74
(dp2904
g82
I3
ssg83
g2898
sg76
(lp2905
S''
asbasbasbag69
(g85
g71
NtRp2906
(dp2907
g74
(dp2908
sg83
g2461
sg76
(lp2909
g69
(g90
g71
NtRp2910
(dp2911
g74
(dp2912
g94
g95
ssg83
g2906
sg76
(lp2913
S'SERVER_NAME'
p2914
asbag69
(g90
g71
NtRp2915
(dp2916
g74
(dp2917
g101
g102
ssg83
g2906
sg76
(lp2918
S':'
asbag69
(g90
g71
NtRp2919
(dp2920
g74
(dp2921
sg83
g2906
sg76
(lp2922
g69
(g70
g71
NtRp2923
(dp2924
g74
(dp2925
g82
I3
ssg83
g2919
sg76
(lp2926
g1343
asbasbasbag69
(g85
g71
NtRp2927
(dp2928
g74
(dp2929
sg83
g2461
sg76
(lp2930
g69
(g90
g71
NtRp2931
(dp2932
g74
(dp2933
g94
g95
ssg83
g2927
sg76
(lp2934
S'SERVER_PORT'
p2935
asbag69
(g90
g71
NtRp2936
(dp2937
g74
(dp2938
g101
g102
ssg83
g2927
sg76
(lp2939
S':'
asbag69
(g90
g71
NtRp2940
(dp2941
g74
(dp2942
sg83
g2927
sg76
(lp2943
g69
(g70
g71
NtRp2944
(dp2945
g74
(dp2946
g82
I3
ssg83
g2940
sg76
(lp2947
g1365
asbasbasbag69
(g85
g71
NtRp2948
(dp2949
g74
(dp2950
sg83
g2461
sg76
(lp2951
g69
(g90
g71
NtRp2952
(dp2953
g74
(dp2954
g94
g95
ssg83
g2948
sg76
(lp2955
S'SERVER_PROTOCOL'
p2956
asbag69
(g90
g71
NtRp2957
(dp2958
g74
(dp2959
g101
g102
ssg83
g2948
sg76
(lp2960
S':'
asbag69
(g90
g71
NtRp2961
(dp2962
g74
(dp2963
sg83
g2948
sg76
(lp2964
g69
(g70
g71
NtRp2965
(dp2966
g74
(dp2967
g82
I3
ssg83
g2961
sg76
(lp2968
g1387
asbasbasbag69
(g85
g71
NtRp2969
(dp2970
g74
(dp2971
sg83
g2461
sg76
(lp2972
g69
(g90
g71
NtRp2973
(dp2974
g74
(dp2975
g94
g95
ssg83
g2969
sg76
(lp2976
S'SERVER_SOFTWARE'
p2977
asbag69
(g90
g71
NtRp2978
(dp2979
g74
(dp2980
g101
g102
ssg83
g2969
sg76
(lp2981
S':'
asbag69
(g90
g71
NtRp2982
(dp2983
g74
(dp2984
sg83
g2969
sg76
(lp2985
g69
(g70
g71
NtRp2986
(dp2987
g74
(dp2988
g82
I3
ssg83
g2982
sg76
(lp2989
g1409
asbasbasbag69
(g85
g71
NtRp2990
(dp2991
g74
(dp2992
sg83
g2461
sg76
(lp2993
g69
(g90
g71
NtRp2994
(dp2995
g74
(dp2996
g94
g95
ssg83
g2990
sg76
(lp2997
S'wsgi.errors'
p2998
asbag69
(g90
g71
NtRp2999
(dp3000
g74
(dp3001
g101
g102
ssg83
g2990
sg76
(lp3002
S':'
asbag69
(g90
g71
NtRp3003
(dp3004
g74
(dp3005
sg83
g2990
sg76
(lp3006
g69
(g70
g71
NtRp3007
(dp3008
g74
(dp3009
g82
I3
ssg83
g3003
sg76
(lp3010
S"<open file '<stderr>', mode 'w' at 0xb73230d0>"
p3011
asbasbasbag69
(g85
g71
NtRp3012
(dp3013
g74
(dp3014
sg83
g2461
sg76
(lp3015
g69
(g90
g71
NtRp3016
(dp3017
g74
(dp3018
g94
g95
ssg83
g3012
sg76
(lp3019
S'wsgi.file_wrapper'
p3020
asbag69
(g90
g71
NtRp3021
(dp3022
g74
(dp3023
g101
g102
ssg83
g3012
sg76
(lp3024
S':'
asbag69
(g90
g71
NtRp3025
(dp3026
g74
(dp3027
sg83
g3012
sg76
(lp3028
g69
(g70
g71
NtRp3029
(dp3030
g74
(dp3031
g82
I3
ssg83
g3025
sg76
(lp3032
S'<class wsgiref.util.FileWrapper at 0xa565e9c>'
p3033
asbasbasbag69
(g85
g71
NtRp3034
(dp3035
g74
(dp3036
sg83
g2461
sg76
(lp3037
g69
(g90
g71
NtRp3038
(dp3039
g74
(dp3040
g94
g95
ssg83
g3034
sg76
(lp3041
S'wsgi.input'
p3042
asbag69
(g90
g71
NtRp3043
(dp3044
g74
(dp3045
g101
g102
ssg83
g3034
sg76
(lp3046
S':'
asbag69
(g90
g71
NtRp3047
(dp3048
g74
(dp3049
sg83
g3034
sg76
(lp3050
g69
(g70
g71
NtRp3051
(dp3052
g74
(dp3053
g82
I3
ssg83
g3047
sg76
(lp3054
S"<open file '<fdopen>', mode 'w+b' at 0xa910d30>"
p3055
asbasbasbag69
(g85
g71
NtRp3056
(dp3057
g74
(dp3058
sg83
g2461
sg76
(lp3059
g69
(g90
g71
NtRp3060
(dp3061
g74
(dp3062
g94
g95
ssg83
g3056
sg76
(lp3063
S'wsgi.multiprocess'
p3064
asbag69
(g90
g71
NtRp3065
(dp3066
g74
(dp3067
g101
g102
ssg83
g3056
sg76
(lp3068
S':'
asbag69
(g90
g71
NtRp3069
(dp3070
g74
(dp3071
sg83
g3056
sg76
(lp3072
g69
(g70
g71
NtRp3073
(dp3074
g74
(dp3075
g82
I3
ssg83
g3069
sg76
(lp3076
g112
asbasbasbag69
(g85
g71
NtRp3077
(dp3078
g74
(dp3079
sg83
g2461
sg76
(lp3080
g69
(g90
g71
NtRp3081
(dp3082
g74
(dp3083
g94
g95
ssg83
g3077
sg76
(lp3084
S'wsgi.multithread'
p3085
asbag69
(g90
g71
NtRp3086
(dp3087
g74
(dp3088
g101
g102
ssg83
g3077
sg76
(lp3089
S':'
asbag69
(g90
g71
NtRp3090
(dp3091
g74
(dp3092
sg83
g3077
sg76
(lp3093
g69
(g70
g71
NtRp3094
(dp3095
g74
(dp3096
g82
I3
ssg83
g3090
sg76
(lp3097
g1649
asbasbasbag69
(g85
g71
NtRp3098
(dp3099
g74
(dp3100
sg83
g2461
sg76
(lp3101
g69
(g90
g71
NtRp3102
(dp3103
g74
(dp3104
g94
g95
ssg83
g3098
sg76
(lp3105
S'wsgi.run_once'
p3106
asbag69
(g90
g71
NtRp3107
(dp3108
g74
(dp3109
g101
g102
ssg83
g3098
sg76
(lp3110
S':'
asbag69
(g90
g71
NtRp3111
(dp3112
g74
(dp3113
sg83
g3098
sg76
(lp3114
g69
(g70
g71
NtRp3115
(dp3116
g74
(dp3117
g82
I3
ssg83
g3111
sg76
(lp3118
g112
asbasbasbag69
(g85
g71
NtRp3119
(dp3120
g74
(dp3121
sg83
g2461
sg76
(lp3122
g69
(g90
g71
NtRp3123
(dp3124
g74
(dp3125
g94
g95
ssg83
g3119
sg76
(lp3126
S'wsgi.url_scheme'
p3127
asbag69
(g90
g71
NtRp3128
(dp3129
g74
(dp3130
g101
g102
ssg83
g3119
sg76
(lp3131
S':'
asbag69
(g90
g71
NtRp3132
(dp3133
g74
(dp3134
sg83
g3119
sg76
(lp3135
g69
(g70
g71
NtRp3136
(dp3137
g74
(dp3138
g82
I3
ssg83
g3132
sg76
(lp3139
g1692
asbasbasbag69
(g85
g71
NtRp3140
(dp3141
g74
(dp3142
sg83
g2461
sg76
(lp3143
g69
(g90
g71
NtRp3144
(dp3145
g74
(dp3146
g94
g95
ssg83
g3140
sg76
(lp3147
S'wsgi.version'
p3148
asbag69
(g90
g71
NtRp3149
(dp3150
g74
(dp3151
g101
g102
ssg83
g3140
sg76
(lp3152
S':'
asbag69
(g90
g71
NtRp3153
(dp3154
g74
(dp3155
sg83
g3140
sg76
(lp3156
g69
(g70
g71
NtRp3157
(dp3158
g74
(dp3159
g82
I3
ssg83
g3153
sg76
(lp3160
S'1'
asbasbasbasbasbasbasbasbasbasbasbasbasbsS'frames'
p3161
(lp3162
(dp3163
S'file'
p3164
S'/home/enigma/web2py/gluon/restricted.py'
p3165
sS'dump'
p3166
(dp3167
S'environment'
p3168
S"{'A': <class 'gluon.html.A'>, 'Auth': <class 'gluon.tools.Auth'>, 'B': <class 'gluon.html.B'>, 'BEAUTIFY': <class 'gluon.html.BEAUTIFY'>, 'BODY': <class 'gluon.html.BODY'>, 'BR': <class 'gluon.html.BR'>, 'BUTTON': <class 'gluon.html.BUTTON'>, 'CAT': <class 'gluon.html.CAT'>, 'CENTER': <class 'gluon.html.CENTER'>, 'CLEANUP': <class 'gluon.validators.CLEANUP'>, ...}"
p3169
sS'ccode'
p3170
S'<code object <module> at 0xada449b0, file "/home...ions/911_signin/controllers/default.py", line 12>'
p3171
ssS'lnum'
p3172
I205
sS'lines'
p3173
(dp3174
I200
S'    try:'
p3175
sI201
S'        if type(code) == types.CodeType:'
p3176
sI202
S'            ccode = code'
p3177
sI203
S'        else:'
p3178
sI204
S'            ccode = compile2(code,layer)'
p3179
sI205
S'        exec ccode in environment'
p3180
sI206
S'    except HTTP:'
p3181
sI207
S'        raise'
p3182
sI208
S'    except RestrictedError:'
p3183
sI209
S'        # do not encapsulate (obfuscate) the original RestrictedError'
p3184
ssS'call'
p3185
S"(code='# -*- coding: utf-8 -*-\\n# this file is released ...m=crud())\\n\\nresponse._vars=response._caller(user)\\n', environment={'A': <class 'gluon.html.A'>, 'Auth': <class 'gluon.tools.Auth'>, 'B': <class 'gluon.html.B'>, 'BEAUTIFY': <class 'gluon.html.BEAUTIFY'>, 'BODY': <class 'gluon.html.BODY'>, 'BR': <class 'gluon.html.BR'>, 'BUTTON': <class 'gluon.html.BUTTON'>, 'CAT': <class 'gluon.html.CAT'>, 'CENTER': <class 'gluon.html.CENTER'>, 'CLEANUP': <class 'gluon.validators.CLEANUP'>, ...}, layer='/home/enigma/web2py/applications/911_signin/controllers/default.py')"
p3186
sS'func'
p3187
S'restricted'
p3188
sa(dp3189
g3164
S'/home/enigma/web2py/applications/911_signin/controllers/default.py'
p3190
sg3166
(dp3191
sg3172
I76
sg3173
(dp3192
I65
S'    http://..../[app]/default/data/update/[table]/[id]'
p3193
sI66
S'    http://..../[app]/default/data/delete/[table]/[id]'
p3194
sI67
S'    http://..../[app]/default/data/select/[table]'
p3195
sI68
S'    http://..../[app]/default/data/search/[table]'
p3196
sI69
S'    but URLs must be signed, i.e. linked with'
p3197
sI70
S"      A('table',_href=URL('data/tables',user_signature=True))"
p3198
sI71
S'    or with the signed load operator'
p3199
sI72
S"      LOAD('default','data.load',args='tables',ajax=True,user_signature=True)"
p3200
sI73
S'    """'
p3201
sI74
S'    return dict(form=crud())'
p3202
ssg3185
S'()'
p3203
sg3187
S'<module>'
p3204
sa(dp3205
g3164
S'/home/enigma/web2py/gluon/globals.py'
p3206
sg3166
(dp3207
S'self'
p3208
S'undefined'
p3209
sS'f'
S'<function user>'
p3210
ssg3172
I173
sg3173
(dp3211
I168
S'        self.menu = []             # used by the default view layout'
p3212
sI169
S'        self.files = []            # used by web2py_ajax.html'
p3213
sI170
S'        self.generic_patterns = [] # patterns to allow generic views'
p3214
sI171
S"        self.delimiters = ('{{','}}')"
p3215
sI172
S'        self._vars = None'
p3216
sI173
S'        self._caller = lambda f: f()'
p3217
sI174
S'        self._view_environment = None'
p3218
sI175
S'        self._custom_commit = None'
p3219
sI176
S'        self._custom_rollback = None'
p3220
sI177
S''
ssg3185
S'(f=<function user>)'
p3221
sg3187
S'<lambda>'
p3222
sa(dp3223
g3164
S'/home/enigma/web2py/applications/911_signin/controllers/default.py'
p3224
sg3166
(dp3225
S'global auth'
p3226
S'<gluon.tools.Auth object>'
p3227
sS'form'
p3228
g3209
sS'builtindict'
p3229
S"<type 'dict'>"
p3230
ssg3172
I35
sg3173
(dp3231
I32
S"        @auth.requires_permission('read','table name',record_id)"
p3232
sI33
S'    to decorate functions that need access control'
p3233
sI34
S'    """'
p3234
sI35
S'    return dict(form=auth())'
p3235
sI36
S''
sI37
S''
sI38
S'def home():'
p3236
sI39
S'    return dict(uid=auth.user_id)'
p3237
sI30
S'    use @auth.requires_login()'
p3238
sI31
S"        @auth.requires_membership('group name')"
p3239
ssg3185
S'()'
p3240
sg3187
S'user'
p3241
sa(dp3242
g3164
S'/home/enigma/web2py/gluon/tools.py'
p3243
sg3166
(dp3244
S'self'
p3245
S'<gluon.tools.Auth object>'
p3246
sS'args'
p3247
S"['request_reset_password']"
p3248
sS'builtingetattr'
p3249
S'<built-in function getattr>'
p3250
ssg3172
I1161
sg3173
(dp3251
I1156
S"        if args[0] in ('login','logout','register','verify_email',"
p3252
sI1157
S"                       'retrieve_username','retrieve_password',"
p3253
sI1158
S"                       'reset_password','request_reset_password',"
p3254
sI1159
S"                       'change_password','profile','groups',"
p3255
sI1160
S"                       'impersonate','not_authorized'):"
p3256
sI1161
S'            return getattr(self,args[0])()'
p3257
sI1162
S"        elif args[0]=='cas' and not self.settings.cas_provider:"
p3258
sI1163
S"            if args(1) == self.settings.cas_actions['login']:"
p3259
sI1164
S'                return self.cas_login(version=2)'
p3260
sI1165
S"            elif args(1) == self.settings.cas_actions['validate']:"
p3261
ssg3185
S'(self=<gluon.tools.Auth object>)'
p3262
sg3187
S'__call__'
p3263
sa(dp3264
g3164
S'/home/enigma/web2py/gluon/tools.py'
p3265
sg3166
(dp3266
S'reset_password_key'
p3267
S"'1368783247-4e8cd601-4fdf-4e8a-abdb-6791d0f4df9d'"
p3268
sS'user.update_record'
p3269
S'<function <lambda>>'
p3270
sS'user'
p3271
S"<Row {'username': 'cs_shadow', 'first_name': 'Ch...lete_record': <function <lambda> at 0xada23144>}>"
p3272
ssg3172
I2305
sg3173
(dp3273
I2304
S'                session.flash = self.messages.email_sent'
p3274
sI2305
S'                user.update_record(reset_password_key=reset_password_key)'
p3275
sI2306
S'            else:'
p3276
sI2307
S'                session.flash = self.messages.unable_to_send_email'
p3277
sI2308
S'            self.log_event(log, user)'
p3278
sI2309
S'            callback(onaccept,form)'
p3279
sI2300
S'            if self.settings.mailer.send(to=form.vars.email,'
p3280
sI2301
S'                                         subject=self.messages.reset_password_subject,'
p3281
sI2302
S'                                         message=self.messages.reset_password % \\'
p3282
sI2303
S'                                             dict(key=reset_password_key)):'
p3283
ssg3185
S"(self=<gluon.tools.Auth object>, next='/911_signin/default/index', onvalidation=[], onaccept=None, log='User %(id)s Password reset')"
p3284
sg3187
S'request_reset_password'
p3285
sa(dp3286
g3164
S'/home/enigma/web2py/gluon/dal.py'
p3287
sg3166
(dp3288
S'a'
S"{'reset_password_key': '1368783247-4e8cd601-4fdf-4e8a-abdb-6791d0f4df9d'}"
p3289
sS'global update_record'
p3290
S'<function update_record>'
p3291
sS'colset'
p3292
g3209
sS'builtinid'
p3293
S'<built-in function id>'
p3294
sS'table'
p3295
g3209
sS'_'
S"(<Row {'username': 'cs_shadow', 'first_name': 'Ch...lete_record': <function <lambda> at 0xada23144>}>, <Table {'last_name': <gluon.dal.Field object at ...on_key': <gluon.dal.Field object at 0xada1dacc>}>, 1)"
p3296
ssg3172
I1621
sg3173
(dp3297
I1616
S'                    colset[fieldname] = value = \\'
p3298
sI1617
S'                        self.parse_value(value,field.type,blob_decode)'
p3299
sI1618
S''
sI1619
S"                    if field.type == 'id':"
p3300
sI1620
S'                        id = value'
p3301
sI1621
S'                        colset.update_record = lambda _ = (colset, table, id), **a: update_record(_, a)'
p3302
sI1622
S'                        colset.delete_record = lambda t = table, i = id: t._db(t._id==i).delete()'
p3303
sI1623
S'                        for (referee_table, referee_name) in table._referenced_by:'
p3304
sI1624
S'                            s = db[referee_table][referee_name]'
p3305
sI1625
S'                            referee_link = db._referee_name and \\'
p3306
ssg3185
S"(_=(<Row {'username': 'cs_shadow', 'first_name': 'Ch...lete_record': <function <lambda> at 0xada23144>}>, <Table {'last_name': <gluon.dal.Field object at ...on_key': <gluon.dal.Field object at 0xada1dacc>}>, 1), **a={'reset_password_key': '1368783247-4e8cd601-4fdf-4e8a-abdb-6791d0f4df9d'})"
p3307
sg3187
g3222
sa(dp3308
g3164
S'/home/enigma/web2py/gluon/dal.py'
p3309
sg3166
(dp3310
S'c'
g21
sS'table._id'
p3311
S'<gluon.dal.Field object>'
p3312
sS'table._db'
p3313
S"<DAL {'auth_event': <Table {'origin': <gluon.dal..._key': <gluon.dal.Field object at 0xada1558c>}>}>"
p3314
sS').update'
p3315
g3209
sS'table'
p3316
S"<Table {'last_name': <gluon.dal.Field object at ...on_key': <gluon.dal.Field object at 0xada1dacc>}>"
p3317
sS'id'
p3318
S'1'
ssg3172
I7653
sg3173
(dp3319
I7648
S''
sI7649
S'def update_record(pack, a=None):'
p3320
sI7650
S'    (colset, table, id) = pack'
p3321
sI7651
S'    b = a or dict(colset)'
p3322
sI7652
S"    c = dict([(k,v) for (k,v) in b.items() if k in table.fields and table[k].type!='id'])"
p3323
sI7653
S'    table._db(table._id==id).update(**c)'
p3324
sI7654
S'    for (k, v) in c.items():'
p3325
sI7655
S'        colset[k] = v'
p3326
sI7656
S''
sI7657
S'class VirtualCommand(object):'
p3327
ssg3185
S"(pack=(<Row {'username': 'cs_shadow', 'first_name': 'Ch...lete_record': <function <lambda> at 0xada23144>}>, <Table {'last_name': <gluon.dal.Field object at ...on_key': <gluon.dal.Field object at 0xada1dacc>}>, 1), a={'reset_password_key': '1368783247-4e8cd601-4fdf-4e8a-abdb-6791d0f4df9d'})"
p3328
sg3187
S'update_record'
p3329
sa(dp3330
g3164
S'/home/enigma/web2py/gluon/dal.py'
p3331
sg3166
(dp3332
S'builtinSyntaxError'
p3333
S"<type 'exceptions.SyntaxError'>"
p3334
ssg3172
I7589
sg3173
(dp3335
I7584
S''
sI7585
S'    def update(self, **update_fields):'
p3336
sI7586
S'        tablename = self.db._adapter.get_table(self.query)'
p3337
sI7587
S'        fields = self.db[tablename]._listify(update_fields,update=True)'
p3338
sI7588
S'        if not fields:'
p3339
sI7589
S'            raise SyntaxError, "No fields to update"'
p3340
sI7590
S'        self.delete_uploaded_files(update_fields)'
p3341
sI7591
S'        return self.db._adapter.update(tablename,self.query,fields)'
p3342
sI7592
S''
sI7593
S'    def validate_and_update(self, **update_fields):'
p3343
ssg3185
S'(self=<gluon.dal.Set object>, **update_fields={})'
p3344
sg3187
S'update'
p3345
sasS'pyver'
p3346
S'Python 2.7.3: /usr/bin/python'
p3347
sS'session'
p3348
g69
(g70
g71
NtRp3349
(dp3350
g74
(dp3351
sg76
(lp3352
g69
(g78
g71
NtRp3353
(dp3354
g74
(dp3355
g82
I5
ssg83
Nsg76
(lp3356
g69
(g85
g71
NtRp3357
(dp3358
g74
(dp3359
sg83
g3353
sg76
(lp3360
g69
(g90
g71
NtRp3361
(dp3362
g74
(dp3363
g94
g95
ssg83
g3357
sg76
(lp3364
S'flash'
p3365
asbag69
(g90
g71
NtRp3366
(dp3367
g74
(dp3368
g101
g102
ssg83
g3357
sg76
(lp3369
S':'
asbag69
(g90
g71
NtRp3370
(dp3371
g74
(dp3372
sg83
g3357
sg76
(lp3373
g69
(g70
g71
NtRp3374
(dp3375
g74
(dp3376
g82
I5
ssg83
g3370
sg76
(lp3377
S'Email sent'
p3378
asbasbasbasbasbsS'etype'
p3379
S"<type 'exceptions.SyntaxError'>"
p3380
sS'date'
p3381
S'Fri May 17 15:04:07 2013'
p3382
sS'response'
p3383
g69
(g70
g71
NtRp3384
(dp3385
g74
(dp3386
sg76
(lp3387
g69
(g78
g71
NtRp3388
(dp3389
g74
(dp3390
g82
I5
ssg83
Nsg76
(lp3391
g69
(g85
g71
NtRp3392
(dp3393
g74
(dp3394
sg83
g3388
sg76
(lp3395
g69
(g90
g71
NtRp3396
(dp3397
g74
(dp3398
g94
g95
ssg83
g3392
sg76
(lp3399
g180
asbag69
(g90
g71
NtRp3400
(dp3401
g74
(dp3402
g101
g102
ssg83
g3392
sg76
(lp3403
S':'
asbag69
(g90
g71
NtRp3404
(dp3405
g74
(dp3406
sg83
g3392
sg76
(lp3407
g69
(g70
g71
NtRp3408
(dp3409
g74
(dp3410
g82
I5
ssg83
g3404
sg76
(lp3411
S'<cStringIO.StringO object at 0xada26e00>'
p3412
asbasbasbag69
(g85
g71
NtRp3413
(dp3414
g74
(dp3415
sg83
g3388
sg76
(lp3416
g69
(g90
g71
NtRp3417
(dp3418
g74
(dp3419
g94
g95
ssg83
g3413
sg76
(lp3420
g246
asbag69
(g90
g71
NtRp3421
(dp3422
g74
(dp3423
g101
g102
ssg83
g3413
sg76
(lp3424
S':'
asbag69
(g90
g71
NtRp3425
(dp3426
g74
(dp3427
sg83
g3413
sg76
(lp3428
g69
(g70
g71
NtRp3429
(dp3430
g74
(dp3431
g82
I5
ssg83
g3425
sg76
(lp3432
g69
(g78
g71
NtRp3433
(dp3434
g74
(dp3435
g82
I4
ssg83
Nsg76
(lp3436
g69
(g85
g71
NtRp3437
(dp3438
g74
(dp3439
sg83
g3433
sg76
(lp3440
g69
(g90
g71
NtRp3441
(dp3442
g74
(dp3443
g94
g95
ssg83
g3437
sg76
(lp3444
S'session_id_911_signin'
p3445
asbag69
(g90
g71
NtRp3446
(dp3447
g74
(dp3448
g101
g102
ssg83
g3437
sg76
(lp3449
S':'
asbag69
(g90
g71
NtRp3450
(dp3451
g74
(dp3452
sg83
g3437
sg76
(lp3453
g69
(g70
g71
NtRp3454
(dp3455
g74
(dp3456
g82
I4
ssg83
g3450
sg76
(lp3457
g69
(g78
g71
NtRp3458
(dp3459
g74
(dp3460
g82
I3
ssg83
Nsg76
(lp3461
g69
(g85
g71
NtRp3462
(dp3463
g74
(dp3464
sg83
g3458
sg76
(lp3465
g69
(g90
g71
NtRp3466
(dp3467
g74
(dp3468
g94
g95
ssg83
g3462
sg76
(lp3469
g296
asbag69
(g90
g71
NtRp3470
(dp3471
g74
(dp3472
g101
g102
ssg83
g3462
sg76
(lp3473
S':'
asbag69
(g90
g71
NtRp3474
(dp3475
g74
(dp3476
sg83
g3462
sg76
(lp3477
g69
(g70
g71
NtRp3478
(dp3479
g74
(dp3480
g82
I3
ssg83
g3474
sg76
(lp3481
S''
asbasbasbag69
(g85
g71
NtRp3482
(dp3483
g74
(dp3484
sg83
g3458
sg76
(lp3485
g69
(g90
g71
NtRp3486
(dp3487
g74
(dp3488
g94
g95
ssg83
g3482
sg76
(lp3489
g317
asbag69
(g90
g71
NtRp3490
(dp3491
g74
(dp3492
g101
g102
ssg83
g3482
sg76
(lp3493
S':'
asbag69
(g90
g71
NtRp3494
(dp3495
g74
(dp3496
sg83
g3482
sg76
(lp3497
g69
(g70
g71
NtRp3498
(dp3499
g74
(dp3500
g82
I3
ssg83
g3494
sg76
(lp3501
S''
asbasbasbag69
(g85
g71
NtRp3502
(dp3503
g74
(dp3504
sg83
g3458
sg76
(lp3505
g69
(g90
g71
NtRp3506
(dp3507
g74
(dp3508
g94
g95
ssg83
g3502
sg76
(lp3509
g338
asbag69
(g90
g71
NtRp3510
(dp3511
g74
(dp3512
g101
g102
ssg83
g3502
sg76
(lp3513
S':'
asbag69
(g90
g71
NtRp3514
(dp3515
g74
(dp3516
sg83
g3502
sg76
(lp3517
g69
(g70
g71
NtRp3518
(dp3519
g74
(dp3520
g82
I3
ssg83
g3514
sg76
(lp3521
S''
asbasbasbag69
(g85
g71
NtRp3522
(dp3523
g74
(dp3524
sg83
g3458
sg76
(lp3525
g69
(g90
g71
NtRp3526
(dp3527
g74
(dp3528
g94
g95
ssg83
g3522
sg76
(lp3529
g359
asbag69
(g90
g71
NtRp3530
(dp3531
g74
(dp3532
g101
g102
ssg83
g3522
sg76
(lp3533
S':'
asbag69
(g90
g71
NtRp3534
(dp3535
g74
(dp3536
sg83
g3522
sg76
(lp3537
g69
(g70
g71
NtRp3538
(dp3539
g74
(dp3540
g82
I3
ssg83
g3534
sg76
(lp3541
S''
asbasbasbag69
(g85
g71
NtRp3542
(dp3543
g74
(dp3544
sg83
g3458
sg76
(lp3545
g69
(g90
g71
NtRp3546
(dp3547
g74
(dp3548
g94
g95
ssg83
g3542
sg76
(lp3549
g380
asbag69
(g90
g71
NtRp3550
(dp3551
g74
(dp3552
g101
g102
ssg83
g3542
sg76
(lp3553
S':'
asbag69
(g90
g71
NtRp3554
(dp3555
g74
(dp3556
sg83
g3542
sg76
(lp3557
g69
(g70
g71
NtRp3558
(dp3559
g74
(dp3560
g82
I3
ssg83
g3554
sg76
(lp3561
S''
asbasbasbag69
(g85
g71
NtRp3562
(dp3563
g74
(dp3564
sg83
g3458
sg76
(lp3565
g69
(g90
g71
NtRp3566
(dp3567
g74
(dp3568
g94
g95
ssg83
g3562
sg76
(lp3569
g401
asbag69
(g90
g71
NtRp3570
(dp3571
g74
(dp3572
g101
g102
ssg83
g3562
sg76
(lp3573
S':'
asbag69
(g90
g71
NtRp3574
(dp3575
g74
(dp3576
sg83
g3562
sg76
(lp3577
g69
(g70
g71
NtRp3578
(dp3579
g74
(dp3580
g82
I3
ssg83
g3574
sg76
(lp3581
S'/'
asbasbasbag69
(g85
g71
NtRp3582
(dp3583
g74
(dp3584
sg83
g3458
sg76
(lp3585
g69
(g90
g71
NtRp3586
(dp3587
g74
(dp3588
g94
g95
ssg83
g3582
sg76
(lp3589
g422
asbag69
(g90
g71
NtRp3590
(dp3591
g74
(dp3592
g101
g102
ssg83
g3582
sg76
(lp3593
S':'
asbag69
(g90
g71
NtRp3594
(dp3595
g74
(dp3596
sg83
g3582
sg76
(lp3597
g69
(g70
g71
NtRp3598
(dp3599
g74
(dp3600
g82
I3
ssg83
g3594
sg76
(lp3601
S''
asbasbasbag69
(g85
g71
NtRp3602
(dp3603
g74
(dp3604
sg83
g3458
sg76
(lp3605
g69
(g90
g71
NtRp3606
(dp3607
g74
(dp3608
g94
g95
ssg83
g3602
sg76
(lp3609
g443
asbag69
(g90
g71
NtRp3610
(dp3611
g74
(dp3612
g101
g102
ssg83
g3602
sg76
(lp3613
S':'
asbag69
(g90
g71
NtRp3614
(dp3615
g74
(dp3616
sg83
g3602
sg76
(lp3617
g69
(g70
g71
NtRp3618
(dp3619
g74
(dp3620
g82
I3
ssg83
g3614
sg76
(lp3621
S''
asbasbasbasbasbasbasbasbasbasbasbag69
(g85
g71
NtRp3622
(dp3623
g74
(dp3624
sg83
g3388
sg76
(lp3625
g69
(g90
g71
NtRp3626
(dp3627
g74
(dp3628
g94
g95
ssg83
g3622
sg76
(lp3629
S'delimiters'
p3630
asbag69
(g90
g71
NtRp3631
(dp3632
g74
(dp3633
g101
g102
ssg83
g3622
sg76
(lp3634
S':'
asbag69
(g90
g71
NtRp3635
(dp3636
g74
(dp3637
sg83
g3622
sg76
(lp3638
g69
(g70
g71
NtRp3639
(dp3640
g74
(dp3641
g82
I5
ssg83
g3635
sg76
(lp3642
g69
(g78
g71
NtRp3643
(dp3644
g74
(dp3645
g82
I4
ssg83
Nsg76
(lp3646
g69
(g85
g71
NtRp3647
(dp3648
g74
(dp3649
sg83
g3643
sg76
(lp3650
g69
(g90
g71
NtRp3651
(dp3652
g74
(dp3653
sg83
g3647
sg76
(lp3654
g69
(g70
g71
NtRp3655
(dp3656
g74
(dp3657
g82
I4
ssg83
g3651
sg76
(lp3658
S'{{'
p3659
asbasbasbag69
(g85
g71
NtRp3660
(dp3661
g74
(dp3662
sg83
g3643
sg76
(lp3663
g69
(g90
g71
NtRp3664
(dp3665
g74
(dp3666
sg83
g3660
sg76
(lp3667
g69
(g70
g71
NtRp3668
(dp3669
g74
(dp3670
g82
I4
ssg83
g3664
sg76
(lp3671
S'}}'
p3672
asbasbasbasbasbasbasbag69
(g85
g71
NtRp3673
(dp3674
g74
(dp3675
sg83
g3388
sg76
(lp3676
g69
(g90
g71
NtRp3677
(dp3678
g74
(dp3679
g94
g95
ssg83
g3673
sg76
(lp3680
S'files'
p3681
asbag69
(g90
g71
NtRp3682
(dp3683
g74
(dp3684
g101
g102
ssg83
g3673
sg76
(lp3685
S':'
asbag69
(g90
g71
NtRp3686
(dp3687
g74
(dp3688
sg83
g3673
sg76
(lp3689
g69
(g70
g71
NtRp3690
(dp3691
g74
(dp3692
g82
I5
ssg83
g3686
sg76
(lp3693
g69
(g78
g71
NtRp3694
(dp3695
g74
(dp3696
g82
I4
ssg83
Nsg76
(lp3697
sbasbasbasbag69
(g85
g71
NtRp3698
(dp3699
g74
(dp3700
sg83
g3388
sg76
(lp3701
g69
(g90
g71
NtRp3702
(dp3703
g74
(dp3704
g94
g95
ssg83
g3698
sg76
(lp3705
g3365
asbag69
(g90
g71
NtRp3706
(dp3707
g74
(dp3708
g101
g102
ssg83
g3698
sg76
(lp3709
S':'
asbag69
(g90
g71
NtRp3710
(dp3711
g74
(dp3712
sg83
g3698
sg76
(lp3713
g69
(g70
g71
NtRp3714
(dp3715
g74
(dp3716
g82
I5
ssg83
g3710
sg76
(lp3717
S''
asbasbasbag69
(g85
g71
NtRp3718
(dp3719
g74
(dp3720
sg83
g3388
sg76
(lp3721
g69
(g90
g71
NtRp3722
(dp3723
g74
(dp3724
g94
g95
ssg83
g3718
sg76
(lp3725
S'generic_patterns'
p3726
asbag69
(g90
g71
NtRp3727
(dp3728
g74
(dp3729
g101
g102
ssg83
g3718
sg76
(lp3730
S':'
asbag69
(g90
g71
NtRp3731
(dp3732
g74
(dp3733
sg83
g3718
sg76
(lp3734
g69
(g70
g71
NtRp3735
(dp3736
g74
(dp3737
g82
I5
ssg83
g3731
sg76
(lp3738
g69
(g78
g71
NtRp3739
(dp3740
g74
(dp3741
g82
I4
ssg83
Nsg76
(lp3742
g69
(g85
g71
NtRp3743
(dp3744
g74
(dp3745
sg83
g3739
sg76
(lp3746
g69
(g90
g71
NtRp3747
(dp3748
g74
(dp3749
sg83
g3743
sg76
(lp3750
g69
(g70
g71
NtRp3751
(dp3752
g74
(dp3753
g82
I4
ssg83
g3747
sg76
(lp3754
S'*'
asbasbasbasbasbasbasbag69
(g85
g71
NtRp3755
(dp3756
g74
(dp3757
sg83
g3388
sg76
(lp3758
g69
(g90
g71
NtRp3759
(dp3760
g74
(dp3761
g94
g95
ssg83
g3755
sg76
(lp3762
S'headers'
p3763
asbag69
(g90
g71
NtRp3764
(dp3765
g74
(dp3766
g101
g102
ssg83
g3755
sg76
(lp3767
S':'
asbag69
(g90
g71
NtRp3768
(dp3769
g74
(dp3770
sg83
g3755
sg76
(lp3771
g69
(g70
g71
NtRp3772
(dp3773
g74
(dp3774
g82
I5
ssg83
g3768
sg76
(lp3775
g69
(g78
g71
NtRp3776
(dp3777
g74
(dp3778
g82
I4
ssg83
Nsg76
(lp3779
g69
(g85
g71
NtRp3780
(dp3781
g74
(dp3782
sg83
g3776
sg76
(lp3783
g69
(g90
g71
NtRp3784
(dp3785
g74
(dp3786
g94
g95
ssg83
g3780
sg76
(lp3787
S'Cache-Control'
p3788
asbag69
(g90
g71
NtRp3789
(dp3790
g74
(dp3791
g101
g102
ssg83
g3780
sg76
(lp3792
S':'
asbag69
(g90
g71
NtRp3793
(dp3794
g74
(dp3795
sg83
g3780
sg76
(lp3796
g69
(g70
g71
NtRp3797
(dp3798
g74
(dp3799
g82
I4
ssg83
g3793
sg76
(lp3800
S'no-store, no-cache, must-revalidate, post-check=0, pre-check=0'
p3801
asbasbasbag69
(g85
g71
NtRp3802
(dp3803
g74
(dp3804
sg83
g3776
sg76
(lp3805
g69
(g90
g71
NtRp3806
(dp3807
g74
(dp3808
g94
g95
ssg83
g3802
sg76
(lp3809
S'Content-Type'
p3810
asbag69
(g90
g71
NtRp3811
(dp3812
g74
(dp3813
g101
g102
ssg83
g3802
sg76
(lp3814
S':'
asbag69
(g90
g71
NtRp3815
(dp3816
g74
(dp3817
sg83
g3802
sg76
(lp3818
g69
(g70
g71
NtRp3819
(dp3820
g74
(dp3821
g82
I4
ssg83
g3815
sg76
(lp3822
S'text/html; charset=utf-8'
p3823
asbasbasbag69
(g85
g71
NtRp3824
(dp3825
g74
(dp3826
sg83
g3776
sg76
(lp3827
g69
(g90
g71
NtRp3828
(dp3829
g74
(dp3830
g94
g95
ssg83
g3824
sg76
(lp3831
S'Expires'
p3832
asbag69
(g90
g71
NtRp3833
(dp3834
g74
(dp3835
g101
g102
ssg83
g3824
sg76
(lp3836
S':'
asbag69
(g90
g71
NtRp3837
(dp3838
g74
(dp3839
sg83
g3824
sg76
(lp3840
g69
(g70
g71
NtRp3841
(dp3842
g74
(dp3843
g82
I4
ssg83
g3837
sg76
(lp3844
S'Fri, 17 May 2013 09:34:07 GMT'
p3845
asbasbasbag69
(g85
g71
NtRp3846
(dp3847
g74
(dp3848
sg83
g3776
sg76
(lp3849
g69
(g90
g71
NtRp3850
(dp3851
g74
(dp3852
g94
g95
ssg83
g3846
sg76
(lp3853
S'Pragma'
p3854
asbag69
(g90
g71
NtRp3855
(dp3856
g74
(dp3857
g101
g102
ssg83
g3846
sg76
(lp3858
S':'
asbag69
(g90
g71
NtRp3859
(dp3860
g74
(dp3861
sg83
g3846
sg76
(lp3862
g69
(g70
g71
NtRp3863
(dp3864
g74
(dp3865
g82
I4
ssg83
g3859
sg76
(lp3866
S'no-cache'
p3867
asbasbasbag69
(g85
g71
NtRp3868
(dp3869
g74
(dp3870
sg83
g3776
sg76
(lp3871
g69
(g90
g71
NtRp3872
(dp3873
g74
(dp3874
g94
g95
ssg83
g3868
sg76
(lp3875
S'X-Powered-By'
p3876
asbag69
(g90
g71
NtRp3877
(dp3878
g74
(dp3879
g101
g102
ssg83
g3868
sg76
(lp3880
S':'
asbag69
(g90
g71
NtRp3881
(dp3882
g74
(dp3883
sg83
g3868
sg76
(lp3884
g69
(g70
g71
NtRp3885
(dp3886
g74
(dp3887
g82
I4
ssg83
g3881
sg76
(lp3888
S'web2py'
p3889
asbasbasbasbasbasbasbag69
(g85
g71
NtRp3890
(dp3891
g74
(dp3892
sg83
g3388
sg76
(lp3893
g69
(g90
g71
NtRp3894
(dp3895
g74
(dp3896
g94
g95
ssg83
g3890
sg76
(lp3897
S'menu'
p3898
asbag69
(g90
g71
NtRp3899
(dp3900
g74
(dp3901
g101
g102
ssg83
g3890
sg76
(lp3902
S':'
asbag69
(g90
g71
NtRp3903
(dp3904
g74
(dp3905
sg83
g3890
sg76
(lp3906
g69
(g70
g71
NtRp3907
(dp3908
g74
(dp3909
g82
I5
ssg83
g3903
sg76
(lp3910
g69
(g78
g71
NtRp3911
(dp3912
g74
(dp3913
g82
I4
ssg83
Nsg76
(lp3914
g69
(g85
g71
NtRp3915
(dp3916
g74
(dp3917
sg83
g3911
sg76
(lp3918
g69
(g90
g71
NtRp3919
(dp3920
g74
(dp3921
sg83
g3915
sg76
(lp3922
g69
(g70
g71
NtRp3923
(dp3924
g74
(dp3925
g82
I4
ssg83
g3919
sg76
(lp3926
g69
(g78
g71
NtRp3927
(dp3928
g74
(dp3929
g82
I3
ssg83
Nsg76
(lp3930
g69
(g85
g71
NtRp3931
(dp3932
g74
(dp3933
sg83
g3927
sg76
(lp3934
g69
(g90
g71
NtRp3935
(dp3936
g74
(dp3937
sg83
g3931
sg76
(lp3938
g69
(g70
g71
NtRp3939
(dp3940
g74
(dp3941
g82
I3
ssg83
g3935
sg76
(lp3942
cgluon.languages
lazyT_unpickle
p3943
(S't\x04\x00\x00\x00Home'
tRp3944
asbasbasbag69
(g85
g71
NtRp3945
(dp3946
g74
(dp3947
sg83
g3927
sg76
(lp3948
g69
(g90
g71
NtRp3949
(dp3950
g74
(dp3951
sg83
g3945
sg76
(lp3952
g69
(g70
g71
NtRp3953
(dp3954
g74
(dp3955
g82
I3
ssg83
g3949
sg76
(lp3956
g112
asbasbasbag69
(g85
g71
NtRp3957
(dp3958
g74
(dp3959
sg83
g3927
sg76
(lp3960
g69
(g90
g71
NtRp3961
(dp3962
g74
(dp3963
sg83
g3957
sg76
(lp3964
g69
(g70
g71
NtRp3965
(dp3966
g74
(dp3967
g82
I3
ssg83
g3961
sg76
(lp3968
S'/911_signin/default/index'
p3969
asbasbasbag69
(g85
g71
NtRp3970
(dp3971
g74
(dp3972
sg83
g3927
sg76
(lp3973
g69
(g90
g71
NtRp3974
(dp3975
g74
(dp3976
sg83
g3970
sg76
(lp3977
g69
(g70
g71
NtRp3978
(dp3979
g74
(dp3980
g82
I3
ssg83
g3974
sg76
(lp3981
g69
(g78
g71
NtRp3982
(dp3983
g74
(dp3984
g82
I2
ssg83
Nsg76
(lp3985
sbasbasbasbasbasbasbasbag69
(g85
g71
NtRp3986
(dp3987
g74
(dp3988
sg83
g3911
sg76
(lp3989
g69
(g90
g71
NtRp3990
(dp3991
g74
(dp3992
sg83
g3986
sg76
(lp3993
g69
(g70
g71
NtRp3994
(dp3995
g74
(dp3996
g82
I4
ssg83
g3990
sg76
(lp3997
g69
(g78
g71
NtRp3998
(dp3999
g74
(dp4000
g82
I3
ssg83
Nsg76
(lp4001
g69
(g85
g71
NtRp4002
(dp4003
g74
(dp4004
sg83
g3998
sg76
(lp4005
g69
(g90
g71
NtRp4006
(dp4007
g74
(dp4008
sg83
g4002
sg76
(lp4009
g69
(g70
g71
NtRp4010
(dp4011
g74
(dp4012
g82
I3
ssg83
g4006
sg76
(lp4013
g69
(cgluon.html
SPAN
p4014
g71
NtRp4015
(dp4016
g74
(dp4017
g94
S'color:yellow'
p4018
ssg83
Nsg76
(lp4019
g3889
asbasbasbasbag69
(g85
g71
NtRp4020
(dp4021
g74
(dp4022
sg83
g3998
sg76
(lp4023
g69
(g90
g71
NtRp4024
(dp4025
g74
(dp4026
sg83
g4020
sg76
(lp4027
g69
(g70
g71
NtRp4028
(dp4029
g74
(dp4030
g82
I3
ssg83
g4024
sg76
(lp4031
g112
asbasbasbag69
(g85
g71
NtRp4032
(dp4033
g74
(dp4034
sg83
g3998
sg76
(lp4035
g69
(g90
g71
NtRp4036
(dp4037
g74
(dp4038
sg83
g4032
sg76
(lp4039
g69
(g70
g71
NtRp4040
(dp4041
g74
(dp4042
g82
I3
ssg83
g4036
sg76
(lp4043
S'None'
p4044
asbasbasbag69
(g85
g71
NtRp4045
(dp4046
g74
(dp4047
sg83
g3998
sg76
(lp4048
g69
(g90
g71
NtRp4049
(dp4050
g74
(dp4051
sg83
g4045
sg76
(lp4052
g69
(g70
g71
NtRp4053
(dp4054
g74
(dp4055
g82
I3
ssg83
g4049
sg76
(lp4056
g69
(g78
g71
NtRp4057
(dp4058
g74
(dp4059
g82
I2
ssg83
Nsg76
(lp4060
g69
(g85
g71
NtRp4061
(dp4062
g74
(dp4063
sg83
g4057
sg76
(lp4064
g69
(g90
g71
NtRp4065
(dp4066
g74
(dp4067
sg83
g4061
sg76
(lp4068
g69
(g70
g71
NtRp4069
(dp4070
g74
(dp4071
g82
I2
ssg83
g4065
sg76
(lp4072
g69
(g78
g71
NtRp4073
(dp4074
g74
(dp4075
g82
I1
ssg83
Nsg76
(lp4076
g69
(g85
g71
NtRp4077
(dp4078
g74
(dp4079
sg83
g4073
sg76
(lp4080
g69
(g90
g71
NtRp4081
(dp4082
g74
(dp4083
sg83
g4077
sg76
(lp4084
g69
(g70
g71
NtRp4085
(dp4086
g74
(dp4087
g82
I1
ssg83
g4081
sg76
(lp4088
g3943
(S's\x08\x00\x00\x00My Sites'
tRp4089
asbasbasbag69
(g85
g71
NtRp4090
(dp4091
g74
(dp4092
sg83
g4073
sg76
(lp4093
g69
(g90
g71
NtRp4094
(dp4095
g74
(dp4096
sg83
g4090
sg76
(lp4097
g69
(g70
g71
NtRp4098
(dp4099
g74
(dp4100
g82
I1
ssg83
g4094
sg76
(lp4101
I00
asbasbasbag69
(g85
g71
NtRp4102
(dp4103
g74
(dp4104
sg83
g4073
sg76
(lp4105
g69
(g90
g71
NtRp4106
(dp4107
g74
(dp4108
sg83
g4102
sg76
(lp4109
g69
(g70
g71
NtRp4110
(dp4111
g74
(dp4112
g82
I1
ssg83
g4106
sg76
(lp4113
S'/admin/default/site'
p4114
asbasbasbasbasbasbasbag69
(g85
g71
NtRp4115
(dp4116
g74
(dp4117
sg83
g4057
sg76
(lp4118
g69
(g90
g71
NtRp4119
(dp4120
g74
(dp4121
sg83
g4115
sg76
(lp4122
g69
(g70
g71
NtRp4123
(dp4124
g74
(dp4125
g82
I2
ssg83
g4119
sg76
(lp4126
g69
(g78
g71
NtRp4127
(dp4128
g74
(dp4129
g82
I1
ssg83
Nsg76
(lp4130
g69
(g85
g71
NtRp4131
(dp4132
g74
(dp4133
sg83
g4127
sg76
(lp4134
g69
(g90
g71
NtRp4135
(dp4136
g74
(dp4137
sg83
g4131
sg76
(lp4138
g69
(g70
g71
NtRp4139
(dp4140
g74
(dp4141
g82
I1
ssg83
g4135
sg76
(lp4142
g3943
(S's\x08\x00\x00\x00This App'
tRp4143
asbasbasbag69
(g85
g71
NtRp4144
(dp4145
g74
(dp4146
sg83
g4127
sg76
(lp4147
g69
(g90
g71
NtRp4148
(dp4149
g74
(dp4150
sg83
g4144
sg76
(lp4151
g69
(g70
g71
NtRp4152
(dp4153
g74
(dp4154
g82
I1
ssg83
g4148
sg76
(lp4155
I00
asbasbasbag69
(g85
g71
NtRp4156
(dp4157
g74
(dp4158
sg83
g4127
sg76
(lp4159
g69
(g90
g71
NtRp4160
(dp4161
g74
(dp4162
sg83
g4156
sg76
(lp4163
g69
(g70
g71
NtRp4164
(dp4165
g74
(dp4166
g82
I1
ssg83
g4160
sg76
(lp4167
S'/admin/default/design/911_signin'
p4168
asbasbasbag69
(g85
g71
NtRp4169
(dp4170
g74
(dp4171
sg83
g4127
sg76
(lp4172
g69
(g90
g71
NtRp4173
(dp4174
g74
(dp4175
sg83
g4169
sg76
(lp4176
g69
(g70
g71
NtRp4177
(dp4178
g74
(dp4179
g82
I1
ssg83
g4173
sg76
(lp4180
(lp4181
(g3943
(S't\n\x00\x00\x00Controller'
tRp4182
I00
S'/admin/default/edit/911_signin/controllers/default.py'
tp4183
a(g3943
(S't\x04\x00\x00\x00View'
tRp4184
I00
S'/admin/default/edit/911_signin/views/default/user.html'
tp4185
a(g3943
(S't\x06\x00\x00\x00Layout'
tRp4186
I00
S'/admin/default/edit/911_signin/views/layout.html'
tp4187
a(g3943
(S't\n\x00\x00\x00Stylesheet'
tRp4188
I00
S'/admin/default/edit/911_signin/static/css/web2py.css'
tp4189
a(g3943
(S's\x08\x00\x00\x00DB Model'
tRp4190
I00
S'/admin/default/edit/911_signin/models/db.py'
tp4191
a(g3943
(S's\n\x00\x00\x00Menu Model'
tRp4192
I00
S'/admin/default/edit/911_signin/models/menu.py'
tp4193
a(g3943
(S't\x08\x00\x00\x00Database'
tRp4194
I00
S'/911_signin/appadmin/index'
tp4195
a(g3943
(S't\x06\x00\x00\x00Errors'
tRp4196
I00
S'/admin/default/errors/911_signin'
tp4197
a(g3943
(S't\x05\x00\x00\x00About'
tRp4198
I00
S'/admin/default/about/911_signin'
tp4199
aasbasbasbasbasbasbasbag69
(g85
g71
NtRp4200
(dp4201
g74
(dp4202
sg83
g4057
sg76
(lp4203
g69
(g90
g71
NtRp4204
(dp4205
g74
(dp4206
sg83
g4200
sg76
(lp4207
g69
(g70
g71
NtRp4208
(dp4209
g74
(dp4210
g82
I2
ssg83
g4204
sg76
(lp4211
g69
(g78
g71
NtRp4212
(dp4213
g74
(dp4214
g82
I1
ssg83
Nsg76
(lp4215
g69
(g85
g71
NtRp4216
(dp4217
g74
(dp4218
sg83
g4212
sg76
(lp4219
g69
(g90
g71
NtRp4220
(dp4221
g74
(dp4222
sg83
g4216
sg76
(lp4223
g69
(g70
g71
NtRp4224
(dp4225
g74
(dp4226
g82
I1
ssg83
g4220
sg76
(lp4227
S'web2py.com'
p4228
asbasbasbag69
(g85
g71
NtRp4229
(dp4230
g74
(dp4231
sg83
g4212
sg76
(lp4232
g69
(g90
g71
NtRp4233
(dp4234
g74
(dp4235
sg83
g4229
sg76
(lp4236
g69
(g70
g71
NtRp4237
(dp4238
g74
(dp4239
g82
I1
ssg83
g4233
sg76
(lp4240
I00
asbasbasbag69
(g85
g71
NtRp4241
(dp4242
g74
(dp4243
sg83
g4212
sg76
(lp4244
g69
(g90
g71
NtRp4245
(dp4246
g74
(dp4247
sg83
g4241
sg76
(lp4248
g69
(g70
g71
NtRp4249
(dp4250
g74
(dp4251
g82
I1
ssg83
g4245
sg76
(lp4252
S'http://www.web2py.com'
p4253
asbasbasbag69
(g85
g71
NtRp4254
(dp4255
g74
(dp4256
sg83
g4212
sg76
(lp4257
g69
(g90
g71
NtRp4258
(dp4259
g74
(dp4260
sg83
g4254
sg76
(lp4261
g69
(g70
g71
NtRp4262
(dp4263
g74
(dp4264
g82
I1
ssg83
g4258
sg76
(lp4265
(lp4266
(g3943
(S't\x08\x00\x00\x00Download'
tRp4267
I00
S'http://www.web2py.com/examples/default/download'
p4268
tp4269
a(g3943
(S't\x07\x00\x00\x00Support'
tRp4270
I00
S'http://www.web2py.com/examples/default/support'
p4271
tp4272
a(g3943
(S't\x04\x00\x00\x00Demo'
tRp4273
I00
S'http://web2py.com/demo_admin'
p4274
tp4275
a(g3943
(S's\x0e\x00\x00\x00Quick Examples'
tRp4276
I00
S'http://web2py.com/examples/default/examples'
p4277
tp4278
a(g3943
(S't\x03\x00\x00\x00FAQ'
tRp4279
I00
S'http://web2py.com/AlterEgo'
p4280
tp4281
a(g3943
(S't\x06\x00\x00\x00Videos'
tRp4282
I00
S'http://www.web2py.com/examples/default/videos/'
p4283
tp4284
a(g3943
(S's\x11\x00\x00\x00Free Applications'
tRp4285
I00
S'http://web2py.com/appliances'
p4286
tp4287
a(g3943
(S't\x07\x00\x00\x00Plugins'
tRp4288
I00
S'http://web2py.com/plugins'
p4289
tp4290
a(g3943
(S't\x07\x00\x00\x00Layouts'
tRp4291
I00
S'http://web2py.com/layouts'
p4292
tp4293
a(g3943
(S't\x07\x00\x00\x00Recipes'
tRp4294
I00
S'http://web2pyslices.com/'
p4295
tp4296
a(g3943
(S't\x08\x00\x00\x00Semantic'
tRp4297
I00
S'http://web2py.com/semantic'
p4298
tp4299
aasbasbasbasbasbasbasbag69
(g85
g71
NtRp4300
(dp4301
g74
(dp4302
sg83
g4057
sg76
(lp4303
g69
(g90
g71
NtRp4304
(dp4305
g74
(dp4306
sg83
g4300
sg76
(lp4307
g69
(g70
g71
NtRp4308
(dp4309
g74
(dp4310
g82
I2
ssg83
g4304
sg76
(lp4311
g69
(g78
g71
NtRp4312
(dp4313
g74
(dp4314
g82
I1
ssg83
Nsg76
(lp4315
g69
(g85
g71
NtRp4316
(dp4317
g74
(dp4318
sg83
g4312
sg76
(lp4319
g69
(g90
g71
NtRp4320
(dp4321
g74
(dp4322
sg83
g4316
sg76
(lp4323
g69
(g70
g71
NtRp4324
(dp4325
g74
(dp4326
g82
I1
ssg83
g4320
sg76
(lp4327
g3943
(S't\r\x00\x00\x00Documentation'
tRp4328
asbasbasbag69
(g85
g71
NtRp4329
(dp4330
g74
(dp4331
sg83
g4312
sg76
(lp4332
g69
(g90
g71
NtRp4333
(dp4334
g74
(dp4335
sg83
g4329
sg76
(lp4336
g69
(g70
g71
NtRp4337
(dp4338
g74
(dp4339
g82
I1
ssg83
g4333
sg76
(lp4340
I00
asbasbasbag69
(g85
g71
NtRp4341
(dp4342
g74
(dp4343
sg83
g4312
sg76
(lp4344
g69
(g90
g71
NtRp4345
(dp4346
g74
(dp4347
sg83
g4341
sg76
(lp4348
g69
(g70
g71
NtRp4349
(dp4350
g74
(dp4351
g82
I1
ssg83
g4345
sg76
(lp4352
S'http://www.web2py.com/book'
p4353
asbasbasbag69
(g85
g71
NtRp4354
(dp4355
g74
(dp4356
sg83
g4312
sg76
(lp4357
g69
(g90
g71
NtRp4358
(dp4359
g74
(dp4360
sg83
g4354
sg76
(lp4361
g69
(g70
g71
NtRp4362
(dp4363
g74
(dp4364
g82
I1
ssg83
g4358
sg76
(lp4365
(lp4366
(g3943
(S't\x07\x00\x00\x00Preface'
tRp4367
I00
S'http://www.web2py.com/book/default/chapter/00'
p4368
tp4369
a(g3943
(S't\x0c\x00\x00\x00Introduction'
tRp4370
I00
S'http://www.web2py.com/book/default/chapter/01'
p4371
tp4372
a(g3943
(S't\x06\x00\x00\x00Python'
tRp4373
I00
S'http://www.web2py.com/book/default/chapter/02'
p4374
tp4375
a(g3943
(S't\x08\x00\x00\x00Overview'
tRp4376
I00
S'http://www.web2py.com/book/default/chapter/03'
p4377
tp4378
a(g3943
(S's\x08\x00\x00\x00The Core'
tRp4379
I00
S'http://www.web2py.com/book/default/chapter/04'
p4380
tp4381
a(g3943
(S's\t\x00\x00\x00The Views'
tRp4382
I00
S'http://www.web2py.com/book/default/chapter/05'
p4383
tp4384
a(g3943
(S't\x08\x00\x00\x00Database'
tRp4385
I00
S'http://www.web2py.com/book/default/chapter/06'
p4386
tp4387
a(g3943
(S's\x14\x00\x00\x00Forms and Validators'
tRp4388
I00
S'http://www.web2py.com/book/default/chapter/07'
p4389
tp4390
a(g3943
(S's\r\x00\x00\x00Email and SMS'
tRp4391
I00
S'http://www.web2py.com/book/default/chapter/08'
p4392
tp4393
a(g3943
(S's\x0e\x00\x00\x00Access Control'
tRp4394
I00
S'http://www.web2py.com/book/default/chapter/09'
p4395
tp4396
a(g3943
(S't\x08\x00\x00\x00Services'
tRp4397
I00
S'http://www.web2py.com/book/default/chapter/10'
p4398
tp4399
a(g3943
(S's\x0c\x00\x00\x00Ajax Recipes'
tRp4400
I00
S'http://www.web2py.com/book/default/chapter/11'
p4401
tp4402
a(g3943
(S's\x16\x00\x00\x00Components and Plugins'
tRp4403
I00
S'http://www.web2py.com/book/default/chapter/12'
p4404
tp4405
a(g3943
(S's\x12\x00\x00\x00Deployment Recipes'
tRp4406
I00
S'http://www.web2py.com/book/default/chapter/13'
p4407
tp4408
a(g3943
(S's\r\x00\x00\x00Other Recipes'
tRp4409
I00
S'http://www.web2py.com/book/default/chapter/14'
p4410
tp4411
a(g3943
(S's\r\x00\x00\x00Buy this book'
tRp4412
I00
S'http://stores.lulu.com/web2py'
p4413
tp4414
aasbasbasbasbasbasbasbag69
(g85
g71
NtRp4415
(dp4416
g74
(dp4417
sg83
g4057
sg76
(lp4418
g69
(g90
g71
NtRp4419
(dp4420
g74
(dp4421
sg83
g4415
sg76
(lp4422
g69
(g70
g71
NtRp4423
(dp4424
g74
(dp4425
g82
I2
ssg83
g4419
sg76
(lp4426
g69
(g78
g71
NtRp4427
(dp4428
g74
(dp4429
g82
I1
ssg83
Nsg76
(lp4430
g69
(g85
g71
NtRp4431
(dp4432
g74
(dp4433
sg83
g4427
sg76
(lp4434
g69
(g90
g71
NtRp4435
(dp4436
g74
(dp4437
sg83
g4431
sg76
(lp4438
g69
(g70
g71
NtRp4439
(dp4440
g74
(dp4441
g82
I1
ssg83
g4435
sg76
(lp4442
g3943
(S't\t\x00\x00\x00Community'
tRp4443
asbasbasbag69
(g85
g71
NtRp4444
(dp4445
g74
(dp4446
sg83
g4427
sg76
(lp4447
g69
(g90
g71
NtRp4448
(dp4449
g74
(dp4450
sg83
g4444
sg76
(lp4451
g69
(g70
g71
NtRp4452
(dp4453
g74
(dp4454
g82
I1
ssg83
g4448
sg76
(lp4455
I00
asbasbasbag69
(g85
g71
NtRp4456
(dp4457
g74
(dp4458
sg83
g4427
sg76
(lp4459
g69
(g90
g71
NtRp4460
(dp4461
g74
(dp4462
sg83
g4456
sg76
(lp4463
g69
(g70
g71
NtRp4464
(dp4465
g74
(dp4466
g82
I1
ssg83
g4460
sg76
(lp4467
Nasbasbasbag69
(g85
g71
NtRp4468
(dp4469
g74
(dp4470
sg83
g4427
sg76
(lp4471
g69
(g90
g71
NtRp4472
(dp4473
g74
(dp4474
sg83
g4468
sg76
(lp4475
g69
(g70
g71
NtRp4476
(dp4477
g74
(dp4478
g82
I1
ssg83
g4472
sg76
(lp4479
(lp4480
(g3943
(S't\x06\x00\x00\x00Groups'
tRp4481
I00
S'http://www.web2py.com/examples/default/usergroups'
p4482
tp4483
a(g3943
(S't\x07\x00\x00\x00Twitter'
tRp4484
I00
S'http://twitter.com/web2py'
p4485
tp4486
a(g3943
(S's\t\x00\x00\x00Live Chat'
tRp4487
I00
S'http://webchat.freenode.net/?channels=web2py'
p4488
tp4489
aasbasbasbasbasbasbasbag69
(g85
g71
NtRp4490
(dp4491
g74
(dp4492
sg83
g4057
sg76
(lp4493
g69
(g90
g71
NtRp4494
(dp4495
g74
(dp4496
sg83
g4490
sg76
(lp4497
g69
(g70
g71
NtRp4498
(dp4499
g74
(dp4500
g82
I2
ssg83
g4494
sg76
(lp4501
g69
(g78
g71
NtRp4502
(dp4503
g74
(dp4504
g82
I1
ssg83
Nsg76
(lp4505
g69
(g85
g71
NtRp4506
(dp4507
g74
(dp4508
sg83
g4502
sg76
(lp4509
g69
(g90
g71
NtRp4510
(dp4511
g74
(dp4512
sg83
g4506
sg76
(lp4513
g69
(g70
g71
NtRp4514
(dp4515
g74
(dp4516
g82
I1
ssg83
g4510
sg76
(lp4517
g3943
(S't\x07\x00\x00\x00Plugins'
tRp4518
asbasbasbag69
(g85
g71
NtRp4519
(dp4520
g74
(dp4521
sg83
g4502
sg76
(lp4522
g69
(g90
g71
NtRp4523
(dp4524
g74
(dp4525
sg83
g4519
sg76
(lp4526
g69
(g70
g71
NtRp4527
(dp4528
g74
(dp4529
g82
I1
ssg83
g4523
sg76
(lp4530
I00
asbasbasbag69
(g85
g71
NtRp4531
(dp4532
g74
(dp4533
sg83
g4502
sg76
(lp4534
g69
(g90
g71
NtRp4535
(dp4536
g74
(dp4537
sg83
g4531
sg76
(lp4538
g69
(g70
g71
NtRp4539
(dp4540
g74
(dp4541
g82
I1
ssg83
g4535
sg76
(lp4542
Nasbasbasbag69
(g85
g71
NtRp4543
(dp4544
g74
(dp4545
sg83
g4502
sg76
(lp4546
g69
(g90
g71
NtRp4547
(dp4548
g74
(dp4549
sg83
g4543
sg76
(lp4550
g69
(g70
g71
NtRp4551
(dp4552
g74
(dp4553
g82
I1
ssg83
g4547
sg76
(lp4554
(lp4555
(S'plugin_wiki'
p4556
I00
S'http://web2py.com/examples/default/download'
p4557
tp4558
a(g3943
(S's\r\x00\x00\x00Other Plugins'
tRp4559
I00
g4289
tp4560
a(g3943
(S's\x0e\x00\x00\x00Layout Plugins'
tRp4561
I00
g4292
tp4562
aasbasbasbasbasbasbasbasbasbasbasbasbasbasbasbasbasbasbasbag69
(g85
g71
NtRp4563
(dp4564
g74
(dp4565
sg83
g3388
sg76
(lp4566
g69
(g90
g71
NtRp4567
(dp4568
g74
(dp4569
g94
g95
ssg83
g4563
sg76
(lp4570
S'meta'
p4571
asbag69
(g90
g71
NtRp4572
(dp4573
g74
(dp4574
g101
g102
ssg83
g4563
sg76
(lp4575
S':'
asbag69
(g90
g71
NtRp4576
(dp4577
g74
(dp4578
sg83
g4563
sg76
(lp4579
g69
(g70
g71
NtRp4580
(dp4581
g74
(dp4582
g82
I5
ssg83
g4576
sg76
(lp4583
g69
(g78
g71
NtRp4584
(dp4585
g74
(dp4586
g82
I4
ssg83
Nsg76
(lp4587
g69
(g85
g71
NtRp4588
(dp4589
g74
(dp4590
sg83
g4584
sg76
(lp4591
g69
(g90
g71
NtRp4592
(dp4593
g74
(dp4594
g94
g95
ssg83
g4588
sg76
(lp4595
S'author'
p4596
asbag69
(g90
g71
NtRp4597
(dp4598
g74
(dp4599
g101
g102
ssg83
g4588
sg76
(lp4600
S':'
asbag69
(g90
g71
NtRp4601
(dp4602
g74
(dp4603
sg83
g4588
sg76
(lp4604
g69
(g70
g71
NtRp4605
(dp4606
g74
(dp4607
g82
I4
ssg83
g4601
sg76
(lp4608
S'Your Name <you@example.com>'
p4609
asbasbasbag69
(g85
g71
NtRp4610
(dp4611
g74
(dp4612
sg83
g4584
sg76
(lp4613
g69
(g90
g71
NtRp4614
(dp4615
g74
(dp4616
g94
g95
ssg83
g4610
sg76
(lp4617
S'copyright'
p4618
asbag69
(g90
g71
NtRp4619
(dp4620
g74
(dp4621
g101
g102
ssg83
g4610
sg76
(lp4622
S':'
asbag69
(g90
g71
NtRp4623
(dp4624
g74
(dp4625
sg83
g4610
sg76
(lp4626
g69
(g70
g71
NtRp4627
(dp4628
g74
(dp4629
g82
I4
ssg83
g4623
sg76
(lp4630
S'Copyright 2011'
p4631
asbasbasbag69
(g85
g71
NtRp4632
(dp4633
g74
(dp4634
sg83
g4584
sg76
(lp4635
g69
(g90
g71
NtRp4636
(dp4637
g74
(dp4638
g94
g95
ssg83
g4632
sg76
(lp4639
S'description'
p4640
asbag69
(g90
g71
NtRp4641
(dp4642
g74
(dp4643
g101
g102
ssg83
g4632
sg76
(lp4644
S':'
asbag69
(g90
g71
NtRp4645
(dp4646
g74
(dp4647
sg83
g4632
sg76
(lp4648
g69
(g70
g71
NtRp4649
(dp4650
g74
(dp4651
g82
I4
ssg83
g4645
sg76
(lp4652
S'a cool new app'
p4653
asbasbasbag69
(g85
g71
NtRp4654
(dp4655
g74
(dp4656
sg83
g4584
sg76
(lp4657
g69
(g90
g71
NtRp4658
(dp4659
g74
(dp4660
g94
g95
ssg83
g4654
sg76
(lp4661
S'generator'
p4662
asbag69
(g90
g71
NtRp4663
(dp4664
g74
(dp4665
g101
g102
ssg83
g4654
sg76
(lp4666
S':'
asbag69
(g90
g71
NtRp4667
(dp4668
g74
(dp4669
sg83
g4654
sg76
(lp4670
g69
(g70
g71
NtRp4671
(dp4672
g74
(dp4673
g82
I4
ssg83
g4667
sg76
(lp4674
S'Web2py Web Framework'
p4675
asbasbasbag69
(g85
g71
NtRp4676
(dp4677
g74
(dp4678
sg83
g4584
sg76
(lp4679
g69
(g90
g71
NtRp4680
(dp4681
g74
(dp4682
g94
g95
ssg83
g4676
sg76
(lp4683
S'keywords'
p4684
asbag69
(g90
g71
NtRp4685
(dp4686
g74
(dp4687
g101
g102
ssg83
g4676
sg76
(lp4688
S':'
asbag69
(g90
g71
NtRp4689
(dp4690
g74
(dp4691
sg83
g4676
sg76
(lp4692
g69
(g70
g71
NtRp4693
(dp4694
g74
(dp4695
g82
I4
ssg83
g4689
sg76
(lp4696
S'web2py, python, framework'
p4697
asbasbasbasbasbasbasbag69
(g85
g71
NtRp4698
(dp4699
g74
(dp4700
sg83
g3388
sg76
(lp4701
g69
(g90
g71
NtRp4702
(dp4703
g74
(dp4704
g94
g95
ssg83
g4698
sg76
(lp4705
S'postprocessing'
p4706
asbag69
(g90
g71
NtRp4707
(dp4708
g74
(dp4709
g101
g102
ssg83
g4698
sg76
(lp4710
S':'
asbag69
(g90
g71
NtRp4711
(dp4712
g74
(dp4713
sg83
g4698
sg76
(lp4714
g69
(g70
g71
NtRp4715
(dp4716
g74
(dp4717
g82
I5
ssg83
g4711
sg76
(lp4718
g69
(g78
g71
NtRp4719
(dp4720
g74
(dp4721
g82
I4
ssg83
Nsg76
(lp4722
sbasbasbasbag69
(g85
g71
NtRp4723
(dp4724
g74
(dp4725
sg83
g3388
sg76
(lp4726
g69
(g90
g71
NtRp4727
(dp4728
g74
(dp4729
g94
g95
ssg83
g4723
sg76
(lp4730
S'session_file'
p4731
asbag69
(g90
g71
NtRp4732
(dp4733
g74
(dp4734
g101
g102
ssg83
g4723
sg76
(lp4735
S':'
asbag69
(g90
g71
NtRp4736
(dp4737
g74
(dp4738
sg83
g4723
sg76
(lp4739
g69
(g70
g71
NtRp4740
(dp4741
g74
(dp4742
g82
I5
ssg83
g4736
sg76
(lp4743
S"<open file '/home/enigma/web2py/applications/911_signin/sessions/127.0.0.1-7de8cf1c-fb47-4fb9-b232-ca1b0a317dba', mode 'rb+' at 0xada14020>"
p4744
asbasbasbag69
(g85
g71
NtRp4745
(dp4746
g74
(dp4747
sg83
g3388
sg76
(lp4748
g69
(g90
g71
NtRp4749
(dp4750
g74
(dp4751
g94
g95
ssg83
g4745
sg76
(lp4752
S'session_filename'
p4753
asbag69
(g90
g71
NtRp4754
(dp4755
g74
(dp4756
g101
g102
ssg83
g4745
sg76
(lp4757
S':'
asbag69
(g90
g71
NtRp4758
(dp4759
g74
(dp4760
sg83
g4745
sg76
(lp4761
g69
(g70
g71
NtRp4762
(dp4763
g74
(dp4764
g82
I5
ssg83
g4758
sg76
(lp4765
S'/home/enigma/web2py/applications/911_signin/sessions/127.0.0.1-7de8cf1c-fb47-4fb9-b232-ca1b0a317dba'
p4766
asbasbasbag69
(g85
g71
NtRp4767
(dp4768
g74
(dp4769
sg83
g3388
sg76
(lp4770
g69
(g90
g71
NtRp4771
(dp4772
g74
(dp4773
g94
g95
ssg83
g4767
sg76
(lp4774
S'session_id'
p4775
asbag69
(g90
g71
NtRp4776
(dp4777
g74
(dp4778
g101
g102
ssg83
g4767
sg76
(lp4779
S':'
asbag69
(g90
g71
NtRp4780
(dp4781
g74
(dp4782
sg83
g4767
sg76
(lp4783
g69
(g70
g71
NtRp4784
(dp4785
g74
(dp4786
g82
I5
ssg83
g4780
sg76
(lp4787
S'127.0.0.1-7de8cf1c-fb47-4fb9-b232-ca1b0a317dba'
p4788
asbasbasbag69
(g85
g71
NtRp4789
(dp4790
g74
(dp4791
sg83
g3388
sg76
(lp4792
g69
(g90
g71
NtRp4793
(dp4794
g74
(dp4795
g94
g95
ssg83
g4789
sg76
(lp4796
S'session_id_name'
p4797
asbag69
(g90
g71
NtRp4798
(dp4799
g74
(dp4800
g101
g102
ssg83
g4789
sg76
(lp4801
S':'
asbag69
(g90
g71
NtRp4802
(dp4803
g74
(dp4804
sg83
g4789
sg76
(lp4805
g69
(g70
g71
NtRp4806
(dp4807
g74
(dp4808
g82
I5
ssg83
g4802
sg76
(lp4809
g3445
asbasbasbag69
(g85
g71
NtRp4810
(dp4811
g74
(dp4812
sg83
g3388
sg76
(lp4813
g69
(g90
g71
NtRp4814
(dp4815
g74
(dp4816
g94
g95
ssg83
g4810
sg76
(lp4817
S'session_locked'
p4818
asbag69
(g90
g71
NtRp4819
(dp4820
g74
(dp4821
g101
g102
ssg83
g4810
sg76
(lp4822
S':'
asbag69
(g90
g71
NtRp4823
(dp4824
g74
(dp4825
sg83
g4810
sg76
(lp4826
g69
(g70
g71
NtRp4827
(dp4828
g74
(dp4829
g82
I5
ssg83
g4823
sg76
(lp4830
g1649
asbasbasbag69
(g85
g71
NtRp4831
(dp4832
g74
(dp4833
sg83
g3388
sg76
(lp4834
g69
(g90
g71
NtRp4835
(dp4836
g74
(dp4837
g94
g95
ssg83
g4831
sg76
(lp4838
S'session_new'
p4839
asbag69
(g90
g71
NtRp4840
(dp4841
g74
(dp4842
g101
g102
ssg83
g4831
sg76
(lp4843
S':'
asbag69
(g90
g71
NtRp4844
(dp4845
g74
(dp4846
sg83
g4831
sg76
(lp4847
g69
(g70
g71
NtRp4848
(dp4849
g74
(dp4850
g82
I5
ssg83
g4844
sg76
(lp4851
g112
asbasbasbag69
(g85
g71
NtRp4852
(dp4853
g74
(dp4854
sg83
g3388
sg76
(lp4855
g69
(g90
g71
NtRp4856
(dp4857
g74
(dp4858
g94
g95
ssg83
g4852
sg76
(lp4859
S'status'
p4860
asbag69
(g90
g71
NtRp4861
(dp4862
g74
(dp4863
g101
g102
ssg83
g4852
sg76
(lp4864
S':'
asbag69
(g90
g71
NtRp4865
(dp4866
g74
(dp4867
sg83
g4852
sg76
(lp4868
g69
(g70
g71
NtRp4869
(dp4870
g74
(dp4871
g82
I5
ssg83
g4865
sg76
(lp4872
S'200'
p4873
asbasbasbag69
(g85
g71
NtRp4874
(dp4875
g74
(dp4876
sg83
g3388
sg76
(lp4877
g69
(g90
g71
NtRp4878
(dp4879
g74
(dp4880
g94
g95
ssg83
g4874
sg76
(lp4881
S'subtitle'
p4882
asbag69
(g90
g71
NtRp4883
(dp4884
g74
(dp4885
g101
g102
ssg83
g4874
sg76
(lp4886
S':'
asbag69
(g90
g71
NtRp4887
(dp4888
g74
(dp4889
sg83
g4874
sg76
(lp4890
g69
(g70
g71
NtRp4891
(dp4892
g74
(dp4893
g82
I5
ssg83
g4887
sg76
(lp4894
g3943
(S's\r\x00\x00\x00customize me!'
tRp4895
asbasbasbag69
(g85
g71
NtRp4896
(dp4897
g74
(dp4898
sg83
g3388
sg76
(lp4899
g69
(g90
g71
NtRp4900
(dp4901
g74
(dp4902
g94
g95
ssg83
g4896
sg76
(lp4903
S'title'
p4904
asbag69
(g90
g71
NtRp4905
(dp4906
g74
(dp4907
g101
g102
ssg83
g4896
sg76
(lp4908
S':'
asbag69
(g90
g71
NtRp4909
(dp4910
g74
(dp4911
sg83
g4896
sg76
(lp4912
g69
(g70
g71
NtRp4913
(dp4914
g74
(dp4915
g82
I5
ssg83
g4909
sg76
(lp4916
S'911 Signin'
p4917
asbasbasbag69
(g85
g71
NtRp4918
(dp4919
g74
(dp4920
sg83
g3388
sg76
(lp4921
g69
(g90
g71
NtRp4922
(dp4923
g74
(dp4924
g94
g95
ssg83
g4918
sg76
(lp4925
g2356
asbag69
(g90
g71
NtRp4926
(dp4927
g74
(dp4928
g101
g102
ssg83
g4918
sg76
(lp4929
S':'
asbag69
(g90
g71
NtRp4930
(dp4931
g74
(dp4932
sg83
g4918
sg76
(lp4933
g69
(g70
g71
NtRp4934
(dp4935
g74
(dp4936
g82
I5
ssg83
g4930
sg76
(lp4937
g2369
asbasbasbag69
(g85
g71
NtRp4938
(dp4939
g74
(dp4940
sg83
g3388
sg76
(lp4941
g69
(g90
g71
NtRp4942
(dp4943
g74
(dp4944
g94
g95
ssg83
g4938
sg76
(lp4945
S'view'
p4946
asbag69
(g90
g71
NtRp4947
(dp4948
g74
(dp4949
g101
g102
ssg83
g4938
sg76
(lp4950
S':'
asbag69
(g90
g71
NtRp4951
(dp4952
g74
(dp4953
sg83
g4938
sg76
(lp4954
g69
(g70
g71
NtRp4955
(dp4956
g74
(dp4957
g82
I5
ssg83
g4951
sg76
(lp4958
S'default/user.html'
p4959
asbasbasbasbasbsS'locals'
p4960
(dp4961
S'update_fields'
p4962
g21
sS'fields'
p4963
S'[]'
p4964
sS'self'
p4965
S'<gluon.dal.Set object>'
p4966
sS'tablename'
p4967
S"'auth_users'"
p4968
sssS'traceback'
p4969
S'Traceback (most recent call last):\n  File "/home/enigma/web2py/gluon/restricted.py", line 205, in restricted\n    exec ccode in environment\n  File "/home/enigma/web2py/applications/911_signin/controllers/default.py", line 76, in <module>\n  File "/home/enigma/web2py/gluon/globals.py", line 173, in <lambda>\n    self._caller = lambda f: f()\n  File "/home/enigma/web2py/applications/911_signin/controllers/default.py", line 35, in user\n    return dict(form=auth())\n  File "/home/enigma/web2py/gluon/tools.py", line 1161, in __call__\n    return getattr(self,args[0])()\n  File "/home/enigma/web2py/gluon/tools.py", line 2305, in request_reset_password\n    user.update_record(reset_password_key=reset_password_key)\n  File "/home/enigma/web2py/gluon/dal.py", line 1621, in <lambda>\n    colset.update_record = lambda _ = (colset, table, id), **a: update_record(_, a)\n  File "/home/enigma/web2py/gluon/dal.py", line 7653, in update_record\n    table._db(table._id==id).update(**c)\n  File "/home/enigma/web2py/gluon/dal.py", line 7589, in update\n    raise SyntaxError, "No fields to update"\nSyntaxError: No fields to update\n'
p4970
s.