(dp1
S'output'
p2
S"<type 'exceptions.IndentationError'> expected an indented block (default.py, line 52)"
p3
sS'layer'
p4
S'/home/enigma/web2py/applications/911_signin/controllers/default.py'
p5
sS'code'
p6
S'# -*- coding: utf-8 -*-\n# this file is released under public domain and you can use without limitations\n\n#########################################################################\n## This is a samples controller\n## - index is the default action of any application\n## - user is required for authentication and authorization\n## - download is for downloading files uploaded in the db (does streaming)\n## - call exposes all registered services (none by default)\n#########################################################################\n\nfrom gluon.contrib.login_methods.rpx_account import use_janrain\nfrom gluon.contrib.login_methods.extended_login_form import ExtendedLoginForm\n\ndef index():\n    """\n    example action using the internationalization operator T and flash\n    rendered by views/default/index.html or views/generic.html\n    """\n    response.flash = "Welcome to web2py!"\n    return dict(message=T(\'Hello World\'))\n\n\ndef user():\n    """\n    exposes:\n    http://..../[app]/default/user/login\n    http://..../[app]/default/user/logout\n    http://..../[app]/default/user/register\n    http://..../[app]/default/user/profile\n    http://..../[app]/default/user/retrieve_password\n    http://..../[app]/default/user/change_password\n    use @auth.requires_login()\n        @auth.requires_membership(\'group name\')\n        @auth.requires_permission(\'read\',\'table name\',record_id)\n    to decorate functions that need access control\n    """\n    \n    form_jainrain = use_janrain(auth,filename=\'private/janrain.key\')\n    auth.settings.login_form = ExtendedLoginForm(auth, form_janrain, signals=[\'token\'])\n    return dict(form=auth())\n\n\ndef alt_login():\n    # form_jainrain = use_janrain(auth,filename=\'private/janrain.key\')\n    # auth.settings.login_form=form_jainrain\n    #other_form = use_janrain(auth,filename=\'private/janrain.key\')\n    #auth.settings.login_form = ExtendedLoginForm(auth, other_form, signals=[\'token\'])\n    #return dict(form=auth())\n\n\ndef home():\n    return dict(uid=auth.user_id)\n\n\ndef download():\n    """\n    allows downloading of uploaded files\n    http://..../[app]/default/download/[filename]\n    """\n    return response.download(request,db)\n\n\ndef call():\n    """\n    exposes services. for example:\n    http://..../[app]/default/call/jsonrpc\n    decorate with @services.jsonrpc the functions to expose\n    supports xml, json, xmlrpc, jsonrpc, amfrpc, rss, csv\n    """\n    return service()\n\n\n@auth.requires_signature()\ndef data():\n    """\n    http://..../[app]/default/data/tables\n    http://..../[app]/default/data/create/[table]\n    http://..../[app]/default/data/read/[table]/[id]\n    http://..../[app]/default/data/update/[table]/[id]\n    http://..../[app]/default/data/delete/[table]/[id]\n    http://..../[app]/default/data/select/[table]\n    http://..../[app]/default/data/search/[table]\n    but URLs must be signed, i.e. linked with\n      A(\'table\',_href=URL(\'data/tables\',user_signature=True))\n    or with the signed load operator\n      LOAD(\'default\',\'data.load\',args=\'tables\',ajax=True,user_signature=True)\n    """\n    return dict(form=crud())\n\nresponse._vars=response._caller(index)\n'
p7
sS'snapshot'
p8
(dp9
S'exception'
p10
(dp11
S'__getslice__'
p12
S"<method-wrapper '__getslice__' of exceptions.IndentationError object>"
p13
sS'text'
p14
S"'def home():\\n'"
p15
sS'__str__'
p16
S"<method-wrapper '__str__' of exceptions.IndentationError object>"
p17
sS'__reduce__'
p18
S'<built-in method __reduce__ of exceptions.IndentationError object>'
p19
sS'__dict__'
p20
S'{}'
p21
sS'__sizeof__'
p22
S'<built-in method __sizeof__ of exceptions.IndentationError object>'
p23
sS'__init__'
p24
S"<method-wrapper '__init__' of exceptions.IndentationError object>"
p25
sS'__setattr__'
p26
S"<method-wrapper '__setattr__' of exceptions.IndentationError object>"
p27
sS'__reduce_ex__'
p28
S'<built-in method __reduce_ex__ of exceptions.IndentationError object>'
p29
sS'__new__'
p30
S'<built-in method __new__ of type object>'
p31
sS'__format__'
p32
S'<built-in method __format__ of exceptions.IndentationError object>'
p33
sS'__class__'
p34
S"<type 'exceptions.IndentationError'>"
p35
sS'filename'
p36
S"'/home/enigma/web2py/applications/911_signin/controllers/default.py'"
p37
sS'lineno'
p38
S'52'
p39
sS'msg'
p40
S"'expected an indented block'"
p41
sS'__doc__'
p42
S"'Improper indentation.'"
p43
sS'__getitem__'
p44
S"<method-wrapper '__getitem__' of exceptions.IndentationError object>"
p45
sS'__setstate__'
p46
S'<built-in method __setstate__ of exceptions.IndentationError object>'
p47
sS'__getattribute__'
p48
S"<method-wrapper '__getattribute__' of exceptions.IndentationError object>"
p49
sS'print_file_and_line'
p50
S'None'
p51
sS'args'
p52
S"('expected an indented block', ('/home/enigma/web2py/applications/911_signin/controllers/default.py', 52, 3, 'def home():\\n'))"
p53
sS'__subclasshook__'
p54
S'<built-in method __subclasshook__ of type object>'
p55
sS'offset'
p56
S'3'
sS'__unicode__'
p57
S'<built-in method __unicode__ of exceptions.IndentationError object>'
p58
sS'__delattr__'
p59
S"<method-wrapper '__delattr__' of exceptions.IndentationError object>"
p60
sS'__repr__'
p61
S"<method-wrapper '__repr__' of exceptions.IndentationError object>"
p62
sS'__hash__'
p63
S"<method-wrapper '__hash__' of exceptions.IndentationError object>"
p64
ssS'evalue'
p65
S'expected an indented block (default.py, line 52)'
p66
sS'request'
p67
ccopy_reg
_reconstructor
p68
(cgluon.html
BEAUTIFY
p69
c__builtin__
object
p70
NtRp71
(dp72
S'attributes'
p73
(dp74
sS'components'
p75
(lp76
g68
(cgluon.html
TABLE
p77
g70
NtRp78
(dp79
g73
(dp80
S'level'
p81
I5
ssS'parent'
p82
Nsg75
(lp83
g68
(cgluon.html
TR
p84
g70
NtRp85
(dp86
g73
(dp87
sg82
g78
sg75
(lp88
g68
(cgluon.html
TD
p89
g70
NtRp90
(dp91
g73
(dp92
S'_style'
p93
S'font-weight:bold;vertical-align:top'
p94
ssg82
g85
sg75
(lp95
S'ajax'
p96
asbag68
(g89
g70
NtRp97
(dp98
g73
(dp99
S'_valign'
p100
S'top'
p101
ssg82
g85
sg75
(lp102
S':'
asbag68
(g89
g70
NtRp103
(dp104
g73
(dp105
sg82
g85
sg75
(lp106
g68
(g69
g70
NtRp107
(dp108
g73
(dp109
g81
I5
ssg82
g103
sg75
(lp110
S'False'
p111
asbasbasbag68
(g84
g70
NtRp112
(dp113
g73
(dp114
sg82
g78
sg75
(lp115
g68
(g89
g70
NtRp116
(dp117
g73
(dp118
g93
g94
ssg82
g112
sg75
(lp119
S'application'
p120
asbag68
(g89
g70
NtRp121
(dp122
g73
(dp123
g100
g101
ssg82
g112
sg75
(lp124
S':'
asbag68
(g89
g70
NtRp125
(dp126
g73
(dp127
sg82
g112
sg75
(lp128
g68
(g69
g70
NtRp129
(dp130
g73
(dp131
g81
I5
ssg82
g125
sg75
(lp132
S'911_signin'
p133
asbasbasbag68
(g84
g70
NtRp134
(dp135
g73
(dp136
sg82
g78
sg75
(lp137
g68
(g89
g70
NtRp138
(dp139
g73
(dp140
g93
g94
ssg82
g134
sg75
(lp141
g52
asbag68
(g89
g70
NtRp142
(dp143
g73
(dp144
g100
g101
ssg82
g134
sg75
(lp145
S':'
asbag68
(g89
g70
NtRp146
(dp147
g73
(dp148
sg82
g134
sg75
(lp149
g68
(g69
g70
NtRp150
(dp151
g73
(dp152
g81
I5
ssg82
g146
sg75
(lp153
g68
(g77
g70
NtRp154
(dp155
g73
(dp156
g81
I4
ssg82
Nsg75
(lp157
sbasbasbasbag68
(g84
g70
NtRp158
(dp159
g73
(dp160
sg82
g78
sg75
(lp161
g68
(g89
g70
NtRp162
(dp163
g73
(dp164
g93
g94
ssg82
g158
sg75
(lp165
S'body'
p166
asbag68
(g89
g70
NtRp167
(dp168
g73
(dp169
g100
g101
ssg82
g158
sg75
(lp170
S':'
asbag68
(g89
g70
NtRp171
(dp172
g73
(dp173
sg82
g158
sg75
(lp174
g68
(g69
g70
NtRp175
(dp176
g73
(dp177
g81
I5
ssg82
g171
sg75
(lp178
S'<cStringIO.StringO object at 0xb1b62c80>'
p179
asbasbasbag68
(g84
g70
NtRp180
(dp181
g73
(dp182
sg82
g78
sg75
(lp183
g68
(g89
g70
NtRp184
(dp185
g73
(dp186
g93
g94
ssg82
g180
sg75
(lp187
S'client'
p188
asbag68
(g89
g70
NtRp189
(dp190
g73
(dp191
g100
g101
ssg82
g180
sg75
(lp192
S':'
asbag68
(g89
g70
NtRp193
(dp194
g73
(dp195
sg82
g180
sg75
(lp196
g68
(g69
g70
NtRp197
(dp198
g73
(dp199
g81
I5
ssg82
g193
sg75
(lp200
S'127.0.0.1'
p201
asbasbasbag68
(g84
g70
NtRp202
(dp203
g73
(dp204
sg82
g78
sg75
(lp205
g68
(g89
g70
NtRp206
(dp207
g73
(dp208
g93
g94
ssg82
g202
sg75
(lp209
S'controller'
p210
asbag68
(g89
g70
NtRp211
(dp212
g73
(dp213
g100
g101
ssg82
g202
sg75
(lp214
S':'
asbag68
(g89
g70
NtRp215
(dp216
g73
(dp217
sg82
g202
sg75
(lp218
g68
(g69
g70
NtRp219
(dp220
g73
(dp221
g81
I5
ssg82
g215
sg75
(lp222
S'default'
p223
asbasbasbag68
(g84
g70
NtRp224
(dp225
g73
(dp226
sg82
g78
sg75
(lp227
g68
(g89
g70
NtRp228
(dp229
g73
(dp230
g93
g94
ssg82
g224
sg75
(lp231
S'cookies'
p232
asbag68
(g89
g70
NtRp233
(dp234
g73
(dp235
g100
g101
ssg82
g224
sg75
(lp236
S':'
asbag68
(g89
g70
NtRp237
(dp238
g73
(dp239
sg82
g224
sg75
(lp240
g68
(g69
g70
NtRp241
(dp242
g73
(dp243
g81
I5
ssg82
g237
sg75
(lp244
g68
(g77
g70
NtRp245
(dp246
g73
(dp247
g81
I4
ssg82
Nsg75
(lp248
g68
(g84
g70
NtRp249
(dp250
g73
(dp251
sg82
g245
sg75
(lp252
g68
(g89
g70
NtRp253
(dp254
g73
(dp255
g93
g94
ssg82
g249
sg75
(lp256
S'session_id_911_signin'
p257
asbag68
(g89
g70
NtRp258
(dp259
g73
(dp260
g100
g101
ssg82
g249
sg75
(lp261
S':'
asbag68
(g89
g70
NtRp262
(dp263
g73
(dp264
sg82
g249
sg75
(lp265
g68
(g69
g70
NtRp266
(dp267
g73
(dp268
g81
I4
ssg82
g262
sg75
(lp269
g68
(g77
g70
NtRp270
(dp271
g73
(dp272
g81
I3
ssg82
Nsg75
(lp273
g68
(g84
g70
NtRp274
(dp275
g73
(dp276
sg82
g270
sg75
(lp277
g68
(g89
g70
NtRp278
(dp279
g73
(dp280
g93
g94
ssg82
g274
sg75
(lp281
S'comment'
p282
asbag68
(g89
g70
NtRp283
(dp284
g73
(dp285
g100
g101
ssg82
g274
sg75
(lp286
S':'
asbag68
(g89
g70
NtRp287
(dp288
g73
(dp289
sg82
g274
sg75
(lp290
g68
(g69
g70
NtRp291
(dp292
g73
(dp293
g81
I3
ssg82
g287
sg75
(lp294
S''
asbasbasbag68
(g84
g70
NtRp295
(dp296
g73
(dp297
sg82
g270
sg75
(lp298
g68
(g89
g70
NtRp299
(dp300
g73
(dp301
g93
g94
ssg82
g295
sg75
(lp302
S'domain'
p303
asbag68
(g89
g70
NtRp304
(dp305
g73
(dp306
g100
g101
ssg82
g295
sg75
(lp307
S':'
asbag68
(g89
g70
NtRp308
(dp309
g73
(dp310
sg82
g295
sg75
(lp311
g68
(g69
g70
NtRp312
(dp313
g73
(dp314
g81
I3
ssg82
g308
sg75
(lp315
S''
asbasbasbag68
(g84
g70
NtRp316
(dp317
g73
(dp318
sg82
g270
sg75
(lp319
g68
(g89
g70
NtRp320
(dp321
g73
(dp322
g93
g94
ssg82
g316
sg75
(lp323
S'expires'
p324
asbag68
(g89
g70
NtRp325
(dp326
g73
(dp327
g100
g101
ssg82
g316
sg75
(lp328
S':'
asbag68
(g89
g70
NtRp329
(dp330
g73
(dp331
sg82
g316
sg75
(lp332
g68
(g69
g70
NtRp333
(dp334
g73
(dp335
g81
I3
ssg82
g329
sg75
(lp336
S''
asbasbasbag68
(g84
g70
NtRp337
(dp338
g73
(dp339
sg82
g270
sg75
(lp340
g68
(g89
g70
NtRp341
(dp342
g73
(dp343
g93
g94
ssg82
g337
sg75
(lp344
S'httponly'
p345
asbag68
(g89
g70
NtRp346
(dp347
g73
(dp348
g100
g101
ssg82
g337
sg75
(lp349
S':'
asbag68
(g89
g70
NtRp350
(dp351
g73
(dp352
sg82
g337
sg75
(lp353
g68
(g69
g70
NtRp354
(dp355
g73
(dp356
g81
I3
ssg82
g350
sg75
(lp357
S''
asbasbasbag68
(g84
g70
NtRp358
(dp359
g73
(dp360
sg82
g270
sg75
(lp361
g68
(g89
g70
NtRp362
(dp363
g73
(dp364
g93
g94
ssg82
g358
sg75
(lp365
S'max-age'
p366
asbag68
(g89
g70
NtRp367
(dp368
g73
(dp369
g100
g101
ssg82
g358
sg75
(lp370
S':'
asbag68
(g89
g70
NtRp371
(dp372
g73
(dp373
sg82
g358
sg75
(lp374
g68
(g69
g70
NtRp375
(dp376
g73
(dp377
g81
I3
ssg82
g371
sg75
(lp378
S''
asbasbasbag68
(g84
g70
NtRp379
(dp380
g73
(dp381
sg82
g270
sg75
(lp382
g68
(g89
g70
NtRp383
(dp384
g73
(dp385
g93
g94
ssg82
g379
sg75
(lp386
S'path'
p387
asbag68
(g89
g70
NtRp388
(dp389
g73
(dp390
g100
g101
ssg82
g379
sg75
(lp391
S':'
asbag68
(g89
g70
NtRp392
(dp393
g73
(dp394
sg82
g379
sg75
(lp395
g68
(g69
g70
NtRp396
(dp397
g73
(dp398
g81
I3
ssg82
g392
sg75
(lp399
S''
asbasbasbag68
(g84
g70
NtRp400
(dp401
g73
(dp402
sg82
g270
sg75
(lp403
g68
(g89
g70
NtRp404
(dp405
g73
(dp406
g93
g94
ssg82
g400
sg75
(lp407
S'secure'
p408
asbag68
(g89
g70
NtRp409
(dp410
g73
(dp411
g100
g101
ssg82
g400
sg75
(lp412
S':'
asbag68
(g89
g70
NtRp413
(dp414
g73
(dp415
sg82
g400
sg75
(lp416
g68
(g69
g70
NtRp417
(dp418
g73
(dp419
g81
I3
ssg82
g413
sg75
(lp420
S''
asbasbasbag68
(g84
g70
NtRp421
(dp422
g73
(dp423
sg82
g270
sg75
(lp424
g68
(g89
g70
NtRp425
(dp426
g73
(dp427
g93
g94
ssg82
g421
sg75
(lp428
S'version'
p429
asbag68
(g89
g70
NtRp430
(dp431
g73
(dp432
g100
g101
ssg82
g421
sg75
(lp433
S':'
asbag68
(g89
g70
NtRp434
(dp435
g73
(dp436
sg82
g421
sg75
(lp437
g68
(g69
g70
NtRp438
(dp439
g73
(dp440
g81
I3
ssg82
g434
sg75
(lp441
S''
asbasbasbasbasbasbasbag68
(g84
g70
NtRp442
(dp443
g73
(dp444
sg82
g245
sg75
(lp445
g68
(g89
g70
NtRp446
(dp447
g73
(dp448
g93
g94
ssg82
g442
sg75
(lp449
S'session_id_welcome'
p450
asbag68
(g89
g70
NtRp451
(dp452
g73
(dp453
g100
g101
ssg82
g442
sg75
(lp454
S':'
asbag68
(g89
g70
NtRp455
(dp456
g73
(dp457
sg82
g442
sg75
(lp458
g68
(g69
g70
NtRp459
(dp460
g73
(dp461
g81
I4
ssg82
g455
sg75
(lp462
g68
(g77
g70
NtRp463
(dp464
g73
(dp465
g81
I3
ssg82
Nsg75
(lp466
g68
(g84
g70
NtRp467
(dp468
g73
(dp469
sg82
g463
sg75
(lp470
g68
(g89
g70
NtRp471
(dp472
g73
(dp473
g93
g94
ssg82
g467
sg75
(lp474
g282
asbag68
(g89
g70
NtRp475
(dp476
g73
(dp477
g100
g101
ssg82
g467
sg75
(lp478
S':'
asbag68
(g89
g70
NtRp479
(dp480
g73
(dp481
sg82
g467
sg75
(lp482
g68
(g69
g70
NtRp483
(dp484
g73
(dp485
g81
I3
ssg82
g479
sg75
(lp486
S''
asbasbasbag68
(g84
g70
NtRp487
(dp488
g73
(dp489
sg82
g463
sg75
(lp490
g68
(g89
g70
NtRp491
(dp492
g73
(dp493
g93
g94
ssg82
g487
sg75
(lp494
g303
asbag68
(g89
g70
NtRp495
(dp496
g73
(dp497
g100
g101
ssg82
g487
sg75
(lp498
S':'
asbag68
(g89
g70
NtRp499
(dp500
g73
(dp501
sg82
g487
sg75
(lp502
g68
(g69
g70
NtRp503
(dp504
g73
(dp505
g81
I3
ssg82
g499
sg75
(lp506
S''
asbasbasbag68
(g84
g70
NtRp507
(dp508
g73
(dp509
sg82
g463
sg75
(lp510
g68
(g89
g70
NtRp511
(dp512
g73
(dp513
g93
g94
ssg82
g507
sg75
(lp514
g324
asbag68
(g89
g70
NtRp515
(dp516
g73
(dp517
g100
g101
ssg82
g507
sg75
(lp518
S':'
asbag68
(g89
g70
NtRp519
(dp520
g73
(dp521
sg82
g507
sg75
(lp522
g68
(g69
g70
NtRp523
(dp524
g73
(dp525
g81
I3
ssg82
g519
sg75
(lp526
S''
asbasbasbag68
(g84
g70
NtRp527
(dp528
g73
(dp529
sg82
g463
sg75
(lp530
g68
(g89
g70
NtRp531
(dp532
g73
(dp533
g93
g94
ssg82
g527
sg75
(lp534
g345
asbag68
(g89
g70
NtRp535
(dp536
g73
(dp537
g100
g101
ssg82
g527
sg75
(lp538
S':'
asbag68
(g89
g70
NtRp539
(dp540
g73
(dp541
sg82
g527
sg75
(lp542
g68
(g69
g70
NtRp543
(dp544
g73
(dp545
g81
I3
ssg82
g539
sg75
(lp546
S''
asbasbasbag68
(g84
g70
NtRp547
(dp548
g73
(dp549
sg82
g463
sg75
(lp550
g68
(g89
g70
NtRp551
(dp552
g73
(dp553
g93
g94
ssg82
g547
sg75
(lp554
g366
asbag68
(g89
g70
NtRp555
(dp556
g73
(dp557
g100
g101
ssg82
g547
sg75
(lp558
S':'
asbag68
(g89
g70
NtRp559
(dp560
g73
(dp561
sg82
g547
sg75
(lp562
g68
(g69
g70
NtRp563
(dp564
g73
(dp565
g81
I3
ssg82
g559
sg75
(lp566
S''
asbasbasbag68
(g84
g70
NtRp567
(dp568
g73
(dp569
sg82
g463
sg75
(lp570
g68
(g89
g70
NtRp571
(dp572
g73
(dp573
g93
g94
ssg82
g567
sg75
(lp574
g387
asbag68
(g89
g70
NtRp575
(dp576
g73
(dp577
g100
g101
ssg82
g567
sg75
(lp578
S':'
asbag68
(g89
g70
NtRp579
(dp580
g73
(dp581
sg82
g567
sg75
(lp582
g68
(g69
g70
NtRp583
(dp584
g73
(dp585
g81
I3
ssg82
g579
sg75
(lp586
S''
asbasbasbag68
(g84
g70
NtRp587
(dp588
g73
(dp589
sg82
g463
sg75
(lp590
g68
(g89
g70
NtRp591
(dp592
g73
(dp593
g93
g94
ssg82
g587
sg75
(lp594
g408
asbag68
(g89
g70
NtRp595
(dp596
g73
(dp597
g100
g101
ssg82
g587
sg75
(lp598
S':'
asbag68
(g89
g70
NtRp599
(dp600
g73
(dp601
sg82
g587
sg75
(lp602
g68
(g69
g70
NtRp603
(dp604
g73
(dp605
g81
I3
ssg82
g599
sg75
(lp606
S''
asbasbasbag68
(g84
g70
NtRp607
(dp608
g73
(dp609
sg82
g463
sg75
(lp610
g68
(g89
g70
NtRp611
(dp612
g73
(dp613
g93
g94
ssg82
g607
sg75
(lp614
g429
asbag68
(g89
g70
NtRp615
(dp616
g73
(dp617
g100
g101
ssg82
g607
sg75
(lp618
S':'
asbag68
(g89
g70
NtRp619
(dp620
g73
(dp621
sg82
g607
sg75
(lp622
g68
(g69
g70
NtRp623
(dp624
g73
(dp625
g81
I3
ssg82
g619
sg75
(lp626
S''
asbasbasbasbasbasbasbasbasbasbasbag68
(g84
g70
NtRp627
(dp628
g73
(dp629
sg82
g78
sg75
(lp630
g68
(g89
g70
NtRp631
(dp632
g73
(dp633
g93
g94
ssg82
g627
sg75
(lp634
S'env'
p635
asbag68
(g89
g70
NtRp636
(dp637
g73
(dp638
g100
g101
ssg82
g627
sg75
(lp639
S':'
asbag68
(g89
g70
NtRp640
(dp641
g73
(dp642
sg82
g627
sg75
(lp643
g68
(g69
g70
NtRp644
(dp645
g73
(dp646
g81
I5
ssg82
g640
sg75
(lp647
g68
(g77
g70
NtRp648
(dp649
g73
(dp650
g81
I4
ssg82
Nsg75
(lp651
g68
(g84
g70
NtRp652
(dp653
g73
(dp654
sg82
g648
sg75
(lp655
g68
(g89
g70
NtRp656
(dp657
g73
(dp658
g93
g94
ssg82
g652
sg75
(lp659
S'app_folders'
p660
asbag68
(g89
g70
NtRp661
(dp662
g73
(dp663
g100
g101
ssg82
g652
sg75
(lp664
S':'
asbag68
(g89
g70
NtRp665
(dp666
g73
(dp667
sg82
g652
sg75
(lp668
g68
(g69
g70
NtRp669
(dp670
g73
(dp671
g81
I4
ssg82
g665
sg75
(lp672
S"set(['/home/enigma/web2py/applications/911_signin/', '/home/enigma/web2py/applications/welcome/'])"
p673
asbasbasbag68
(g84
g70
NtRp674
(dp675
g73
(dp676
sg82
g648
sg75
(lp677
g68
(g89
g70
NtRp678
(dp679
g73
(dp680
g93
g94
ssg82
g674
sg75
(lp681
S'applications_parent'
p682
asbag68
(g89
g70
NtRp683
(dp684
g73
(dp685
g100
g101
ssg82
g674
sg75
(lp686
S':'
asbag68
(g89
g70
NtRp687
(dp688
g73
(dp689
sg82
g674
sg75
(lp690
g68
(g69
g70
NtRp691
(dp692
g73
(dp693
g81
I4
ssg82
g687
sg75
(lp694
S'/home/enigma/web2py'
p695
asbasbasbag68
(g84
g70
NtRp696
(dp697
g73
(dp698
sg82
g648
sg75
(lp699
g68
(g89
g70
NtRp700
(dp701
g73
(dp702
g93
g94
ssg82
g696
sg75
(lp703
S'cmd_args'
p704
asbag68
(g89
g70
NtRp705
(dp706
g73
(dp707
g100
g101
ssg82
g696
sg75
(lp708
S':'
asbag68
(g89
g70
NtRp709
(dp710
g73
(dp711
sg82
g696
sg75
(lp712
g68
(g69
g70
NtRp713
(dp714
g73
(dp715
g81
I4
ssg82
g709
sg75
(lp716
g68
(g77
g70
NtRp717
(dp718
g73
(dp719
g81
I3
ssg82
Nsg75
(lp720
sbasbasbasbag68
(g84
g70
NtRp721
(dp722
g73
(dp723
sg82
g648
sg75
(lp724
g68
(g89
g70
NtRp725
(dp726
g73
(dp727
g93
g94
ssg82
g721
sg75
(lp728
S'cmd_options'
p729
asbag68
(g89
g70
NtRp730
(dp731
g73
(dp732
g100
g101
ssg82
g721
sg75
(lp733
S':'
asbag68
(g89
g70
NtRp734
(dp735
g73
(dp736
sg82
g721
sg75
(lp737
g68
(g69
g70
NtRp738
(dp739
g73
(dp740
g81
I4
ssg82
g734
sg75
(lp741
S"<Values at 0xa47dbec: {'verbose': False, 'ip': '127.0.0.1', 'shutdown_timeout': 5, 'taskbar': False, 'nocron': False, 'pid_filename': 'httpserver.pid', 'maxthreads': None, 'softcron': False, 'server_name': 'ubuntu', 'bpython': False, 'nogui': False, 'port': 8000, 'extcron': False, 'debuglevel': 30, 'test': None, 'folder': '/home/enigma/web2py', 'config': '', 'import_models': False, 'winservice': '', 'shell': None, 'run': '', 'log_filename': 'httpserver.log', 'args': [''], 'socket_timeout': 5, 'ssl_ca_certificate': None, 'scheduler': None, 'profiler_filename': None, 'ssl_private_key': '', 'password': '<ask>', 'request_queue_size': 5, 'ssl_certificate': '', 'cronjob': False, 'numthreads': None, 'quiet': False, 'interfaces': None, 'minthreads': None, 'timeout': 10, 'plain': False, 'nobanner': False}>"
p742
asbasbasbag68
(g84
g70
NtRp743
(dp744
g73
(dp745
sg82
g648
sg75
(lp746
g68
(g89
g70
NtRp747
(dp748
g73
(dp749
g93
g94
ssg82
g743
sg75
(lp750
S'db_sessions'
p751
asbag68
(g89
g70
NtRp752
(dp753
g73
(dp754
g100
g101
ssg82
g743
sg75
(lp755
S':'
asbag68
(g89
g70
NtRp756
(dp757
g73
(dp758
sg82
g743
sg75
(lp759
g68
(g69
g70
NtRp760
(dp761
g73
(dp762
g81
I4
ssg82
g756
sg75
(lp763
S'set([])'
p764
asbasbasbag68
(g84
g70
NtRp765
(dp766
g73
(dp767
sg82
g648
sg75
(lp768
g68
(g89
g70
NtRp769
(dp770
g73
(dp771
g93
g94
ssg82
g765
sg75
(lp772
S'debugging'
p773
asbag68
(g89
g70
NtRp774
(dp775
g73
(dp776
g100
g101
ssg82
g765
sg75
(lp777
S':'
asbag68
(g89
g70
NtRp778
(dp779
g73
(dp780
sg82
g765
sg75
(lp781
g68
(g69
g70
NtRp782
(dp783
g73
(dp784
g81
I4
ssg82
g778
sg75
(lp785
g111
asbasbasbag68
(g84
g70
NtRp786
(dp787
g73
(dp788
sg82
g648
sg75
(lp789
g68
(g89
g70
NtRp790
(dp791
g73
(dp792
g93
g94
ssg82
g786
sg75
(lp793
S'gluon_parent'
p794
asbag68
(g89
g70
NtRp795
(dp796
g73
(dp797
g100
g101
ssg82
g786
sg75
(lp798
S':'
asbag68
(g89
g70
NtRp799
(dp800
g73
(dp801
sg82
g786
sg75
(lp802
g68
(g69
g70
NtRp803
(dp804
g73
(dp805
g81
I4
ssg82
g799
sg75
(lp806
S'/home/enigma/web2py'
p807
asbasbasbag68
(g84
g70
NtRp808
(dp809
g73
(dp810
sg82
g648
sg75
(lp811
g68
(g89
g70
NtRp812
(dp813
g73
(dp814
g93
g94
ssg82
g808
sg75
(lp815
S'http_accept'
p816
asbag68
(g89
g70
NtRp817
(dp818
g73
(dp819
g100
g101
ssg82
g808
sg75
(lp820
S':'
asbag68
(g89
g70
NtRp821
(dp822
g73
(dp823
sg82
g808
sg75
(lp824
g68
(g69
g70
NtRp825
(dp826
g73
(dp827
g81
I4
ssg82
g821
sg75
(lp828
S'text/html,application/xhtml+xml,application/xml;q=0.9,*/*;q=0.8'
p829
asbasbasbag68
(g84
g70
NtRp830
(dp831
g73
(dp832
sg82
g648
sg75
(lp833
g68
(g89
g70
NtRp834
(dp835
g73
(dp836
g93
g94
ssg82
g830
sg75
(lp837
S'http_accept_charset'
p838
asbag68
(g89
g70
NtRp839
(dp840
g73
(dp841
g100
g101
ssg82
g830
sg75
(lp842
S':'
asbag68
(g89
g70
NtRp843
(dp844
g73
(dp845
sg82
g830
sg75
(lp846
g68
(g69
g70
NtRp847
(dp848
g73
(dp849
g81
I4
ssg82
g843
sg75
(lp850
S'ISO-8859-1,utf-8;q=0.7,*;q=0.3'
p851
asbasbasbag68
(g84
g70
NtRp852
(dp853
g73
(dp854
sg82
g648
sg75
(lp855
g68
(g89
g70
NtRp856
(dp857
g73
(dp858
g93
g94
ssg82
g852
sg75
(lp859
S'http_accept_encoding'
p860
asbag68
(g89
g70
NtRp861
(dp862
g73
(dp863
g100
g101
ssg82
g852
sg75
(lp864
S':'
asbag68
(g89
g70
NtRp865
(dp866
g73
(dp867
sg82
g852
sg75
(lp868
g68
(g69
g70
NtRp869
(dp870
g73
(dp871
g81
I4
ssg82
g865
sg75
(lp872
S'gzip,deflate,sdch'
p873
asbasbasbag68
(g84
g70
NtRp874
(dp875
g73
(dp876
sg82
g648
sg75
(lp877
g68
(g89
g70
NtRp878
(dp879
g73
(dp880
g93
g94
ssg82
g874
sg75
(lp881
S'http_accept_language'
p882
asbag68
(g89
g70
NtRp883
(dp884
g73
(dp885
g100
g101
ssg82
g874
sg75
(lp886
S':'
asbag68
(g89
g70
NtRp887
(dp888
g73
(dp889
sg82
g874
sg75
(lp890
g68
(g69
g70
NtRp891
(dp892
g73
(dp893
g81
I4
ssg82
g887
sg75
(lp894
S'en-US,en;q=0.8'
p895
asbasbasbag68
(g84
g70
NtRp896
(dp897
g73
(dp898
sg82
g648
sg75
(lp899
g68
(g89
g70
NtRp900
(dp901
g73
(dp902
g93
g94
ssg82
g896
sg75
(lp903
S'http_cache_control'
p904
asbag68
(g89
g70
NtRp905
(dp906
g73
(dp907
g100
g101
ssg82
g896
sg75
(lp908
S':'
asbag68
(g89
g70
NtRp909
(dp910
g73
(dp911
sg82
g896
sg75
(lp912
g68
(g69
g70
NtRp913
(dp914
g73
(dp915
g81
I4
ssg82
g909
sg75
(lp916
S'max-age=0'
p917
asbasbasbag68
(g84
g70
NtRp918
(dp919
g73
(dp920
sg82
g648
sg75
(lp921
g68
(g89
g70
NtRp922
(dp923
g73
(dp924
g93
g94
ssg82
g918
sg75
(lp925
S'http_connection'
p926
asbag68
(g89
g70
NtRp927
(dp928
g73
(dp929
g100
g101
ssg82
g918
sg75
(lp930
S':'
asbag68
(g89
g70
NtRp931
(dp932
g73
(dp933
sg82
g918
sg75
(lp934
g68
(g69
g70
NtRp935
(dp936
g73
(dp937
g81
I4
ssg82
g931
sg75
(lp938
S'keep-alive'
p939
asbasbasbag68
(g84
g70
NtRp940
(dp941
g73
(dp942
sg82
g648
sg75
(lp943
g68
(g89
g70
NtRp944
(dp945
g73
(dp946
g93
g94
ssg82
g940
sg75
(lp947
S'http_cookie'
p948
asbag68
(g89
g70
NtRp949
(dp950
g73
(dp951
g100
g101
ssg82
g940
sg75
(lp952
S':'
asbag68
(g89
g70
NtRp953
(dp954
g73
(dp955
sg82
g940
sg75
(lp956
g68
(g69
g70
NtRp957
(dp958
g73
(dp959
g81
I4
ssg82
g953
sg75
(lp960
S'session_id_welcome=127.0.0.1-f3a56040-58c1-4f6e-8172-5c52a10891ec; session_id_911_signin=127.0.0.1-4ed2d5b9-5b80-4ba7-aca2-511dab3fd746'
p961
asbasbasbag68
(g84
g70
NtRp962
(dp963
g73
(dp964
sg82
g648
sg75
(lp965
g68
(g89
g70
NtRp966
(dp967
g73
(dp968
g93
g94
ssg82
g962
sg75
(lp969
S'http_host'
p970
asbag68
(g89
g70
NtRp971
(dp972
g73
(dp973
g100
g101
ssg82
g962
sg75
(lp974
S':'
asbag68
(g89
g70
NtRp975
(dp976
g73
(dp977
sg82
g962
sg75
(lp978
g68
(g69
g70
NtRp979
(dp980
g73
(dp981
g81
I4
ssg82
g975
sg75
(lp982
S'127.0.0.1:8000'
p983
asbasbasbag68
(g84
g70
NtRp984
(dp985
g73
(dp986
sg82
g648
sg75
(lp987
g68
(g89
g70
NtRp988
(dp989
g73
(dp990
g93
g94
ssg82
g984
sg75
(lp991
S'http_referer'
p992
asbag68
(g89
g70
NtRp993
(dp994
g73
(dp995
g100
g101
ssg82
g984
sg75
(lp996
S':'
asbag68
(g89
g70
NtRp997
(dp998
g73
(dp999
sg82
g984
sg75
(lp1000
g68
(g69
g70
NtRp1001
(dp1002
g73
(dp1003
g81
I4
ssg82
g997
sg75
(lp1004
S'http://127.0.0.1:8000/911_signin/default/index'
p1005
asbasbasbag68
(g84
g70
NtRp1006
(dp1007
g73
(dp1008
sg82
g648
sg75
(lp1009
g68
(g89
g70
NtRp1010
(dp1011
g73
(dp1012
g93
g94
ssg82
g1006
sg75
(lp1013
S'http_user_agent'
p1014
asbag68
(g89
g70
NtRp1015
(dp1016
g73
(dp1017
g100
g101
ssg82
g1006
sg75
(lp1018
S':'
asbag68
(g89
g70
NtRp1019
(dp1020
g73
(dp1021
sg82
g1006
sg75
(lp1022
g68
(g69
g70
NtRp1023
(dp1024
g73
(dp1025
g81
I4
ssg82
g1019
sg75
(lp1026
S'Mozilla/5.0 (X11; Linux i686) AppleWebKit/537.31 (KHTML, like Gecko) Chrome/26.0.1410.63 Safari/537.31'
p1027
asbasbasbag68
(g84
g70
NtRp1028
(dp1029
g73
(dp1030
sg82
g648
sg75
(lp1031
g68
(g89
g70
NtRp1032
(dp1033
g73
(dp1034
g93
g94
ssg82
g1028
sg75
(lp1035
S'is_jython'
p1036
asbag68
(g89
g70
NtRp1037
(dp1038
g73
(dp1039
g100
g101
ssg82
g1028
sg75
(lp1040
S':'
asbag68
(g89
g70
NtRp1041
(dp1042
g73
(dp1043
sg82
g1028
sg75
(lp1044
g68
(g69
g70
NtRp1045
(dp1046
g73
(dp1047
g81
I4
ssg82
g1041
sg75
(lp1048
g111
asbasbasbag68
(g84
g70
NtRp1049
(dp1050
g73
(dp1051
sg82
g648
sg75
(lp1052
g68
(g89
g70
NtRp1053
(dp1054
g73
(dp1055
g93
g94
ssg82
g1049
sg75
(lp1056
S'is_pypy'
p1057
asbag68
(g89
g70
NtRp1058
(dp1059
g73
(dp1060
g100
g101
ssg82
g1049
sg75
(lp1061
S':'
asbag68
(g89
g70
NtRp1062
(dp1063
g73
(dp1064
sg82
g1049
sg75
(lp1065
g68
(g69
g70
NtRp1066
(dp1067
g73
(dp1068
g81
I4
ssg82
g1062
sg75
(lp1069
g111
asbasbasbag68
(g84
g70
NtRp1070
(dp1071
g73
(dp1072
sg82
g648
sg75
(lp1073
g68
(g89
g70
NtRp1074
(dp1075
g73
(dp1076
g93
g94
ssg82
g1070
sg75
(lp1077
S'path_info'
p1078
asbag68
(g89
g70
NtRp1079
(dp1080
g73
(dp1081
g100
g101
ssg82
g1070
sg75
(lp1082
S':'
asbag68
(g89
g70
NtRp1083
(dp1084
g73
(dp1085
sg82
g1070
sg75
(lp1086
g68
(g69
g70
NtRp1087
(dp1088
g73
(dp1089
g81
I4
ssg82
g1083
sg75
(lp1090
S'/911_signin/default/index'
p1091
asbasbasbag68
(g84
g70
NtRp1092
(dp1093
g73
(dp1094
sg82
g648
sg75
(lp1095
g68
(g89
g70
NtRp1096
(dp1097
g73
(dp1098
g93
g94
ssg82
g1092
sg75
(lp1099
S'query_string'
p1100
asbag68
(g89
g70
NtRp1101
(dp1102
g73
(dp1103
g100
g101
ssg82
g1092
sg75
(lp1104
S':'
asbag68
(g89
g70
NtRp1105
(dp1106
g73
(dp1107
sg82
g1092
sg75
(lp1108
g68
(g69
g70
NtRp1109
(dp1110
g73
(dp1111
g81
I4
ssg82
g1105
sg75
(lp1112
S''
asbasbasbag68
(g84
g70
NtRp1113
(dp1114
g73
(dp1115
sg82
g648
sg75
(lp1116
g68
(g89
g70
NtRp1117
(dp1118
g73
(dp1119
g93
g94
ssg82
g1113
sg75
(lp1120
S'remote_addr'
p1121
asbag68
(g89
g70
NtRp1122
(dp1123
g73
(dp1124
g100
g101
ssg82
g1113
sg75
(lp1125
S':'
asbag68
(g89
g70
NtRp1126
(dp1127
g73
(dp1128
sg82
g1113
sg75
(lp1129
g68
(g69
g70
NtRp1130
(dp1131
g73
(dp1132
g81
I4
ssg82
g1126
sg75
(lp1133
g201
asbasbasbag68
(g84
g70
NtRp1134
(dp1135
g73
(dp1136
sg82
g648
sg75
(lp1137
g68
(g89
g70
NtRp1138
(dp1139
g73
(dp1140
g93
g94
ssg82
g1134
sg75
(lp1141
S'remote_port'
p1142
asbag68
(g89
g70
NtRp1143
(dp1144
g73
(dp1145
g100
g101
ssg82
g1134
sg75
(lp1146
S':'
asbag68
(g89
g70
NtRp1147
(dp1148
g73
(dp1149
sg82
g1134
sg75
(lp1150
g68
(g69
g70
NtRp1151
(dp1152
g73
(dp1153
g81
I4
ssg82
g1147
sg75
(lp1154
S'33864'
p1155
asbasbasbag68
(g84
g70
NtRp1156
(dp1157
g73
(dp1158
sg82
g648
sg75
(lp1159
g68
(g89
g70
NtRp1160
(dp1161
g73
(dp1162
g93
g94
ssg82
g1156
sg75
(lp1163
S'request_method'
p1164
asbag68
(g89
g70
NtRp1165
(dp1166
g73
(dp1167
g100
g101
ssg82
g1156
sg75
(lp1168
S':'
asbag68
(g89
g70
NtRp1169
(dp1170
g73
(dp1171
sg82
g1156
sg75
(lp1172
g68
(g69
g70
NtRp1173
(dp1174
g73
(dp1175
g81
I4
ssg82
g1169
sg75
(lp1176
S'GET'
p1177
asbasbasbag68
(g84
g70
NtRp1178
(dp1179
g73
(dp1180
sg82
g648
sg75
(lp1181
g68
(g89
g70
NtRp1182
(dp1183
g73
(dp1184
g93
g94
ssg82
g1178
sg75
(lp1185
S'script_name'
p1186
asbag68
(g89
g70
NtRp1187
(dp1188
g73
(dp1189
g100
g101
ssg82
g1178
sg75
(lp1190
S':'
asbag68
(g89
g70
NtRp1191
(dp1192
g73
(dp1193
sg82
g1178
sg75
(lp1194
g68
(g69
g70
NtRp1195
(dp1196
g73
(dp1197
g81
I4
ssg82
g1191
sg75
(lp1198
S''
asbasbasbag68
(g84
g70
NtRp1199
(dp1200
g73
(dp1201
sg82
g648
sg75
(lp1202
g68
(g89
g70
NtRp1203
(dp1204
g73
(dp1205
g93
g94
ssg82
g1199
sg75
(lp1206
S'server_name'
p1207
asbag68
(g89
g70
NtRp1208
(dp1209
g73
(dp1210
g100
g101
ssg82
g1199
sg75
(lp1211
S':'
asbag68
(g89
g70
NtRp1212
(dp1213
g73
(dp1214
sg82
g1199
sg75
(lp1215
g68
(g69
g70
NtRp1216
(dp1217
g73
(dp1218
g81
I4
ssg82
g1212
sg75
(lp1219
S'ubuntu'
p1220
asbasbasbag68
(g84
g70
NtRp1221
(dp1222
g73
(dp1223
sg82
g648
sg75
(lp1224
g68
(g89
g70
NtRp1225
(dp1226
g73
(dp1227
g93
g94
ssg82
g1221
sg75
(lp1228
S'server_port'
p1229
asbag68
(g89
g70
NtRp1230
(dp1231
g73
(dp1232
g100
g101
ssg82
g1221
sg75
(lp1233
S':'
asbag68
(g89
g70
NtRp1234
(dp1235
g73
(dp1236
sg82
g1221
sg75
(lp1237
g68
(g69
g70
NtRp1238
(dp1239
g73
(dp1240
g81
I4
ssg82
g1234
sg75
(lp1241
S'8000'
p1242
asbasbasbag68
(g84
g70
NtRp1243
(dp1244
g73
(dp1245
sg82
g648
sg75
(lp1246
g68
(g89
g70
NtRp1247
(dp1248
g73
(dp1249
g93
g94
ssg82
g1243
sg75
(lp1250
S'server_protocol'
p1251
asbag68
(g89
g70
NtRp1252
(dp1253
g73
(dp1254
g100
g101
ssg82
g1243
sg75
(lp1255
S':'
asbag68
(g89
g70
NtRp1256
(dp1257
g73
(dp1258
sg82
g1243
sg75
(lp1259
g68
(g69
g70
NtRp1260
(dp1261
g73
(dp1262
g81
I4
ssg82
g1256
sg75
(lp1263
S'HTTP/1.1'
p1264
asbasbasbag68
(g84
g70
NtRp1265
(dp1266
g73
(dp1267
sg82
g648
sg75
(lp1268
g68
(g89
g70
NtRp1269
(dp1270
g73
(dp1271
g93
g94
ssg82
g1265
sg75
(lp1272
S'server_software'
p1273
asbag68
(g89
g70
NtRp1274
(dp1275
g73
(dp1276
g100
g101
ssg82
g1265
sg75
(lp1277
S':'
asbag68
(g89
g70
NtRp1278
(dp1279
g73
(dp1280
sg82
g1265
sg75
(lp1281
g68
(g69
g70
NtRp1282
(dp1283
g73
(dp1284
g81
I4
ssg82
g1278
sg75
(lp1285
S'Rocket 1.2.4'
p1286
asbasbasbag68
(g84
g70
NtRp1287
(dp1288
g73
(dp1289
sg82
g648
sg75
(lp1290
g68
(g89
g70
NtRp1291
(dp1292
g73
(dp1293
g93
g94
ssg82
g1287
sg75
(lp1294
S'web2py_crontype'
p1295
asbag68
(g89
g70
NtRp1296
(dp1297
g73
(dp1298
g100
g101
ssg82
g1287
sg75
(lp1299
S':'
asbag68
(g89
g70
NtRp1300
(dp1301
g73
(dp1302
sg82
g1287
sg75
(lp1303
g68
(g69
g70
NtRp1304
(dp1305
g73
(dp1306
g81
I4
ssg82
g1300
sg75
(lp1307
S'hard'
p1308
asbasbasbag68
(g84
g70
NtRp1309
(dp1310
g73
(dp1311
sg82
g648
sg75
(lp1312
g68
(g89
g70
NtRp1313
(dp1314
g73
(dp1315
g93
g94
ssg82
g1309
sg75
(lp1316
S'web2py_path'
p1317
asbag68
(g89
g70
NtRp1318
(dp1319
g73
(dp1320
g100
g101
ssg82
g1309
sg75
(lp1321
S':'
asbag68
(g89
g70
NtRp1322
(dp1323
g73
(dp1324
sg82
g1309
sg75
(lp1325
g68
(g69
g70
NtRp1326
(dp1327
g73
(dp1328
g81
I4
ssg82
g1322
sg75
(lp1329
g695
asbasbasbag68
(g84
g70
NtRp1330
(dp1331
g73
(dp1332
sg82
g648
sg75
(lp1333
g68
(g89
g70
NtRp1334
(dp1335
g73
(dp1336
g93
g94
ssg82
g1330
sg75
(lp1337
S'web2py_version'
p1338
asbag68
(g89
g70
NtRp1339
(dp1340
g73
(dp1341
g100
g101
ssg82
g1330
sg75
(lp1342
S':'
asbag68
(g89
g70
NtRp1343
(dp1344
g73
(dp1345
sg82
g1330
sg75
(lp1346
g68
(g69
g70
NtRp1347
(dp1348
g73
(dp1349
g81
I4
ssg82
g1343
sg75
(lp1350
g68
(g77
g70
NtRp1351
(dp1352
g73
(dp1353
g81
I3
ssg82
Nsg75
(lp1354
g68
(g84
g70
NtRp1355
(dp1356
g73
(dp1357
sg82
g1351
sg75
(lp1358
g68
(g89
g70
NtRp1359
(dp1360
g73
(dp1361
sg82
g1355
sg75
(lp1362
g68
(g69
g70
NtRp1363
(dp1364
g73
(dp1365
g81
I3
ssg82
g1359
sg75
(lp1366
S'1'
asbasbasbag68
(g84
g70
NtRp1367
(dp1368
g73
(dp1369
sg82
g1351
sg75
(lp1370
g68
(g89
g70
NtRp1371
(dp1372
g73
(dp1373
sg82
g1367
sg75
(lp1374
g68
(g69
g70
NtRp1375
(dp1376
g73
(dp1377
g81
I3
ssg82
g1371
sg75
(lp1378
S'99'
p1379
asbasbasbag68
(g84
g70
NtRp1380
(dp1381
g73
(dp1382
sg82
g1351
sg75
(lp1383
g68
(g89
g70
NtRp1384
(dp1385
g73
(dp1386
sg82
g1380
sg75
(lp1387
g68
(g69
g70
NtRp1388
(dp1389
g73
(dp1390
g81
I3
ssg82
g1384
sg75
(lp1391
S'7'
asbasbasbag68
(g84
g70
NtRp1392
(dp1393
g73
(dp1394
sg82
g1351
sg75
(lp1395
g68
(g89
g70
NtRp1396
(dp1397
g73
(dp1398
sg82
g1392
sg75
(lp1399
g68
(g69
g70
NtRp1400
(dp1401
g73
(dp1402
g81
I3
ssg82
g1396
sg75
(lp1403
S'datetime.datetime(2012, 3, 4, 22, 12, 8)'
p1404
asbasbasbag68
(g84
g70
NtRp1405
(dp1406
g73
(dp1407
sg82
g1351
sg75
(lp1408
g68
(g89
g70
NtRp1409
(dp1410
g73
(dp1411
sg82
g1405
sg75
(lp1412
g68
(g69
g70
NtRp1413
(dp1414
g73
(dp1415
g81
I3
ssg82
g1409
sg75
(lp1416
S'stable'
p1417
asbasbasbasbasbasbasbag68
(g84
g70
NtRp1418
(dp1419
g73
(dp1420
sg82
g648
sg75
(lp1421
g68
(g89
g70
NtRp1422
(dp1423
g73
(dp1424
g93
g94
ssg82
g1418
sg75
(lp1425
S'wsgi_errors'
p1426
asbag68
(g89
g70
NtRp1427
(dp1428
g73
(dp1429
g100
g101
ssg82
g1418
sg75
(lp1430
S':'
asbag68
(g89
g70
NtRp1431
(dp1432
g73
(dp1433
sg82
g1418
sg75
(lp1434
g68
(g69
g70
NtRp1435
(dp1436
g73
(dp1437
g81
I4
ssg82
g1431
sg75
(lp1438
S"<open file '<stderr>', mode 'w' at 0xb72d60d0>"
p1439
asbasbasbag68
(g84
g70
NtRp1440
(dp1441
g73
(dp1442
sg82
g648
sg75
(lp1443
g68
(g89
g70
NtRp1444
(dp1445
g73
(dp1446
g93
g94
ssg82
g1440
sg75
(lp1447
S'wsgi_file_wrapper'
p1448
asbag68
(g89
g70
NtRp1449
(dp1450
g73
(dp1451
g100
g101
ssg82
g1440
sg75
(lp1452
S':'
asbag68
(g89
g70
NtRp1453
(dp1454
g73
(dp1455
sg82
g1440
sg75
(lp1456
g68
(g69
g70
NtRp1457
(dp1458
g73
(dp1459
g81
I4
ssg82
g1453
sg75
(lp1460
S'<class wsgiref.util.FileWrapper at 0xa3bee9c>'
p1461
asbasbasbag68
(g84
g70
NtRp1462
(dp1463
g73
(dp1464
sg82
g648
sg75
(lp1465
g68
(g89
g70
NtRp1466
(dp1467
g73
(dp1468
g93
g94
ssg82
g1462
sg75
(lp1469
S'wsgi_input'
p1470
asbag68
(g89
g70
NtRp1471
(dp1472
g73
(dp1473
g100
g101
ssg82
g1462
sg75
(lp1474
S':'
asbag68
(g89
g70
NtRp1475
(dp1476
g73
(dp1477
sg82
g1462
sg75
(lp1478
g68
(g69
g70
NtRp1479
(dp1480
g73
(dp1481
g81
I4
ssg82
g1475
sg75
(lp1482
S'<socket._fileobject object at 0xa445eec>'
p1483
asbasbasbag68
(g84
g70
NtRp1484
(dp1485
g73
(dp1486
sg82
g648
sg75
(lp1487
g68
(g89
g70
NtRp1488
(dp1489
g73
(dp1490
g93
g94
ssg82
g1484
sg75
(lp1491
S'wsgi_multiprocess'
p1492
asbag68
(g89
g70
NtRp1493
(dp1494
g73
(dp1495
g100
g101
ssg82
g1484
sg75
(lp1496
S':'
asbag68
(g89
g70
NtRp1497
(dp1498
g73
(dp1499
sg82
g1484
sg75
(lp1500
g68
(g69
g70
NtRp1501
(dp1502
g73
(dp1503
g81
I4
ssg82
g1497
sg75
(lp1504
g111
asbasbasbag68
(g84
g70
NtRp1505
(dp1506
g73
(dp1507
sg82
g648
sg75
(lp1508
g68
(g89
g70
NtRp1509
(dp1510
g73
(dp1511
g93
g94
ssg82
g1505
sg75
(lp1512
S'wsgi_multithread'
p1513
asbag68
(g89
g70
NtRp1514
(dp1515
g73
(dp1516
g100
g101
ssg82
g1505
sg75
(lp1517
S':'
asbag68
(g89
g70
NtRp1518
(dp1519
g73
(dp1520
sg82
g1505
sg75
(lp1521
g68
(g69
g70
NtRp1522
(dp1523
g73
(dp1524
g81
I4
ssg82
g1518
sg75
(lp1525
S'True'
p1526
asbasbasbag68
(g84
g70
NtRp1527
(dp1528
g73
(dp1529
sg82
g648
sg75
(lp1530
g68
(g89
g70
NtRp1531
(dp1532
g73
(dp1533
g93
g94
ssg82
g1527
sg75
(lp1534
S'wsgi_run_once'
p1535
asbag68
(g89
g70
NtRp1536
(dp1537
g73
(dp1538
g100
g101
ssg82
g1527
sg75
(lp1539
S':'
asbag68
(g89
g70
NtRp1540
(dp1541
g73
(dp1542
sg82
g1527
sg75
(lp1543
g68
(g69
g70
NtRp1544
(dp1545
g73
(dp1546
g81
I4
ssg82
g1540
sg75
(lp1547
g111
asbasbasbag68
(g84
g70
NtRp1548
(dp1549
g73
(dp1550
sg82
g648
sg75
(lp1551
g68
(g89
g70
NtRp1552
(dp1553
g73
(dp1554
g93
g94
ssg82
g1548
sg75
(lp1555
S'wsgi_url_scheme'
p1556
asbag68
(g89
g70
NtRp1557
(dp1558
g73
(dp1559
g100
g101
ssg82
g1548
sg75
(lp1560
S':'
asbag68
(g89
g70
NtRp1561
(dp1562
g73
(dp1563
sg82
g1548
sg75
(lp1564
g68
(g69
g70
NtRp1565
(dp1566
g73
(dp1567
g81
I4
ssg82
g1561
sg75
(lp1568
S'http'
p1569
asbasbasbag68
(g84
g70
NtRp1570
(dp1571
g73
(dp1572
sg82
g648
sg75
(lp1573
g68
(g89
g70
NtRp1574
(dp1575
g73
(dp1576
g93
g94
ssg82
g1570
sg75
(lp1577
S'wsgi_version'
p1578
asbag68
(g89
g70
NtRp1579
(dp1580
g73
(dp1581
g100
g101
ssg82
g1570
sg75
(lp1582
S':'
asbag68
(g89
g70
NtRp1583
(dp1584
g73
(dp1585
sg82
g1570
sg75
(lp1586
g68
(g69
g70
NtRp1587
(dp1588
g73
(dp1589
g81
I4
ssg82
g1583
sg75
(lp1590
g68
(g77
g70
NtRp1591
(dp1592
g73
(dp1593
g81
I3
ssg82
Nsg75
(lp1594
g68
(g84
g70
NtRp1595
(dp1596
g73
(dp1597
sg82
g1591
sg75
(lp1598
g68
(g89
g70
NtRp1599
(dp1600
g73
(dp1601
sg82
g1595
sg75
(lp1602
g68
(g69
g70
NtRp1603
(dp1604
g73
(dp1605
g81
I3
ssg82
g1599
sg75
(lp1606
S'1'
asbasbasbag68
(g84
g70
NtRp1607
(dp1608
g73
(dp1609
sg82
g1591
sg75
(lp1610
g68
(g89
g70
NtRp1611
(dp1612
g73
(dp1613
sg82
g1607
sg75
(lp1614
g68
(g69
g70
NtRp1615
(dp1616
g73
(dp1617
g81
I3
ssg82
g1611
sg75
(lp1618
S'0'
asbasbasbasbasbasbasbasbasbasbasbag68
(g84
g70
NtRp1619
(dp1620
g73
(dp1621
sg82
g78
sg75
(lp1622
g68
(g89
g70
NtRp1623
(dp1624
g73
(dp1625
g93
g94
ssg82
g1619
sg75
(lp1626
S'extension'
p1627
asbag68
(g89
g70
NtRp1628
(dp1629
g73
(dp1630
g100
g101
ssg82
g1619
sg75
(lp1631
S':'
asbag68
(g89
g70
NtRp1632
(dp1633
g73
(dp1634
sg82
g1619
sg75
(lp1635
g68
(g69
g70
NtRp1636
(dp1637
g73
(dp1638
g81
I5
ssg82
g1632
sg75
(lp1639
S'html'
p1640
asbasbasbag68
(g84
g70
NtRp1641
(dp1642
g73
(dp1643
sg82
g78
sg75
(lp1644
g68
(g89
g70
NtRp1645
(dp1646
g73
(dp1647
g93
g94
ssg82
g1641
sg75
(lp1648
S'folder'
p1649
asbag68
(g89
g70
NtRp1650
(dp1651
g73
(dp1652
g100
g101
ssg82
g1641
sg75
(lp1653
S':'
asbag68
(g89
g70
NtRp1654
(dp1655
g73
(dp1656
sg82
g1641
sg75
(lp1657
g68
(g69
g70
NtRp1658
(dp1659
g73
(dp1660
g81
I5
ssg82
g1654
sg75
(lp1661
S'/home/enigma/web2py/applications/911_signin/'
p1662
asbasbasbag68
(g84
g70
NtRp1663
(dp1664
g73
(dp1665
sg82
g78
sg75
(lp1666
g68
(g89
g70
NtRp1667
(dp1668
g73
(dp1669
g93
g94
ssg82
g1663
sg75
(lp1670
S'function'
p1671
asbag68
(g89
g70
NtRp1672
(dp1673
g73
(dp1674
g100
g101
ssg82
g1663
sg75
(lp1675
S':'
asbag68
(g89
g70
NtRp1676
(dp1677
g73
(dp1678
sg82
g1663
sg75
(lp1679
g68
(g69
g70
NtRp1680
(dp1681
g73
(dp1682
g81
I5
ssg82
g1676
sg75
(lp1683
S'index'
p1684
asbasbasbag68
(g84
g70
NtRp1685
(dp1686
g73
(dp1687
sg82
g78
sg75
(lp1688
g68
(g89
g70
NtRp1689
(dp1690
g73
(dp1691
g93
g94
ssg82
g1685
sg75
(lp1692
S'get_vars'
p1693
asbag68
(g89
g70
NtRp1694
(dp1695
g73
(dp1696
g100
g101
ssg82
g1685
sg75
(lp1697
S':'
asbag68
(g89
g70
NtRp1698
(dp1699
g73
(dp1700
sg82
g1685
sg75
(lp1701
g68
(g69
g70
NtRp1702
(dp1703
g73
(dp1704
g81
I5
ssg82
g1698
sg75
(lp1705
g68
(g77
g70
NtRp1706
(dp1707
g73
(dp1708
g81
I4
ssg82
Nsg75
(lp1709
sbasbasbasbag68
(g84
g70
NtRp1710
(dp1711
g73
(dp1712
sg82
g78
sg75
(lp1713
g68
(g89
g70
NtRp1714
(dp1715
g73
(dp1716
g93
g94
ssg82
g1710
sg75
(lp1717
S'global_settings'
p1718
asbag68
(g89
g70
NtRp1719
(dp1720
g73
(dp1721
g100
g101
ssg82
g1710
sg75
(lp1722
S':'
asbag68
(g89
g70
NtRp1723
(dp1724
g73
(dp1725
sg82
g1710
sg75
(lp1726
g68
(g69
g70
NtRp1727
(dp1728
g73
(dp1729
g81
I5
ssg82
g1723
sg75
(lp1730
g68
(g77
g70
NtRp1731
(dp1732
g73
(dp1733
g81
I4
ssg82
Nsg75
(lp1734
g68
(g84
g70
NtRp1735
(dp1736
g73
(dp1737
sg82
g1731
sg75
(lp1738
g68
(g89
g70
NtRp1739
(dp1740
g73
(dp1741
g93
g94
ssg82
g1735
sg75
(lp1742
g660
asbag68
(g89
g70
NtRp1743
(dp1744
g73
(dp1745
g100
g101
ssg82
g1735
sg75
(lp1746
S':'
asbag68
(g89
g70
NtRp1747
(dp1748
g73
(dp1749
sg82
g1735
sg75
(lp1750
g68
(g69
g70
NtRp1751
(dp1752
g73
(dp1753
g81
I4
ssg82
g1747
sg75
(lp1754
S"set(['/home/enigma/web2py/applications/911_signin/', '/home/enigma/web2py/applications/welcome/'])"
p1755
asbasbasbag68
(g84
g70
NtRp1756
(dp1757
g73
(dp1758
sg82
g1731
sg75
(lp1759
g68
(g89
g70
NtRp1760
(dp1761
g73
(dp1762
g93
g94
ssg82
g1756
sg75
(lp1763
g682
asbag68
(g89
g70
NtRp1764
(dp1765
g73
(dp1766
g100
g101
ssg82
g1756
sg75
(lp1767
S':'
asbag68
(g89
g70
NtRp1768
(dp1769
g73
(dp1770
sg82
g1756
sg75
(lp1771
g68
(g69
g70
NtRp1772
(dp1773
g73
(dp1774
g81
I4
ssg82
g1768
sg75
(lp1775
g695
asbasbasbag68
(g84
g70
NtRp1776
(dp1777
g73
(dp1778
sg82
g1731
sg75
(lp1779
g68
(g89
g70
NtRp1780
(dp1781
g73
(dp1782
g93
g94
ssg82
g1776
sg75
(lp1783
g704
asbag68
(g89
g70
NtRp1784
(dp1785
g73
(dp1786
g100
g101
ssg82
g1776
sg75
(lp1787
S':'
asbag68
(g89
g70
NtRp1788
(dp1789
g73
(dp1790
sg82
g1776
sg75
(lp1791
g68
(g69
g70
NtRp1792
(dp1793
g73
(dp1794
g81
I4
ssg82
g1788
sg75
(lp1795
g68
(g77
g70
NtRp1796
(dp1797
g73
(dp1798
g81
I3
ssg82
Nsg75
(lp1799
sbasbasbasbag68
(g84
g70
NtRp1800
(dp1801
g73
(dp1802
sg82
g1731
sg75
(lp1803
g68
(g89
g70
NtRp1804
(dp1805
g73
(dp1806
g93
g94
ssg82
g1800
sg75
(lp1807
g729
asbag68
(g89
g70
NtRp1808
(dp1809
g73
(dp1810
g100
g101
ssg82
g1800
sg75
(lp1811
S':'
asbag68
(g89
g70
NtRp1812
(dp1813
g73
(dp1814
sg82
g1800
sg75
(lp1815
g68
(g69
g70
NtRp1816
(dp1817
g73
(dp1818
g81
I4
ssg82
g1812
sg75
(lp1819
S"<Values at 0xa47dbec: {'verbose': False, 'ip': '127.0.0.1', 'shutdown_timeout': 5, 'taskbar': False, 'nocron': False, 'pid_filename': 'httpserver.pid', 'maxthreads': None, 'softcron': False, 'server_name': 'ubuntu', 'bpython': False, 'nogui': False, 'port': 8000, 'extcron': False, 'debuglevel': 30, 'test': None, 'folder': '/home/enigma/web2py', 'config': '', 'import_models': False, 'winservice': '', 'shell': None, 'run': '', 'log_filename': 'httpserver.log', 'args': [''], 'socket_timeout': 5, 'ssl_ca_certificate': None, 'scheduler': None, 'profiler_filename': None, 'ssl_private_key': '', 'password': '<ask>', 'request_queue_size': 5, 'ssl_certificate': '', 'cronjob': False, 'numthreads': None, 'quiet': False, 'interfaces': None, 'minthreads': None, 'timeout': 10, 'plain': False, 'nobanner': False}>"
p1820
asbasbasbag68
(g84
g70
NtRp1821
(dp1822
g73
(dp1823
sg82
g1731
sg75
(lp1824
g68
(g89
g70
NtRp1825
(dp1826
g73
(dp1827
g93
g94
ssg82
g1821
sg75
(lp1828
g751
asbag68
(g89
g70
NtRp1829
(dp1830
g73
(dp1831
g100
g101
ssg82
g1821
sg75
(lp1832
S':'
asbag68
(g89
g70
NtRp1833
(dp1834
g73
(dp1835
sg82
g1821
sg75
(lp1836
g68
(g69
g70
NtRp1837
(dp1838
g73
(dp1839
g81
I4
ssg82
g1833
sg75
(lp1840
S'set([])'
p1841
asbasbasbag68
(g84
g70
NtRp1842
(dp1843
g73
(dp1844
sg82
g1731
sg75
(lp1845
g68
(g89
g70
NtRp1846
(dp1847
g73
(dp1848
g93
g94
ssg82
g1842
sg75
(lp1849
g773
asbag68
(g89
g70
NtRp1850
(dp1851
g73
(dp1852
g100
g101
ssg82
g1842
sg75
(lp1853
S':'
asbag68
(g89
g70
NtRp1854
(dp1855
g73
(dp1856
sg82
g1842
sg75
(lp1857
g68
(g69
g70
NtRp1858
(dp1859
g73
(dp1860
g81
I4
ssg82
g1854
sg75
(lp1861
g111
asbasbasbag68
(g84
g70
NtRp1862
(dp1863
g73
(dp1864
sg82
g1731
sg75
(lp1865
g68
(g89
g70
NtRp1866
(dp1867
g73
(dp1868
g93
g94
ssg82
g1862
sg75
(lp1869
g794
asbag68
(g89
g70
NtRp1870
(dp1871
g73
(dp1872
g100
g101
ssg82
g1862
sg75
(lp1873
S':'
asbag68
(g89
g70
NtRp1874
(dp1875
g73
(dp1876
sg82
g1862
sg75
(lp1877
g68
(g69
g70
NtRp1878
(dp1879
g73
(dp1880
g81
I4
ssg82
g1874
sg75
(lp1881
g807
asbasbasbag68
(g84
g70
NtRp1882
(dp1883
g73
(dp1884
sg82
g1731
sg75
(lp1885
g68
(g89
g70
NtRp1886
(dp1887
g73
(dp1888
g93
g94
ssg82
g1882
sg75
(lp1889
g1036
asbag68
(g89
g70
NtRp1890
(dp1891
g73
(dp1892
g100
g101
ssg82
g1882
sg75
(lp1893
S':'
asbag68
(g89
g70
NtRp1894
(dp1895
g73
(dp1896
sg82
g1882
sg75
(lp1897
g68
(g69
g70
NtRp1898
(dp1899
g73
(dp1900
g81
I4
ssg82
g1894
sg75
(lp1901
g111
asbasbasbag68
(g84
g70
NtRp1902
(dp1903
g73
(dp1904
sg82
g1731
sg75
(lp1905
g68
(g89
g70
NtRp1906
(dp1907
g73
(dp1908
g93
g94
ssg82
g1902
sg75
(lp1909
g1057
asbag68
(g89
g70
NtRp1910
(dp1911
g73
(dp1912
g100
g101
ssg82
g1902
sg75
(lp1913
S':'
asbag68
(g89
g70
NtRp1914
(dp1915
g73
(dp1916
sg82
g1902
sg75
(lp1917
g68
(g69
g70
NtRp1918
(dp1919
g73
(dp1920
g81
I4
ssg82
g1914
sg75
(lp1921
g111
asbasbasbag68
(g84
g70
NtRp1922
(dp1923
g73
(dp1924
sg82
g1731
sg75
(lp1925
g68
(g89
g70
NtRp1926
(dp1927
g73
(dp1928
g93
g94
ssg82
g1922
sg75
(lp1929
g1295
asbag68
(g89
g70
NtRp1930
(dp1931
g73
(dp1932
g100
g101
ssg82
g1922
sg75
(lp1933
S':'
asbag68
(g89
g70
NtRp1934
(dp1935
g73
(dp1936
sg82
g1922
sg75
(lp1937
g68
(g69
g70
NtRp1938
(dp1939
g73
(dp1940
g81
I4
ssg82
g1934
sg75
(lp1941
g1308
asbasbasbag68
(g84
g70
NtRp1942
(dp1943
g73
(dp1944
sg82
g1731
sg75
(lp1945
g68
(g89
g70
NtRp1946
(dp1947
g73
(dp1948
g93
g94
ssg82
g1942
sg75
(lp1949
g1338
asbag68
(g89
g70
NtRp1950
(dp1951
g73
(dp1952
g100
g101
ssg82
g1942
sg75
(lp1953
S':'
asbag68
(g89
g70
NtRp1954
(dp1955
g73
(dp1956
sg82
g1942
sg75
(lp1957
g68
(g69
g70
NtRp1958
(dp1959
g73
(dp1960
g81
I4
ssg82
g1954
sg75
(lp1961
g68
(g77
g70
NtRp1962
(dp1963
g73
(dp1964
g81
I3
ssg82
Nsg75
(lp1965
g68
(g84
g70
NtRp1966
(dp1967
g73
(dp1968
sg82
g1962
sg75
(lp1969
g68
(g89
g70
NtRp1970
(dp1971
g73
(dp1972
sg82
g1966
sg75
(lp1973
g68
(g69
g70
NtRp1974
(dp1975
g73
(dp1976
g81
I3
ssg82
g1970
sg75
(lp1977
S'1'
asbasbasbag68
(g84
g70
NtRp1978
(dp1979
g73
(dp1980
sg82
g1962
sg75
(lp1981
g68
(g89
g70
NtRp1982
(dp1983
g73
(dp1984
sg82
g1978
sg75
(lp1985
g68
(g69
g70
NtRp1986
(dp1987
g73
(dp1988
g81
I3
ssg82
g1982
sg75
(lp1989
S'99'
p1990
asbasbasbag68
(g84
g70
NtRp1991
(dp1992
g73
(dp1993
sg82
g1962
sg75
(lp1994
g68
(g89
g70
NtRp1995
(dp1996
g73
(dp1997
sg82
g1991
sg75
(lp1998
g68
(g69
g70
NtRp1999
(dp2000
g73
(dp2001
g81
I3
ssg82
g1995
sg75
(lp2002
S'7'
asbasbasbag68
(g84
g70
NtRp2003
(dp2004
g73
(dp2005
sg82
g1962
sg75
(lp2006
g68
(g89
g70
NtRp2007
(dp2008
g73
(dp2009
sg82
g2003
sg75
(lp2010
g68
(g69
g70
NtRp2011
(dp2012
g73
(dp2013
g81
I3
ssg82
g2007
sg75
(lp2014
S'datetime.datetime(2012, 3, 4, 22, 12, 8)'
p2015
asbasbasbag68
(g84
g70
NtRp2016
(dp2017
g73
(dp2018
sg82
g1962
sg75
(lp2019
g68
(g89
g70
NtRp2020
(dp2021
g73
(dp2022
sg82
g2016
sg75
(lp2023
g68
(g69
g70
NtRp2024
(dp2025
g73
(dp2026
g81
I3
ssg82
g2020
sg75
(lp2027
g1417
asbasbasbasbasbasbasbasbasbasbasbag68
(g84
g70
NtRp2028
(dp2029
g73
(dp2030
sg82
g78
sg75
(lp2031
g68
(g89
g70
NtRp2032
(dp2033
g73
(dp2034
g93
g94
ssg82
g2028
sg75
(lp2035
S'is_https'
p2036
asbag68
(g89
g70
NtRp2037
(dp2038
g73
(dp2039
g100
g101
ssg82
g2028
sg75
(lp2040
S':'
asbag68
(g89
g70
NtRp2041
(dp2042
g73
(dp2043
sg82
g2028
sg75
(lp2044
g68
(g69
g70
NtRp2045
(dp2046
g73
(dp2047
g81
I5
ssg82
g2041
sg75
(lp2048
g111
asbasbasbag68
(g84
g70
NtRp2049
(dp2050
g73
(dp2051
sg82
g78
sg75
(lp2052
g68
(g89
g70
NtRp2053
(dp2054
g73
(dp2055
g93
g94
ssg82
g2049
sg75
(lp2056
S'is_local'
p2057
asbag68
(g89
g70
NtRp2058
(dp2059
g73
(dp2060
g100
g101
ssg82
g2049
sg75
(lp2061
S':'
asbag68
(g89
g70
NtRp2062
(dp2063
g73
(dp2064
sg82
g2049
sg75
(lp2065
g68
(g69
g70
NtRp2066
(dp2067
g73
(dp2068
g81
I5
ssg82
g2062
sg75
(lp2069
g1526
asbasbasbag68
(g84
g70
NtRp2070
(dp2071
g73
(dp2072
sg82
g78
sg75
(lp2073
g68
(g89
g70
NtRp2074
(dp2075
g73
(dp2076
g93
g94
ssg82
g2070
sg75
(lp2077
S'is_restful'
p2078
asbag68
(g89
g70
NtRp2079
(dp2080
g73
(dp2081
g100
g101
ssg82
g2070
sg75
(lp2082
S':'
asbag68
(g89
g70
NtRp2083
(dp2084
g73
(dp2085
sg82
g2070
sg75
(lp2086
g68
(g69
g70
NtRp2087
(dp2088
g73
(dp2089
g81
I5
ssg82
g2083
sg75
(lp2090
g111
asbasbasbag68
(g84
g70
NtRp2091
(dp2092
g73
(dp2093
sg82
g78
sg75
(lp2094
g68
(g89
g70
NtRp2095
(dp2096
g73
(dp2097
g93
g94
ssg82
g2091
sg75
(lp2098
S'now'
p2099
asbag68
(g89
g70
NtRp2100
(dp2101
g73
(dp2102
g100
g101
ssg82
g2091
sg75
(lp2103
S':'
asbag68
(g89
g70
NtRp2104
(dp2105
g73
(dp2106
sg82
g2091
sg75
(lp2107
g68
(g69
g70
NtRp2108
(dp2109
g73
(dp2110
g81
I5
ssg82
g2104
sg75
(lp2111
S'datetime.datetime(2013, 5, 19, 10, 46, 23, 72158)'
p2112
asbasbasbag68
(g84
g70
NtRp2113
(dp2114
g73
(dp2115
sg82
g78
sg75
(lp2116
g68
(g89
g70
NtRp2117
(dp2118
g73
(dp2119
g93
g94
ssg82
g2113
sg75
(lp2120
S'post_vars'
p2121
asbag68
(g89
g70
NtRp2122
(dp2123
g73
(dp2124
g100
g101
ssg82
g2113
sg75
(lp2125
S':'
asbag68
(g89
g70
NtRp2126
(dp2127
g73
(dp2128
sg82
g2113
sg75
(lp2129
g68
(g69
g70
NtRp2130
(dp2131
g73
(dp2132
g81
I5
ssg82
g2126
sg75
(lp2133
g68
(g77
g70
NtRp2134
(dp2135
g73
(dp2136
g81
I4
ssg82
Nsg75
(lp2137
sbasbasbasbag68
(g84
g70
NtRp2138
(dp2139
g73
(dp2140
sg82
g78
sg75
(lp2141
g68
(g89
g70
NtRp2142
(dp2143
g73
(dp2144
g93
g94
ssg82
g2138
sg75
(lp2145
S'url'
p2146
asbag68
(g89
g70
NtRp2147
(dp2148
g73
(dp2149
g100
g101
ssg82
g2138
sg75
(lp2150
S':'
asbag68
(g89
g70
NtRp2151
(dp2152
g73
(dp2153
sg82
g2138
sg75
(lp2154
g68
(g69
g70
NtRp2155
(dp2156
g73
(dp2157
g81
I5
ssg82
g2151
sg75
(lp2158
S'/911_signin/default/index'
p2159
asbasbasbag68
(g84
g70
NtRp2160
(dp2161
g73
(dp2162
sg82
g78
sg75
(lp2163
g68
(g89
g70
NtRp2164
(dp2165
g73
(dp2166
g93
g94
ssg82
g2160
sg75
(lp2167
S'utcnow'
p2168
asbag68
(g89
g70
NtRp2169
(dp2170
g73
(dp2171
g100
g101
ssg82
g2160
sg75
(lp2172
S':'
asbag68
(g89
g70
NtRp2173
(dp2174
g73
(dp2175
sg82
g2160
sg75
(lp2176
g68
(g69
g70
NtRp2177
(dp2178
g73
(dp2179
g81
I5
ssg82
g2173
sg75
(lp2180
S'datetime.datetime(2013, 5, 19, 5, 16, 23, 72213)'
p2181
asbasbasbag68
(g84
g70
NtRp2182
(dp2183
g73
(dp2184
sg82
g78
sg75
(lp2185
g68
(g89
g70
NtRp2186
(dp2187
g73
(dp2188
g93
g94
ssg82
g2182
sg75
(lp2189
S'uuid'
p2190
asbag68
(g89
g70
NtRp2191
(dp2192
g73
(dp2193
g100
g101
ssg82
g2182
sg75
(lp2194
S':'
asbag68
(g89
g70
NtRp2195
(dp2196
g73
(dp2197
sg82
g2182
sg75
(lp2198
g68
(g69
g70
NtRp2199
(dp2200
g73
(dp2201
g81
I5
ssg82
g2195
sg75
(lp2202
S'911_signin/127.0.0.1.2013-05-19.10-46-23.49065f2f-895d-4947-940a-90963e1bc67d'
p2203
asbasbasbag68
(g84
g70
NtRp2204
(dp2205
g73
(dp2206
sg82
g78
sg75
(lp2207
g68
(g89
g70
NtRp2208
(dp2209
g73
(dp2210
g93
g94
ssg82
g2204
sg75
(lp2211
S'vars'
p2212
asbag68
(g89
g70
NtRp2213
(dp2214
g73
(dp2215
g100
g101
ssg82
g2204
sg75
(lp2216
S':'
asbag68
(g89
g70
NtRp2217
(dp2218
g73
(dp2219
sg82
g2204
sg75
(lp2220
g68
(g69
g70
NtRp2221
(dp2222
g73
(dp2223
g81
I5
ssg82
g2217
sg75
(lp2224
g68
(g77
g70
NtRp2225
(dp2226
g73
(dp2227
g81
I4
ssg82
Nsg75
(lp2228
sbasbasbasbag68
(g84
g70
NtRp2229
(dp2230
g73
(dp2231
sg82
g78
sg75
(lp2232
g68
(g89
g70
NtRp2233
(dp2234
g73
(dp2235
g93
g94
ssg82
g2229
sg75
(lp2236
S'wsgi'
p2237
asbag68
(g89
g70
NtRp2238
(dp2239
g73
(dp2240
g100
g101
ssg82
g2229
sg75
(lp2241
S':'
asbag68
(g89
g70
NtRp2242
(dp2243
g73
(dp2244
sg82
g2229
sg75
(lp2245
g68
(g69
g70
NtRp2246
(dp2247
g73
(dp2248
g81
I5
ssg82
g2242
sg75
(lp2249
g68
(g77
g70
NtRp2250
(dp2251
g73
(dp2252
g81
I4
ssg82
Nsg75
(lp2253
g68
(g84
g70
NtRp2254
(dp2255
g73
(dp2256
sg82
g2250
sg75
(lp2257
g68
(g89
g70
NtRp2258
(dp2259
g73
(dp2260
g93
g94
ssg82
g2254
sg75
(lp2261
S'environ'
p2262
asbag68
(g89
g70
NtRp2263
(dp2264
g73
(dp2265
g100
g101
ssg82
g2254
sg75
(lp2266
S':'
asbag68
(g89
g70
NtRp2267
(dp2268
g73
(dp2269
sg82
g2254
sg75
(lp2270
g68
(g69
g70
NtRp2271
(dp2272
g73
(dp2273
g81
I4
ssg82
g2267
sg75
(lp2274
g68
(g77
g70
NtRp2275
(dp2276
g73
(dp2277
g81
I3
ssg82
Nsg75
(lp2278
g68
(g84
g70
NtRp2279
(dp2280
g73
(dp2281
sg82
g2275
sg75
(lp2282
g68
(g89
g70
NtRp2283
(dp2284
g73
(dp2285
g93
g94
ssg82
g2279
sg75
(lp2286
S'HTTP_ACCEPT'
p2287
asbag68
(g89
g70
NtRp2288
(dp2289
g73
(dp2290
g100
g101
ssg82
g2279
sg75
(lp2291
S':'
asbag68
(g89
g70
NtRp2292
(dp2293
g73
(dp2294
sg82
g2279
sg75
(lp2295
g68
(g69
g70
NtRp2296
(dp2297
g73
(dp2298
g81
I3
ssg82
g2292
sg75
(lp2299
g829
asbasbasbag68
(g84
g70
NtRp2300
(dp2301
g73
(dp2302
sg82
g2275
sg75
(lp2303
g68
(g89
g70
NtRp2304
(dp2305
g73
(dp2306
g93
g94
ssg82
g2300
sg75
(lp2307
S'HTTP_ACCEPT_CHARSET'
p2308
asbag68
(g89
g70
NtRp2309
(dp2310
g73
(dp2311
g100
g101
ssg82
g2300
sg75
(lp2312
S':'
asbag68
(g89
g70
NtRp2313
(dp2314
g73
(dp2315
sg82
g2300
sg75
(lp2316
g68
(g69
g70
NtRp2317
(dp2318
g73
(dp2319
g81
I3
ssg82
g2313
sg75
(lp2320
g851
asbasbasbag68
(g84
g70
NtRp2321
(dp2322
g73
(dp2323
sg82
g2275
sg75
(lp2324
g68
(g89
g70
NtRp2325
(dp2326
g73
(dp2327
g93
g94
ssg82
g2321
sg75
(lp2328
S'HTTP_ACCEPT_ENCODING'
p2329
asbag68
(g89
g70
NtRp2330
(dp2331
g73
(dp2332
g100
g101
ssg82
g2321
sg75
(lp2333
S':'
asbag68
(g89
g70
NtRp2334
(dp2335
g73
(dp2336
sg82
g2321
sg75
(lp2337
g68
(g69
g70
NtRp2338
(dp2339
g73
(dp2340
g81
I3
ssg82
g2334
sg75
(lp2341
g873
asbasbasbag68
(g84
g70
NtRp2342
(dp2343
g73
(dp2344
sg82
g2275
sg75
(lp2345
g68
(g89
g70
NtRp2346
(dp2347
g73
(dp2348
g93
g94
ssg82
g2342
sg75
(lp2349
S'HTTP_ACCEPT_LANGUAGE'
p2350
asbag68
(g89
g70
NtRp2351
(dp2352
g73
(dp2353
g100
g101
ssg82
g2342
sg75
(lp2354
S':'
asbag68
(g89
g70
NtRp2355
(dp2356
g73
(dp2357
sg82
g2342
sg75
(lp2358
g68
(g69
g70
NtRp2359
(dp2360
g73
(dp2361
g81
I3
ssg82
g2355
sg75
(lp2362
g895
asbasbasbag68
(g84
g70
NtRp2363
(dp2364
g73
(dp2365
sg82
g2275
sg75
(lp2366
g68
(g89
g70
NtRp2367
(dp2368
g73
(dp2369
g93
g94
ssg82
g2363
sg75
(lp2370
S'HTTP_CACHE_CONTROL'
p2371
asbag68
(g89
g70
NtRp2372
(dp2373
g73
(dp2374
g100
g101
ssg82
g2363
sg75
(lp2375
S':'
asbag68
(g89
g70
NtRp2376
(dp2377
g73
(dp2378
sg82
g2363
sg75
(lp2379
g68
(g69
g70
NtRp2380
(dp2381
g73
(dp2382
g81
I3
ssg82
g2376
sg75
(lp2383
g917
asbasbasbag68
(g84
g70
NtRp2384
(dp2385
g73
(dp2386
sg82
g2275
sg75
(lp2387
g68
(g89
g70
NtRp2388
(dp2389
g73
(dp2390
g93
g94
ssg82
g2384
sg75
(lp2391
S'HTTP_CONNECTION'
p2392
asbag68
(g89
g70
NtRp2393
(dp2394
g73
(dp2395
g100
g101
ssg82
g2384
sg75
(lp2396
S':'
asbag68
(g89
g70
NtRp2397
(dp2398
g73
(dp2399
sg82
g2384
sg75
(lp2400
g68
(g69
g70
NtRp2401
(dp2402
g73
(dp2403
g81
I3
ssg82
g2397
sg75
(lp2404
g939
asbasbasbag68
(g84
g70
NtRp2405
(dp2406
g73
(dp2407
sg82
g2275
sg75
(lp2408
g68
(g89
g70
NtRp2409
(dp2410
g73
(dp2411
g93
g94
ssg82
g2405
sg75
(lp2412
S'HTTP_COOKIE'
p2413
asbag68
(g89
g70
NtRp2414
(dp2415
g73
(dp2416
g100
g101
ssg82
g2405
sg75
(lp2417
S':'
asbag68
(g89
g70
NtRp2418
(dp2419
g73
(dp2420
sg82
g2405
sg75
(lp2421
g68
(g69
g70
NtRp2422
(dp2423
g73
(dp2424
g81
I3
ssg82
g2418
sg75
(lp2425
g961
asbasbasbag68
(g84
g70
NtRp2426
(dp2427
g73
(dp2428
sg82
g2275
sg75
(lp2429
g68
(g89
g70
NtRp2430
(dp2431
g73
(dp2432
g93
g94
ssg82
g2426
sg75
(lp2433
S'HTTP_HOST'
p2434
asbag68
(g89
g70
NtRp2435
(dp2436
g73
(dp2437
g100
g101
ssg82
g2426
sg75
(lp2438
S':'
asbag68
(g89
g70
NtRp2439
(dp2440
g73
(dp2441
sg82
g2426
sg75
(lp2442
g68
(g69
g70
NtRp2443
(dp2444
g73
(dp2445
g81
I3
ssg82
g2439
sg75
(lp2446
g983
asbasbasbag68
(g84
g70
NtRp2447
(dp2448
g73
(dp2449
sg82
g2275
sg75
(lp2450
g68
(g89
g70
NtRp2451
(dp2452
g73
(dp2453
g93
g94
ssg82
g2447
sg75
(lp2454
S'HTTP_REFERER'
p2455
asbag68
(g89
g70
NtRp2456
(dp2457
g73
(dp2458
g100
g101
ssg82
g2447
sg75
(lp2459
S':'
asbag68
(g89
g70
NtRp2460
(dp2461
g73
(dp2462
sg82
g2447
sg75
(lp2463
g68
(g69
g70
NtRp2464
(dp2465
g73
(dp2466
g81
I3
ssg82
g2460
sg75
(lp2467
g1005
asbasbasbag68
(g84
g70
NtRp2468
(dp2469
g73
(dp2470
sg82
g2275
sg75
(lp2471
g68
(g89
g70
NtRp2472
(dp2473
g73
(dp2474
g93
g94
ssg82
g2468
sg75
(lp2475
S'HTTP_USER_AGENT'
p2476
asbag68
(g89
g70
NtRp2477
(dp2478
g73
(dp2479
g100
g101
ssg82
g2468
sg75
(lp2480
S':'
asbag68
(g89
g70
NtRp2481
(dp2482
g73
(dp2483
sg82
g2468
sg75
(lp2484
g68
(g69
g70
NtRp2485
(dp2486
g73
(dp2487
g81
I3
ssg82
g2481
sg75
(lp2488
g1027
asbasbasbag68
(g84
g70
NtRp2489
(dp2490
g73
(dp2491
sg82
g2275
sg75
(lp2492
g68
(g89
g70
NtRp2493
(dp2494
g73
(dp2495
g93
g94
ssg82
g2489
sg75
(lp2496
S'PATH_INFO'
p2497
asbag68
(g89
g70
NtRp2498
(dp2499
g73
(dp2500
g100
g101
ssg82
g2489
sg75
(lp2501
S':'
asbag68
(g89
g70
NtRp2502
(dp2503
g73
(dp2504
sg82
g2489
sg75
(lp2505
g68
(g69
g70
NtRp2506
(dp2507
g73
(dp2508
g81
I3
ssg82
g2502
sg75
(lp2509
g1091
asbasbasbag68
(g84
g70
NtRp2510
(dp2511
g73
(dp2512
sg82
g2275
sg75
(lp2513
g68
(g89
g70
NtRp2514
(dp2515
g73
(dp2516
g93
g94
ssg82
g2510
sg75
(lp2517
S'QUERY_STRING'
p2518
asbag68
(g89
g70
NtRp2519
(dp2520
g73
(dp2521
g100
g101
ssg82
g2510
sg75
(lp2522
S':'
asbag68
(g89
g70
NtRp2523
(dp2524
g73
(dp2525
sg82
g2510
sg75
(lp2526
g68
(g69
g70
NtRp2527
(dp2528
g73
(dp2529
g81
I3
ssg82
g2523
sg75
(lp2530
S''
asbasbasbag68
(g84
g70
NtRp2531
(dp2532
g73
(dp2533
sg82
g2275
sg75
(lp2534
g68
(g89
g70
NtRp2535
(dp2536
g73
(dp2537
g93
g94
ssg82
g2531
sg75
(lp2538
S'REMOTE_ADDR'
p2539
asbag68
(g89
g70
NtRp2540
(dp2541
g73
(dp2542
g100
g101
ssg82
g2531
sg75
(lp2543
S':'
asbag68
(g89
g70
NtRp2544
(dp2545
g73
(dp2546
sg82
g2531
sg75
(lp2547
g68
(g69
g70
NtRp2548
(dp2549
g73
(dp2550
g81
I3
ssg82
g2544
sg75
(lp2551
g201
asbasbasbag68
(g84
g70
NtRp2552
(dp2553
g73
(dp2554
sg82
g2275
sg75
(lp2555
g68
(g89
g70
NtRp2556
(dp2557
g73
(dp2558
g93
g94
ssg82
g2552
sg75
(lp2559
S'REMOTE_PORT'
p2560
asbag68
(g89
g70
NtRp2561
(dp2562
g73
(dp2563
g100
g101
ssg82
g2552
sg75
(lp2564
S':'
asbag68
(g89
g70
NtRp2565
(dp2566
g73
(dp2567
sg82
g2552
sg75
(lp2568
g68
(g69
g70
NtRp2569
(dp2570
g73
(dp2571
g81
I3
ssg82
g2565
sg75
(lp2572
g1155
asbasbasbag68
(g84
g70
NtRp2573
(dp2574
g73
(dp2575
sg82
g2275
sg75
(lp2576
g68
(g89
g70
NtRp2577
(dp2578
g73
(dp2579
g93
g94
ssg82
g2573
sg75
(lp2580
S'REQUEST_METHOD'
p2581
asbag68
(g89
g70
NtRp2582
(dp2583
g73
(dp2584
g100
g101
ssg82
g2573
sg75
(lp2585
S':'
asbag68
(g89
g70
NtRp2586
(dp2587
g73
(dp2588
sg82
g2573
sg75
(lp2589
g68
(g69
g70
NtRp2590
(dp2591
g73
(dp2592
g81
I3
ssg82
g2586
sg75
(lp2593
g1177
asbasbasbag68
(g84
g70
NtRp2594
(dp2595
g73
(dp2596
sg82
g2275
sg75
(lp2597
g68
(g89
g70
NtRp2598
(dp2599
g73
(dp2600
g93
g94
ssg82
g2594
sg75
(lp2601
S'SCRIPT_NAME'
p2602
asbag68
(g89
g70
NtRp2603
(dp2604
g73
(dp2605
g100
g101
ssg82
g2594
sg75
(lp2606
S':'
asbag68
(g89
g70
NtRp2607
(dp2608
g73
(dp2609
sg82
g2594
sg75
(lp2610
g68
(g69
g70
NtRp2611
(dp2612
g73
(dp2613
g81
I3
ssg82
g2607
sg75
(lp2614
S''
asbasbasbag68
(g84
g70
NtRp2615
(dp2616
g73
(dp2617
sg82
g2275
sg75
(lp2618
g68
(g89
g70
NtRp2619
(dp2620
g73
(dp2621
g93
g94
ssg82
g2615
sg75
(lp2622
S'SERVER_NAME'
p2623
asbag68
(g89
g70
NtRp2624
(dp2625
g73
(dp2626
g100
g101
ssg82
g2615
sg75
(lp2627
S':'
asbag68
(g89
g70
NtRp2628
(dp2629
g73
(dp2630
sg82
g2615
sg75
(lp2631
g68
(g69
g70
NtRp2632
(dp2633
g73
(dp2634
g81
I3
ssg82
g2628
sg75
(lp2635
g1220
asbasbasbag68
(g84
g70
NtRp2636
(dp2637
g73
(dp2638
sg82
g2275
sg75
(lp2639
g68
(g89
g70
NtRp2640
(dp2641
g73
(dp2642
g93
g94
ssg82
g2636
sg75
(lp2643
S'SERVER_PORT'
p2644
asbag68
(g89
g70
NtRp2645
(dp2646
g73
(dp2647
g100
g101
ssg82
g2636
sg75
(lp2648
S':'
asbag68
(g89
g70
NtRp2649
(dp2650
g73
(dp2651
sg82
g2636
sg75
(lp2652
g68
(g69
g70
NtRp2653
(dp2654
g73
(dp2655
g81
I3
ssg82
g2649
sg75
(lp2656
g1242
asbasbasbag68
(g84
g70
NtRp2657
(dp2658
g73
(dp2659
sg82
g2275
sg75
(lp2660
g68
(g89
g70
NtRp2661
(dp2662
g73
(dp2663
g93
g94
ssg82
g2657
sg75
(lp2664
S'SERVER_PROTOCOL'
p2665
asbag68
(g89
g70
NtRp2666
(dp2667
g73
(dp2668
g100
g101
ssg82
g2657
sg75
(lp2669
S':'
asbag68
(g89
g70
NtRp2670
(dp2671
g73
(dp2672
sg82
g2657
sg75
(lp2673
g68
(g69
g70
NtRp2674
(dp2675
g73
(dp2676
g81
I3
ssg82
g2670
sg75
(lp2677
g1264
asbasbasbag68
(g84
g70
NtRp2678
(dp2679
g73
(dp2680
sg82
g2275
sg75
(lp2681
g68
(g89
g70
NtRp2682
(dp2683
g73
(dp2684
g93
g94
ssg82
g2678
sg75
(lp2685
S'SERVER_SOFTWARE'
p2686
asbag68
(g89
g70
NtRp2687
(dp2688
g73
(dp2689
g100
g101
ssg82
g2678
sg75
(lp2690
S':'
asbag68
(g89
g70
NtRp2691
(dp2692
g73
(dp2693
sg82
g2678
sg75
(lp2694
g68
(g69
g70
NtRp2695
(dp2696
g73
(dp2697
g81
I3
ssg82
g2691
sg75
(lp2698
g1286
asbasbasbag68
(g84
g70
NtRp2699
(dp2700
g73
(dp2701
sg82
g2275
sg75
(lp2702
g68
(g89
g70
NtRp2703
(dp2704
g73
(dp2705
g93
g94
ssg82
g2699
sg75
(lp2706
S'wsgi.errors'
p2707
asbag68
(g89
g70
NtRp2708
(dp2709
g73
(dp2710
g100
g101
ssg82
g2699
sg75
(lp2711
S':'
asbag68
(g89
g70
NtRp2712
(dp2713
g73
(dp2714
sg82
g2699
sg75
(lp2715
g68
(g69
g70
NtRp2716
(dp2717
g73
(dp2718
g81
I3
ssg82
g2712
sg75
(lp2719
S"<open file '<stderr>', mode 'w' at 0xb72d60d0>"
p2720
asbasbasbag68
(g84
g70
NtRp2721
(dp2722
g73
(dp2723
sg82
g2275
sg75
(lp2724
g68
(g89
g70
NtRp2725
(dp2726
g73
(dp2727
g93
g94
ssg82
g2721
sg75
(lp2728
S'wsgi.file_wrapper'
p2729
asbag68
(g89
g70
NtRp2730
(dp2731
g73
(dp2732
g100
g101
ssg82
g2721
sg75
(lp2733
S':'
asbag68
(g89
g70
NtRp2734
(dp2735
g73
(dp2736
sg82
g2721
sg75
(lp2737
g68
(g69
g70
NtRp2738
(dp2739
g73
(dp2740
g81
I3
ssg82
g2734
sg75
(lp2741
S'<class wsgiref.util.FileWrapper at 0xa3bee9c>'
p2742
asbasbasbag68
(g84
g70
NtRp2743
(dp2744
g73
(dp2745
sg82
g2275
sg75
(lp2746
g68
(g89
g70
NtRp2747
(dp2748
g73
(dp2749
g93
g94
ssg82
g2743
sg75
(lp2750
S'wsgi.input'
p2751
asbag68
(g89
g70
NtRp2752
(dp2753
g73
(dp2754
g100
g101
ssg82
g2743
sg75
(lp2755
S':'
asbag68
(g89
g70
NtRp2756
(dp2757
g73
(dp2758
sg82
g2743
sg75
(lp2759
g68
(g69
g70
NtRp2760
(dp2761
g73
(dp2762
g81
I3
ssg82
g2756
sg75
(lp2763
S'<cStringIO.StringO object at 0xb1b62c80>'
p2764
asbasbasbag68
(g84
g70
NtRp2765
(dp2766
g73
(dp2767
sg82
g2275
sg75
(lp2768
g68
(g89
g70
NtRp2769
(dp2770
g73
(dp2771
g93
g94
ssg82
g2765
sg75
(lp2772
S'wsgi.multiprocess'
p2773
asbag68
(g89
g70
NtRp2774
(dp2775
g73
(dp2776
g100
g101
ssg82
g2765
sg75
(lp2777
S':'
asbag68
(g89
g70
NtRp2778
(dp2779
g73
(dp2780
sg82
g2765
sg75
(lp2781
g68
(g69
g70
NtRp2782
(dp2783
g73
(dp2784
g81
I3
ssg82
g2778
sg75
(lp2785
g111
asbasbasbag68
(g84
g70
NtRp2786
(dp2787
g73
(dp2788
sg82
g2275
sg75
(lp2789
g68
(g89
g70
NtRp2790
(dp2791
g73
(dp2792
g93
g94
ssg82
g2786
sg75
(lp2793
S'wsgi.multithread'
p2794
asbag68
(g89
g70
NtRp2795
(dp2796
g73
(dp2797
g100
g101
ssg82
g2786
sg75
(lp2798
S':'
asbag68
(g89
g70
NtRp2799
(dp2800
g73
(dp2801
sg82
g2786
sg75
(lp2802
g68
(g69
g70
NtRp2803
(dp2804
g73
(dp2805
g81
I3
ssg82
g2799
sg75
(lp2806
g1526
asbasbasbag68
(g84
g70
NtRp2807
(dp2808
g73
(dp2809
sg82
g2275
sg75
(lp2810
g68
(g89
g70
NtRp2811
(dp2812
g73
(dp2813
g93
g94
ssg82
g2807
sg75
(lp2814
S'wsgi.run_once'
p2815
asbag68
(g89
g70
NtRp2816
(dp2817
g73
(dp2818
g100
g101
ssg82
g2807
sg75
(lp2819
S':'
asbag68
(g89
g70
NtRp2820
(dp2821
g73
(dp2822
sg82
g2807
sg75
(lp2823
g68
(g69
g70
NtRp2824
(dp2825
g73
(dp2826
g81
I3
ssg82
g2820
sg75
(lp2827
g111
asbasbasbag68
(g84
g70
NtRp2828
(dp2829
g73
(dp2830
sg82
g2275
sg75
(lp2831
g68
(g89
g70
NtRp2832
(dp2833
g73
(dp2834
g93
g94
ssg82
g2828
sg75
(lp2835
S'wsgi.url_scheme'
p2836
asbag68
(g89
g70
NtRp2837
(dp2838
g73
(dp2839
g100
g101
ssg82
g2828
sg75
(lp2840
S':'
asbag68
(g89
g70
NtRp2841
(dp2842
g73
(dp2843
sg82
g2828
sg75
(lp2844
g68
(g69
g70
NtRp2845
(dp2846
g73
(dp2847
g81
I3
ssg82
g2841
sg75
(lp2848
g1569
asbasbasbag68
(g84
g70
NtRp2849
(dp2850
g73
(dp2851
sg82
g2275
sg75
(lp2852
g68
(g89
g70
NtRp2853
(dp2854
g73
(dp2855
g93
g94
ssg82
g2849
sg75
(lp2856
S'wsgi.version'
p2857
asbag68
(g89
g70
NtRp2858
(dp2859
g73
(dp2860
g100
g101
ssg82
g2849
sg75
(lp2861
S':'
asbag68
(g89
g70
NtRp2862
(dp2863
g73
(dp2864
sg82
g2849
sg75
(lp2865
g68
(g69
g70
NtRp2866
(dp2867
g73
(dp2868
g81
I3
ssg82
g2862
sg75
(lp2869
S'1'
asbasbasbasbasbasbasbasbasbasbasbasbasbsS'frames'
p2870
(lp2871
(dp2872
S'file'
p2873
S'/home/enigma/web2py/gluon/restricted.py'
p2874
sS'dump'
p2875
(dp2876
S'code'
p2877
S"'# -*- coding: utf-8 -*-\\n# this file is released ...=crud())\\n\\nresponse._vars=response._caller(index)\\n'"
p2878
sS'layer'
p2879
S"'/home/enigma/web2py/applications/911_signin/controllers/default.py'"
p2880
sS'global compile2'
p2881
S'<function compile2>'
p2882
sS'ccode'
p2883
S'undefined'
p2884
ssS'lnum'
p2885
I204
sS'lines'
p2886
(dp2887
I199
S"    environment['__name__'] = '__restricted__'"
p2888
sI200
S'    try:'
p2889
sI201
S'        if type(code) == types.CodeType:'
p2890
sI202
S'            ccode = code'
p2891
sI203
S'        else:'
p2892
sI204
S'            ccode = compile2(code,layer)'
p2893
sI205
S'        exec ccode in environment'
p2894
sI206
S'    except HTTP:'
p2895
sI207
S'        raise'
p2896
sI208
S'    except RestrictedError:'
p2897
ssS'call'
p2898
S"(code='# -*- coding: utf-8 -*-\\n# this file is released ...=crud())\\n\\nresponse._vars=response._caller(index)\\n', environment={'A': <class 'gluon.html.A'>, 'Auth': <class 'gluon.tools.Auth'>, 'B': <class 'gluon.html.B'>, 'BEAUTIFY': <class 'gluon.html.BEAUTIFY'>, 'BODY': <class 'gluon.html.BODY'>, 'BR': <class 'gluon.html.BR'>, 'BUTTON': <class 'gluon.html.BUTTON'>, 'CAT': <class 'gluon.html.CAT'>, 'CENTER': <class 'gluon.html.CENTER'>, 'CLEANUP': <class 'gluon.validators.CLEANUP'>, ...}, layer='/home/enigma/web2py/applications/911_signin/controllers/default.py')"
p2899
sS'func'
p2900
S'restricted'
p2901
sa(dp2902
g2873
S'/home/enigma/web2py/gluon/restricted.py'
p2903
sg2875
(dp2904
S'builtincompile'
p2905
S'<built-in function compile>'
p2906
sS'code'
p2907
S"'# -*- coding: utf-8 -*-\\n# this file is released ...=crud())\\n\\nresponse._vars=response._caller(index)\\n'"
p2908
sS'code.rstrip'
p2909
S'<built-in method rstrip of str object>'
p2910
sS').replace'
p2911
g2884
sS'layer'
p2912
S"'/home/enigma/web2py/applications/911_signin/controllers/default.py'"
p2913
ssg2885
I189
sg2886
(dp2914
I192
S'    """'
p2915
sI193
S'    runs code in environment and returns the output. if an exception occurs'
p2916
sI184
S''
sI185
S'def compile2(code,layer):'
p2917
sI186
S'    """'
p2918
sI187
S"    The +'\\n' is necessary else compile fails when code ends in a comment."
p2919
sI188
S'    """'
p2920
sI189
S"    return compile(code.rstrip().replace('\\r\\n','\\n')+'\\n', layer, 'exec')"
p2921
sI190
S''
sI191
S"def restricted(code, environment=None, layer='Unknown'):"
p2922
ssg2898
S"(code='# -*- coding: utf-8 -*-\\n# this file is released ...=crud())\\n\\nresponse._vars=response._caller(index)\\n', layer='/home/enigma/web2py/applications/911_signin/controllers/default.py')"
p2923
sg2900
S'compile2'
p2924
sasS'pyver'
p2925
S'Python 2.7.3: /usr/bin/python'
p2926
sS'session'
p2927
g68
(g69
g70
NtRp2928
(dp2929
g73
(dp2930
sg75
(lp2931
g68
(g77
g70
NtRp2932
(dp2933
g73
(dp2934
g81
I5
ssg82
Nsg75
(lp2935
sbasbsS'etype'
p2936
S"<type 'exceptions.IndentationError'>"
p2937
sS'date'
p2938
S'Sun May 19 10:46:23 2013'
p2939
sS'response'
p2940
g68
(g69
g70
NtRp2941
(dp2942
g73
(dp2943
sg75
(lp2944
g68
(g77
g70
NtRp2945
(dp2946
g73
(dp2947
g81
I5
ssg82
Nsg75
(lp2948
g68
(g84
g70
NtRp2949
(dp2950
g73
(dp2951
sg82
g2945
sg75
(lp2952
g68
(g89
g70
NtRp2953
(dp2954
g73
(dp2955
g93
g94
ssg82
g2949
sg75
(lp2956
g166
asbag68
(g89
g70
NtRp2957
(dp2958
g73
(dp2959
g100
g101
ssg82
g2949
sg75
(lp2960
S':'
asbag68
(g89
g70
NtRp2961
(dp2962
g73
(dp2963
sg82
g2949
sg75
(lp2964
g68
(g69
g70
NtRp2965
(dp2966
g73
(dp2967
g81
I5
ssg82
g2961
sg75
(lp2968
S'<cStringIO.StringO object at 0xb1b629e0>'
p2969
asbasbasbag68
(g84
g70
NtRp2970
(dp2971
g73
(dp2972
sg82
g2945
sg75
(lp2973
g68
(g89
g70
NtRp2974
(dp2975
g73
(dp2976
g93
g94
ssg82
g2970
sg75
(lp2977
g232
asbag68
(g89
g70
NtRp2978
(dp2979
g73
(dp2980
g100
g101
ssg82
g2970
sg75
(lp2981
S':'
asbag68
(g89
g70
NtRp2982
(dp2983
g73
(dp2984
sg82
g2970
sg75
(lp2985
g68
(g69
g70
NtRp2986
(dp2987
g73
(dp2988
g81
I5
ssg82
g2982
sg75
(lp2989
g68
(g77
g70
NtRp2990
(dp2991
g73
(dp2992
g81
I4
ssg82
Nsg75
(lp2993
g68
(g84
g70
NtRp2994
(dp2995
g73
(dp2996
sg82
g2990
sg75
(lp2997
g68
(g89
g70
NtRp2998
(dp2999
g73
(dp3000
g93
g94
ssg82
g2994
sg75
(lp3001
S'session_id_911_signin'
p3002
asbag68
(g89
g70
NtRp3003
(dp3004
g73
(dp3005
g100
g101
ssg82
g2994
sg75
(lp3006
S':'
asbag68
(g89
g70
NtRp3007
(dp3008
g73
(dp3009
sg82
g2994
sg75
(lp3010
g68
(g69
g70
NtRp3011
(dp3012
g73
(dp3013
g81
I4
ssg82
g3007
sg75
(lp3014
g68
(g77
g70
NtRp3015
(dp3016
g73
(dp3017
g81
I3
ssg82
Nsg75
(lp3018
g68
(g84
g70
NtRp3019
(dp3020
g73
(dp3021
sg82
g3015
sg75
(lp3022
g68
(g89
g70
NtRp3023
(dp3024
g73
(dp3025
g93
g94
ssg82
g3019
sg75
(lp3026
g282
asbag68
(g89
g70
NtRp3027
(dp3028
g73
(dp3029
g100
g101
ssg82
g3019
sg75
(lp3030
S':'
asbag68
(g89
g70
NtRp3031
(dp3032
g73
(dp3033
sg82
g3019
sg75
(lp3034
g68
(g69
g70
NtRp3035
(dp3036
g73
(dp3037
g81
I3
ssg82
g3031
sg75
(lp3038
S''
asbasbasbag68
(g84
g70
NtRp3039
(dp3040
g73
(dp3041
sg82
g3015
sg75
(lp3042
g68
(g89
g70
NtRp3043
(dp3044
g73
(dp3045
g93
g94
ssg82
g3039
sg75
(lp3046
g303
asbag68
(g89
g70
NtRp3047
(dp3048
g73
(dp3049
g100
g101
ssg82
g3039
sg75
(lp3050
S':'
asbag68
(g89
g70
NtRp3051
(dp3052
g73
(dp3053
sg82
g3039
sg75
(lp3054
g68
(g69
g70
NtRp3055
(dp3056
g73
(dp3057
g81
I3
ssg82
g3051
sg75
(lp3058
S''
asbasbasbag68
(g84
g70
NtRp3059
(dp3060
g73
(dp3061
sg82
g3015
sg75
(lp3062
g68
(g89
g70
NtRp3063
(dp3064
g73
(dp3065
g93
g94
ssg82
g3059
sg75
(lp3066
g324
asbag68
(g89
g70
NtRp3067
(dp3068
g73
(dp3069
g100
g101
ssg82
g3059
sg75
(lp3070
S':'
asbag68
(g89
g70
NtRp3071
(dp3072
g73
(dp3073
sg82
g3059
sg75
(lp3074
g68
(g69
g70
NtRp3075
(dp3076
g73
(dp3077
g81
I3
ssg82
g3071
sg75
(lp3078
S''
asbasbasbag68
(g84
g70
NtRp3079
(dp3080
g73
(dp3081
sg82
g3015
sg75
(lp3082
g68
(g89
g70
NtRp3083
(dp3084
g73
(dp3085
g93
g94
ssg82
g3079
sg75
(lp3086
g345
asbag68
(g89
g70
NtRp3087
(dp3088
g73
(dp3089
g100
g101
ssg82
g3079
sg75
(lp3090
S':'
asbag68
(g89
g70
NtRp3091
(dp3092
g73
(dp3093
sg82
g3079
sg75
(lp3094
g68
(g69
g70
NtRp3095
(dp3096
g73
(dp3097
g81
I3
ssg82
g3091
sg75
(lp3098
S''
asbasbasbag68
(g84
g70
NtRp3099
(dp3100
g73
(dp3101
sg82
g3015
sg75
(lp3102
g68
(g89
g70
NtRp3103
(dp3104
g73
(dp3105
g93
g94
ssg82
g3099
sg75
(lp3106
g366
asbag68
(g89
g70
NtRp3107
(dp3108
g73
(dp3109
g100
g101
ssg82
g3099
sg75
(lp3110
S':'
asbag68
(g89
g70
NtRp3111
(dp3112
g73
(dp3113
sg82
g3099
sg75
(lp3114
g68
(g69
g70
NtRp3115
(dp3116
g73
(dp3117
g81
I3
ssg82
g3111
sg75
(lp3118
S''
asbasbasbag68
(g84
g70
NtRp3119
(dp3120
g73
(dp3121
sg82
g3015
sg75
(lp3122
g68
(g89
g70
NtRp3123
(dp3124
g73
(dp3125
g93
g94
ssg82
g3119
sg75
(lp3126
g387
asbag68
(g89
g70
NtRp3127
(dp3128
g73
(dp3129
g100
g101
ssg82
g3119
sg75
(lp3130
S':'
asbag68
(g89
g70
NtRp3131
(dp3132
g73
(dp3133
sg82
g3119
sg75
(lp3134
g68
(g69
g70
NtRp3135
(dp3136
g73
(dp3137
g81
I3
ssg82
g3131
sg75
(lp3138
S'/'
asbasbasbag68
(g84
g70
NtRp3139
(dp3140
g73
(dp3141
sg82
g3015
sg75
(lp3142
g68
(g89
g70
NtRp3143
(dp3144
g73
(dp3145
g93
g94
ssg82
g3139
sg75
(lp3146
g408
asbag68
(g89
g70
NtRp3147
(dp3148
g73
(dp3149
g100
g101
ssg82
g3139
sg75
(lp3150
S':'
asbag68
(g89
g70
NtRp3151
(dp3152
g73
(dp3153
sg82
g3139
sg75
(lp3154
g68
(g69
g70
NtRp3155
(dp3156
g73
(dp3157
g81
I3
ssg82
g3151
sg75
(lp3158
S''
asbasbasbag68
(g84
g70
NtRp3159
(dp3160
g73
(dp3161
sg82
g3015
sg75
(lp3162
g68
(g89
g70
NtRp3163
(dp3164
g73
(dp3165
g93
g94
ssg82
g3159
sg75
(lp3166
g429
asbag68
(g89
g70
NtRp3167
(dp3168
g73
(dp3169
g100
g101
ssg82
g3159
sg75
(lp3170
S':'
asbag68
(g89
g70
NtRp3171
(dp3172
g73
(dp3173
sg82
g3159
sg75
(lp3174
g68
(g69
g70
NtRp3175
(dp3176
g73
(dp3177
g81
I3
ssg82
g3171
sg75
(lp3178
S''
asbasbasbasbasbasbasbasbasbasbasbag68
(g84
g70
NtRp3179
(dp3180
g73
(dp3181
sg82
g2945
sg75
(lp3182
g68
(g89
g70
NtRp3183
(dp3184
g73
(dp3185
g93
g94
ssg82
g3179
sg75
(lp3186
S'delimiters'
p3187
asbag68
(g89
g70
NtRp3188
(dp3189
g73
(dp3190
g100
g101
ssg82
g3179
sg75
(lp3191
S':'
asbag68
(g89
g70
NtRp3192
(dp3193
g73
(dp3194
sg82
g3179
sg75
(lp3195
g68
(g69
g70
NtRp3196
(dp3197
g73
(dp3198
g81
I5
ssg82
g3192
sg75
(lp3199
g68
(g77
g70
NtRp3200
(dp3201
g73
(dp3202
g81
I4
ssg82
Nsg75
(lp3203
g68
(g84
g70
NtRp3204
(dp3205
g73
(dp3206
sg82
g3200
sg75
(lp3207
g68
(g89
g70
NtRp3208
(dp3209
g73
(dp3210
sg82
g3204
sg75
(lp3211
g68
(g69
g70
NtRp3212
(dp3213
g73
(dp3214
g81
I4
ssg82
g3208
sg75
(lp3215
S'{{'
p3216
asbasbasbag68
(g84
g70
NtRp3217
(dp3218
g73
(dp3219
sg82
g3200
sg75
(lp3220
g68
(g89
g70
NtRp3221
(dp3222
g73
(dp3223
sg82
g3217
sg75
(lp3224
g68
(g69
g70
NtRp3225
(dp3226
g73
(dp3227
g81
I4
ssg82
g3221
sg75
(lp3228
S'}}'
p3229
asbasbasbasbasbasbasbag68
(g84
g70
NtRp3230
(dp3231
g73
(dp3232
sg82
g2945
sg75
(lp3233
g68
(g89
g70
NtRp3234
(dp3235
g73
(dp3236
g93
g94
ssg82
g3230
sg75
(lp3237
S'files'
p3238
asbag68
(g89
g70
NtRp3239
(dp3240
g73
(dp3241
g100
g101
ssg82
g3230
sg75
(lp3242
S':'
asbag68
(g89
g70
NtRp3243
(dp3244
g73
(dp3245
sg82
g3230
sg75
(lp3246
g68
(g69
g70
NtRp3247
(dp3248
g73
(dp3249
g81
I5
ssg82
g3243
sg75
(lp3250
g68
(g77
g70
NtRp3251
(dp3252
g73
(dp3253
g81
I4
ssg82
Nsg75
(lp3254
sbasbasbasbag68
(g84
g70
NtRp3255
(dp3256
g73
(dp3257
sg82
g2945
sg75
(lp3258
g68
(g89
g70
NtRp3259
(dp3260
g73
(dp3261
g93
g94
ssg82
g3255
sg75
(lp3262
S'flash'
p3263
asbag68
(g89
g70
NtRp3264
(dp3265
g73
(dp3266
g100
g101
ssg82
g3255
sg75
(lp3267
S':'
asbag68
(g89
g70
NtRp3268
(dp3269
g73
(dp3270
sg82
g3255
sg75
(lp3271
g68
(g69
g70
NtRp3272
(dp3273
g73
(dp3274
g81
I5
ssg82
g3268
sg75
(lp3275
S''
asbasbasbag68
(g84
g70
NtRp3276
(dp3277
g73
(dp3278
sg82
g2945
sg75
(lp3279
g68
(g89
g70
NtRp3280
(dp3281
g73
(dp3282
g93
g94
ssg82
g3276
sg75
(lp3283
S'generic_patterns'
p3284
asbag68
(g89
g70
NtRp3285
(dp3286
g73
(dp3287
g100
g101
ssg82
g3276
sg75
(lp3288
S':'
asbag68
(g89
g70
NtRp3289
(dp3290
g73
(dp3291
sg82
g3276
sg75
(lp3292
g68
(g69
g70
NtRp3293
(dp3294
g73
(dp3295
g81
I5
ssg82
g3289
sg75
(lp3296
g68
(g77
g70
NtRp3297
(dp3298
g73
(dp3299
g81
I4
ssg82
Nsg75
(lp3300
g68
(g84
g70
NtRp3301
(dp3302
g73
(dp3303
sg82
g3297
sg75
(lp3304
g68
(g89
g70
NtRp3305
(dp3306
g73
(dp3307
sg82
g3301
sg75
(lp3308
g68
(g69
g70
NtRp3309
(dp3310
g73
(dp3311
g81
I4
ssg82
g3305
sg75
(lp3312
S'*'
asbasbasbasbasbasbasbag68
(g84
g70
NtRp3313
(dp3314
g73
(dp3315
sg82
g2945
sg75
(lp3316
g68
(g89
g70
NtRp3317
(dp3318
g73
(dp3319
g93
g94
ssg82
g3313
sg75
(lp3320
S'headers'
p3321
asbag68
(g89
g70
NtRp3322
(dp3323
g73
(dp3324
g100
g101
ssg82
g3313
sg75
(lp3325
S':'
asbag68
(g89
g70
NtRp3326
(dp3327
g73
(dp3328
sg82
g3313
sg75
(lp3329
g68
(g69
g70
NtRp3330
(dp3331
g73
(dp3332
g81
I5
ssg82
g3326
sg75
(lp3333
g68
(g77
g70
NtRp3334
(dp3335
g73
(dp3336
g81
I4
ssg82
Nsg75
(lp3337
g68
(g84
g70
NtRp3338
(dp3339
g73
(dp3340
sg82
g3334
sg75
(lp3341
g68
(g89
g70
NtRp3342
(dp3343
g73
(dp3344
g93
g94
ssg82
g3338
sg75
(lp3345
S'Cache-Control'
p3346
asbag68
(g89
g70
NtRp3347
(dp3348
g73
(dp3349
g100
g101
ssg82
g3338
sg75
(lp3350
S':'
asbag68
(g89
g70
NtRp3351
(dp3352
g73
(dp3353
sg82
g3338
sg75
(lp3354
g68
(g69
g70
NtRp3355
(dp3356
g73
(dp3357
g81
I4
ssg82
g3351
sg75
(lp3358
S'no-store, no-cache, must-revalidate, post-check=0, pre-check=0'
p3359
asbasbasbag68
(g84
g70
NtRp3360
(dp3361
g73
(dp3362
sg82
g3334
sg75
(lp3363
g68
(g89
g70
NtRp3364
(dp3365
g73
(dp3366
g93
g94
ssg82
g3360
sg75
(lp3367
S'Content-Type'
p3368
asbag68
(g89
g70
NtRp3369
(dp3370
g73
(dp3371
g100
g101
ssg82
g3360
sg75
(lp3372
S':'
asbag68
(g89
g70
NtRp3373
(dp3374
g73
(dp3375
sg82
g3360
sg75
(lp3376
g68
(g69
g70
NtRp3377
(dp3378
g73
(dp3379
g81
I4
ssg82
g3373
sg75
(lp3380
S'text/html; charset=utf-8'
p3381
asbasbasbag68
(g84
g70
NtRp3382
(dp3383
g73
(dp3384
sg82
g3334
sg75
(lp3385
g68
(g89
g70
NtRp3386
(dp3387
g73
(dp3388
g93
g94
ssg82
g3382
sg75
(lp3389
S'Expires'
p3390
asbag68
(g89
g70
NtRp3391
(dp3392
g73
(dp3393
g100
g101
ssg82
g3382
sg75
(lp3394
S':'
asbag68
(g89
g70
NtRp3395
(dp3396
g73
(dp3397
sg82
g3382
sg75
(lp3398
g68
(g69
g70
NtRp3399
(dp3400
g73
(dp3401
g81
I4
ssg82
g3395
sg75
(lp3402
S'Sun, 19 May 2013 05:16:23 GMT'
p3403
asbasbasbag68
(g84
g70
NtRp3404
(dp3405
g73
(dp3406
sg82
g3334
sg75
(lp3407
g68
(g89
g70
NtRp3408
(dp3409
g73
(dp3410
g93
g94
ssg82
g3404
sg75
(lp3411
S'Pragma'
p3412
asbag68
(g89
g70
NtRp3413
(dp3414
g73
(dp3415
g100
g101
ssg82
g3404
sg75
(lp3416
S':'
asbag68
(g89
g70
NtRp3417
(dp3418
g73
(dp3419
sg82
g3404
sg75
(lp3420
g68
(g69
g70
NtRp3421
(dp3422
g73
(dp3423
g81
I4
ssg82
g3417
sg75
(lp3424
S'no-cache'
p3425
asbasbasbag68
(g84
g70
NtRp3426
(dp3427
g73
(dp3428
sg82
g3334
sg75
(lp3429
g68
(g89
g70
NtRp3430
(dp3431
g73
(dp3432
g93
g94
ssg82
g3426
sg75
(lp3433
S'X-Powered-By'
p3434
asbag68
(g89
g70
NtRp3435
(dp3436
g73
(dp3437
g100
g101
ssg82
g3426
sg75
(lp3438
S':'
asbag68
(g89
g70
NtRp3439
(dp3440
g73
(dp3441
sg82
g3426
sg75
(lp3442
g68
(g69
g70
NtRp3443
(dp3444
g73
(dp3445
g81
I4
ssg82
g3439
sg75
(lp3446
S'web2py'
p3447
asbasbasbasbasbasbasbag68
(g84
g70
NtRp3448
(dp3449
g73
(dp3450
sg82
g2945
sg75
(lp3451
g68
(g89
g70
NtRp3452
(dp3453
g73
(dp3454
g93
g94
ssg82
g3448
sg75
(lp3455
S'menu'
p3456
asbag68
(g89
g70
NtRp3457
(dp3458
g73
(dp3459
g100
g101
ssg82
g3448
sg75
(lp3460
S':'
asbag68
(g89
g70
NtRp3461
(dp3462
g73
(dp3463
sg82
g3448
sg75
(lp3464
g68
(g69
g70
NtRp3465
(dp3466
g73
(dp3467
g81
I5
ssg82
g3461
sg75
(lp3468
g68
(g77
g70
NtRp3469
(dp3470
g73
(dp3471
g81
I4
ssg82
Nsg75
(lp3472
g68
(g84
g70
NtRp3473
(dp3474
g73
(dp3475
sg82
g3469
sg75
(lp3476
g68
(g89
g70
NtRp3477
(dp3478
g73
(dp3479
sg82
g3473
sg75
(lp3480
g68
(g69
g70
NtRp3481
(dp3482
g73
(dp3483
g81
I4
ssg82
g3477
sg75
(lp3484
g68
(g77
g70
NtRp3485
(dp3486
g73
(dp3487
g81
I3
ssg82
Nsg75
(lp3488
g68
(g84
g70
NtRp3489
(dp3490
g73
(dp3491
sg82
g3485
sg75
(lp3492
g68
(g89
g70
NtRp3493
(dp3494
g73
(dp3495
sg82
g3489
sg75
(lp3496
g68
(g69
g70
NtRp3497
(dp3498
g73
(dp3499
g81
I3
ssg82
g3493
sg75
(lp3500
cgluon.languages
lazyT_unpickle
p3501
(S't\x04\x00\x00\x00Home'
tRp3502
asbasbasbag68
(g84
g70
NtRp3503
(dp3504
g73
(dp3505
sg82
g3485
sg75
(lp3506
g68
(g89
g70
NtRp3507
(dp3508
g73
(dp3509
sg82
g3503
sg75
(lp3510
g68
(g69
g70
NtRp3511
(dp3512
g73
(dp3513
g81
I3
ssg82
g3507
sg75
(lp3514
g111
asbasbasbag68
(g84
g70
NtRp3515
(dp3516
g73
(dp3517
sg82
g3485
sg75
(lp3518
g68
(g89
g70
NtRp3519
(dp3520
g73
(dp3521
sg82
g3515
sg75
(lp3522
g68
(g69
g70
NtRp3523
(dp3524
g73
(dp3525
g81
I3
ssg82
g3519
sg75
(lp3526
S'/911_signin/default/index'
p3527
asbasbasbag68
(g84
g70
NtRp3528
(dp3529
g73
(dp3530
sg82
g3485
sg75
(lp3531
g68
(g89
g70
NtRp3532
(dp3533
g73
(dp3534
sg82
g3528
sg75
(lp3535
g68
(g69
g70
NtRp3536
(dp3537
g73
(dp3538
g81
I3
ssg82
g3532
sg75
(lp3539
g68
(g77
g70
NtRp3540
(dp3541
g73
(dp3542
g81
I2
ssg82
Nsg75
(lp3543
sbasbasbasbasbasbasbasbag68
(g84
g70
NtRp3544
(dp3545
g73
(dp3546
sg82
g3469
sg75
(lp3547
g68
(g89
g70
NtRp3548
(dp3549
g73
(dp3550
sg82
g3544
sg75
(lp3551
g68
(g69
g70
NtRp3552
(dp3553
g73
(dp3554
g81
I4
ssg82
g3548
sg75
(lp3555
g68
(g77
g70
NtRp3556
(dp3557
g73
(dp3558
g81
I3
ssg82
Nsg75
(lp3559
g68
(g84
g70
NtRp3560
(dp3561
g73
(dp3562
sg82
g3556
sg75
(lp3563
g68
(g89
g70
NtRp3564
(dp3565
g73
(dp3566
sg82
g3560
sg75
(lp3567
g68
(g69
g70
NtRp3568
(dp3569
g73
(dp3570
g81
I3
ssg82
g3564
sg75
(lp3571
g68
(cgluon.html
SPAN
p3572
g70
NtRp3573
(dp3574
g73
(dp3575
g93
S'color:yellow'
p3576
ssg82
Nsg75
(lp3577
g3447
asbasbasbasbag68
(g84
g70
NtRp3578
(dp3579
g73
(dp3580
sg82
g3556
sg75
(lp3581
g68
(g89
g70
NtRp3582
(dp3583
g73
(dp3584
sg82
g3578
sg75
(lp3585
g68
(g69
g70
NtRp3586
(dp3587
g73
(dp3588
g81
I3
ssg82
g3582
sg75
(lp3589
g111
asbasbasbag68
(g84
g70
NtRp3590
(dp3591
g73
(dp3592
sg82
g3556
sg75
(lp3593
g68
(g89
g70
NtRp3594
(dp3595
g73
(dp3596
sg82
g3590
sg75
(lp3597
g68
(g69
g70
NtRp3598
(dp3599
g73
(dp3600
g81
I3
ssg82
g3594
sg75
(lp3601
S'None'
p3602
asbasbasbag68
(g84
g70
NtRp3603
(dp3604
g73
(dp3605
sg82
g3556
sg75
(lp3606
g68
(g89
g70
NtRp3607
(dp3608
g73
(dp3609
sg82
g3603
sg75
(lp3610
g68
(g69
g70
NtRp3611
(dp3612
g73
(dp3613
g81
I3
ssg82
g3607
sg75
(lp3614
g68
(g77
g70
NtRp3615
(dp3616
g73
(dp3617
g81
I2
ssg82
Nsg75
(lp3618
g68
(g84
g70
NtRp3619
(dp3620
g73
(dp3621
sg82
g3615
sg75
(lp3622
g68
(g89
g70
NtRp3623
(dp3624
g73
(dp3625
sg82
g3619
sg75
(lp3626
g68
(g69
g70
NtRp3627
(dp3628
g73
(dp3629
g81
I2
ssg82
g3623
sg75
(lp3630
g68
(g77
g70
NtRp3631
(dp3632
g73
(dp3633
g81
I1
ssg82
Nsg75
(lp3634
g68
(g84
g70
NtRp3635
(dp3636
g73
(dp3637
sg82
g3631
sg75
(lp3638
g68
(g89
g70
NtRp3639
(dp3640
g73
(dp3641
sg82
g3635
sg75
(lp3642
g68
(g69
g70
NtRp3643
(dp3644
g73
(dp3645
g81
I1
ssg82
g3639
sg75
(lp3646
g3501
(S's\x08\x00\x00\x00My Sites'
tRp3647
asbasbasbag68
(g84
g70
NtRp3648
(dp3649
g73
(dp3650
sg82
g3631
sg75
(lp3651
g68
(g89
g70
NtRp3652
(dp3653
g73
(dp3654
sg82
g3648
sg75
(lp3655
g68
(g69
g70
NtRp3656
(dp3657
g73
(dp3658
g81
I1
ssg82
g3652
sg75
(lp3659
I00
asbasbasbag68
(g84
g70
NtRp3660
(dp3661
g73
(dp3662
sg82
g3631
sg75
(lp3663
g68
(g89
g70
NtRp3664
(dp3665
g73
(dp3666
sg82
g3660
sg75
(lp3667
g68
(g69
g70
NtRp3668
(dp3669
g73
(dp3670
g81
I1
ssg82
g3664
sg75
(lp3671
S'/admin/default/site'
p3672
asbasbasbasbasbasbasbag68
(g84
g70
NtRp3673
(dp3674
g73
(dp3675
sg82
g3615
sg75
(lp3676
g68
(g89
g70
NtRp3677
(dp3678
g73
(dp3679
sg82
g3673
sg75
(lp3680
g68
(g69
g70
NtRp3681
(dp3682
g73
(dp3683
g81
I2
ssg82
g3677
sg75
(lp3684
g68
(g77
g70
NtRp3685
(dp3686
g73
(dp3687
g81
I1
ssg82
Nsg75
(lp3688
g68
(g84
g70
NtRp3689
(dp3690
g73
(dp3691
sg82
g3685
sg75
(lp3692
g68
(g89
g70
NtRp3693
(dp3694
g73
(dp3695
sg82
g3689
sg75
(lp3696
g68
(g69
g70
NtRp3697
(dp3698
g73
(dp3699
g81
I1
ssg82
g3693
sg75
(lp3700
g3501
(S's\x08\x00\x00\x00This App'
tRp3701
asbasbasbag68
(g84
g70
NtRp3702
(dp3703
g73
(dp3704
sg82
g3685
sg75
(lp3705
g68
(g89
g70
NtRp3706
(dp3707
g73
(dp3708
sg82
g3702
sg75
(lp3709
g68
(g69
g70
NtRp3710
(dp3711
g73
(dp3712
g81
I1
ssg82
g3706
sg75
(lp3713
I00
asbasbasbag68
(g84
g70
NtRp3714
(dp3715
g73
(dp3716
sg82
g3685
sg75
(lp3717
g68
(g89
g70
NtRp3718
(dp3719
g73
(dp3720
sg82
g3714
sg75
(lp3721
g68
(g69
g70
NtRp3722
(dp3723
g73
(dp3724
g81
I1
ssg82
g3718
sg75
(lp3725
S'/admin/default/design/911_signin'
p3726
asbasbasbag68
(g84
g70
NtRp3727
(dp3728
g73
(dp3729
sg82
g3685
sg75
(lp3730
g68
(g89
g70
NtRp3731
(dp3732
g73
(dp3733
sg82
g3727
sg75
(lp3734
g68
(g69
g70
NtRp3735
(dp3736
g73
(dp3737
g81
I1
ssg82
g3731
sg75
(lp3738
(lp3739
(g3501
(S't\n\x00\x00\x00Controller'
tRp3740
I00
S'/admin/default/edit/911_signin/controllers/default.py'
tp3741
a(g3501
(S't\x04\x00\x00\x00View'
tRp3742
I00
S'/admin/default/edit/911_signin/views/default/index.html'
tp3743
a(g3501
(S't\x06\x00\x00\x00Layout'
tRp3744
I00
S'/admin/default/edit/911_signin/views/layout.html'
tp3745
a(g3501
(S't\n\x00\x00\x00Stylesheet'
tRp3746
I00
S'/admin/default/edit/911_signin/static/css/web2py.css'
tp3747
a(g3501
(S's\x08\x00\x00\x00DB Model'
tRp3748
I00
S'/admin/default/edit/911_signin/models/db.py'
tp3749
a(g3501
(S's\n\x00\x00\x00Menu Model'
tRp3750
I00
S'/admin/default/edit/911_signin/models/menu.py'
tp3751
a(g3501
(S't\x08\x00\x00\x00Database'
tRp3752
I00
S'/911_signin/appadmin/index'
tp3753
a(g3501
(S't\x06\x00\x00\x00Errors'
tRp3754
I00
S'/admin/default/errors/911_signin'
tp3755
a(g3501
(S't\x05\x00\x00\x00About'
tRp3756
I00
S'/admin/default/about/911_signin'
tp3757
aasbasbasbasbasbasbasbag68
(g84
g70
NtRp3758
(dp3759
g73
(dp3760
sg82
g3615
sg75
(lp3761
g68
(g89
g70
NtRp3762
(dp3763
g73
(dp3764
sg82
g3758
sg75
(lp3765
g68
(g69
g70
NtRp3766
(dp3767
g73
(dp3768
g81
I2
ssg82
g3762
sg75
(lp3769
g68
(g77
g70
NtRp3770
(dp3771
g73
(dp3772
g81
I1
ssg82
Nsg75
(lp3773
g68
(g84
g70
NtRp3774
(dp3775
g73
(dp3776
sg82
g3770
sg75
(lp3777
g68
(g89
g70
NtRp3778
(dp3779
g73
(dp3780
sg82
g3774
sg75
(lp3781
g68
(g69
g70
NtRp3782
(dp3783
g73
(dp3784
g81
I1
ssg82
g3778
sg75
(lp3785
S'web2py.com'
p3786
asbasbasbag68
(g84
g70
NtRp3787
(dp3788
g73
(dp3789
sg82
g3770
sg75
(lp3790
g68
(g89
g70
NtRp3791
(dp3792
g73
(dp3793
sg82
g3787
sg75
(lp3794
g68
(g69
g70
NtRp3795
(dp3796
g73
(dp3797
g81
I1
ssg82
g3791
sg75
(lp3798
I00
asbasbasbag68
(g84
g70
NtRp3799
(dp3800
g73
(dp3801
sg82
g3770
sg75
(lp3802
g68
(g89
g70
NtRp3803
(dp3804
g73
(dp3805
sg82
g3799
sg75
(lp3806
g68
(g69
g70
NtRp3807
(dp3808
g73
(dp3809
g81
I1
ssg82
g3803
sg75
(lp3810
S'http://www.web2py.com'
p3811
asbasbasbag68
(g84
g70
NtRp3812
(dp3813
g73
(dp3814
sg82
g3770
sg75
(lp3815
g68
(g89
g70
NtRp3816
(dp3817
g73
(dp3818
sg82
g3812
sg75
(lp3819
g68
(g69
g70
NtRp3820
(dp3821
g73
(dp3822
g81
I1
ssg82
g3816
sg75
(lp3823
(lp3824
(g3501
(S't\x08\x00\x00\x00Download'
tRp3825
I00
S'http://www.web2py.com/examples/default/download'
p3826
tp3827
a(g3501
(S't\x07\x00\x00\x00Support'
tRp3828
I00
S'http://www.web2py.com/examples/default/support'
p3829
tp3830
a(g3501
(S't\x04\x00\x00\x00Demo'
tRp3831
I00
S'http://web2py.com/demo_admin'
p3832
tp3833
a(g3501
(S's\x0e\x00\x00\x00Quick Examples'
tRp3834
I00
S'http://web2py.com/examples/default/examples'
p3835
tp3836
a(g3501
(S't\x03\x00\x00\x00FAQ'
tRp3837
I00
S'http://web2py.com/AlterEgo'
p3838
tp3839
a(g3501
(S't\x06\x00\x00\x00Videos'
tRp3840
I00
S'http://www.web2py.com/examples/default/videos/'
p3841
tp3842
a(g3501
(S's\x11\x00\x00\x00Free Applications'
tRp3843
I00
S'http://web2py.com/appliances'
p3844
tp3845
a(g3501
(S't\x07\x00\x00\x00Plugins'
tRp3846
I00
S'http://web2py.com/plugins'
p3847
tp3848
a(g3501
(S't\x07\x00\x00\x00Layouts'
tRp3849
I00
S'http://web2py.com/layouts'
p3850
tp3851
a(g3501
(S't\x07\x00\x00\x00Recipes'
tRp3852
I00
S'http://web2pyslices.com/'
p3853
tp3854
a(g3501
(S't\x08\x00\x00\x00Semantic'
tRp3855
I00
S'http://web2py.com/semantic'
p3856
tp3857
aasbasbasbasbasbasbasbag68
(g84
g70
NtRp3858
(dp3859
g73
(dp3860
sg82
g3615
sg75
(lp3861
g68
(g89
g70
NtRp3862
(dp3863
g73
(dp3864
sg82
g3858
sg75
(lp3865
g68
(g69
g70
NtRp3866
(dp3867
g73
(dp3868
g81
I2
ssg82
g3862
sg75
(lp3869
g68
(g77
g70
NtRp3870
(dp3871
g73
(dp3872
g81
I1
ssg82
Nsg75
(lp3873
g68
(g84
g70
NtRp3874
(dp3875
g73
(dp3876
sg82
g3870
sg75
(lp3877
g68
(g89
g70
NtRp3878
(dp3879
g73
(dp3880
sg82
g3874
sg75
(lp3881
g68
(g69
g70
NtRp3882
(dp3883
g73
(dp3884
g81
I1
ssg82
g3878
sg75
(lp3885
g3501
(S't\r\x00\x00\x00Documentation'
tRp3886
asbasbasbag68
(g84
g70
NtRp3887
(dp3888
g73
(dp3889
sg82
g3870
sg75
(lp3890
g68
(g89
g70
NtRp3891
(dp3892
g73
(dp3893
sg82
g3887
sg75
(lp3894
g68
(g69
g70
NtRp3895
(dp3896
g73
(dp3897
g81
I1
ssg82
g3891
sg75
(lp3898
I00
asbasbasbag68
(g84
g70
NtRp3899
(dp3900
g73
(dp3901
sg82
g3870
sg75
(lp3902
g68
(g89
g70
NtRp3903
(dp3904
g73
(dp3905
sg82
g3899
sg75
(lp3906
g68
(g69
g70
NtRp3907
(dp3908
g73
(dp3909
g81
I1
ssg82
g3903
sg75
(lp3910
S'http://www.web2py.com/book'
p3911
asbasbasbag68
(g84
g70
NtRp3912
(dp3913
g73
(dp3914
sg82
g3870
sg75
(lp3915
g68
(g89
g70
NtRp3916
(dp3917
g73
(dp3918
sg82
g3912
sg75
(lp3919
g68
(g69
g70
NtRp3920
(dp3921
g73
(dp3922
g81
I1
ssg82
g3916
sg75
(lp3923
(lp3924
(g3501
(S't\x07\x00\x00\x00Preface'
tRp3925
I00
S'http://www.web2py.com/book/default/chapter/00'
p3926
tp3927
a(g3501
(S't\x0c\x00\x00\x00Introduction'
tRp3928
I00
S'http://www.web2py.com/book/default/chapter/01'
p3929
tp3930
a(g3501
(S't\x06\x00\x00\x00Python'
tRp3931
I00
S'http://www.web2py.com/book/default/chapter/02'
p3932
tp3933
a(g3501
(S't\x08\x00\x00\x00Overview'
tRp3934
I00
S'http://www.web2py.com/book/default/chapter/03'
p3935
tp3936
a(g3501
(S's\x08\x00\x00\x00The Core'
tRp3937
I00
S'http://www.web2py.com/book/default/chapter/04'
p3938
tp3939
a(g3501
(S's\t\x00\x00\x00The Views'
tRp3940
I00
S'http://www.web2py.com/book/default/chapter/05'
p3941
tp3942
a(g3501
(S't\x08\x00\x00\x00Database'
tRp3943
I00
S'http://www.web2py.com/book/default/chapter/06'
p3944
tp3945
a(g3501
(S's\x14\x00\x00\x00Forms and Validators'
tRp3946
I00
S'http://www.web2py.com/book/default/chapter/07'
p3947
tp3948
a(g3501
(S's\r\x00\x00\x00Email and SMS'
tRp3949
I00
S'http://www.web2py.com/book/default/chapter/08'
p3950
tp3951
a(g3501
(S's\x0e\x00\x00\x00Access Control'
tRp3952
I00
S'http://www.web2py.com/book/default/chapter/09'
p3953
tp3954
a(g3501
(S't\x08\x00\x00\x00Services'
tRp3955
I00
S'http://www.web2py.com/book/default/chapter/10'
p3956
tp3957
a(g3501
(S's\x0c\x00\x00\x00Ajax Recipes'
tRp3958
I00
S'http://www.web2py.com/book/default/chapter/11'
p3959
tp3960
a(g3501
(S's\x16\x00\x00\x00Components and Plugins'
tRp3961
I00
S'http://www.web2py.com/book/default/chapter/12'
p3962
tp3963
a(g3501
(S's\x12\x00\x00\x00Deployment Recipes'
tRp3964
I00
S'http://www.web2py.com/book/default/chapter/13'
p3965
tp3966
a(g3501
(S's\r\x00\x00\x00Other Recipes'
tRp3967
I00
S'http://www.web2py.com/book/default/chapter/14'
p3968
tp3969
a(g3501
(S's\r\x00\x00\x00Buy this book'
tRp3970
I00
S'http://stores.lulu.com/web2py'
p3971
tp3972
aasbasbasbasbasbasbasbag68
(g84
g70
NtRp3973
(dp3974
g73
(dp3975
sg82
g3615
sg75
(lp3976
g68
(g89
g70
NtRp3977
(dp3978
g73
(dp3979
sg82
g3973
sg75
(lp3980
g68
(g69
g70
NtRp3981
(dp3982
g73
(dp3983
g81
I2
ssg82
g3977
sg75
(lp3984
g68
(g77
g70
NtRp3985
(dp3986
g73
(dp3987
g81
I1
ssg82
Nsg75
(lp3988
g68
(g84
g70
NtRp3989
(dp3990
g73
(dp3991
sg82
g3985
sg75
(lp3992
g68
(g89
g70
NtRp3993
(dp3994
g73
(dp3995
sg82
g3989
sg75
(lp3996
g68
(g69
g70
NtRp3997
(dp3998
g73
(dp3999
g81
I1
ssg82
g3993
sg75
(lp4000
g3501
(S't\t\x00\x00\x00Community'
tRp4001
asbasbasbag68
(g84
g70
NtRp4002
(dp4003
g73
(dp4004
sg82
g3985
sg75
(lp4005
g68
(g89
g70
NtRp4006
(dp4007
g73
(dp4008
sg82
g4002
sg75
(lp4009
g68
(g69
g70
NtRp4010
(dp4011
g73
(dp4012
g81
I1
ssg82
g4006
sg75
(lp4013
I00
asbasbasbag68
(g84
g70
NtRp4014
(dp4015
g73
(dp4016
sg82
g3985
sg75
(lp4017
g68
(g89
g70
NtRp4018
(dp4019
g73
(dp4020
sg82
g4014
sg75
(lp4021
g68
(g69
g70
NtRp4022
(dp4023
g73
(dp4024
g81
I1
ssg82
g4018
sg75
(lp4025
Nasbasbasbag68
(g84
g70
NtRp4026
(dp4027
g73
(dp4028
sg82
g3985
sg75
(lp4029
g68
(g89
g70
NtRp4030
(dp4031
g73
(dp4032
sg82
g4026
sg75
(lp4033
g68
(g69
g70
NtRp4034
(dp4035
g73
(dp4036
g81
I1
ssg82
g4030
sg75
(lp4037
(lp4038
(g3501
(S't\x06\x00\x00\x00Groups'
tRp4039
I00
S'http://www.web2py.com/examples/default/usergroups'
p4040
tp4041
a(g3501
(S't\x07\x00\x00\x00Twitter'
tRp4042
I00
S'http://twitter.com/web2py'
p4043
tp4044
a(g3501
(S's\t\x00\x00\x00Live Chat'
tRp4045
I00
S'http://webchat.freenode.net/?channels=web2py'
p4046
tp4047
aasbasbasbasbasbasbasbag68
(g84
g70
NtRp4048
(dp4049
g73
(dp4050
sg82
g3615
sg75
(lp4051
g68
(g89
g70
NtRp4052
(dp4053
g73
(dp4054
sg82
g4048
sg75
(lp4055
g68
(g69
g70
NtRp4056
(dp4057
g73
(dp4058
g81
I2
ssg82
g4052
sg75
(lp4059
g68
(g77
g70
NtRp4060
(dp4061
g73
(dp4062
g81
I1
ssg82
Nsg75
(lp4063
g68
(g84
g70
NtRp4064
(dp4065
g73
(dp4066
sg82
g4060
sg75
(lp4067
g68
(g89
g70
NtRp4068
(dp4069
g73
(dp4070
sg82
g4064
sg75
(lp4071
g68
(g69
g70
NtRp4072
(dp4073
g73
(dp4074
g81
I1
ssg82
g4068
sg75
(lp4075
g3501
(S't\x07\x00\x00\x00Plugins'
tRp4076
asbasbasbag68
(g84
g70
NtRp4077
(dp4078
g73
(dp4079
sg82
g4060
sg75
(lp4080
g68
(g89
g70
NtRp4081
(dp4082
g73
(dp4083
sg82
g4077
sg75
(lp4084
g68
(g69
g70
NtRp4085
(dp4086
g73
(dp4087
g81
I1
ssg82
g4081
sg75
(lp4088
I00
asbasbasbag68
(g84
g70
NtRp4089
(dp4090
g73
(dp4091
sg82
g4060
sg75
(lp4092
g68
(g89
g70
NtRp4093
(dp4094
g73
(dp4095
sg82
g4089
sg75
(lp4096
g68
(g69
g70
NtRp4097
(dp4098
g73
(dp4099
g81
I1
ssg82
g4093
sg75
(lp4100
Nasbasbasbag68
(g84
g70
NtRp4101
(dp4102
g73
(dp4103
sg82
g4060
sg75
(lp4104
g68
(g89
g70
NtRp4105
(dp4106
g73
(dp4107
sg82
g4101
sg75
(lp4108
g68
(g69
g70
NtRp4109
(dp4110
g73
(dp4111
g81
I1
ssg82
g4105
sg75
(lp4112
(lp4113
(S'plugin_wiki'
p4114
I00
S'http://web2py.com/examples/default/download'
p4115
tp4116
a(g3501
(S's\r\x00\x00\x00Other Plugins'
tRp4117
I00
g3847
tp4118
a(g3501
(S's\x0e\x00\x00\x00Layout Plugins'
tRp4119
I00
g3850
tp4120
aasbasbasbasbasbasbasbasbasbasbasbasbasbasbasbasbasbasbasbag68
(g84
g70
NtRp4121
(dp4122
g73
(dp4123
sg82
g2945
sg75
(lp4124
g68
(g89
g70
NtRp4125
(dp4126
g73
(dp4127
g93
g94
ssg82
g4121
sg75
(lp4128
S'meta'
p4129
asbag68
(g89
g70
NtRp4130
(dp4131
g73
(dp4132
g100
g101
ssg82
g4121
sg75
(lp4133
S':'
asbag68
(g89
g70
NtRp4134
(dp4135
g73
(dp4136
sg82
g4121
sg75
(lp4137
g68
(g69
g70
NtRp4138
(dp4139
g73
(dp4140
g81
I5
ssg82
g4134
sg75
(lp4141
g68
(g77
g70
NtRp4142
(dp4143
g73
(dp4144
g81
I4
ssg82
Nsg75
(lp4145
g68
(g84
g70
NtRp4146
(dp4147
g73
(dp4148
sg82
g4142
sg75
(lp4149
g68
(g89
g70
NtRp4150
(dp4151
g73
(dp4152
g93
g94
ssg82
g4146
sg75
(lp4153
S'author'
p4154
asbag68
(g89
g70
NtRp4155
(dp4156
g73
(dp4157
g100
g101
ssg82
g4146
sg75
(lp4158
S':'
asbag68
(g89
g70
NtRp4159
(dp4160
g73
(dp4161
sg82
g4146
sg75
(lp4162
g68
(g69
g70
NtRp4163
(dp4164
g73
(dp4165
g81
I4
ssg82
g4159
sg75
(lp4166
S'Your Name <you@example.com>'
p4167
asbasbasbag68
(g84
g70
NtRp4168
(dp4169
g73
(dp4170
sg82
g4142
sg75
(lp4171
g68
(g89
g70
NtRp4172
(dp4173
g73
(dp4174
g93
g94
ssg82
g4168
sg75
(lp4175
S'copyright'
p4176
asbag68
(g89
g70
NtRp4177
(dp4178
g73
(dp4179
g100
g101
ssg82
g4168
sg75
(lp4180
S':'
asbag68
(g89
g70
NtRp4181
(dp4182
g73
(dp4183
sg82
g4168
sg75
(lp4184
g68
(g69
g70
NtRp4185
(dp4186
g73
(dp4187
g81
I4
ssg82
g4181
sg75
(lp4188
S'Copyright 2011'
p4189
asbasbasbag68
(g84
g70
NtRp4190
(dp4191
g73
(dp4192
sg82
g4142
sg75
(lp4193
g68
(g89
g70
NtRp4194
(dp4195
g73
(dp4196
g93
g94
ssg82
g4190
sg75
(lp4197
S'description'
p4198
asbag68
(g89
g70
NtRp4199
(dp4200
g73
(dp4201
g100
g101
ssg82
g4190
sg75
(lp4202
S':'
asbag68
(g89
g70
NtRp4203
(dp4204
g73
(dp4205
sg82
g4190
sg75
(lp4206
g68
(g69
g70
NtRp4207
(dp4208
g73
(dp4209
g81
I4
ssg82
g4203
sg75
(lp4210
S'a cool new app'
p4211
asbasbasbag68
(g84
g70
NtRp4212
(dp4213
g73
(dp4214
sg82
g4142
sg75
(lp4215
g68
(g89
g70
NtRp4216
(dp4217
g73
(dp4218
g93
g94
ssg82
g4212
sg75
(lp4219
S'generator'
p4220
asbag68
(g89
g70
NtRp4221
(dp4222
g73
(dp4223
g100
g101
ssg82
g4212
sg75
(lp4224
S':'
asbag68
(g89
g70
NtRp4225
(dp4226
g73
(dp4227
sg82
g4212
sg75
(lp4228
g68
(g69
g70
NtRp4229
(dp4230
g73
(dp4231
g81
I4
ssg82
g4225
sg75
(lp4232
S'Web2py Web Framework'
p4233
asbasbasbag68
(g84
g70
NtRp4234
(dp4235
g73
(dp4236
sg82
g4142
sg75
(lp4237
g68
(g89
g70
NtRp4238
(dp4239
g73
(dp4240
g93
g94
ssg82
g4234
sg75
(lp4241
S'keywords'
p4242
asbag68
(g89
g70
NtRp4243
(dp4244
g73
(dp4245
g100
g101
ssg82
g4234
sg75
(lp4246
S':'
asbag68
(g89
g70
NtRp4247
(dp4248
g73
(dp4249
sg82
g4234
sg75
(lp4250
g68
(g69
g70
NtRp4251
(dp4252
g73
(dp4253
g81
I4
ssg82
g4247
sg75
(lp4254
S'web2py, python, framework'
p4255
asbasbasbasbasbasbasbag68
(g84
g70
NtRp4256
(dp4257
g73
(dp4258
sg82
g2945
sg75
(lp4259
g68
(g89
g70
NtRp4260
(dp4261
g73
(dp4262
g93
g94
ssg82
g4256
sg75
(lp4263
S'postprocessing'
p4264
asbag68
(g89
g70
NtRp4265
(dp4266
g73
(dp4267
g100
g101
ssg82
g4256
sg75
(lp4268
S':'
asbag68
(g89
g70
NtRp4269
(dp4270
g73
(dp4271
sg82
g4256
sg75
(lp4272
g68
(g69
g70
NtRp4273
(dp4274
g73
(dp4275
g81
I5
ssg82
g4269
sg75
(lp4276
g68
(g77
g70
NtRp4277
(dp4278
g73
(dp4279
g81
I4
ssg82
Nsg75
(lp4280
sbasbasbasbag68
(g84
g70
NtRp4281
(dp4282
g73
(dp4283
sg82
g2945
sg75
(lp4284
g68
(g89
g70
NtRp4285
(dp4286
g73
(dp4287
g93
g94
ssg82
g4281
sg75
(lp4288
S'session_file'
p4289
asbag68
(g89
g70
NtRp4290
(dp4291
g73
(dp4292
g100
g101
ssg82
g4281
sg75
(lp4293
S':'
asbag68
(g89
g70
NtRp4294
(dp4295
g73
(dp4296
sg82
g4281
sg75
(lp4297
g68
(g69
g70
NtRp4298
(dp4299
g73
(dp4300
g81
I5
ssg82
g4294
sg75
(lp4301
S"<open file '/home/enigma/web2py/applications/911_signin/sessions/127.0.0.1-4ed2d5b9-5b80-4ba7-aca2-511dab3fd746', mode 'rb+' at 0xb2f859c0>"
p4302
asbasbasbag68
(g84
g70
NtRp4303
(dp4304
g73
(dp4305
sg82
g2945
sg75
(lp4306
g68
(g89
g70
NtRp4307
(dp4308
g73
(dp4309
g93
g94
ssg82
g4303
sg75
(lp4310
S'session_filename'
p4311
asbag68
(g89
g70
NtRp4312
(dp4313
g73
(dp4314
g100
g101
ssg82
g4303
sg75
(lp4315
S':'
asbag68
(g89
g70
NtRp4316
(dp4317
g73
(dp4318
sg82
g4303
sg75
(lp4319
g68
(g69
g70
NtRp4320
(dp4321
g73
(dp4322
g81
I5
ssg82
g4316
sg75
(lp4323
S'/home/enigma/web2py/applications/911_signin/sessions/127.0.0.1-4ed2d5b9-5b80-4ba7-aca2-511dab3fd746'
p4324
asbasbasbag68
(g84
g70
NtRp4325
(dp4326
g73
(dp4327
sg82
g2945
sg75
(lp4328
g68
(g89
g70
NtRp4329
(dp4330
g73
(dp4331
g93
g94
ssg82
g4325
sg75
(lp4332
S'session_id'
p4333
asbag68
(g89
g70
NtRp4334
(dp4335
g73
(dp4336
g100
g101
ssg82
g4325
sg75
(lp4337
S':'
asbag68
(g89
g70
NtRp4338
(dp4339
g73
(dp4340
sg82
g4325
sg75
(lp4341
g68
(g69
g70
NtRp4342
(dp4343
g73
(dp4344
g81
I5
ssg82
g4338
sg75
(lp4345
S'127.0.0.1-4ed2d5b9-5b80-4ba7-aca2-511dab3fd746'
p4346
asbasbasbag68
(g84
g70
NtRp4347
(dp4348
g73
(dp4349
sg82
g2945
sg75
(lp4350
g68
(g89
g70
NtRp4351
(dp4352
g73
(dp4353
g93
g94
ssg82
g4347
sg75
(lp4354
S'session_id_name'
p4355
asbag68
(g89
g70
NtRp4356
(dp4357
g73
(dp4358
g100
g101
ssg82
g4347
sg75
(lp4359
S':'
asbag68
(g89
g70
NtRp4360
(dp4361
g73
(dp4362
sg82
g4347
sg75
(lp4363
g68
(g69
g70
NtRp4364
(dp4365
g73
(dp4366
g81
I5
ssg82
g4360
sg75
(lp4367
g3002
asbasbasbag68
(g84
g70
NtRp4368
(dp4369
g73
(dp4370
sg82
g2945
sg75
(lp4371
g68
(g89
g70
NtRp4372
(dp4373
g73
(dp4374
g93
g94
ssg82
g4368
sg75
(lp4375
S'session_locked'
p4376
asbag68
(g89
g70
NtRp4377
(dp4378
g73
(dp4379
g100
g101
ssg82
g4368
sg75
(lp4380
S':'
asbag68
(g89
g70
NtRp4381
(dp4382
g73
(dp4383
sg82
g4368
sg75
(lp4384
g68
(g69
g70
NtRp4385
(dp4386
g73
(dp4387
g81
I5
ssg82
g4381
sg75
(lp4388
g1526
asbasbasbag68
(g84
g70
NtRp4389
(dp4390
g73
(dp4391
sg82
g2945
sg75
(lp4392
g68
(g89
g70
NtRp4393
(dp4394
g73
(dp4395
g93
g94
ssg82
g4389
sg75
(lp4396
S'session_new'
p4397
asbag68
(g89
g70
NtRp4398
(dp4399
g73
(dp4400
g100
g101
ssg82
g4389
sg75
(lp4401
S':'
asbag68
(g89
g70
NtRp4402
(dp4403
g73
(dp4404
sg82
g4389
sg75
(lp4405
g68
(g69
g70
NtRp4406
(dp4407
g73
(dp4408
g81
I5
ssg82
g4402
sg75
(lp4409
g111
asbasbasbag68
(g84
g70
NtRp4410
(dp4411
g73
(dp4412
sg82
g2945
sg75
(lp4413
g68
(g89
g70
NtRp4414
(dp4415
g73
(dp4416
g93
g94
ssg82
g4410
sg75
(lp4417
S'status'
p4418
asbag68
(g89
g70
NtRp4419
(dp4420
g73
(dp4421
g100
g101
ssg82
g4410
sg75
(lp4422
S':'
asbag68
(g89
g70
NtRp4423
(dp4424
g73
(dp4425
sg82
g4410
sg75
(lp4426
g68
(g69
g70
NtRp4427
(dp4428
g73
(dp4429
g81
I5
ssg82
g4423
sg75
(lp4430
S'200'
p4431
asbasbasbag68
(g84
g70
NtRp4432
(dp4433
g73
(dp4434
sg82
g2945
sg75
(lp4435
g68
(g89
g70
NtRp4436
(dp4437
g73
(dp4438
g93
g94
ssg82
g4432
sg75
(lp4439
S'subtitle'
p4440
asbag68
(g89
g70
NtRp4441
(dp4442
g73
(dp4443
g100
g101
ssg82
g4432
sg75
(lp4444
S':'
asbag68
(g89
g70
NtRp4445
(dp4446
g73
(dp4447
sg82
g4432
sg75
(lp4448
g68
(g69
g70
NtRp4449
(dp4450
g73
(dp4451
g81
I5
ssg82
g4445
sg75
(lp4452
g3501
(S's\r\x00\x00\x00customize me!'
tRp4453
asbasbasbag68
(g84
g70
NtRp4454
(dp4455
g73
(dp4456
sg82
g2945
sg75
(lp4457
g68
(g89
g70
NtRp4458
(dp4459
g73
(dp4460
g93
g94
ssg82
g4454
sg75
(lp4461
S'title'
p4462
asbag68
(g89
g70
NtRp4463
(dp4464
g73
(dp4465
g100
g101
ssg82
g4454
sg75
(lp4466
S':'
asbag68
(g89
g70
NtRp4467
(dp4468
g73
(dp4469
sg82
g4454
sg75
(lp4470
g68
(g69
g70
NtRp4471
(dp4472
g73
(dp4473
g81
I5
ssg82
g4467
sg75
(lp4474
S'911 Signin'
p4475
asbasbasbag68
(g84
g70
NtRp4476
(dp4477
g73
(dp4478
sg82
g2945
sg75
(lp4479
g68
(g89
g70
NtRp4480
(dp4481
g73
(dp4482
g93
g94
ssg82
g4476
sg75
(lp4483
g2190
asbag68
(g89
g70
NtRp4484
(dp4485
g73
(dp4486
g100
g101
ssg82
g4476
sg75
(lp4487
S':'
asbag68
(g89
g70
NtRp4488
(dp4489
g73
(dp4490
sg82
g4476
sg75
(lp4491
g68
(g69
g70
NtRp4492
(dp4493
g73
(dp4494
g81
I5
ssg82
g4488
sg75
(lp4495
g2203
asbasbasbag68
(g84
g70
NtRp4496
(dp4497
g73
(dp4498
sg82
g2945
sg75
(lp4499
g68
(g89
g70
NtRp4500
(dp4501
g73
(dp4502
g93
g94
ssg82
g4496
sg75
(lp4503
S'view'
p4504
asbag68
(g89
g70
NtRp4505
(dp4506
g73
(dp4507
g100
g101
ssg82
g4496
sg75
(lp4508
S':'
asbag68
(g89
g70
NtRp4509
(dp4510
g73
(dp4511
sg82
g4496
sg75
(lp4512
g68
(g69
g70
NtRp4513
(dp4514
g73
(dp4515
g81
I5
ssg82
g4509
sg75
(lp4516
S'default/index.html'
p4517
asbasbasbasbasbsS'locals'
p4518
(dp4519
g4
S"'/home/enigma/web2py/applications/911_signin/controllers/default.py'"
p4520
sg6
S"'# -*- coding: utf-8 -*-\\n# this file is released ...=crud())\\n\\nresponse._vars=response._caller(index)\\n'"
p4521
sssS'traceback'
p4522
S'Traceback (most recent call last):\n  File "/home/enigma/web2py/gluon/restricted.py", line 204, in restricted\n    ccode = compile2(code,layer)\n  File "/home/enigma/web2py/gluon/restricted.py", line 189, in compile2\n    return compile(code.rstrip().replace(\'\\r\\n\',\'\\n\')+\'\\n\', layer, \'exec\')\n  File "/home/enigma/web2py/applications/911_signin/controllers/default.py", line 52\n    def home():\n      ^\nIndentationError: expected an indented block\n'
p4523
s.