(dp1
S'output'
p2
S"<type 'exceptions.SyntaxError'> invalid syntax (db.py, line 98)"
p3
sS'layer'
p4
S'/home/enigma/web2py/applications/911_signin/models/db.py'
p5
sS'code'
p6
S'# -*- coding: utf-8 -*-\n\n#########################################################################\n## This scaffolding model makes your app work on Google App Engine too\n## File is released under public domain and you can use without limitations\n#########################################################################\n\n## if SSL/HTTPS is properly configured and you want all HTTP requests to\n## be redirected to HTTPS, uncomment the line below:\n# request.requires_https()\n\nif not request.env.web2py_runtime_gae:\n    ## if NOT running on Google App Engine use SQLite or other DB\n    db = DAL(\'sqlite://storage.sqlite\')\nelse:\n    ## connect to Google BigTable (optional \'google:datastore://namespace\')\n    db = DAL(\'google:datastore\')\n    ## store sessions and tickets there\n    session.connect(request, response, db = db)\n    ## or store session in Memcache, Redis, etc.\n    ## from gluon.contrib.memdb import MEMDB\n    ## from google.appengine.api.memcache import Client\n    ## session.connect(request, response, db = MEMDB(Client()))\n\n## by default give a view/generic.extension to all actions from localhost\n## none otherwise. a pattern can be \'controller/function.extension\'\nresponse.generic_patterns = [\'*\'] if request.is_local else []\n## (optional) optimize handling of static files\n# response.optimize_css = \'concat,minify,inline\'\n# response.optimize_js = \'concat,minify,inline\'\n\n#########################################################################\n## Here is sample code if you need for\n## - email capabilities\n## - authentication (registration, login, logout, ... )\n## - authorization (role based authorization)\n## - services (xml, csv, json, xmlrpc, jsonrpc, amf, rss)\n## - old style crud actions\n## (more options discussed in gluon/tools.py)\n#########################################################################\n\nfrom gluon.tools import Auth, Crud, Service, PluginManager, prettydate, Mail\nauth = Auth(db, hmac_key=Auth.get_or_create_key())\ncrud, service, plugins = Crud(db), Service(), PluginManager()\n\n## create all tables needed by auth if not custom tables\nauth.define_tables()\n\n## configure email\nmail=auth.settings.mailer\nmail.settings.server = \'smtp.gmail.com:587\'\nmail.settings.sender = \'chandantheshadow@gmail.com\'\nmail.settings.login = \'chandantheshadow:fireinthehole27\'\n\n## configure auth policy\nauth.settings.registration_requires_verification = False\nauth.settings.registration_requires_approval = False\nauth.settings.reset_password_requires_verification = True\n\n## if you need to use OpenID, Facebook, MySpace, Twitter, Linkedin, etc.\n## register with janrain.com, write your domain:api_key in private/janrain.key\n#from gluon.contrib.login_methods.rpx_account import use_janrain\n#use_janrain(auth,filename=\'private/janrain.key\')\n\n#########################################################################\n## Define your tables below (or better in another model file) for example\n##\n## >>> db.define_table(\'mytable\',Field(\'myfield\',\'string\'))\n##\n## Fields can be \'string\',\'text\',\'password\',\'integer\',\'double\',\'boolean\'\n##       \'date\',\'time\',\'datetime\',\'blob\',\'upload\', \'reference TABLENAME\'\n## There is an implicit \'id integer autoincrement\' field\n## Consult manual for more options, validators, etc.\n##\n## More API examples for controllers:\n##\n## >>> db.mytable.insert(myfield=\'value\')\n## >>> rows=db(db.mytable.myfield==\'value\').select(db.mytable.ALL)\n## >>> for row in rows: print row.id, row.myfield\n#########################################################################\n\nauth.settings.table_user = db.define_table(\n\t"auth_users",\n\tField(\'first_name\', requires = [IS_NOT_EMPTY(), IS_LENGTH(32), IS_ALPHANUMERIC()]),\n\tField(\'last_name\', requires = [IS_NOT_EMPTY(), IS_LENGTH(32), IS_ALPHANUMERIC()]),\n\tField(\'username\', length=32, unique = True, requires = [IS_NOT_EMPTY(), IS_LENGTH(32), IS_ALPHANUMERIC()]),\n\tField(\'email\', length=128, unique = True, default=\'\', requires = [IS_EMAIL(), IS_NOT_EMPTY()]),\n\tField(\'password\', \'password\', readable=False, label=\'Password\', requires=CRYPT(digest_alg=\'sha512\')), \n\tField(\'registration_key\', length=128,\n\twritable=False, readable=False, default=\'\'))\n\t\ndb.define_table(\'users\',\n\tField(\'first_name\', requires = [IS_NOT_EMPTY(), IS_LENGTH(32), IS_ALPHANUMERIC()]),\n\tField(\'last_name\', requires = [IS_NOT_EMPTY(), IS_LENGTH(32), IS_ALPHANUMERIC()]),\n\tField(\'username\', length=32, readable=False),\n\tField(\'email\', length=128,default=\'\', writable=False)\n\ndb.define_table(\'message\',\n    Field(\'sender\', length=32, requires = [IS_NOT_EMPTY(), IS_LENGTH(32), IS_ALPHANUMERIC()] ),\n    Field(\'reciever\', length=32, requires = [IS_NOT_EMPTY(), IS_LENGTH(32), IS_ALPHANUMERIC()] )\n\t)\n'
p7
sS'snapshot'
p8
(dp9
S'exception'
p10
(dp11
S'__getslice__'
p12
S"<method-wrapper '__getslice__' of exceptions.SyntaxError object>"
p13
sS'text'
p14
S'"db.define_table(\'message\',\\n"'
p15
sS'__str__'
p16
S"<method-wrapper '__str__' of exceptions.SyntaxError object>"
p17
sS'__reduce__'
p18
S'<built-in method __reduce__ of exceptions.SyntaxError object>'
p19
sS'__dict__'
p20
S'{}'
p21
sS'__sizeof__'
p22
S'<built-in method __sizeof__ of exceptions.SyntaxError object>'
p23
sS'__init__'
p24
S"<method-wrapper '__init__' of exceptions.SyntaxError object>"
p25
sS'__setattr__'
p26
S"<method-wrapper '__setattr__' of exceptions.SyntaxError object>"
p27
sS'__reduce_ex__'
p28
S'<built-in method __reduce_ex__ of exceptions.SyntaxError object>'
p29
sS'__new__'
p30
S'<built-in method __new__ of type object>'
p31
sS'__format__'
p32
S'<built-in method __format__ of exceptions.SyntaxError object>'
p33
sS'__class__'
p34
S"<type 'exceptions.SyntaxError'>"
p35
sS'filename'
p36
S"'/home/enigma/web2py/applications/911_signin/models/db.py'"
p37
sS'lineno'
p38
S'98'
p39
sS'msg'
p40
S"'invalid syntax'"
p41
sS'__doc__'
p42
S"'Invalid syntax.'"
p43
sS'__getitem__'
p44
S"<method-wrapper '__getitem__' of exceptions.SyntaxError object>"
p45
sS'__setstate__'
p46
S'<built-in method __setstate__ of exceptions.SyntaxError object>'
p47
sS'__getattribute__'
p48
S"<method-wrapper '__getattribute__' of exceptions.SyntaxError object>"
p49
sS'print_file_and_line'
p50
S'None'
p51
sS'args'
p52
S'(\'invalid syntax\', (\'/home/enigma/web2py/applications/911_signin/models/db.py\', 98, 2, "db.define_table(\'message\',\\n"))'
p53
sS'__subclasshook__'
p54
S'<built-in method __subclasshook__ of type object>'
p55
sS'offset'
p56
S'2'
sS'__unicode__'
p57
S'<built-in method __unicode__ of exceptions.SyntaxError object>'
p58
sS'__delattr__'
p59
S"<method-wrapper '__delattr__' of exceptions.SyntaxError object>"
p60
sS'__repr__'
p61
S"<method-wrapper '__repr__' of exceptions.SyntaxError object>"
p62
sS'__hash__'
p63
S"<method-wrapper '__hash__' of exceptions.SyntaxError object>"
p64
ssS'evalue'
p65
S'invalid syntax (db.py, line 98)'
p66
sS'request'
p67
ccopy_reg
_reconstructor
p68
(cgluon.html
BEAUTIFY
p69
c__builtin__
object
p70
NtRp71
(dp72
S'attributes'
p73
(dp74
sS'components'
p75
(lp76
g68
(cgluon.html
TABLE
p77
g70
NtRp78
(dp79
g73
(dp80
S'level'
p81
I5
ssS'parent'
p82
Nsg75
(lp83
g68
(cgluon.html
TR
p84
g70
NtRp85
(dp86
g73
(dp87
sg82
g78
sg75
(lp88
g68
(cgluon.html
TD
p89
g70
NtRp90
(dp91
g73
(dp92
S'_style'
p93
S'font-weight:bold;vertical-align:top'
p94
ssg82
g85
sg75
(lp95
S'ajax'
p96
asbag68
(g89
g70
NtRp97
(dp98
g73
(dp99
S'_valign'
p100
S'top'
p101
ssg82
g85
sg75
(lp102
S':'
asbag68
(g89
g70
NtRp103
(dp104
g73
(dp105
sg82
g85
sg75
(lp106
g68
(g69
g70
NtRp107
(dp108
g73
(dp109
g81
I5
ssg82
g103
sg75
(lp110
S'False'
p111
asbasbasbag68
(g84
g70
NtRp112
(dp113
g73
(dp114
sg82
g78
sg75
(lp115
g68
(g89
g70
NtRp116
(dp117
g73
(dp118
g93
g94
ssg82
g112
sg75
(lp119
S'application'
p120
asbag68
(g89
g70
NtRp121
(dp122
g73
(dp123
g100
g101
ssg82
g112
sg75
(lp124
S':'
asbag68
(g89
g70
NtRp125
(dp126
g73
(dp127
sg82
g112
sg75
(lp128
g68
(g69
g70
NtRp129
(dp130
g73
(dp131
g81
I5
ssg82
g125
sg75
(lp132
S'911_signin'
p133
asbasbasbag68
(g84
g70
NtRp134
(dp135
g73
(dp136
sg82
g78
sg75
(lp137
g68
(g89
g70
NtRp138
(dp139
g73
(dp140
g93
g94
ssg82
g134
sg75
(lp141
g52
asbag68
(g89
g70
NtRp142
(dp143
g73
(dp144
g100
g101
ssg82
g134
sg75
(lp145
S':'
asbag68
(g89
g70
NtRp146
(dp147
g73
(dp148
sg82
g134
sg75
(lp149
g68
(g69
g70
NtRp150
(dp151
g73
(dp152
g81
I5
ssg82
g146
sg75
(lp153
g68
(g77
g70
NtRp154
(dp155
g73
(dp156
g81
I4
ssg82
Nsg75
(lp157
sbasbasbasbag68
(g84
g70
NtRp158
(dp159
g73
(dp160
sg82
g78
sg75
(lp161
g68
(g89
g70
NtRp162
(dp163
g73
(dp164
g93
g94
ssg82
g158
sg75
(lp165
S'body'
p166
asbag68
(g89
g70
NtRp167
(dp168
g73
(dp169
g100
g101
ssg82
g158
sg75
(lp170
S':'
asbag68
(g89
g70
NtRp171
(dp172
g73
(dp173
sg82
g158
sg75
(lp174
g68
(g69
g70
NtRp175
(dp176
g73
(dp177
g81
I5
ssg82
g171
sg75
(lp178
S'<cStringIO.StringO object at 0xad7711e0>'
p179
asbasbasbag68
(g84
g70
NtRp180
(dp181
g73
(dp182
sg82
g78
sg75
(lp183
g68
(g89
g70
NtRp184
(dp185
g73
(dp186
g93
g94
ssg82
g180
sg75
(lp187
S'client'
p188
asbag68
(g89
g70
NtRp189
(dp190
g73
(dp191
g100
g101
ssg82
g180
sg75
(lp192
S':'
asbag68
(g89
g70
NtRp193
(dp194
g73
(dp195
sg82
g180
sg75
(lp196
g68
(g69
g70
NtRp197
(dp198
g73
(dp199
g81
I5
ssg82
g193
sg75
(lp200
S'127.0.0.1'
p201
asbasbasbag68
(g84
g70
NtRp202
(dp203
g73
(dp204
sg82
g78
sg75
(lp205
g68
(g89
g70
NtRp206
(dp207
g73
(dp208
g93
g94
ssg82
g202
sg75
(lp209
S'controller'
p210
asbag68
(g89
g70
NtRp211
(dp212
g73
(dp213
g100
g101
ssg82
g202
sg75
(lp214
S':'
asbag68
(g89
g70
NtRp215
(dp216
g73
(dp217
sg82
g202
sg75
(lp218
g68
(g69
g70
NtRp219
(dp220
g73
(dp221
g81
I5
ssg82
g215
sg75
(lp222
S'default'
p223
asbasbasbag68
(g84
g70
NtRp224
(dp225
g73
(dp226
sg82
g78
sg75
(lp227
g68
(g89
g70
NtRp228
(dp229
g73
(dp230
g93
g94
ssg82
g224
sg75
(lp231
S'cookies'
p232
asbag68
(g89
g70
NtRp233
(dp234
g73
(dp235
g100
g101
ssg82
g224
sg75
(lp236
S':'
asbag68
(g89
g70
NtRp237
(dp238
g73
(dp239
sg82
g224
sg75
(lp240
g68
(g69
g70
NtRp241
(dp242
g73
(dp243
g81
I5
ssg82
g237
sg75
(lp244
g68
(g77
g70
NtRp245
(dp246
g73
(dp247
g81
I4
ssg82
Nsg75
(lp248
g68
(g84
g70
NtRp249
(dp250
g73
(dp251
sg82
g245
sg75
(lp252
g68
(g89
g70
NtRp253
(dp254
g73
(dp255
g93
g94
ssg82
g249
sg75
(lp256
S'session_id_welcome'
p257
asbag68
(g89
g70
NtRp258
(dp259
g73
(dp260
g100
g101
ssg82
g249
sg75
(lp261
S':'
asbag68
(g89
g70
NtRp262
(dp263
g73
(dp264
sg82
g249
sg75
(lp265
g68
(g69
g70
NtRp266
(dp267
g73
(dp268
g81
I4
ssg82
g262
sg75
(lp269
g68
(g77
g70
NtRp270
(dp271
g73
(dp272
g81
I3
ssg82
Nsg75
(lp273
g68
(g84
g70
NtRp274
(dp275
g73
(dp276
sg82
g270
sg75
(lp277
g68
(g89
g70
NtRp278
(dp279
g73
(dp280
g93
g94
ssg82
g274
sg75
(lp281
S'comment'
p282
asbag68
(g89
g70
NtRp283
(dp284
g73
(dp285
g100
g101
ssg82
g274
sg75
(lp286
S':'
asbag68
(g89
g70
NtRp287
(dp288
g73
(dp289
sg82
g274
sg75
(lp290
g68
(g69
g70
NtRp291
(dp292
g73
(dp293
g81
I3
ssg82
g287
sg75
(lp294
S''
asbasbasbag68
(g84
g70
NtRp295
(dp296
g73
(dp297
sg82
g270
sg75
(lp298
g68
(g89
g70
NtRp299
(dp300
g73
(dp301
g93
g94
ssg82
g295
sg75
(lp302
S'domain'
p303
asbag68
(g89
g70
NtRp304
(dp305
g73
(dp306
g100
g101
ssg82
g295
sg75
(lp307
S':'
asbag68
(g89
g70
NtRp308
(dp309
g73
(dp310
sg82
g295
sg75
(lp311
g68
(g69
g70
NtRp312
(dp313
g73
(dp314
g81
I3
ssg82
g308
sg75
(lp315
S''
asbasbasbag68
(g84
g70
NtRp316
(dp317
g73
(dp318
sg82
g270
sg75
(lp319
g68
(g89
g70
NtRp320
(dp321
g73
(dp322
g93
g94
ssg82
g316
sg75
(lp323
S'expires'
p324
asbag68
(g89
g70
NtRp325
(dp326
g73
(dp327
g100
g101
ssg82
g316
sg75
(lp328
S':'
asbag68
(g89
g70
NtRp329
(dp330
g73
(dp331
sg82
g316
sg75
(lp332
g68
(g69
g70
NtRp333
(dp334
g73
(dp335
g81
I3
ssg82
g329
sg75
(lp336
S''
asbasbasbag68
(g84
g70
NtRp337
(dp338
g73
(dp339
sg82
g270
sg75
(lp340
g68
(g89
g70
NtRp341
(dp342
g73
(dp343
g93
g94
ssg82
g337
sg75
(lp344
S'httponly'
p345
asbag68
(g89
g70
NtRp346
(dp347
g73
(dp348
g100
g101
ssg82
g337
sg75
(lp349
S':'
asbag68
(g89
g70
NtRp350
(dp351
g73
(dp352
sg82
g337
sg75
(lp353
g68
(g69
g70
NtRp354
(dp355
g73
(dp356
g81
I3
ssg82
g350
sg75
(lp357
S''
asbasbasbag68
(g84
g70
NtRp358
(dp359
g73
(dp360
sg82
g270
sg75
(lp361
g68
(g89
g70
NtRp362
(dp363
g73
(dp364
g93
g94
ssg82
g358
sg75
(lp365
S'max-age'
p366
asbag68
(g89
g70
NtRp367
(dp368
g73
(dp369
g100
g101
ssg82
g358
sg75
(lp370
S':'
asbag68
(g89
g70
NtRp371
(dp372
g73
(dp373
sg82
g358
sg75
(lp374
g68
(g69
g70
NtRp375
(dp376
g73
(dp377
g81
I3
ssg82
g371
sg75
(lp378
S''
asbasbasbag68
(g84
g70
NtRp379
(dp380
g73
(dp381
sg82
g270
sg75
(lp382
g68
(g89
g70
NtRp383
(dp384
g73
(dp385
g93
g94
ssg82
g379
sg75
(lp386
S'path'
p387
asbag68
(g89
g70
NtRp388
(dp389
g73
(dp390
g100
g101
ssg82
g379
sg75
(lp391
S':'
asbag68
(g89
g70
NtRp392
(dp393
g73
(dp394
sg82
g379
sg75
(lp395
g68
(g69
g70
NtRp396
(dp397
g73
(dp398
g81
I3
ssg82
g392
sg75
(lp399
S''
asbasbasbag68
(g84
g70
NtRp400
(dp401
g73
(dp402
sg82
g270
sg75
(lp403
g68
(g89
g70
NtRp404
(dp405
g73
(dp406
g93
g94
ssg82
g400
sg75
(lp407
S'secure'
p408
asbag68
(g89
g70
NtRp409
(dp410
g73
(dp411
g100
g101
ssg82
g400
sg75
(lp412
S':'
asbag68
(g89
g70
NtRp413
(dp414
g73
(dp415
sg82
g400
sg75
(lp416
g68
(g69
g70
NtRp417
(dp418
g73
(dp419
g81
I3
ssg82
g413
sg75
(lp420
S''
asbasbasbag68
(g84
g70
NtRp421
(dp422
g73
(dp423
sg82
g270
sg75
(lp424
g68
(g89
g70
NtRp425
(dp426
g73
(dp427
g93
g94
ssg82
g421
sg75
(lp428
S'version'
p429
asbag68
(g89
g70
NtRp430
(dp431
g73
(dp432
g100
g101
ssg82
g421
sg75
(lp433
S':'
asbag68
(g89
g70
NtRp434
(dp435
g73
(dp436
sg82
g421
sg75
(lp437
g68
(g69
g70
NtRp438
(dp439
g73
(dp440
g81
I3
ssg82
g434
sg75
(lp441
S''
asbasbasbasbasbasbasbasbasbasbasbag68
(g84
g70
NtRp442
(dp443
g73
(dp444
sg82
g78
sg75
(lp445
g68
(g89
g70
NtRp446
(dp447
g73
(dp448
g93
g94
ssg82
g442
sg75
(lp449
S'env'
p450
asbag68
(g89
g70
NtRp451
(dp452
g73
(dp453
g100
g101
ssg82
g442
sg75
(lp454
S':'
asbag68
(g89
g70
NtRp455
(dp456
g73
(dp457
sg82
g442
sg75
(lp458
g68
(g69
g70
NtRp459
(dp460
g73
(dp461
g81
I5
ssg82
g455
sg75
(lp462
g68
(g77
g70
NtRp463
(dp464
g73
(dp465
g81
I4
ssg82
Nsg75
(lp466
g68
(g84
g70
NtRp467
(dp468
g73
(dp469
sg82
g463
sg75
(lp470
g68
(g89
g70
NtRp471
(dp472
g73
(dp473
g93
g94
ssg82
g467
sg75
(lp474
S'app_folders'
p475
asbag68
(g89
g70
NtRp476
(dp477
g73
(dp478
g100
g101
ssg82
g467
sg75
(lp479
S':'
asbag68
(g89
g70
NtRp480
(dp481
g73
(dp482
sg82
g467
sg75
(lp483
g68
(g69
g70
NtRp484
(dp485
g73
(dp486
g81
I4
ssg82
g480
sg75
(lp487
S"set(['/home/enigma/web2py/applications/911_signin/', '/home/enigma/web2py/applications/welcome/'])"
p488
asbasbasbag68
(g84
g70
NtRp489
(dp490
g73
(dp491
sg82
g463
sg75
(lp492
g68
(g89
g70
NtRp493
(dp494
g73
(dp495
g93
g94
ssg82
g489
sg75
(lp496
S'applications_parent'
p497
asbag68
(g89
g70
NtRp498
(dp499
g73
(dp500
g100
g101
ssg82
g489
sg75
(lp501
S':'
asbag68
(g89
g70
NtRp502
(dp503
g73
(dp504
sg82
g489
sg75
(lp505
g68
(g69
g70
NtRp506
(dp507
g73
(dp508
g81
I4
ssg82
g502
sg75
(lp509
S'/home/enigma/web2py'
p510
asbasbasbag68
(g84
g70
NtRp511
(dp512
g73
(dp513
sg82
g463
sg75
(lp514
g68
(g89
g70
NtRp515
(dp516
g73
(dp517
g93
g94
ssg82
g511
sg75
(lp518
S'cmd_args'
p519
asbag68
(g89
g70
NtRp520
(dp521
g73
(dp522
g100
g101
ssg82
g511
sg75
(lp523
S':'
asbag68
(g89
g70
NtRp524
(dp525
g73
(dp526
sg82
g511
sg75
(lp527
g68
(g69
g70
NtRp528
(dp529
g73
(dp530
g81
I4
ssg82
g524
sg75
(lp531
g68
(g77
g70
NtRp532
(dp533
g73
(dp534
g81
I3
ssg82
Nsg75
(lp535
sbasbasbasbag68
(g84
g70
NtRp536
(dp537
g73
(dp538
sg82
g463
sg75
(lp539
g68
(g89
g70
NtRp540
(dp541
g73
(dp542
g93
g94
ssg82
g536
sg75
(lp543
S'cmd_options'
p544
asbag68
(g89
g70
NtRp545
(dp546
g73
(dp547
g100
g101
ssg82
g536
sg75
(lp548
S':'
asbag68
(g89
g70
NtRp549
(dp550
g73
(dp551
sg82
g536
sg75
(lp552
g68
(g69
g70
NtRp553
(dp554
g73
(dp555
g81
I4
ssg82
g549
sg75
(lp556
S"<Values at 0x9ff9bcc: {'verbose': False, 'ip': '127.0.0.1', 'shutdown_timeout': 5, 'taskbar': False, 'nocron': False, 'pid_filename': 'httpserver.pid', 'maxthreads': None, 'softcron': False, 'server_name': 'ubuntu', 'bpython': False, 'nogui': False, 'port': 8000, 'extcron': False, 'debuglevel': 30, 'test': None, 'folder': '/home/enigma/web2py', 'config': '', 'import_models': False, 'winservice': '', 'shell': None, 'run': '', 'log_filename': 'httpserver.log', 'args': [''], 'socket_timeout': 5, 'ssl_ca_certificate': None, 'scheduler': None, 'profiler_filename': None, 'ssl_private_key': '', 'password': '<ask>', 'request_queue_size': 5, 'ssl_certificate': '', 'cronjob': False, 'numthreads': None, 'quiet': False, 'interfaces': None, 'minthreads': None, 'timeout': 10, 'plain': False, 'nobanner': False}>"
p557
asbasbasbag68
(g84
g70
NtRp558
(dp559
g73
(dp560
sg82
g463
sg75
(lp561
g68
(g89
g70
NtRp562
(dp563
g73
(dp564
g93
g94
ssg82
g558
sg75
(lp565
S'db_sessions'
p566
asbag68
(g89
g70
NtRp567
(dp568
g73
(dp569
g100
g101
ssg82
g558
sg75
(lp570
S':'
asbag68
(g89
g70
NtRp571
(dp572
g73
(dp573
sg82
g558
sg75
(lp574
g68
(g69
g70
NtRp575
(dp576
g73
(dp577
g81
I4
ssg82
g571
sg75
(lp578
S'set([])'
p579
asbasbasbag68
(g84
g70
NtRp580
(dp581
g73
(dp582
sg82
g463
sg75
(lp583
g68
(g89
g70
NtRp584
(dp585
g73
(dp586
g93
g94
ssg82
g580
sg75
(lp587
S'debugging'
p588
asbag68
(g89
g70
NtRp589
(dp590
g73
(dp591
g100
g101
ssg82
g580
sg75
(lp592
S':'
asbag68
(g89
g70
NtRp593
(dp594
g73
(dp595
sg82
g580
sg75
(lp596
g68
(g69
g70
NtRp597
(dp598
g73
(dp599
g81
I4
ssg82
g593
sg75
(lp600
g111
asbasbasbag68
(g84
g70
NtRp601
(dp602
g73
(dp603
sg82
g463
sg75
(lp604
g68
(g89
g70
NtRp605
(dp606
g73
(dp607
g93
g94
ssg82
g601
sg75
(lp608
S'gluon_parent'
p609
asbag68
(g89
g70
NtRp610
(dp611
g73
(dp612
g100
g101
ssg82
g601
sg75
(lp613
S':'
asbag68
(g89
g70
NtRp614
(dp615
g73
(dp616
sg82
g601
sg75
(lp617
g68
(g69
g70
NtRp618
(dp619
g73
(dp620
g81
I4
ssg82
g614
sg75
(lp621
S'/home/enigma/web2py'
p622
asbasbasbag68
(g84
g70
NtRp623
(dp624
g73
(dp625
sg82
g463
sg75
(lp626
g68
(g89
g70
NtRp627
(dp628
g73
(dp629
g93
g94
ssg82
g623
sg75
(lp630
S'http_accept'
p631
asbag68
(g89
g70
NtRp632
(dp633
g73
(dp634
g100
g101
ssg82
g623
sg75
(lp635
S':'
asbag68
(g89
g70
NtRp636
(dp637
g73
(dp638
sg82
g623
sg75
(lp639
g68
(g69
g70
NtRp640
(dp641
g73
(dp642
g81
I4
ssg82
g636
sg75
(lp643
S'text/html,application/xhtml+xml,application/xml;q=0.9,*/*;q=0.8'
p644
asbasbasbag68
(g84
g70
NtRp645
(dp646
g73
(dp647
sg82
g463
sg75
(lp648
g68
(g89
g70
NtRp649
(dp650
g73
(dp651
g93
g94
ssg82
g645
sg75
(lp652
S'http_accept_charset'
p653
asbag68
(g89
g70
NtRp654
(dp655
g73
(dp656
g100
g101
ssg82
g645
sg75
(lp657
S':'
asbag68
(g89
g70
NtRp658
(dp659
g73
(dp660
sg82
g645
sg75
(lp661
g68
(g69
g70
NtRp662
(dp663
g73
(dp664
g81
I4
ssg82
g658
sg75
(lp665
S'ISO-8859-1,utf-8;q=0.7,*;q=0.3'
p666
asbasbasbag68
(g84
g70
NtRp667
(dp668
g73
(dp669
sg82
g463
sg75
(lp670
g68
(g89
g70
NtRp671
(dp672
g73
(dp673
g93
g94
ssg82
g667
sg75
(lp674
S'http_accept_encoding'
p675
asbag68
(g89
g70
NtRp676
(dp677
g73
(dp678
g100
g101
ssg82
g667
sg75
(lp679
S':'
asbag68
(g89
g70
NtRp680
(dp681
g73
(dp682
sg82
g667
sg75
(lp683
g68
(g69
g70
NtRp684
(dp685
g73
(dp686
g81
I4
ssg82
g680
sg75
(lp687
S'gzip,deflate,sdch'
p688
asbasbasbag68
(g84
g70
NtRp689
(dp690
g73
(dp691
sg82
g463
sg75
(lp692
g68
(g89
g70
NtRp693
(dp694
g73
(dp695
g93
g94
ssg82
g689
sg75
(lp696
S'http_accept_language'
p697
asbag68
(g89
g70
NtRp698
(dp699
g73
(dp700
g100
g101
ssg82
g689
sg75
(lp701
S':'
asbag68
(g89
g70
NtRp702
(dp703
g73
(dp704
sg82
g689
sg75
(lp705
g68
(g69
g70
NtRp706
(dp707
g73
(dp708
g81
I4
ssg82
g702
sg75
(lp709
S'en-US,en;q=0.8'
p710
asbasbasbag68
(g84
g70
NtRp711
(dp712
g73
(dp713
sg82
g463
sg75
(lp714
g68
(g89
g70
NtRp715
(dp716
g73
(dp717
g93
g94
ssg82
g711
sg75
(lp718
S'http_connection'
p719
asbag68
(g89
g70
NtRp720
(dp721
g73
(dp722
g100
g101
ssg82
g711
sg75
(lp723
S':'
asbag68
(g89
g70
NtRp724
(dp725
g73
(dp726
sg82
g711
sg75
(lp727
g68
(g69
g70
NtRp728
(dp729
g73
(dp730
g81
I4
ssg82
g724
sg75
(lp731
S'keep-alive'
p732
asbasbasbag68
(g84
g70
NtRp733
(dp734
g73
(dp735
sg82
g463
sg75
(lp736
g68
(g89
g70
NtRp737
(dp738
g73
(dp739
g93
g94
ssg82
g733
sg75
(lp740
S'http_cookie'
p741
asbag68
(g89
g70
NtRp742
(dp743
g73
(dp744
g100
g101
ssg82
g733
sg75
(lp745
S':'
asbag68
(g89
g70
NtRp746
(dp747
g73
(dp748
sg82
g733
sg75
(lp749
g68
(g69
g70
NtRp750
(dp751
g73
(dp752
g81
I4
ssg82
g746
sg75
(lp753
S'session_id_welcome=127.0.0.1-fcff2b05-f7df-4610-a6e2-f97525f26280'
p754
asbasbasbag68
(g84
g70
NtRp755
(dp756
g73
(dp757
sg82
g463
sg75
(lp758
g68
(g89
g70
NtRp759
(dp760
g73
(dp761
g93
g94
ssg82
g755
sg75
(lp762
S'http_host'
p763
asbag68
(g89
g70
NtRp764
(dp765
g73
(dp766
g100
g101
ssg82
g755
sg75
(lp767
S':'
asbag68
(g89
g70
NtRp768
(dp769
g73
(dp770
sg82
g755
sg75
(lp771
g68
(g69
g70
NtRp772
(dp773
g73
(dp774
g81
I4
ssg82
g768
sg75
(lp775
S'127.0.0.1:8000'
p776
asbasbasbag68
(g84
g70
NtRp777
(dp778
g73
(dp779
sg82
g463
sg75
(lp780
g68
(g89
g70
NtRp781
(dp782
g73
(dp783
g93
g94
ssg82
g777
sg75
(lp784
S'http_user_agent'
p785
asbag68
(g89
g70
NtRp786
(dp787
g73
(dp788
g100
g101
ssg82
g777
sg75
(lp789
S':'
asbag68
(g89
g70
NtRp790
(dp791
g73
(dp792
sg82
g777
sg75
(lp793
g68
(g69
g70
NtRp794
(dp795
g73
(dp796
g81
I4
ssg82
g790
sg75
(lp797
S'Mozilla/5.0 (X11; Linux i686) AppleWebKit/537.31 (KHTML, like Gecko) Chrome/26.0.1410.63 Safari/537.31'
p798
asbasbasbag68
(g84
g70
NtRp799
(dp800
g73
(dp801
sg82
g463
sg75
(lp802
g68
(g89
g70
NtRp803
(dp804
g73
(dp805
g93
g94
ssg82
g799
sg75
(lp806
S'is_jython'
p807
asbag68
(g89
g70
NtRp808
(dp809
g73
(dp810
g100
g101
ssg82
g799
sg75
(lp811
S':'
asbag68
(g89
g70
NtRp812
(dp813
g73
(dp814
sg82
g799
sg75
(lp815
g68
(g69
g70
NtRp816
(dp817
g73
(dp818
g81
I4
ssg82
g812
sg75
(lp819
g111
asbasbasbag68
(g84
g70
NtRp820
(dp821
g73
(dp822
sg82
g463
sg75
(lp823
g68
(g89
g70
NtRp824
(dp825
g73
(dp826
g93
g94
ssg82
g820
sg75
(lp827
S'is_pypy'
p828
asbag68
(g89
g70
NtRp829
(dp830
g73
(dp831
g100
g101
ssg82
g820
sg75
(lp832
S':'
asbag68
(g89
g70
NtRp833
(dp834
g73
(dp835
sg82
g820
sg75
(lp836
g68
(g69
g70
NtRp837
(dp838
g73
(dp839
g81
I4
ssg82
g833
sg75
(lp840
g111
asbasbasbag68
(g84
g70
NtRp841
(dp842
g73
(dp843
sg82
g463
sg75
(lp844
g68
(g89
g70
NtRp845
(dp846
g73
(dp847
g93
g94
ssg82
g841
sg75
(lp848
S'path_info'
p849
asbag68
(g89
g70
NtRp850
(dp851
g73
(dp852
g100
g101
ssg82
g841
sg75
(lp853
S':'
asbag68
(g89
g70
NtRp854
(dp855
g73
(dp856
sg82
g841
sg75
(lp857
g68
(g69
g70
NtRp858
(dp859
g73
(dp860
g81
I4
ssg82
g854
sg75
(lp861
S'/911_signin'
p862
asbasbasbag68
(g84
g70
NtRp863
(dp864
g73
(dp865
sg82
g463
sg75
(lp866
g68
(g89
g70
NtRp867
(dp868
g73
(dp869
g93
g94
ssg82
g863
sg75
(lp870
S'query_string'
p871
asbag68
(g89
g70
NtRp872
(dp873
g73
(dp874
g100
g101
ssg82
g863
sg75
(lp875
S':'
asbag68
(g89
g70
NtRp876
(dp877
g73
(dp878
sg82
g863
sg75
(lp879
g68
(g69
g70
NtRp880
(dp881
g73
(dp882
g81
I4
ssg82
g876
sg75
(lp883
S''
asbasbasbag68
(g84
g70
NtRp884
(dp885
g73
(dp886
sg82
g463
sg75
(lp887
g68
(g89
g70
NtRp888
(dp889
g73
(dp890
g93
g94
ssg82
g884
sg75
(lp891
S'remote_addr'
p892
asbag68
(g89
g70
NtRp893
(dp894
g73
(dp895
g100
g101
ssg82
g884
sg75
(lp896
S':'
asbag68
(g89
g70
NtRp897
(dp898
g73
(dp899
sg82
g884
sg75
(lp900
g68
(g69
g70
NtRp901
(dp902
g73
(dp903
g81
I4
ssg82
g897
sg75
(lp904
g201
asbasbasbag68
(g84
g70
NtRp905
(dp906
g73
(dp907
sg82
g463
sg75
(lp908
g68
(g89
g70
NtRp909
(dp910
g73
(dp911
g93
g94
ssg82
g905
sg75
(lp912
S'remote_port'
p913
asbag68
(g89
g70
NtRp914
(dp915
g73
(dp916
g100
g101
ssg82
g905
sg75
(lp917
S':'
asbag68
(g89
g70
NtRp918
(dp919
g73
(dp920
sg82
g905
sg75
(lp921
g68
(g69
g70
NtRp922
(dp923
g73
(dp924
g81
I4
ssg82
g918
sg75
(lp925
S'32981'
p926
asbasbasbag68
(g84
g70
NtRp927
(dp928
g73
(dp929
sg82
g463
sg75
(lp930
g68
(g89
g70
NtRp931
(dp932
g73
(dp933
g93
g94
ssg82
g927
sg75
(lp934
S'request_method'
p935
asbag68
(g89
g70
NtRp936
(dp937
g73
(dp938
g100
g101
ssg82
g927
sg75
(lp939
S':'
asbag68
(g89
g70
NtRp940
(dp941
g73
(dp942
sg82
g927
sg75
(lp943
g68
(g69
g70
NtRp944
(dp945
g73
(dp946
g81
I4
ssg82
g940
sg75
(lp947
S'GET'
p948
asbasbasbag68
(g84
g70
NtRp949
(dp950
g73
(dp951
sg82
g463
sg75
(lp952
g68
(g89
g70
NtRp953
(dp954
g73
(dp955
g93
g94
ssg82
g949
sg75
(lp956
S'script_name'
p957
asbag68
(g89
g70
NtRp958
(dp959
g73
(dp960
g100
g101
ssg82
g949
sg75
(lp961
S':'
asbag68
(g89
g70
NtRp962
(dp963
g73
(dp964
sg82
g949
sg75
(lp965
g68
(g69
g70
NtRp966
(dp967
g73
(dp968
g81
I4
ssg82
g962
sg75
(lp969
S''
asbasbasbag68
(g84
g70
NtRp970
(dp971
g73
(dp972
sg82
g463
sg75
(lp973
g68
(g89
g70
NtRp974
(dp975
g73
(dp976
g93
g94
ssg82
g970
sg75
(lp977
S'server_name'
p978
asbag68
(g89
g70
NtRp979
(dp980
g73
(dp981
g100
g101
ssg82
g970
sg75
(lp982
S':'
asbag68
(g89
g70
NtRp983
(dp984
g73
(dp985
sg82
g970
sg75
(lp986
g68
(g69
g70
NtRp987
(dp988
g73
(dp989
g81
I4
ssg82
g983
sg75
(lp990
S'ubuntu'
p991
asbasbasbag68
(g84
g70
NtRp992
(dp993
g73
(dp994
sg82
g463
sg75
(lp995
g68
(g89
g70
NtRp996
(dp997
g73
(dp998
g93
g94
ssg82
g992
sg75
(lp999
S'server_port'
p1000
asbag68
(g89
g70
NtRp1001
(dp1002
g73
(dp1003
g100
g101
ssg82
g992
sg75
(lp1004
S':'
asbag68
(g89
g70
NtRp1005
(dp1006
g73
(dp1007
sg82
g992
sg75
(lp1008
g68
(g69
g70
NtRp1009
(dp1010
g73
(dp1011
g81
I4
ssg82
g1005
sg75
(lp1012
S'8000'
p1013
asbasbasbag68
(g84
g70
NtRp1014
(dp1015
g73
(dp1016
sg82
g463
sg75
(lp1017
g68
(g89
g70
NtRp1018
(dp1019
g73
(dp1020
g93
g94
ssg82
g1014
sg75
(lp1021
S'server_protocol'
p1022
asbag68
(g89
g70
NtRp1023
(dp1024
g73
(dp1025
g100
g101
ssg82
g1014
sg75
(lp1026
S':'
asbag68
(g89
g70
NtRp1027
(dp1028
g73
(dp1029
sg82
g1014
sg75
(lp1030
g68
(g69
g70
NtRp1031
(dp1032
g73
(dp1033
g81
I4
ssg82
g1027
sg75
(lp1034
S'HTTP/1.1'
p1035
asbasbasbag68
(g84
g70
NtRp1036
(dp1037
g73
(dp1038
sg82
g463
sg75
(lp1039
g68
(g89
g70
NtRp1040
(dp1041
g73
(dp1042
g93
g94
ssg82
g1036
sg75
(lp1043
S'server_software'
p1044
asbag68
(g89
g70
NtRp1045
(dp1046
g73
(dp1047
g100
g101
ssg82
g1036
sg75
(lp1048
S':'
asbag68
(g89
g70
NtRp1049
(dp1050
g73
(dp1051
sg82
g1036
sg75
(lp1052
g68
(g69
g70
NtRp1053
(dp1054
g73
(dp1055
g81
I4
ssg82
g1049
sg75
(lp1056
S'Rocket 1.2.4'
p1057
asbasbasbag68
(g84
g70
NtRp1058
(dp1059
g73
(dp1060
sg82
g463
sg75
(lp1061
g68
(g89
g70
NtRp1062
(dp1063
g73
(dp1064
g93
g94
ssg82
g1058
sg75
(lp1065
S'web2py_crontype'
p1066
asbag68
(g89
g70
NtRp1067
(dp1068
g73
(dp1069
g100
g101
ssg82
g1058
sg75
(lp1070
S':'
asbag68
(g89
g70
NtRp1071
(dp1072
g73
(dp1073
sg82
g1058
sg75
(lp1074
g68
(g69
g70
NtRp1075
(dp1076
g73
(dp1077
g81
I4
ssg82
g1071
sg75
(lp1078
S'hard'
p1079
asbasbasbag68
(g84
g70
NtRp1080
(dp1081
g73
(dp1082
sg82
g463
sg75
(lp1083
g68
(g89
g70
NtRp1084
(dp1085
g73
(dp1086
g93
g94
ssg82
g1080
sg75
(lp1087
S'web2py_path'
p1088
asbag68
(g89
g70
NtRp1089
(dp1090
g73
(dp1091
g100
g101
ssg82
g1080
sg75
(lp1092
S':'
asbag68
(g89
g70
NtRp1093
(dp1094
g73
(dp1095
sg82
g1080
sg75
(lp1096
g68
(g69
g70
NtRp1097
(dp1098
g73
(dp1099
g81
I4
ssg82
g1093
sg75
(lp1100
g510
asbasbasbag68
(g84
g70
NtRp1101
(dp1102
g73
(dp1103
sg82
g463
sg75
(lp1104
g68
(g89
g70
NtRp1105
(dp1106
g73
(dp1107
g93
g94
ssg82
g1101
sg75
(lp1108
S'web2py_version'
p1109
asbag68
(g89
g70
NtRp1110
(dp1111
g73
(dp1112
g100
g101
ssg82
g1101
sg75
(lp1113
S':'
asbag68
(g89
g70
NtRp1114
(dp1115
g73
(dp1116
sg82
g1101
sg75
(lp1117
g68
(g69
g70
NtRp1118
(dp1119
g73
(dp1120
g81
I4
ssg82
g1114
sg75
(lp1121
g68
(g77
g70
NtRp1122
(dp1123
g73
(dp1124
g81
I3
ssg82
Nsg75
(lp1125
g68
(g84
g70
NtRp1126
(dp1127
g73
(dp1128
sg82
g1122
sg75
(lp1129
g68
(g89
g70
NtRp1130
(dp1131
g73
(dp1132
sg82
g1126
sg75
(lp1133
g68
(g69
g70
NtRp1134
(dp1135
g73
(dp1136
g81
I3
ssg82
g1130
sg75
(lp1137
S'1'
asbasbasbag68
(g84
g70
NtRp1138
(dp1139
g73
(dp1140
sg82
g1122
sg75
(lp1141
g68
(g89
g70
NtRp1142
(dp1143
g73
(dp1144
sg82
g1138
sg75
(lp1145
g68
(g69
g70
NtRp1146
(dp1147
g73
(dp1148
g81
I3
ssg82
g1142
sg75
(lp1149
S'99'
p1150
asbasbasbag68
(g84
g70
NtRp1151
(dp1152
g73
(dp1153
sg82
g1122
sg75
(lp1154
g68
(g89
g70
NtRp1155
(dp1156
g73
(dp1157
sg82
g1151
sg75
(lp1158
g68
(g69
g70
NtRp1159
(dp1160
g73
(dp1161
g81
I3
ssg82
g1155
sg75
(lp1162
S'7'
asbasbasbag68
(g84
g70
NtRp1163
(dp1164
g73
(dp1165
sg82
g1122
sg75
(lp1166
g68
(g89
g70
NtRp1167
(dp1168
g73
(dp1169
sg82
g1163
sg75
(lp1170
g68
(g69
g70
NtRp1171
(dp1172
g73
(dp1173
g81
I3
ssg82
g1167
sg75
(lp1174
S'datetime.datetime(2012, 3, 4, 22, 12, 8)'
p1175
asbasbasbag68
(g84
g70
NtRp1176
(dp1177
g73
(dp1178
sg82
g1122
sg75
(lp1179
g68
(g89
g70
NtRp1180
(dp1181
g73
(dp1182
sg82
g1176
sg75
(lp1183
g68
(g69
g70
NtRp1184
(dp1185
g73
(dp1186
g81
I3
ssg82
g1180
sg75
(lp1187
S'stable'
p1188
asbasbasbasbasbasbasbag68
(g84
g70
NtRp1189
(dp1190
g73
(dp1191
sg82
g463
sg75
(lp1192
g68
(g89
g70
NtRp1193
(dp1194
g73
(dp1195
g93
g94
ssg82
g1189
sg75
(lp1196
S'wsgi_errors'
p1197
asbag68
(g89
g70
NtRp1198
(dp1199
g73
(dp1200
g100
g101
ssg82
g1189
sg75
(lp1201
S':'
asbag68
(g89
g70
NtRp1202
(dp1203
g73
(dp1204
sg82
g1189
sg75
(lp1205
g68
(g69
g70
NtRp1206
(dp1207
g73
(dp1208
g81
I4
ssg82
g1202
sg75
(lp1209
S"<open file '<stderr>', mode 'w' at 0xb73580d0>"
p1210
asbasbasbag68
(g84
g70
NtRp1211
(dp1212
g73
(dp1213
sg82
g463
sg75
(lp1214
g68
(g89
g70
NtRp1215
(dp1216
g73
(dp1217
g93
g94
ssg82
g1211
sg75
(lp1218
S'wsgi_file_wrapper'
p1219
asbag68
(g89
g70
NtRp1220
(dp1221
g73
(dp1222
g100
g101
ssg82
g1211
sg75
(lp1223
S':'
asbag68
(g89
g70
NtRp1224
(dp1225
g73
(dp1226
sg82
g1211
sg75
(lp1227
g68
(g69
g70
NtRp1228
(dp1229
g73
(dp1230
g81
I4
ssg82
g1224
sg75
(lp1231
S'<class wsgiref.util.FileWrapper at 0x9f3ae9c>'
p1232
asbasbasbag68
(g84
g70
NtRp1233
(dp1234
g73
(dp1235
sg82
g463
sg75
(lp1236
g68
(g89
g70
NtRp1237
(dp1238
g73
(dp1239
g93
g94
ssg82
g1233
sg75
(lp1240
S'wsgi_input'
p1241
asbag68
(g89
g70
NtRp1242
(dp1243
g73
(dp1244
g100
g101
ssg82
g1233
sg75
(lp1245
S':'
asbag68
(g89
g70
NtRp1246
(dp1247
g73
(dp1248
sg82
g1233
sg75
(lp1249
g68
(g69
g70
NtRp1250
(dp1251
g73
(dp1252
g81
I4
ssg82
g1246
sg75
(lp1253
S'<socket._fileobject object at 0xad71cd2c>'
p1254
asbasbasbag68
(g84
g70
NtRp1255
(dp1256
g73
(dp1257
sg82
g463
sg75
(lp1258
g68
(g89
g70
NtRp1259
(dp1260
g73
(dp1261
g93
g94
ssg82
g1255
sg75
(lp1262
S'wsgi_multiprocess'
p1263
asbag68
(g89
g70
NtRp1264
(dp1265
g73
(dp1266
g100
g101
ssg82
g1255
sg75
(lp1267
S':'
asbag68
(g89
g70
NtRp1268
(dp1269
g73
(dp1270
sg82
g1255
sg75
(lp1271
g68
(g69
g70
NtRp1272
(dp1273
g73
(dp1274
g81
I4
ssg82
g1268
sg75
(lp1275
g111
asbasbasbag68
(g84
g70
NtRp1276
(dp1277
g73
(dp1278
sg82
g463
sg75
(lp1279
g68
(g89
g70
NtRp1280
(dp1281
g73
(dp1282
g93
g94
ssg82
g1276
sg75
(lp1283
S'wsgi_multithread'
p1284
asbag68
(g89
g70
NtRp1285
(dp1286
g73
(dp1287
g100
g101
ssg82
g1276
sg75
(lp1288
S':'
asbag68
(g89
g70
NtRp1289
(dp1290
g73
(dp1291
sg82
g1276
sg75
(lp1292
g68
(g69
g70
NtRp1293
(dp1294
g73
(dp1295
g81
I4
ssg82
g1289
sg75
(lp1296
S'True'
p1297
asbasbasbag68
(g84
g70
NtRp1298
(dp1299
g73
(dp1300
sg82
g463
sg75
(lp1301
g68
(g89
g70
NtRp1302
(dp1303
g73
(dp1304
g93
g94
ssg82
g1298
sg75
(lp1305
S'wsgi_run_once'
p1306
asbag68
(g89
g70
NtRp1307
(dp1308
g73
(dp1309
g100
g101
ssg82
g1298
sg75
(lp1310
S':'
asbag68
(g89
g70
NtRp1311
(dp1312
g73
(dp1313
sg82
g1298
sg75
(lp1314
g68
(g69
g70
NtRp1315
(dp1316
g73
(dp1317
g81
I4
ssg82
g1311
sg75
(lp1318
g111
asbasbasbag68
(g84
g70
NtRp1319
(dp1320
g73
(dp1321
sg82
g463
sg75
(lp1322
g68
(g89
g70
NtRp1323
(dp1324
g73
(dp1325
g93
g94
ssg82
g1319
sg75
(lp1326
S'wsgi_url_scheme'
p1327
asbag68
(g89
g70
NtRp1328
(dp1329
g73
(dp1330
g100
g101
ssg82
g1319
sg75
(lp1331
S':'
asbag68
(g89
g70
NtRp1332
(dp1333
g73
(dp1334
sg82
g1319
sg75
(lp1335
g68
(g69
g70
NtRp1336
(dp1337
g73
(dp1338
g81
I4
ssg82
g1332
sg75
(lp1339
S'http'
p1340
asbasbasbag68
(g84
g70
NtRp1341
(dp1342
g73
(dp1343
sg82
g463
sg75
(lp1344
g68
(g89
g70
NtRp1345
(dp1346
g73
(dp1347
g93
g94
ssg82
g1341
sg75
(lp1348
S'wsgi_version'
p1349
asbag68
(g89
g70
NtRp1350
(dp1351
g73
(dp1352
g100
g101
ssg82
g1341
sg75
(lp1353
S':'
asbag68
(g89
g70
NtRp1354
(dp1355
g73
(dp1356
sg82
g1341
sg75
(lp1357
g68
(g69
g70
NtRp1358
(dp1359
g73
(dp1360
g81
I4
ssg82
g1354
sg75
(lp1361
g68
(g77
g70
NtRp1362
(dp1363
g73
(dp1364
g81
I3
ssg82
Nsg75
(lp1365
g68
(g84
g70
NtRp1366
(dp1367
g73
(dp1368
sg82
g1362
sg75
(lp1369
g68
(g89
g70
NtRp1370
(dp1371
g73
(dp1372
sg82
g1366
sg75
(lp1373
g68
(g69
g70
NtRp1374
(dp1375
g73
(dp1376
g81
I3
ssg82
g1370
sg75
(lp1377
S'1'
asbasbasbag68
(g84
g70
NtRp1378
(dp1379
g73
(dp1380
sg82
g1362
sg75
(lp1381
g68
(g89
g70
NtRp1382
(dp1383
g73
(dp1384
sg82
g1378
sg75
(lp1385
g68
(g69
g70
NtRp1386
(dp1387
g73
(dp1388
g81
I3
ssg82
g1382
sg75
(lp1389
S'0'
asbasbasbasbasbasbasbasbasbasbasbag68
(g84
g70
NtRp1390
(dp1391
g73
(dp1392
sg82
g78
sg75
(lp1393
g68
(g89
g70
NtRp1394
(dp1395
g73
(dp1396
g93
g94
ssg82
g1390
sg75
(lp1397
S'extension'
p1398
asbag68
(g89
g70
NtRp1399
(dp1400
g73
(dp1401
g100
g101
ssg82
g1390
sg75
(lp1402
S':'
asbag68
(g89
g70
NtRp1403
(dp1404
g73
(dp1405
sg82
g1390
sg75
(lp1406
g68
(g69
g70
NtRp1407
(dp1408
g73
(dp1409
g81
I5
ssg82
g1403
sg75
(lp1410
S'html'
p1411
asbasbasbag68
(g84
g70
NtRp1412
(dp1413
g73
(dp1414
sg82
g78
sg75
(lp1415
g68
(g89
g70
NtRp1416
(dp1417
g73
(dp1418
g93
g94
ssg82
g1412
sg75
(lp1419
S'folder'
p1420
asbag68
(g89
g70
NtRp1421
(dp1422
g73
(dp1423
g100
g101
ssg82
g1412
sg75
(lp1424
S':'
asbag68
(g89
g70
NtRp1425
(dp1426
g73
(dp1427
sg82
g1412
sg75
(lp1428
g68
(g69
g70
NtRp1429
(dp1430
g73
(dp1431
g81
I5
ssg82
g1425
sg75
(lp1432
S'/home/enigma/web2py/applications/911_signin/'
p1433
asbasbasbag68
(g84
g70
NtRp1434
(dp1435
g73
(dp1436
sg82
g78
sg75
(lp1437
g68
(g89
g70
NtRp1438
(dp1439
g73
(dp1440
g93
g94
ssg82
g1434
sg75
(lp1441
S'function'
p1442
asbag68
(g89
g70
NtRp1443
(dp1444
g73
(dp1445
g100
g101
ssg82
g1434
sg75
(lp1446
S':'
asbag68
(g89
g70
NtRp1447
(dp1448
g73
(dp1449
sg82
g1434
sg75
(lp1450
g68
(g69
g70
NtRp1451
(dp1452
g73
(dp1453
g81
I5
ssg82
g1447
sg75
(lp1454
S'index'
p1455
asbasbasbag68
(g84
g70
NtRp1456
(dp1457
g73
(dp1458
sg82
g78
sg75
(lp1459
g68
(g89
g70
NtRp1460
(dp1461
g73
(dp1462
g93
g94
ssg82
g1456
sg75
(lp1463
S'get_vars'
p1464
asbag68
(g89
g70
NtRp1465
(dp1466
g73
(dp1467
g100
g101
ssg82
g1456
sg75
(lp1468
S':'
asbag68
(g89
g70
NtRp1469
(dp1470
g73
(dp1471
sg82
g1456
sg75
(lp1472
g68
(g69
g70
NtRp1473
(dp1474
g73
(dp1475
g81
I5
ssg82
g1469
sg75
(lp1476
g68
(g77
g70
NtRp1477
(dp1478
g73
(dp1479
g81
I4
ssg82
Nsg75
(lp1480
sbasbasbasbag68
(g84
g70
NtRp1481
(dp1482
g73
(dp1483
sg82
g78
sg75
(lp1484
g68
(g89
g70
NtRp1485
(dp1486
g73
(dp1487
g93
g94
ssg82
g1481
sg75
(lp1488
S'global_settings'
p1489
asbag68
(g89
g70
NtRp1490
(dp1491
g73
(dp1492
g100
g101
ssg82
g1481
sg75
(lp1493
S':'
asbag68
(g89
g70
NtRp1494
(dp1495
g73
(dp1496
sg82
g1481
sg75
(lp1497
g68
(g69
g70
NtRp1498
(dp1499
g73
(dp1500
g81
I5
ssg82
g1494
sg75
(lp1501
g68
(g77
g70
NtRp1502
(dp1503
g73
(dp1504
g81
I4
ssg82
Nsg75
(lp1505
g68
(g84
g70
NtRp1506
(dp1507
g73
(dp1508
sg82
g1502
sg75
(lp1509
g68
(g89
g70
NtRp1510
(dp1511
g73
(dp1512
g93
g94
ssg82
g1506
sg75
(lp1513
g475
asbag68
(g89
g70
NtRp1514
(dp1515
g73
(dp1516
g100
g101
ssg82
g1506
sg75
(lp1517
S':'
asbag68
(g89
g70
NtRp1518
(dp1519
g73
(dp1520
sg82
g1506
sg75
(lp1521
g68
(g69
g70
NtRp1522
(dp1523
g73
(dp1524
g81
I4
ssg82
g1518
sg75
(lp1525
S"set(['/home/enigma/web2py/applications/911_signin/', '/home/enigma/web2py/applications/welcome/'])"
p1526
asbasbasbag68
(g84
g70
NtRp1527
(dp1528
g73
(dp1529
sg82
g1502
sg75
(lp1530
g68
(g89
g70
NtRp1531
(dp1532
g73
(dp1533
g93
g94
ssg82
g1527
sg75
(lp1534
g497
asbag68
(g89
g70
NtRp1535
(dp1536
g73
(dp1537
g100
g101
ssg82
g1527
sg75
(lp1538
S':'
asbag68
(g89
g70
NtRp1539
(dp1540
g73
(dp1541
sg82
g1527
sg75
(lp1542
g68
(g69
g70
NtRp1543
(dp1544
g73
(dp1545
g81
I4
ssg82
g1539
sg75
(lp1546
g510
asbasbasbag68
(g84
g70
NtRp1547
(dp1548
g73
(dp1549
sg82
g1502
sg75
(lp1550
g68
(g89
g70
NtRp1551
(dp1552
g73
(dp1553
g93
g94
ssg82
g1547
sg75
(lp1554
g519
asbag68
(g89
g70
NtRp1555
(dp1556
g73
(dp1557
g100
g101
ssg82
g1547
sg75
(lp1558
S':'
asbag68
(g89
g70
NtRp1559
(dp1560
g73
(dp1561
sg82
g1547
sg75
(lp1562
g68
(g69
g70
NtRp1563
(dp1564
g73
(dp1565
g81
I4
ssg82
g1559
sg75
(lp1566
g68
(g77
g70
NtRp1567
(dp1568
g73
(dp1569
g81
I3
ssg82
Nsg75
(lp1570
sbasbasbasbag68
(g84
g70
NtRp1571
(dp1572
g73
(dp1573
sg82
g1502
sg75
(lp1574
g68
(g89
g70
NtRp1575
(dp1576
g73
(dp1577
g93
g94
ssg82
g1571
sg75
(lp1578
g544
asbag68
(g89
g70
NtRp1579
(dp1580
g73
(dp1581
g100
g101
ssg82
g1571
sg75
(lp1582
S':'
asbag68
(g89
g70
NtRp1583
(dp1584
g73
(dp1585
sg82
g1571
sg75
(lp1586
g68
(g69
g70
NtRp1587
(dp1588
g73
(dp1589
g81
I4
ssg82
g1583
sg75
(lp1590
S"<Values at 0x9ff9bcc: {'verbose': False, 'ip': '127.0.0.1', 'shutdown_timeout': 5, 'taskbar': False, 'nocron': False, 'pid_filename': 'httpserver.pid', 'maxthreads': None, 'softcron': False, 'server_name': 'ubuntu', 'bpython': False, 'nogui': False, 'port': 8000, 'extcron': False, 'debuglevel': 30, 'test': None, 'folder': '/home/enigma/web2py', 'config': '', 'import_models': False, 'winservice': '', 'shell': None, 'run': '', 'log_filename': 'httpserver.log', 'args': [''], 'socket_timeout': 5, 'ssl_ca_certificate': None, 'scheduler': None, 'profiler_filename': None, 'ssl_private_key': '', 'password': '<ask>', 'request_queue_size': 5, 'ssl_certificate': '', 'cronjob': False, 'numthreads': None, 'quiet': False, 'interfaces': None, 'minthreads': None, 'timeout': 10, 'plain': False, 'nobanner': False}>"
p1591
asbasbasbag68
(g84
g70
NtRp1592
(dp1593
g73
(dp1594
sg82
g1502
sg75
(lp1595
g68
(g89
g70
NtRp1596
(dp1597
g73
(dp1598
g93
g94
ssg82
g1592
sg75
(lp1599
g566
asbag68
(g89
g70
NtRp1600
(dp1601
g73
(dp1602
g100
g101
ssg82
g1592
sg75
(lp1603
S':'
asbag68
(g89
g70
NtRp1604
(dp1605
g73
(dp1606
sg82
g1592
sg75
(lp1607
g68
(g69
g70
NtRp1608
(dp1609
g73
(dp1610
g81
I4
ssg82
g1604
sg75
(lp1611
S'set([])'
p1612
asbasbasbag68
(g84
g70
NtRp1613
(dp1614
g73
(dp1615
sg82
g1502
sg75
(lp1616
g68
(g89
g70
NtRp1617
(dp1618
g73
(dp1619
g93
g94
ssg82
g1613
sg75
(lp1620
g588
asbag68
(g89
g70
NtRp1621
(dp1622
g73
(dp1623
g100
g101
ssg82
g1613
sg75
(lp1624
S':'
asbag68
(g89
g70
NtRp1625
(dp1626
g73
(dp1627
sg82
g1613
sg75
(lp1628
g68
(g69
g70
NtRp1629
(dp1630
g73
(dp1631
g81
I4
ssg82
g1625
sg75
(lp1632
g111
asbasbasbag68
(g84
g70
NtRp1633
(dp1634
g73
(dp1635
sg82
g1502
sg75
(lp1636
g68
(g89
g70
NtRp1637
(dp1638
g73
(dp1639
g93
g94
ssg82
g1633
sg75
(lp1640
g609
asbag68
(g89
g70
NtRp1641
(dp1642
g73
(dp1643
g100
g101
ssg82
g1633
sg75
(lp1644
S':'
asbag68
(g89
g70
NtRp1645
(dp1646
g73
(dp1647
sg82
g1633
sg75
(lp1648
g68
(g69
g70
NtRp1649
(dp1650
g73
(dp1651
g81
I4
ssg82
g1645
sg75
(lp1652
g622
asbasbasbag68
(g84
g70
NtRp1653
(dp1654
g73
(dp1655
sg82
g1502
sg75
(lp1656
g68
(g89
g70
NtRp1657
(dp1658
g73
(dp1659
g93
g94
ssg82
g1653
sg75
(lp1660
g807
asbag68
(g89
g70
NtRp1661
(dp1662
g73
(dp1663
g100
g101
ssg82
g1653
sg75
(lp1664
S':'
asbag68
(g89
g70
NtRp1665
(dp1666
g73
(dp1667
sg82
g1653
sg75
(lp1668
g68
(g69
g70
NtRp1669
(dp1670
g73
(dp1671
g81
I4
ssg82
g1665
sg75
(lp1672
g111
asbasbasbag68
(g84
g70
NtRp1673
(dp1674
g73
(dp1675
sg82
g1502
sg75
(lp1676
g68
(g89
g70
NtRp1677
(dp1678
g73
(dp1679
g93
g94
ssg82
g1673
sg75
(lp1680
g828
asbag68
(g89
g70
NtRp1681
(dp1682
g73
(dp1683
g100
g101
ssg82
g1673
sg75
(lp1684
S':'
asbag68
(g89
g70
NtRp1685
(dp1686
g73
(dp1687
sg82
g1673
sg75
(lp1688
g68
(g69
g70
NtRp1689
(dp1690
g73
(dp1691
g81
I4
ssg82
g1685
sg75
(lp1692
g111
asbasbasbag68
(g84
g70
NtRp1693
(dp1694
g73
(dp1695
sg82
g1502
sg75
(lp1696
g68
(g89
g70
NtRp1697
(dp1698
g73
(dp1699
g93
g94
ssg82
g1693
sg75
(lp1700
g1066
asbag68
(g89
g70
NtRp1701
(dp1702
g73
(dp1703
g100
g101
ssg82
g1693
sg75
(lp1704
S':'
asbag68
(g89
g70
NtRp1705
(dp1706
g73
(dp1707
sg82
g1693
sg75
(lp1708
g68
(g69
g70
NtRp1709
(dp1710
g73
(dp1711
g81
I4
ssg82
g1705
sg75
(lp1712
g1079
asbasbasbag68
(g84
g70
NtRp1713
(dp1714
g73
(dp1715
sg82
g1502
sg75
(lp1716
g68
(g89
g70
NtRp1717
(dp1718
g73
(dp1719
g93
g94
ssg82
g1713
sg75
(lp1720
g1109
asbag68
(g89
g70
NtRp1721
(dp1722
g73
(dp1723
g100
g101
ssg82
g1713
sg75
(lp1724
S':'
asbag68
(g89
g70
NtRp1725
(dp1726
g73
(dp1727
sg82
g1713
sg75
(lp1728
g68
(g69
g70
NtRp1729
(dp1730
g73
(dp1731
g81
I4
ssg82
g1725
sg75
(lp1732
g68
(g77
g70
NtRp1733
(dp1734
g73
(dp1735
g81
I3
ssg82
Nsg75
(lp1736
g68
(g84
g70
NtRp1737
(dp1738
g73
(dp1739
sg82
g1733
sg75
(lp1740
g68
(g89
g70
NtRp1741
(dp1742
g73
(dp1743
sg82
g1737
sg75
(lp1744
g68
(g69
g70
NtRp1745
(dp1746
g73
(dp1747
g81
I3
ssg82
g1741
sg75
(lp1748
S'1'
asbasbasbag68
(g84
g70
NtRp1749
(dp1750
g73
(dp1751
sg82
g1733
sg75
(lp1752
g68
(g89
g70
NtRp1753
(dp1754
g73
(dp1755
sg82
g1749
sg75
(lp1756
g68
(g69
g70
NtRp1757
(dp1758
g73
(dp1759
g81
I3
ssg82
g1753
sg75
(lp1760
S'99'
p1761
asbasbasbag68
(g84
g70
NtRp1762
(dp1763
g73
(dp1764
sg82
g1733
sg75
(lp1765
g68
(g89
g70
NtRp1766
(dp1767
g73
(dp1768
sg82
g1762
sg75
(lp1769
g68
(g69
g70
NtRp1770
(dp1771
g73
(dp1772
g81
I3
ssg82
g1766
sg75
(lp1773
S'7'
asbasbasbag68
(g84
g70
NtRp1774
(dp1775
g73
(dp1776
sg82
g1733
sg75
(lp1777
g68
(g89
g70
NtRp1778
(dp1779
g73
(dp1780
sg82
g1774
sg75
(lp1781
g68
(g69
g70
NtRp1782
(dp1783
g73
(dp1784
g81
I3
ssg82
g1778
sg75
(lp1785
S'datetime.datetime(2012, 3, 4, 22, 12, 8)'
p1786
asbasbasbag68
(g84
g70
NtRp1787
(dp1788
g73
(dp1789
sg82
g1733
sg75
(lp1790
g68
(g89
g70
NtRp1791
(dp1792
g73
(dp1793
sg82
g1787
sg75
(lp1794
g68
(g69
g70
NtRp1795
(dp1796
g73
(dp1797
g81
I3
ssg82
g1791
sg75
(lp1798
g1188
asbasbasbasbasbasbasbasbasbasbasbag68
(g84
g70
NtRp1799
(dp1800
g73
(dp1801
sg82
g78
sg75
(lp1802
g68
(g89
g70
NtRp1803
(dp1804
g73
(dp1805
g93
g94
ssg82
g1799
sg75
(lp1806
S'is_https'
p1807
asbag68
(g89
g70
NtRp1808
(dp1809
g73
(dp1810
g100
g101
ssg82
g1799
sg75
(lp1811
S':'
asbag68
(g89
g70
NtRp1812
(dp1813
g73
(dp1814
sg82
g1799
sg75
(lp1815
g68
(g69
g70
NtRp1816
(dp1817
g73
(dp1818
g81
I5
ssg82
g1812
sg75
(lp1819
g111
asbasbasbag68
(g84
g70
NtRp1820
(dp1821
g73
(dp1822
sg82
g78
sg75
(lp1823
g68
(g89
g70
NtRp1824
(dp1825
g73
(dp1826
g93
g94
ssg82
g1820
sg75
(lp1827
S'is_local'
p1828
asbag68
(g89
g70
NtRp1829
(dp1830
g73
(dp1831
g100
g101
ssg82
g1820
sg75
(lp1832
S':'
asbag68
(g89
g70
NtRp1833
(dp1834
g73
(dp1835
sg82
g1820
sg75
(lp1836
g68
(g69
g70
NtRp1837
(dp1838
g73
(dp1839
g81
I5
ssg82
g1833
sg75
(lp1840
g1297
asbasbasbag68
(g84
g70
NtRp1841
(dp1842
g73
(dp1843
sg82
g78
sg75
(lp1844
g68
(g89
g70
NtRp1845
(dp1846
g73
(dp1847
g93
g94
ssg82
g1841
sg75
(lp1848
S'is_restful'
p1849
asbag68
(g89
g70
NtRp1850
(dp1851
g73
(dp1852
g100
g101
ssg82
g1841
sg75
(lp1853
S':'
asbag68
(g89
g70
NtRp1854
(dp1855
g73
(dp1856
sg82
g1841
sg75
(lp1857
g68
(g69
g70
NtRp1858
(dp1859
g73
(dp1860
g81
I5
ssg82
g1854
sg75
(lp1861
g111
asbasbasbag68
(g84
g70
NtRp1862
(dp1863
g73
(dp1864
sg82
g78
sg75
(lp1865
g68
(g89
g70
NtRp1866
(dp1867
g73
(dp1868
g93
g94
ssg82
g1862
sg75
(lp1869
S'now'
p1870
asbag68
(g89
g70
NtRp1871
(dp1872
g73
(dp1873
g100
g101
ssg82
g1862
sg75
(lp1874
S':'
asbag68
(g89
g70
NtRp1875
(dp1876
g73
(dp1877
sg82
g1862
sg75
(lp1878
g68
(g69
g70
NtRp1879
(dp1880
g73
(dp1881
g81
I5
ssg82
g1875
sg75
(lp1882
S'datetime.datetime(2013, 6, 1, 17, 56, 43, 194621)'
p1883
asbasbasbag68
(g84
g70
NtRp1884
(dp1885
g73
(dp1886
sg82
g78
sg75
(lp1887
g68
(g89
g70
NtRp1888
(dp1889
g73
(dp1890
g93
g94
ssg82
g1884
sg75
(lp1891
S'post_vars'
p1892
asbag68
(g89
g70
NtRp1893
(dp1894
g73
(dp1895
g100
g101
ssg82
g1884
sg75
(lp1896
S':'
asbag68
(g89
g70
NtRp1897
(dp1898
g73
(dp1899
sg82
g1884
sg75
(lp1900
g68
(g69
g70
NtRp1901
(dp1902
g73
(dp1903
g81
I5
ssg82
g1897
sg75
(lp1904
g68
(g77
g70
NtRp1905
(dp1906
g73
(dp1907
g81
I4
ssg82
Nsg75
(lp1908
sbasbasbasbag68
(g84
g70
NtRp1909
(dp1910
g73
(dp1911
sg82
g78
sg75
(lp1912
g68
(g89
g70
NtRp1913
(dp1914
g73
(dp1915
g93
g94
ssg82
g1909
sg75
(lp1916
S'url'
p1917
asbag68
(g89
g70
NtRp1918
(dp1919
g73
(dp1920
g100
g101
ssg82
g1909
sg75
(lp1921
S':'
asbag68
(g89
g70
NtRp1922
(dp1923
g73
(dp1924
sg82
g1909
sg75
(lp1925
g68
(g69
g70
NtRp1926
(dp1927
g73
(dp1928
g81
I5
ssg82
g1922
sg75
(lp1929
S'/911_signin/default/index'
p1930
asbasbasbag68
(g84
g70
NtRp1931
(dp1932
g73
(dp1933
sg82
g78
sg75
(lp1934
g68
(g89
g70
NtRp1935
(dp1936
g73
(dp1937
g93
g94
ssg82
g1931
sg75
(lp1938
S'utcnow'
p1939
asbag68
(g89
g70
NtRp1940
(dp1941
g73
(dp1942
g100
g101
ssg82
g1931
sg75
(lp1943
S':'
asbag68
(g89
g70
NtRp1944
(dp1945
g73
(dp1946
sg82
g1931
sg75
(lp1947
g68
(g69
g70
NtRp1948
(dp1949
g73
(dp1950
g81
I5
ssg82
g1944
sg75
(lp1951
S'datetime.datetime(2013, 6, 1, 12, 26, 43, 194651)'
p1952
asbasbasbag68
(g84
g70
NtRp1953
(dp1954
g73
(dp1955
sg82
g78
sg75
(lp1956
g68
(g89
g70
NtRp1957
(dp1958
g73
(dp1959
g93
g94
ssg82
g1953
sg75
(lp1960
S'uuid'
p1961
asbag68
(g89
g70
NtRp1962
(dp1963
g73
(dp1964
g100
g101
ssg82
g1953
sg75
(lp1965
S':'
asbag68
(g89
g70
NtRp1966
(dp1967
g73
(dp1968
sg82
g1953
sg75
(lp1969
g68
(g69
g70
NtRp1970
(dp1971
g73
(dp1972
g81
I5
ssg82
g1966
sg75
(lp1973
S'911_signin/127.0.0.1.2013-06-01.17-56-43.dc2c361f-fb9f-49e7-9c86-a61995ed978c'
p1974
asbasbasbag68
(g84
g70
NtRp1975
(dp1976
g73
(dp1977
sg82
g78
sg75
(lp1978
g68
(g89
g70
NtRp1979
(dp1980
g73
(dp1981
g93
g94
ssg82
g1975
sg75
(lp1982
S'vars'
p1983
asbag68
(g89
g70
NtRp1984
(dp1985
g73
(dp1986
g100
g101
ssg82
g1975
sg75
(lp1987
S':'
asbag68
(g89
g70
NtRp1988
(dp1989
g73
(dp1990
sg82
g1975
sg75
(lp1991
g68
(g69
g70
NtRp1992
(dp1993
g73
(dp1994
g81
I5
ssg82
g1988
sg75
(lp1995
g68
(g77
g70
NtRp1996
(dp1997
g73
(dp1998
g81
I4
ssg82
Nsg75
(lp1999
sbasbasbasbag68
(g84
g70
NtRp2000
(dp2001
g73
(dp2002
sg82
g78
sg75
(lp2003
g68
(g89
g70
NtRp2004
(dp2005
g73
(dp2006
g93
g94
ssg82
g2000
sg75
(lp2007
S'wsgi'
p2008
asbag68
(g89
g70
NtRp2009
(dp2010
g73
(dp2011
g100
g101
ssg82
g2000
sg75
(lp2012
S':'
asbag68
(g89
g70
NtRp2013
(dp2014
g73
(dp2015
sg82
g2000
sg75
(lp2016
g68
(g69
g70
NtRp2017
(dp2018
g73
(dp2019
g81
I5
ssg82
g2013
sg75
(lp2020
g68
(g77
g70
NtRp2021
(dp2022
g73
(dp2023
g81
I4
ssg82
Nsg75
(lp2024
g68
(g84
g70
NtRp2025
(dp2026
g73
(dp2027
sg82
g2021
sg75
(lp2028
g68
(g89
g70
NtRp2029
(dp2030
g73
(dp2031
g93
g94
ssg82
g2025
sg75
(lp2032
S'environ'
p2033
asbag68
(g89
g70
NtRp2034
(dp2035
g73
(dp2036
g100
g101
ssg82
g2025
sg75
(lp2037
S':'
asbag68
(g89
g70
NtRp2038
(dp2039
g73
(dp2040
sg82
g2025
sg75
(lp2041
g68
(g69
g70
NtRp2042
(dp2043
g73
(dp2044
g81
I4
ssg82
g2038
sg75
(lp2045
g68
(g77
g70
NtRp2046
(dp2047
g73
(dp2048
g81
I3
ssg82
Nsg75
(lp2049
g68
(g84
g70
NtRp2050
(dp2051
g73
(dp2052
sg82
g2046
sg75
(lp2053
g68
(g89
g70
NtRp2054
(dp2055
g73
(dp2056
g93
g94
ssg82
g2050
sg75
(lp2057
S'HTTP_ACCEPT'
p2058
asbag68
(g89
g70
NtRp2059
(dp2060
g73
(dp2061
g100
g101
ssg82
g2050
sg75
(lp2062
S':'
asbag68
(g89
g70
NtRp2063
(dp2064
g73
(dp2065
sg82
g2050
sg75
(lp2066
g68
(g69
g70
NtRp2067
(dp2068
g73
(dp2069
g81
I3
ssg82
g2063
sg75
(lp2070
g644
asbasbasbag68
(g84
g70
NtRp2071
(dp2072
g73
(dp2073
sg82
g2046
sg75
(lp2074
g68
(g89
g70
NtRp2075
(dp2076
g73
(dp2077
g93
g94
ssg82
g2071
sg75
(lp2078
S'HTTP_ACCEPT_CHARSET'
p2079
asbag68
(g89
g70
NtRp2080
(dp2081
g73
(dp2082
g100
g101
ssg82
g2071
sg75
(lp2083
S':'
asbag68
(g89
g70
NtRp2084
(dp2085
g73
(dp2086
sg82
g2071
sg75
(lp2087
g68
(g69
g70
NtRp2088
(dp2089
g73
(dp2090
g81
I3
ssg82
g2084
sg75
(lp2091
g666
asbasbasbag68
(g84
g70
NtRp2092
(dp2093
g73
(dp2094
sg82
g2046
sg75
(lp2095
g68
(g89
g70
NtRp2096
(dp2097
g73
(dp2098
g93
g94
ssg82
g2092
sg75
(lp2099
S'HTTP_ACCEPT_ENCODING'
p2100
asbag68
(g89
g70
NtRp2101
(dp2102
g73
(dp2103
g100
g101
ssg82
g2092
sg75
(lp2104
S':'
asbag68
(g89
g70
NtRp2105
(dp2106
g73
(dp2107
sg82
g2092
sg75
(lp2108
g68
(g69
g70
NtRp2109
(dp2110
g73
(dp2111
g81
I3
ssg82
g2105
sg75
(lp2112
g688
asbasbasbag68
(g84
g70
NtRp2113
(dp2114
g73
(dp2115
sg82
g2046
sg75
(lp2116
g68
(g89
g70
NtRp2117
(dp2118
g73
(dp2119
g93
g94
ssg82
g2113
sg75
(lp2120
S'HTTP_ACCEPT_LANGUAGE'
p2121
asbag68
(g89
g70
NtRp2122
(dp2123
g73
(dp2124
g100
g101
ssg82
g2113
sg75
(lp2125
S':'
asbag68
(g89
g70
NtRp2126
(dp2127
g73
(dp2128
sg82
g2113
sg75
(lp2129
g68
(g69
g70
NtRp2130
(dp2131
g73
(dp2132
g81
I3
ssg82
g2126
sg75
(lp2133
g710
asbasbasbag68
(g84
g70
NtRp2134
(dp2135
g73
(dp2136
sg82
g2046
sg75
(lp2137
g68
(g89
g70
NtRp2138
(dp2139
g73
(dp2140
g93
g94
ssg82
g2134
sg75
(lp2141
S'HTTP_CONNECTION'
p2142
asbag68
(g89
g70
NtRp2143
(dp2144
g73
(dp2145
g100
g101
ssg82
g2134
sg75
(lp2146
S':'
asbag68
(g89
g70
NtRp2147
(dp2148
g73
(dp2149
sg82
g2134
sg75
(lp2150
g68
(g69
g70
NtRp2151
(dp2152
g73
(dp2153
g81
I3
ssg82
g2147
sg75
(lp2154
g732
asbasbasbag68
(g84
g70
NtRp2155
(dp2156
g73
(dp2157
sg82
g2046
sg75
(lp2158
g68
(g89
g70
NtRp2159
(dp2160
g73
(dp2161
g93
g94
ssg82
g2155
sg75
(lp2162
S'HTTP_COOKIE'
p2163
asbag68
(g89
g70
NtRp2164
(dp2165
g73
(dp2166
g100
g101
ssg82
g2155
sg75
(lp2167
S':'
asbag68
(g89
g70
NtRp2168
(dp2169
g73
(dp2170
sg82
g2155
sg75
(lp2171
g68
(g69
g70
NtRp2172
(dp2173
g73
(dp2174
g81
I3
ssg82
g2168
sg75
(lp2175
g754
asbasbasbag68
(g84
g70
NtRp2176
(dp2177
g73
(dp2178
sg82
g2046
sg75
(lp2179
g68
(g89
g70
NtRp2180
(dp2181
g73
(dp2182
g93
g94
ssg82
g2176
sg75
(lp2183
S'HTTP_HOST'
p2184
asbag68
(g89
g70
NtRp2185
(dp2186
g73
(dp2187
g100
g101
ssg82
g2176
sg75
(lp2188
S':'
asbag68
(g89
g70
NtRp2189
(dp2190
g73
(dp2191
sg82
g2176
sg75
(lp2192
g68
(g69
g70
NtRp2193
(dp2194
g73
(dp2195
g81
I3
ssg82
g2189
sg75
(lp2196
g776
asbasbasbag68
(g84
g70
NtRp2197
(dp2198
g73
(dp2199
sg82
g2046
sg75
(lp2200
g68
(g89
g70
NtRp2201
(dp2202
g73
(dp2203
g93
g94
ssg82
g2197
sg75
(lp2204
S'HTTP_USER_AGENT'
p2205
asbag68
(g89
g70
NtRp2206
(dp2207
g73
(dp2208
g100
g101
ssg82
g2197
sg75
(lp2209
S':'
asbag68
(g89
g70
NtRp2210
(dp2211
g73
(dp2212
sg82
g2197
sg75
(lp2213
g68
(g69
g70
NtRp2214
(dp2215
g73
(dp2216
g81
I3
ssg82
g2210
sg75
(lp2217
g798
asbasbasbag68
(g84
g70
NtRp2218
(dp2219
g73
(dp2220
sg82
g2046
sg75
(lp2221
g68
(g89
g70
NtRp2222
(dp2223
g73
(dp2224
g93
g94
ssg82
g2218
sg75
(lp2225
S'PATH_INFO'
p2226
asbag68
(g89
g70
NtRp2227
(dp2228
g73
(dp2229
g100
g101
ssg82
g2218
sg75
(lp2230
S':'
asbag68
(g89
g70
NtRp2231
(dp2232
g73
(dp2233
sg82
g2218
sg75
(lp2234
g68
(g69
g70
NtRp2235
(dp2236
g73
(dp2237
g81
I3
ssg82
g2231
sg75
(lp2238
g862
asbasbasbag68
(g84
g70
NtRp2239
(dp2240
g73
(dp2241
sg82
g2046
sg75
(lp2242
g68
(g89
g70
NtRp2243
(dp2244
g73
(dp2245
g93
g94
ssg82
g2239
sg75
(lp2246
S'QUERY_STRING'
p2247
asbag68
(g89
g70
NtRp2248
(dp2249
g73
(dp2250
g100
g101
ssg82
g2239
sg75
(lp2251
S':'
asbag68
(g89
g70
NtRp2252
(dp2253
g73
(dp2254
sg82
g2239
sg75
(lp2255
g68
(g69
g70
NtRp2256
(dp2257
g73
(dp2258
g81
I3
ssg82
g2252
sg75
(lp2259
S''
asbasbasbag68
(g84
g70
NtRp2260
(dp2261
g73
(dp2262
sg82
g2046
sg75
(lp2263
g68
(g89
g70
NtRp2264
(dp2265
g73
(dp2266
g93
g94
ssg82
g2260
sg75
(lp2267
S'REMOTE_ADDR'
p2268
asbag68
(g89
g70
NtRp2269
(dp2270
g73
(dp2271
g100
g101
ssg82
g2260
sg75
(lp2272
S':'
asbag68
(g89
g70
NtRp2273
(dp2274
g73
(dp2275
sg82
g2260
sg75
(lp2276
g68
(g69
g70
NtRp2277
(dp2278
g73
(dp2279
g81
I3
ssg82
g2273
sg75
(lp2280
g201
asbasbasbag68
(g84
g70
NtRp2281
(dp2282
g73
(dp2283
sg82
g2046
sg75
(lp2284
g68
(g89
g70
NtRp2285
(dp2286
g73
(dp2287
g93
g94
ssg82
g2281
sg75
(lp2288
S'REMOTE_PORT'
p2289
asbag68
(g89
g70
NtRp2290
(dp2291
g73
(dp2292
g100
g101
ssg82
g2281
sg75
(lp2293
S':'
asbag68
(g89
g70
NtRp2294
(dp2295
g73
(dp2296
sg82
g2281
sg75
(lp2297
g68
(g69
g70
NtRp2298
(dp2299
g73
(dp2300
g81
I3
ssg82
g2294
sg75
(lp2301
g926
asbasbasbag68
(g84
g70
NtRp2302
(dp2303
g73
(dp2304
sg82
g2046
sg75
(lp2305
g68
(g89
g70
NtRp2306
(dp2307
g73
(dp2308
g93
g94
ssg82
g2302
sg75
(lp2309
S'REQUEST_METHOD'
p2310
asbag68
(g89
g70
NtRp2311
(dp2312
g73
(dp2313
g100
g101
ssg82
g2302
sg75
(lp2314
S':'
asbag68
(g89
g70
NtRp2315
(dp2316
g73
(dp2317
sg82
g2302
sg75
(lp2318
g68
(g69
g70
NtRp2319
(dp2320
g73
(dp2321
g81
I3
ssg82
g2315
sg75
(lp2322
g948
asbasbasbag68
(g84
g70
NtRp2323
(dp2324
g73
(dp2325
sg82
g2046
sg75
(lp2326
g68
(g89
g70
NtRp2327
(dp2328
g73
(dp2329
g93
g94
ssg82
g2323
sg75
(lp2330
S'SCRIPT_NAME'
p2331
asbag68
(g89
g70
NtRp2332
(dp2333
g73
(dp2334
g100
g101
ssg82
g2323
sg75
(lp2335
S':'
asbag68
(g89
g70
NtRp2336
(dp2337
g73
(dp2338
sg82
g2323
sg75
(lp2339
g68
(g69
g70
NtRp2340
(dp2341
g73
(dp2342
g81
I3
ssg82
g2336
sg75
(lp2343
S''
asbasbasbag68
(g84
g70
NtRp2344
(dp2345
g73
(dp2346
sg82
g2046
sg75
(lp2347
g68
(g89
g70
NtRp2348
(dp2349
g73
(dp2350
g93
g94
ssg82
g2344
sg75
(lp2351
S'SERVER_NAME'
p2352
asbag68
(g89
g70
NtRp2353
(dp2354
g73
(dp2355
g100
g101
ssg82
g2344
sg75
(lp2356
S':'
asbag68
(g89
g70
NtRp2357
(dp2358
g73
(dp2359
sg82
g2344
sg75
(lp2360
g68
(g69
g70
NtRp2361
(dp2362
g73
(dp2363
g81
I3
ssg82
g2357
sg75
(lp2364
g991
asbasbasbag68
(g84
g70
NtRp2365
(dp2366
g73
(dp2367
sg82
g2046
sg75
(lp2368
g68
(g89
g70
NtRp2369
(dp2370
g73
(dp2371
g93
g94
ssg82
g2365
sg75
(lp2372
S'SERVER_PORT'
p2373
asbag68
(g89
g70
NtRp2374
(dp2375
g73
(dp2376
g100
g101
ssg82
g2365
sg75
(lp2377
S':'
asbag68
(g89
g70
NtRp2378
(dp2379
g73
(dp2380
sg82
g2365
sg75
(lp2381
g68
(g69
g70
NtRp2382
(dp2383
g73
(dp2384
g81
I3
ssg82
g2378
sg75
(lp2385
g1013
asbasbasbag68
(g84
g70
NtRp2386
(dp2387
g73
(dp2388
sg82
g2046
sg75
(lp2389
g68
(g89
g70
NtRp2390
(dp2391
g73
(dp2392
g93
g94
ssg82
g2386
sg75
(lp2393
S'SERVER_PROTOCOL'
p2394
asbag68
(g89
g70
NtRp2395
(dp2396
g73
(dp2397
g100
g101
ssg82
g2386
sg75
(lp2398
S':'
asbag68
(g89
g70
NtRp2399
(dp2400
g73
(dp2401
sg82
g2386
sg75
(lp2402
g68
(g69
g70
NtRp2403
(dp2404
g73
(dp2405
g81
I3
ssg82
g2399
sg75
(lp2406
g1035
asbasbasbag68
(g84
g70
NtRp2407
(dp2408
g73
(dp2409
sg82
g2046
sg75
(lp2410
g68
(g89
g70
NtRp2411
(dp2412
g73
(dp2413
g93
g94
ssg82
g2407
sg75
(lp2414
S'SERVER_SOFTWARE'
p2415
asbag68
(g89
g70
NtRp2416
(dp2417
g73
(dp2418
g100
g101
ssg82
g2407
sg75
(lp2419
S':'
asbag68
(g89
g70
NtRp2420
(dp2421
g73
(dp2422
sg82
g2407
sg75
(lp2423
g68
(g69
g70
NtRp2424
(dp2425
g73
(dp2426
g81
I3
ssg82
g2420
sg75
(lp2427
g1057
asbasbasbag68
(g84
g70
NtRp2428
(dp2429
g73
(dp2430
sg82
g2046
sg75
(lp2431
g68
(g89
g70
NtRp2432
(dp2433
g73
(dp2434
g93
g94
ssg82
g2428
sg75
(lp2435
S'wsgi.errors'
p2436
asbag68
(g89
g70
NtRp2437
(dp2438
g73
(dp2439
g100
g101
ssg82
g2428
sg75
(lp2440
S':'
asbag68
(g89
g70
NtRp2441
(dp2442
g73
(dp2443
sg82
g2428
sg75
(lp2444
g68
(g69
g70
NtRp2445
(dp2446
g73
(dp2447
g81
I3
ssg82
g2441
sg75
(lp2448
S"<open file '<stderr>', mode 'w' at 0xb73580d0>"
p2449
asbasbasbag68
(g84
g70
NtRp2450
(dp2451
g73
(dp2452
sg82
g2046
sg75
(lp2453
g68
(g89
g70
NtRp2454
(dp2455
g73
(dp2456
g93
g94
ssg82
g2450
sg75
(lp2457
S'wsgi.file_wrapper'
p2458
asbag68
(g89
g70
NtRp2459
(dp2460
g73
(dp2461
g100
g101
ssg82
g2450
sg75
(lp2462
S':'
asbag68
(g89
g70
NtRp2463
(dp2464
g73
(dp2465
sg82
g2450
sg75
(lp2466
g68
(g69
g70
NtRp2467
(dp2468
g73
(dp2469
g81
I3
ssg82
g2463
sg75
(lp2470
S'<class wsgiref.util.FileWrapper at 0x9f3ae9c>'
p2471
asbasbasbag68
(g84
g70
NtRp2472
(dp2473
g73
(dp2474
sg82
g2046
sg75
(lp2475
g68
(g89
g70
NtRp2476
(dp2477
g73
(dp2478
g93
g94
ssg82
g2472
sg75
(lp2479
S'wsgi.input'
p2480
asbag68
(g89
g70
NtRp2481
(dp2482
g73
(dp2483
g100
g101
ssg82
g2472
sg75
(lp2484
S':'
asbag68
(g89
g70
NtRp2485
(dp2486
g73
(dp2487
sg82
g2472
sg75
(lp2488
g68
(g69
g70
NtRp2489
(dp2490
g73
(dp2491
g81
I3
ssg82
g2485
sg75
(lp2492
S'<cStringIO.StringO object at 0xad7711e0>'
p2493
asbasbasbag68
(g84
g70
NtRp2494
(dp2495
g73
(dp2496
sg82
g2046
sg75
(lp2497
g68
(g89
g70
NtRp2498
(dp2499
g73
(dp2500
g93
g94
ssg82
g2494
sg75
(lp2501
S'wsgi.multiprocess'
p2502
asbag68
(g89
g70
NtRp2503
(dp2504
g73
(dp2505
g100
g101
ssg82
g2494
sg75
(lp2506
S':'
asbag68
(g89
g70
NtRp2507
(dp2508
g73
(dp2509
sg82
g2494
sg75
(lp2510
g68
(g69
g70
NtRp2511
(dp2512
g73
(dp2513
g81
I3
ssg82
g2507
sg75
(lp2514
g111
asbasbasbag68
(g84
g70
NtRp2515
(dp2516
g73
(dp2517
sg82
g2046
sg75
(lp2518
g68
(g89
g70
NtRp2519
(dp2520
g73
(dp2521
g93
g94
ssg82
g2515
sg75
(lp2522
S'wsgi.multithread'
p2523
asbag68
(g89
g70
NtRp2524
(dp2525
g73
(dp2526
g100
g101
ssg82
g2515
sg75
(lp2527
S':'
asbag68
(g89
g70
NtRp2528
(dp2529
g73
(dp2530
sg82
g2515
sg75
(lp2531
g68
(g69
g70
NtRp2532
(dp2533
g73
(dp2534
g81
I3
ssg82
g2528
sg75
(lp2535
g1297
asbasbasbag68
(g84
g70
NtRp2536
(dp2537
g73
(dp2538
sg82
g2046
sg75
(lp2539
g68
(g89
g70
NtRp2540
(dp2541
g73
(dp2542
g93
g94
ssg82
g2536
sg75
(lp2543
S'wsgi.run_once'
p2544
asbag68
(g89
g70
NtRp2545
(dp2546
g73
(dp2547
g100
g101
ssg82
g2536
sg75
(lp2548
S':'
asbag68
(g89
g70
NtRp2549
(dp2550
g73
(dp2551
sg82
g2536
sg75
(lp2552
g68
(g69
g70
NtRp2553
(dp2554
g73
(dp2555
g81
I3
ssg82
g2549
sg75
(lp2556
g111
asbasbasbag68
(g84
g70
NtRp2557
(dp2558
g73
(dp2559
sg82
g2046
sg75
(lp2560
g68
(g89
g70
NtRp2561
(dp2562
g73
(dp2563
g93
g94
ssg82
g2557
sg75
(lp2564
S'wsgi.url_scheme'
p2565
asbag68
(g89
g70
NtRp2566
(dp2567
g73
(dp2568
g100
g101
ssg82
g2557
sg75
(lp2569
S':'
asbag68
(g89
g70
NtRp2570
(dp2571
g73
(dp2572
sg82
g2557
sg75
(lp2573
g68
(g69
g70
NtRp2574
(dp2575
g73
(dp2576
g81
I3
ssg82
g2570
sg75
(lp2577
g1340
asbasbasbag68
(g84
g70
NtRp2578
(dp2579
g73
(dp2580
sg82
g2046
sg75
(lp2581
g68
(g89
g70
NtRp2582
(dp2583
g73
(dp2584
g93
g94
ssg82
g2578
sg75
(lp2585
S'wsgi.version'
p2586
asbag68
(g89
g70
NtRp2587
(dp2588
g73
(dp2589
g100
g101
ssg82
g2578
sg75
(lp2590
S':'
asbag68
(g89
g70
NtRp2591
(dp2592
g73
(dp2593
sg82
g2578
sg75
(lp2594
g68
(g69
g70
NtRp2595
(dp2596
g73
(dp2597
g81
I3
ssg82
g2591
sg75
(lp2598
S'1'
asbasbasbasbasbasbasbasbasbasbasbasbasbsS'frames'
p2599
(lp2600
(dp2601
S'file'
p2602
S'/home/enigma/web2py/gluon/restricted.py'
p2603
sS'dump'
p2604
(dp2605
S'code'
p2606
S"'# -*- coding: utf-8 -*-\\n\\n#######################..._EMPTY(), IS_LENGTH(32), IS_ALPHANUMERIC()] )\\n\\t)\\n'"
p2607
sS'layer'
p2608
S"'/home/enigma/web2py/applications/911_signin/models/db.py'"
p2609
sS'global compile2'
p2610
S'<function compile2>'
p2611
sS'ccode'
p2612
S'undefined'
p2613
ssS'lnum'
p2614
I204
sS'lines'
p2615
(dp2616
I199
S"    environment['__name__'] = '__restricted__'"
p2617
sI200
S'    try:'
p2618
sI201
S'        if type(code) == types.CodeType:'
p2619
sI202
S'            ccode = code'
p2620
sI203
S'        else:'
p2621
sI204
S'            ccode = compile2(code,layer)'
p2622
sI205
S'        exec ccode in environment'
p2623
sI206
S'    except HTTP:'
p2624
sI207
S'        raise'
p2625
sI208
S'    except RestrictedError:'
p2626
ssS'call'
p2627
S"(code='# -*- coding: utf-8 -*-\\n\\n#######################..._EMPTY(), IS_LENGTH(32), IS_ALPHANUMERIC()] )\\n\\t)\\n', environment={'A': <class 'gluon.html.A'>, 'B': <class 'gluon.html.B'>, 'BEAUTIFY': <class 'gluon.html.BEAUTIFY'>, 'BODY': <class 'gluon.html.BODY'>, 'BR': <class 'gluon.html.BR'>, 'BUTTON': <class 'gluon.html.BUTTON'>, 'CAT': <class 'gluon.html.CAT'>, 'CENTER': <class 'gluon.html.CENTER'>, 'CLEANUP': <class 'gluon.validators.CLEANUP'>, 'CODE': <class 'gluon.html.CODE'>, ...}, layer='/home/enigma/web2py/applications/911_signin/models/db.py')"
p2628
sS'func'
p2629
S'restricted'
p2630
sa(dp2631
g2602
S'/home/enigma/web2py/gluon/restricted.py'
p2632
sg2604
(dp2633
S'builtincompile'
p2634
S'<built-in function compile>'
p2635
sS'code'
p2636
S"'# -*- coding: utf-8 -*-\\n\\n#######################..._EMPTY(), IS_LENGTH(32), IS_ALPHANUMERIC()] )\\n\\t)\\n'"
p2637
sS'code.rstrip'
p2638
S'<built-in method rstrip of str object>'
p2639
sS').replace'
p2640
g2613
sS'layer'
p2641
S"'/home/enigma/web2py/applications/911_signin/models/db.py'"
p2642
ssg2614
I189
sg2615
(dp2643
I192
S'    """'
p2644
sI193
S'    runs code in environment and returns the output. if an exception occurs'
p2645
sI184
S''
sI185
S'def compile2(code,layer):'
p2646
sI186
S'    """'
p2647
sI187
S"    The +'\\n' is necessary else compile fails when code ends in a comment."
p2648
sI188
S'    """'
p2649
sI189
S"    return compile(code.rstrip().replace('\\r\\n','\\n')+'\\n', layer, 'exec')"
p2650
sI190
S''
sI191
S"def restricted(code, environment=None, layer='Unknown'):"
p2651
ssg2627
S"(code='# -*- coding: utf-8 -*-\\n\\n#######################..._EMPTY(), IS_LENGTH(32), IS_ALPHANUMERIC()] )\\n\\t)\\n', layer='/home/enigma/web2py/applications/911_signin/models/db.py')"
p2652
sg2629
S'compile2'
p2653
sasS'pyver'
p2654
S'Python 2.7.3: /usr/bin/python'
p2655
sS'session'
p2656
g68
(g69
g70
NtRp2657
(dp2658
g73
(dp2659
sg75
(lp2660
g68
(g77
g70
NtRp2661
(dp2662
g73
(dp2663
g81
I5
ssg82
Nsg75
(lp2664
sbasbsS'etype'
p2665
S"<type 'exceptions.SyntaxError'>"
p2666
sS'date'
p2667
S'Sat Jun  1 17:56:43 2013'
p2668
sS'response'
p2669
g68
(g69
g70
NtRp2670
(dp2671
g73
(dp2672
sg75
(lp2673
g68
(g77
g70
NtRp2674
(dp2675
g73
(dp2676
g81
I5
ssg82
Nsg75
(lp2677
g68
(g84
g70
NtRp2678
(dp2679
g73
(dp2680
sg82
g2674
sg75
(lp2681
g68
(g89
g70
NtRp2682
(dp2683
g73
(dp2684
g93
g94
ssg82
g2678
sg75
(lp2685
g166
asbag68
(g89
g70
NtRp2686
(dp2687
g73
(dp2688
g100
g101
ssg82
g2678
sg75
(lp2689
S':'
asbag68
(g89
g70
NtRp2690
(dp2691
g73
(dp2692
sg82
g2678
sg75
(lp2693
g68
(g69
g70
NtRp2694
(dp2695
g73
(dp2696
g81
I5
ssg82
g2690
sg75
(lp2697
S'<cStringIO.StringO object at 0xad762f20>'
p2698
asbasbasbag68
(g84
g70
NtRp2699
(dp2700
g73
(dp2701
sg82
g2674
sg75
(lp2702
g68
(g89
g70
NtRp2703
(dp2704
g73
(dp2705
g93
g94
ssg82
g2699
sg75
(lp2706
g232
asbag68
(g89
g70
NtRp2707
(dp2708
g73
(dp2709
g100
g101
ssg82
g2699
sg75
(lp2710
S':'
asbag68
(g89
g70
NtRp2711
(dp2712
g73
(dp2713
sg82
g2699
sg75
(lp2714
g68
(g69
g70
NtRp2715
(dp2716
g73
(dp2717
g81
I5
ssg82
g2711
sg75
(lp2718
g68
(g77
g70
NtRp2719
(dp2720
g73
(dp2721
g81
I4
ssg82
Nsg75
(lp2722
g68
(g84
g70
NtRp2723
(dp2724
g73
(dp2725
sg82
g2719
sg75
(lp2726
g68
(g89
g70
NtRp2727
(dp2728
g73
(dp2729
g93
g94
ssg82
g2723
sg75
(lp2730
S'session_id_911_signin'
p2731
asbag68
(g89
g70
NtRp2732
(dp2733
g73
(dp2734
g100
g101
ssg82
g2723
sg75
(lp2735
S':'
asbag68
(g89
g70
NtRp2736
(dp2737
g73
(dp2738
sg82
g2723
sg75
(lp2739
g68
(g69
g70
NtRp2740
(dp2741
g73
(dp2742
g81
I4
ssg82
g2736
sg75
(lp2743
g68
(g77
g70
NtRp2744
(dp2745
g73
(dp2746
g81
I3
ssg82
Nsg75
(lp2747
g68
(g84
g70
NtRp2748
(dp2749
g73
(dp2750
sg82
g2744
sg75
(lp2751
g68
(g89
g70
NtRp2752
(dp2753
g73
(dp2754
g93
g94
ssg82
g2748
sg75
(lp2755
g282
asbag68
(g89
g70
NtRp2756
(dp2757
g73
(dp2758
g100
g101
ssg82
g2748
sg75
(lp2759
S':'
asbag68
(g89
g70
NtRp2760
(dp2761
g73
(dp2762
sg82
g2748
sg75
(lp2763
g68
(g69
g70
NtRp2764
(dp2765
g73
(dp2766
g81
I3
ssg82
g2760
sg75
(lp2767
S''
asbasbasbag68
(g84
g70
NtRp2768
(dp2769
g73
(dp2770
sg82
g2744
sg75
(lp2771
g68
(g89
g70
NtRp2772
(dp2773
g73
(dp2774
g93
g94
ssg82
g2768
sg75
(lp2775
g303
asbag68
(g89
g70
NtRp2776
(dp2777
g73
(dp2778
g100
g101
ssg82
g2768
sg75
(lp2779
S':'
asbag68
(g89
g70
NtRp2780
(dp2781
g73
(dp2782
sg82
g2768
sg75
(lp2783
g68
(g69
g70
NtRp2784
(dp2785
g73
(dp2786
g81
I3
ssg82
g2780
sg75
(lp2787
S''
asbasbasbag68
(g84
g70
NtRp2788
(dp2789
g73
(dp2790
sg82
g2744
sg75
(lp2791
g68
(g89
g70
NtRp2792
(dp2793
g73
(dp2794
g93
g94
ssg82
g2788
sg75
(lp2795
g324
asbag68
(g89
g70
NtRp2796
(dp2797
g73
(dp2798
g100
g101
ssg82
g2788
sg75
(lp2799
S':'
asbag68
(g89
g70
NtRp2800
(dp2801
g73
(dp2802
sg82
g2788
sg75
(lp2803
g68
(g69
g70
NtRp2804
(dp2805
g73
(dp2806
g81
I3
ssg82
g2800
sg75
(lp2807
S''
asbasbasbag68
(g84
g70
NtRp2808
(dp2809
g73
(dp2810
sg82
g2744
sg75
(lp2811
g68
(g89
g70
NtRp2812
(dp2813
g73
(dp2814
g93
g94
ssg82
g2808
sg75
(lp2815
g345
asbag68
(g89
g70
NtRp2816
(dp2817
g73
(dp2818
g100
g101
ssg82
g2808
sg75
(lp2819
S':'
asbag68
(g89
g70
NtRp2820
(dp2821
g73
(dp2822
sg82
g2808
sg75
(lp2823
g68
(g69
g70
NtRp2824
(dp2825
g73
(dp2826
g81
I3
ssg82
g2820
sg75
(lp2827
S''
asbasbasbag68
(g84
g70
NtRp2828
(dp2829
g73
(dp2830
sg82
g2744
sg75
(lp2831
g68
(g89
g70
NtRp2832
(dp2833
g73
(dp2834
g93
g94
ssg82
g2828
sg75
(lp2835
g366
asbag68
(g89
g70
NtRp2836
(dp2837
g73
(dp2838
g100
g101
ssg82
g2828
sg75
(lp2839
S':'
asbag68
(g89
g70
NtRp2840
(dp2841
g73
(dp2842
sg82
g2828
sg75
(lp2843
g68
(g69
g70
NtRp2844
(dp2845
g73
(dp2846
g81
I3
ssg82
g2840
sg75
(lp2847
S''
asbasbasbag68
(g84
g70
NtRp2848
(dp2849
g73
(dp2850
sg82
g2744
sg75
(lp2851
g68
(g89
g70
NtRp2852
(dp2853
g73
(dp2854
g93
g94
ssg82
g2848
sg75
(lp2855
g387
asbag68
(g89
g70
NtRp2856
(dp2857
g73
(dp2858
g100
g101
ssg82
g2848
sg75
(lp2859
S':'
asbag68
(g89
g70
NtRp2860
(dp2861
g73
(dp2862
sg82
g2848
sg75
(lp2863
g68
(g69
g70
NtRp2864
(dp2865
g73
(dp2866
g81
I3
ssg82
g2860
sg75
(lp2867
S'/'
asbasbasbag68
(g84
g70
NtRp2868
(dp2869
g73
(dp2870
sg82
g2744
sg75
(lp2871
g68
(g89
g70
NtRp2872
(dp2873
g73
(dp2874
g93
g94
ssg82
g2868
sg75
(lp2875
g408
asbag68
(g89
g70
NtRp2876
(dp2877
g73
(dp2878
g100
g101
ssg82
g2868
sg75
(lp2879
S':'
asbag68
(g89
g70
NtRp2880
(dp2881
g73
(dp2882
sg82
g2868
sg75
(lp2883
g68
(g69
g70
NtRp2884
(dp2885
g73
(dp2886
g81
I3
ssg82
g2880
sg75
(lp2887
S''
asbasbasbag68
(g84
g70
NtRp2888
(dp2889
g73
(dp2890
sg82
g2744
sg75
(lp2891
g68
(g89
g70
NtRp2892
(dp2893
g73
(dp2894
g93
g94
ssg82
g2888
sg75
(lp2895
g429
asbag68
(g89
g70
NtRp2896
(dp2897
g73
(dp2898
g100
g101
ssg82
g2888
sg75
(lp2899
S':'
asbag68
(g89
g70
NtRp2900
(dp2901
g73
(dp2902
sg82
g2888
sg75
(lp2903
g68
(g69
g70
NtRp2904
(dp2905
g73
(dp2906
g81
I3
ssg82
g2900
sg75
(lp2907
S''
asbasbasbasbasbasbasbasbasbasbasbag68
(g84
g70
NtRp2908
(dp2909
g73
(dp2910
sg82
g2674
sg75
(lp2911
g68
(g89
g70
NtRp2912
(dp2913
g73
(dp2914
g93
g94
ssg82
g2908
sg75
(lp2915
S'delimiters'
p2916
asbag68
(g89
g70
NtRp2917
(dp2918
g73
(dp2919
g100
g101
ssg82
g2908
sg75
(lp2920
S':'
asbag68
(g89
g70
NtRp2921
(dp2922
g73
(dp2923
sg82
g2908
sg75
(lp2924
g68
(g69
g70
NtRp2925
(dp2926
g73
(dp2927
g81
I5
ssg82
g2921
sg75
(lp2928
g68
(g77
g70
NtRp2929
(dp2930
g73
(dp2931
g81
I4
ssg82
Nsg75
(lp2932
g68
(g84
g70
NtRp2933
(dp2934
g73
(dp2935
sg82
g2929
sg75
(lp2936
g68
(g89
g70
NtRp2937
(dp2938
g73
(dp2939
sg82
g2933
sg75
(lp2940
g68
(g69
g70
NtRp2941
(dp2942
g73
(dp2943
g81
I4
ssg82
g2937
sg75
(lp2944
S'{{'
p2945
asbasbasbag68
(g84
g70
NtRp2946
(dp2947
g73
(dp2948
sg82
g2929
sg75
(lp2949
g68
(g89
g70
NtRp2950
(dp2951
g73
(dp2952
sg82
g2946
sg75
(lp2953
g68
(g69
g70
NtRp2954
(dp2955
g73
(dp2956
g81
I4
ssg82
g2950
sg75
(lp2957
S'}}'
p2958
asbasbasbasbasbasbasbag68
(g84
g70
NtRp2959
(dp2960
g73
(dp2961
sg82
g2674
sg75
(lp2962
g68
(g89
g70
NtRp2963
(dp2964
g73
(dp2965
g93
g94
ssg82
g2959
sg75
(lp2966
S'files'
p2967
asbag68
(g89
g70
NtRp2968
(dp2969
g73
(dp2970
g100
g101
ssg82
g2959
sg75
(lp2971
S':'
asbag68
(g89
g70
NtRp2972
(dp2973
g73
(dp2974
sg82
g2959
sg75
(lp2975
g68
(g69
g70
NtRp2976
(dp2977
g73
(dp2978
g81
I5
ssg82
g2972
sg75
(lp2979
g68
(g77
g70
NtRp2980
(dp2981
g73
(dp2982
g81
I4
ssg82
Nsg75
(lp2983
sbasbasbasbag68
(g84
g70
NtRp2984
(dp2985
g73
(dp2986
sg82
g2674
sg75
(lp2987
g68
(g89
g70
NtRp2988
(dp2989
g73
(dp2990
g93
g94
ssg82
g2984
sg75
(lp2991
S'flash'
p2992
asbag68
(g89
g70
NtRp2993
(dp2994
g73
(dp2995
g100
g101
ssg82
g2984
sg75
(lp2996
S':'
asbag68
(g89
g70
NtRp2997
(dp2998
g73
(dp2999
sg82
g2984
sg75
(lp3000
g68
(g69
g70
NtRp3001
(dp3002
g73
(dp3003
g81
I5
ssg82
g2997
sg75
(lp3004
S''
asbasbasbag68
(g84
g70
NtRp3005
(dp3006
g73
(dp3007
sg82
g2674
sg75
(lp3008
g68
(g89
g70
NtRp3009
(dp3010
g73
(dp3011
g93
g94
ssg82
g3005
sg75
(lp3012
S'generic_patterns'
p3013
asbag68
(g89
g70
NtRp3014
(dp3015
g73
(dp3016
g100
g101
ssg82
g3005
sg75
(lp3017
S':'
asbag68
(g89
g70
NtRp3018
(dp3019
g73
(dp3020
sg82
g3005
sg75
(lp3021
g68
(g69
g70
NtRp3022
(dp3023
g73
(dp3024
g81
I5
ssg82
g3018
sg75
(lp3025
g68
(g77
g70
NtRp3026
(dp3027
g73
(dp3028
g81
I4
ssg82
Nsg75
(lp3029
sbasbasbasbag68
(g84
g70
NtRp3030
(dp3031
g73
(dp3032
sg82
g2674
sg75
(lp3033
g68
(g89
g70
NtRp3034
(dp3035
g73
(dp3036
g93
g94
ssg82
g3030
sg75
(lp3037
S'headers'
p3038
asbag68
(g89
g70
NtRp3039
(dp3040
g73
(dp3041
g100
g101
ssg82
g3030
sg75
(lp3042
S':'
asbag68
(g89
g70
NtRp3043
(dp3044
g73
(dp3045
sg82
g3030
sg75
(lp3046
g68
(g69
g70
NtRp3047
(dp3048
g73
(dp3049
g81
I5
ssg82
g3043
sg75
(lp3050
g68
(g77
g70
NtRp3051
(dp3052
g73
(dp3053
g81
I4
ssg82
Nsg75
(lp3054
g68
(g84
g70
NtRp3055
(dp3056
g73
(dp3057
sg82
g3051
sg75
(lp3058
g68
(g89
g70
NtRp3059
(dp3060
g73
(dp3061
g93
g94
ssg82
g3055
sg75
(lp3062
S'Cache-Control'
p3063
asbag68
(g89
g70
NtRp3064
(dp3065
g73
(dp3066
g100
g101
ssg82
g3055
sg75
(lp3067
S':'
asbag68
(g89
g70
NtRp3068
(dp3069
g73
(dp3070
sg82
g3055
sg75
(lp3071
g68
(g69
g70
NtRp3072
(dp3073
g73
(dp3074
g81
I4
ssg82
g3068
sg75
(lp3075
S'no-store, no-cache, must-revalidate, post-check=0, pre-check=0'
p3076
asbasbasbag68
(g84
g70
NtRp3077
(dp3078
g73
(dp3079
sg82
g3051
sg75
(lp3080
g68
(g89
g70
NtRp3081
(dp3082
g73
(dp3083
g93
g94
ssg82
g3077
sg75
(lp3084
S'Content-Type'
p3085
asbag68
(g89
g70
NtRp3086
(dp3087
g73
(dp3088
g100
g101
ssg82
g3077
sg75
(lp3089
S':'
asbag68
(g89
g70
NtRp3090
(dp3091
g73
(dp3092
sg82
g3077
sg75
(lp3093
g68
(g69
g70
NtRp3094
(dp3095
g73
(dp3096
g81
I4
ssg82
g3090
sg75
(lp3097
S'text/html; charset=utf-8'
p3098
asbasbasbag68
(g84
g70
NtRp3099
(dp3100
g73
(dp3101
sg82
g3051
sg75
(lp3102
g68
(g89
g70
NtRp3103
(dp3104
g73
(dp3105
g93
g94
ssg82
g3099
sg75
(lp3106
S'Expires'
p3107
asbag68
(g89
g70
NtRp3108
(dp3109
g73
(dp3110
g100
g101
ssg82
g3099
sg75
(lp3111
S':'
asbag68
(g89
g70
NtRp3112
(dp3113
g73
(dp3114
sg82
g3099
sg75
(lp3115
g68
(g69
g70
NtRp3116
(dp3117
g73
(dp3118
g81
I4
ssg82
g3112
sg75
(lp3119
S'Sat, 01 Jun 2013 12:26:43 GMT'
p3120
asbasbasbag68
(g84
g70
NtRp3121
(dp3122
g73
(dp3123
sg82
g3051
sg75
(lp3124
g68
(g89
g70
NtRp3125
(dp3126
g73
(dp3127
g93
g94
ssg82
g3121
sg75
(lp3128
S'Pragma'
p3129
asbag68
(g89
g70
NtRp3130
(dp3131
g73
(dp3132
g100
g101
ssg82
g3121
sg75
(lp3133
S':'
asbag68
(g89
g70
NtRp3134
(dp3135
g73
(dp3136
sg82
g3121
sg75
(lp3137
g68
(g69
g70
NtRp3138
(dp3139
g73
(dp3140
g81
I4
ssg82
g3134
sg75
(lp3141
S'no-cache'
p3142
asbasbasbag68
(g84
g70
NtRp3143
(dp3144
g73
(dp3145
sg82
g3051
sg75
(lp3146
g68
(g89
g70
NtRp3147
(dp3148
g73
(dp3149
g93
g94
ssg82
g3143
sg75
(lp3150
S'X-Powered-By'
p3151
asbag68
(g89
g70
NtRp3152
(dp3153
g73
(dp3154
g100
g101
ssg82
g3143
sg75
(lp3155
S':'
asbag68
(g89
g70
NtRp3156
(dp3157
g73
(dp3158
sg82
g3143
sg75
(lp3159
g68
(g69
g70
NtRp3160
(dp3161
g73
(dp3162
g81
I4
ssg82
g3156
sg75
(lp3163
S'web2py'
p3164
asbasbasbasbasbasbasbag68
(g84
g70
NtRp3165
(dp3166
g73
(dp3167
sg82
g2674
sg75
(lp3168
g68
(g89
g70
NtRp3169
(dp3170
g73
(dp3171
g93
g94
ssg82
g3165
sg75
(lp3172
S'menu'
p3173
asbag68
(g89
g70
NtRp3174
(dp3175
g73
(dp3176
g100
g101
ssg82
g3165
sg75
(lp3177
S':'
asbag68
(g89
g70
NtRp3178
(dp3179
g73
(dp3180
sg82
g3165
sg75
(lp3181
g68
(g69
g70
NtRp3182
(dp3183
g73
(dp3184
g81
I5
ssg82
g3178
sg75
(lp3185
g68
(g77
g70
NtRp3186
(dp3187
g73
(dp3188
g81
I4
ssg82
Nsg75
(lp3189
sbasbasbasbag68
(g84
g70
NtRp3190
(dp3191
g73
(dp3192
sg82
g2674
sg75
(lp3193
g68
(g89
g70
NtRp3194
(dp3195
g73
(dp3196
g93
g94
ssg82
g3190
sg75
(lp3197
S'meta'
p3198
asbag68
(g89
g70
NtRp3199
(dp3200
g73
(dp3201
g100
g101
ssg82
g3190
sg75
(lp3202
S':'
asbag68
(g89
g70
NtRp3203
(dp3204
g73
(dp3205
sg82
g3190
sg75
(lp3206
g68
(g69
g70
NtRp3207
(dp3208
g73
(dp3209
g81
I5
ssg82
g3203
sg75
(lp3210
g68
(g77
g70
NtRp3211
(dp3212
g73
(dp3213
g81
I4
ssg82
Nsg75
(lp3214
sbasbasbasbag68
(g84
g70
NtRp3215
(dp3216
g73
(dp3217
sg82
g2674
sg75
(lp3218
g68
(g89
g70
NtRp3219
(dp3220
g73
(dp3221
g93
g94
ssg82
g3215
sg75
(lp3222
S'postprocessing'
p3223
asbag68
(g89
g70
NtRp3224
(dp3225
g73
(dp3226
g100
g101
ssg82
g3215
sg75
(lp3227
S':'
asbag68
(g89
g70
NtRp3228
(dp3229
g73
(dp3230
sg82
g3215
sg75
(lp3231
g68
(g69
g70
NtRp3232
(dp3233
g73
(dp3234
g81
I5
ssg82
g3228
sg75
(lp3235
g68
(g77
g70
NtRp3236
(dp3237
g73
(dp3238
g81
I4
ssg82
Nsg75
(lp3239
sbasbasbasbag68
(g84
g70
NtRp3240
(dp3241
g73
(dp3242
sg82
g2674
sg75
(lp3243
g68
(g89
g70
NtRp3244
(dp3245
g73
(dp3246
g93
g94
ssg82
g3240
sg75
(lp3247
S'session_filename'
p3248
asbag68
(g89
g70
NtRp3249
(dp3250
g73
(dp3251
g100
g101
ssg82
g3240
sg75
(lp3252
S':'
asbag68
(g89
g70
NtRp3253
(dp3254
g73
(dp3255
sg82
g3240
sg75
(lp3256
g68
(g69
g70
NtRp3257
(dp3258
g73
(dp3259
g81
I5
ssg82
g3253
sg75
(lp3260
S'/home/enigma/web2py/applications/911_signin/sessions/127.0.0.1-ad633386-a4e5-48c4-829b-b18225bacc2c'
p3261
asbasbasbag68
(g84
g70
NtRp3262
(dp3263
g73
(dp3264
sg82
g2674
sg75
(lp3265
g68
(g89
g70
NtRp3266
(dp3267
g73
(dp3268
g93
g94
ssg82
g3262
sg75
(lp3269
S'session_id'
p3270
asbag68
(g89
g70
NtRp3271
(dp3272
g73
(dp3273
g100
g101
ssg82
g3262
sg75
(lp3274
S':'
asbag68
(g89
g70
NtRp3275
(dp3276
g73
(dp3277
sg82
g3262
sg75
(lp3278
g68
(g69
g70
NtRp3279
(dp3280
g73
(dp3281
g81
I5
ssg82
g3275
sg75
(lp3282
S'127.0.0.1-ad633386-a4e5-48c4-829b-b18225bacc2c'
p3283
asbasbasbag68
(g84
g70
NtRp3284
(dp3285
g73
(dp3286
sg82
g2674
sg75
(lp3287
g68
(g89
g70
NtRp3288
(dp3289
g73
(dp3290
g93
g94
ssg82
g3284
sg75
(lp3291
S'session_id_name'
p3292
asbag68
(g89
g70
NtRp3293
(dp3294
g73
(dp3295
g100
g101
ssg82
g3284
sg75
(lp3296
S':'
asbag68
(g89
g70
NtRp3297
(dp3298
g73
(dp3299
sg82
g3284
sg75
(lp3300
g68
(g69
g70
NtRp3301
(dp3302
g73
(dp3303
g81
I5
ssg82
g3297
sg75
(lp3304
g2731
asbasbasbag68
(g84
g70
NtRp3305
(dp3306
g73
(dp3307
sg82
g2674
sg75
(lp3308
g68
(g89
g70
NtRp3309
(dp3310
g73
(dp3311
g93
g94
ssg82
g3305
sg75
(lp3312
S'session_new'
p3313
asbag68
(g89
g70
NtRp3314
(dp3315
g73
(dp3316
g100
g101
ssg82
g3305
sg75
(lp3317
S':'
asbag68
(g89
g70
NtRp3318
(dp3319
g73
(dp3320
sg82
g3305
sg75
(lp3321
g68
(g69
g70
NtRp3322
(dp3323
g73
(dp3324
g81
I5
ssg82
g3318
sg75
(lp3325
g1297
asbasbasbag68
(g84
g70
NtRp3326
(dp3327
g73
(dp3328
sg82
g2674
sg75
(lp3329
g68
(g89
g70
NtRp3330
(dp3331
g73
(dp3332
g93
g94
ssg82
g3326
sg75
(lp3333
S'status'
p3334
asbag68
(g89
g70
NtRp3335
(dp3336
g73
(dp3337
g100
g101
ssg82
g3326
sg75
(lp3338
S':'
asbag68
(g89
g70
NtRp3339
(dp3340
g73
(dp3341
sg82
g3326
sg75
(lp3342
g68
(g69
g70
NtRp3343
(dp3344
g73
(dp3345
g81
I5
ssg82
g3339
sg75
(lp3346
S'200'
p3347
asbasbasbag68
(g84
g70
NtRp3348
(dp3349
g73
(dp3350
sg82
g2674
sg75
(lp3351
g68
(g89
g70
NtRp3352
(dp3353
g73
(dp3354
g93
g94
ssg82
g3348
sg75
(lp3355
g1961
asbag68
(g89
g70
NtRp3356
(dp3357
g73
(dp3358
g100
g101
ssg82
g3348
sg75
(lp3359
S':'
asbag68
(g89
g70
NtRp3360
(dp3361
g73
(dp3362
sg82
g3348
sg75
(lp3363
g68
(g69
g70
NtRp3364
(dp3365
g73
(dp3366
g81
I5
ssg82
g3360
sg75
(lp3367
g1974
asbasbasbag68
(g84
g70
NtRp3368
(dp3369
g73
(dp3370
sg82
g2674
sg75
(lp3371
g68
(g89
g70
NtRp3372
(dp3373
g73
(dp3374
g93
g94
ssg82
g3368
sg75
(lp3375
S'view'
p3376
asbag68
(g89
g70
NtRp3377
(dp3378
g73
(dp3379
g100
g101
ssg82
g3368
sg75
(lp3380
S':'
asbag68
(g89
g70
NtRp3381
(dp3382
g73
(dp3383
sg82
g3368
sg75
(lp3384
g68
(g69
g70
NtRp3385
(dp3386
g73
(dp3387
g81
I5
ssg82
g3381
sg75
(lp3388
S'default/index.html'
p3389
asbasbasbasbasbsS'locals'
p3390
(dp3391
g4
S"'/home/enigma/web2py/applications/911_signin/models/db.py'"
p3392
sg6
S"'# -*- coding: utf-8 -*-\\n\\n#######################..._EMPTY(), IS_LENGTH(32), IS_ALPHANUMERIC()] )\\n\\t)\\n'"
p3393
sssS'traceback'
p3394
S'Traceback (most recent call last):\n  File "/home/enigma/web2py/gluon/restricted.py", line 204, in restricted\n    ccode = compile2(code,layer)\n  File "/home/enigma/web2py/gluon/restricted.py", line 189, in compile2\n    return compile(code.rstrip().replace(\'\\r\\n\',\'\\n\')+\'\\n\', layer, \'exec\')\n  File "/home/enigma/web2py/applications/911_signin/models/db.py", line 98\n    db.define_table(\'message\',\n     ^\nSyntaxError: invalid syntax\n'
p3395
s.