(dp1
S'subject'
p2
(dp3
S'type'
p4
S'string'
p5
sS'sortable'
p6
I2
sS'sql'
p7
S'CHAR(512)'
p8
ssS'question'
p9
(dp10
g4
S'text'
p11
sg6
I3
sg7
S'TEXT'
p12
ssS'id'
p13
(dp14
g4
S'id'
p15
sg6
I1
sg7
S'INTEGER PRIMARY KEY AUTOINCREMENT'
p16
ssS'name'
p17
(dp18
S'sortable'
p19
I2
sS'type'
p20
S'string'
p21
sS'sql'
p22
S'CHAR(512)'
p23
ss.