(dp1
S'username'
p2
(dp3
S'type'
p4
S'string'
p5
sS'sortable'
p6
I4
sS'sql'
p7
S'CHAR(32)'
p8
ssS'first_name'
p9
(dp10
g4
g5
sg6
I2
sg7
S'CHAR(512)'
p11
ssS'last_name'
p12
(dp13
g4
g5
sg6
I3
sg7
S'CHAR(512)'
p14
ssS'unread_ctr'
p15
(dp16
S'type'
p17
S'string'
p18
sS'sortable'
p19
I6
sS'sql'
p20
S'CHAR(512)'
p21
ssS'email'
p22
(dp23
g4
g5
sg6
I5
sg7
S'CHAR(512)'
p24
ssS'id'
p25
(dp26
g4
S'id'
p27
sg6
I1
sg7
S'INTEGER PRIMARY KEY AUTOINCREMENT'
p28
ss.