(dp1
S'output'
p2
S"<type 'exceptions.SyntaxError'> invalid syntax (profile.html, line 74)"
p3
sS'layer'
p4
S'/home/enigma/web2py/applications/911_signin/views/default/profile.html'
p5
sS'code'
p6
S'response.write(\'<!DOCTYPE html>\\n<!-- paulirish.com/2008/conditional-stylesheets-vs-css-hacks-answer-neither/ -->\\n<!--[if lt IE 7]><html class="ie ie6 ie-lte9 ie-lte8 ie-lte7 no-js" lang="\', escape=False)\nresponse.write(T.accepted_language or \'en\')\nresponse.write(\'"> <![endif]-->\\n<!--[if IE 7]><html class="ie ie7 ie-lte9 ie-lte8 ie-lte7 no-js" lang="\', escape=False)\nresponse.write(T.accepted_language or \'en\')\nresponse.write(\'"> <![endif]-->\\n<!--[if IE 8]><html class="ie ie8 ie-lte9 ie-lte8 no-js" lang="\', escape=False)\nresponse.write(T.accepted_language or \'en\')\nresponse.write(\'"> <![endif]-->\\n<!--[if IE 9]><html class="ie9 ie-lte9 no-js" lang="\', escape=False)\nresponse.write(T.accepted_language or \'en\')\nresponse.write(\'"> <![endif]-->\\n<!--[if (gt IE 9)|!(IE)]><!--> <html class="no-js" lang="\', escape=False)\nresponse.write(T.accepted_language or \'en\')\nresponse.write(\'"> <!--<![endif]-->\\n<head>\\n  <meta charset="utf-8" />\\n  <!-- www.phpied.com/conditional-comments-block-downloads/ -->\\n  <!-- Always force latest IE rendering engine\\n       (even in intranet) & Chrome Frame\\n       Remove this if you use the .htaccess -->\\n  <!--[if IE]>\\n    <meta http-equiv="X-UA-Compatible" content="IE=edge\', escape=False)\nresponse.write(not request.is_local and \',chrome=1\' or \'\')\nresponse.write(\'">\\n  <![endif]-->\\n  \\n  <title>\', escape=False)\nresponse.write(response.title or request.application)\nresponse.write(\'</title>\\n  \\n  <!-- http://dev.w3.org/html5/markup/meta.name.html -->\\n  <meta name="application-name" content="\', escape=False)\nresponse.write(request.application)\nresponse.write(\'" />\\n  \\n  <!-- Speaking of Google, don\\\'t forget to set your site up:\\n       http://google.com/webmasters -->\\n  <meta name="google-site-verification" content="" />\\n\\n  <!--  Mobile Viewport Fix\\n      j.mp/mobileviewport & davidbcalhoun.com/2010/viewport-metatag\\n      device-width: Occupy full width of the screen in its current orientation\\n      initial-scale = 1.0 retains dimensions instead of zooming out if page height > device height\\n      user-scalable = yes allows the user to zoom in -->\\n  <meta name="viewport" content="width=device-width, initial-scale=1.0, user-scalable=yes">\\n  \\n  <!-- Place favicon.ico and apple-touch-icon.png in the root of your domain and delete these references \\n  <link rel="shortcut icon" href="\', escape=False)\nresponse.write(URL(\'static\',\'favicon.ico\'))\nresponse.write(\'" type="image/x-icon"> -->\\n  <link rel="apple-touch-icon" href="\', escape=False)\nresponse.write(URL(\'static\',\'favicon.png\'))\nresponse.write(\'">\\n\\n  <!-- All JavaScript at the bottom, except for Modernizr which enables \\n       HTML5 elements & feature detects -->\\n  <script src="\', escape=False)\nresponse.write(URL(\'static\',\'js/modernizr.custom.js\'))\nresponse.write(\'"></script>  \\n\\n  <!-- include stylesheets -->\\n  \', escape=False)\nresponse.files.append(URL(\'static\',\'css/skeleton.css\'))\nresponse.files.append(URL(\'static\',\'css/web2py.css\'))\nif response.menu:\n    response.files.append(URL(\'static\',\'css/superfish.css\'))\n    response.files.append(URL(\'static\',\'js/superfish.js\'))\n    pass\nresponse.files.append(URL(\'static\',\'css/911_signin.css\'))\nresponse.write(\'\\n\\n  \', escape=False)\nresponse.write(\'<script type="text/javascript"><!--\\n    // These variables are used by the web2py_ajax_init function in web2py_ajax.js (which is loaded below).\\n    var w2p_ajax_confirm_message = "\', escape=False)\nresponse.write(T(\'Are you sure you want to delete this object?\'))\nresponse.write(\'";\\n    var w2p_ajax_date_format = "\', escape=False)\nresponse.write(T(\'%Y-%m-%d\'))\nresponse.write(\'";\\n    var w2p_ajax_datetime_format = "\', escape=False)\nresponse.write(T(\'%Y-%m-%d %H:%M:%S\'))\nresponse.write(\'";\\n    //--></script>\\n\', escape=False)\nresponse.files.insert(0,URL(\'static\',\'js/jquery.js\'))\nresponse.files.insert(1,URL(\'static\',\'css/calendar.css\'))\nresponse.files.insert(2,URL(\'static\',\'js/calendar.js\'))\nresponse.files.insert(3,URL(\'static\',\'js/web2py.js\'))\nresponse.include_meta()\nresponse.include_files()\nresponse.write(\'\\n\', escape=False)\nresponse.write(\'\\n\\n  \', escape=False)\nif response.menu:\n    response.write(\'\\n  <script type="text/javascript">\\n    jQuery(function(){ jQuery(\\\'ul.sf-menu\\\').supersubs({minWidth:12,maxWidth:30,extraWidth:3}).superfish(); });\\n  </script>\\n  \', escape=False)\n    pass\nresponse.write(\'\\n\\n  \', escape=False)\n# using sidebars need to know what sidebar you want to use\nleft_sidebar_enabled = globals().get(\'left_sidebar_enabled\',False)\nright_sidebar_enabled = globals().get(\'right_sidebar_enabled\',False)\nmiddle_columns = {0:\'sixteen\',1:\'twelve\',2:\'eight\'}[\n(left_sidebar_enabled and 1 or 0)+(right_sidebar_enabled and 1 or 0)]\nresponse.write(\'\\n\\n  <!-- uncomment here to load jquery-ui\\n  <link rel="stylesheet" href="http://ajax.googleapis.com/ajax/libs/jqueryui/1.8.16/themes/base/jquery-ui.css" type="text/css" media="all" />\\n  <script src="http://ajax.googleapis.com/ajax/libs/jqueryui/1.8.16/jquery-ui.min.js" type="text/javascript"></script>\\n  uncomment to load jquery-ui //-->\\n</head>\\n<body>\\n  <div class="wrapper"><!-- for sticky footer -->\\n  \\n    <div class="topbar">\\n      <div class="container">    \\n        <div class="sixteen columns">\\n          <div id="navbar">\', escape=False)\nresponse.write(\'auth\' in globals() and auth.navbar(separators=(\' \',\' | \',\'\')))\nresponse.write(\'</div>\\n          \', escape=False)\nis_mobile=request.user_agent().is_mobile\nresponse.write(\'\\n      \', escape=False)\nif response.menu:\n    response.write(\'\\n          <div id="menu">\\n             <strong><h6><a href= \', escape=False)\n    response.write(URL(\'index\'))\n    response.write(\'>HOME</a></h6></strong>\\n          </div>\\n          \', escape=False)\n    pass\nresponse.write(\'\\n        </div>\\n      </div>\\n    </div><!-- topbar -->\\n    \\n    <div class="flash">\', escape=False)\nresponse.write(response.flash or \'\')\nresponse.write(\'</div>\\n    \\n    <div class="header">\\n      <div class="container">         \\n        <div class="sixteen columns">\\n\\t\\t\\t\\t\\t<div class="profile-pic">\\n\\t\\t\\t\\t\\t\\t\', escape=False)\nimage_list = db(db.profile_pic.uname == request.args(0)).select()\nresponse.write(\'\\n\\t\\t\\t\\t\\t\\t\', escape=False)\nif image_list:\n    response.write(\'\\n\\t\\t\\t\\t\\t\\t\', escape=False)\n    image = URL(\'download\', args=image_list.first().file\n    response.write(\'\\n\\t\\t\\t\\t\\t\\t\', escape=False)\nelse:\n    response.write(\'\\n\\t\\t\\t\\t\\t\\t\', escape=False)\n    image="../../static/images/profile.jpg"\n    response.write(\'\\n\\t\\t\\t\\t\\t\\t\', escape=False)\n    pass\nresponse.write(\'\\n\\t\\t\\t\\t\\t\\t<img src="\', escape=False)\nresponse.write(image)\nresponse.write(\'">\\n\\t\\t\\t\\t\\t</div>\\n\\t\\t\\t\\t\\t<div class="connections">\\n\\t\\t\\t\\t\\t\\t325 connections<br />\\n\\t\\t\\t\\t\\t\\th-network/\', escape=False)\nresponse.write(auth.user.username)\nresponse.write(\'\\n\\t\\t\\t\\t\\t</div>\\n\\t\\t\\t\\t</div>\\n      </div>\\n    </div>\\n\\n    <div class="main">\\n      <div class="container">                 \\n        \', escape=False)\nif left_sidebar_enabled:\n    response.write(\'\\n        <div class="four columns left-sidebar">\\n          \', escape=False)\n    response.write(\'\\n          <h3>Left Sidebar</h3>\\n          <p></p>\\n          \', escape=False)\n    response.write(\'\\n        </div>\\n        \', escape=False)\n    pass\nresponse.write(\'\\n        \\n        <div class="\', escape=False)\nresponse.write(middle_columns)\nresponse.write(\' columns center">\\n          \', escape=False)\nresponse.write(\'\\n          \', escape=False)\nresponse.write(\'\\n\', escape=False)\nif request.args(0) == auth.user.username:\n    response.write("\\n<div class=\'profile-page\'>\\n\\t<h4>ABOUT</h4>\\n\\t", escape=False)\n    response.write(form)\n    response.write("\\n\\t<div class=\'experience\'>\\n\\t\\t<h4>EXPERIENCE</h4>\\n\\t\\t", escape=False)\n    for row in experience:\n        response.write(\'\\n\\t\\t<h5>\', escape=False)\n        response.write(row.post)\n        response.write("</h5>\\n\\t\\t<div id=\'place\'>", escape=False)\n        response.write(row.hospital)\n        response.write(\' | \', escape=False)\n        response.write(row.city)\n        response.write(\', \', escape=False)\n        response.write(row.country)\n        response.write("</div>\\n\\t\\t<div id=\'date\'>", escape=False)\n        response.write(row.start_date)\n        response.write(\' to \', escape=False)\n        response.write(row.end_date)\n        response.write("</div>\\n\\t\\t<div id=\'desc\'>", escape=False)\n        response.write(row.description)\n        response.write(\'</div><br />\\n\\t\\t\', escape=False)\n        pass\n    response.write("\\n\\t\\t<div id=\'add-experience-trigger\' class=\'trigger\'>Add experience</div>\\n\\t\\t<div id=\'add-experience\'>\\n\\t\\t\\t", escape=False)\n    response.write(form2)\n    response.write("\\n\\t\\t\\t<div id=\'add-experience-trigger2\' class=\'trigger\'>Hide Form</div>\\n\\t\\t</div>\\t\\n\\t</div>\\t\\n\\n\\t<div class=\'education\'>\\n\\t<h4>EDUCATION</h4>\\n\\t\\t", escape=False)\n    for row in education:\n        response.write(\'\\n\\t\\t<h5>\', escape=False)\n        response.write(row.degree)\n        response.write("</h5>\\n\\t\\t<div id=\'place\'>", escape=False)\n        response.write(row.institute)\n        response.write(\' | \', escape=False)\n        response.write(row.city)\n        response.write(\', \', escape=False)\n        response.write(row.country)\n        response.write("</div>\\n\\t\\t<div id=\'date\'>", escape=False)\n        response.write(row.start_date)\n        response.write(\' to \', escape=False)\n        response.write(row.end_date)\n        response.write("</div>\\n\\t\\t<div id=\'desc\'>", escape=False)\n        response.write(row.description)\n        response.write(\'</div><br />\\n\\t\\t\', escape=False)\n        pass\n    response.write("\\n\\n\\t<div id=\'add-education-trigger\' class=\'trigger\'>Add education</div>\\n\\t<div id=\'add-education\'>\\n\\t\\t", escape=False)\n    response.write(form3)\n    response.write(\'\\n\\t\\t<div id=\\\'add-education-trigger2\\\' class=\\\'trigger\\\'>Hide Form</div>\\n\\t</div>\\t\\n\\t</div>\\t\\n</div>\\n\\n<script src="\', escape=False)\n    response.write(URL(\'static\',\'js/911_profile.js\'))\n    response.write(\'"></script>\\n\\n\', escape=False)\nelse:\n    response.write("\\n\\n<div class=\'user-profile\'>\\n</div>\\n\\n", escape=False)\n    pass\nresponse.write(\'\\n\', escape=False)\nresponse.write(\'\\n          \', escape=False)\nresponse.write(\'\\n        </div>\\n        \\n        \', escape=False)\nif right_sidebar_enabled:\n    response.write(\'\\n        <div class="four columns">\\n          \', escape=False)\n    response.write(\'\\n          <h3>Right Sidebar</h3>\\n          <p></p>\\n          \', escape=False)\n    response.write(\'\\n        </div>    \\n        \', escape=False)\n    pass\nresponse.write(\'\\n        \\n      </div><!-- container -->\\n    </div><!-- main -->\\n    \\n    <div class="push"></div>\\n  </div><!-- wrapper -->\\n\\n  <div class="footer">\\n    <div class="container">    \\n      <div class="sixteen columns">\\n\\t\\t\\t\\t\', escape=False)\nresponse.write(\' <!-- this is default footer -->\\n\\t\\t\\t\\t<div class="footer-content clearfix">\\n          <div class="copyright">\', escape=False)\nresponse.write(T(\'Copyright\'))\nresponse.write(\' &#169; 2013</div>\\n          <div style="float: right;">\\n            <a href="http://www.web2py.com/">\\n            <img style="padding-bottom: 0;" src="\', escape=False)\nresponse.write(URL(\'static\',\'images/poweredby.png\'))\nresponse.write(\'"/>\\n            </a>\\n          </div>\\n        </div>\\n      </div>\\n    </div><!-- container -->\\n  </div><!-- footer -->\\n  \\n  <!--[if lt IE 7 ]>\\n    <script src="\', escape=False)\nresponse.write(URL(\'static\',\'js/dd_belatedpng.js\'))\nresponse.write(\'"></script>\\n    <script> DD_belatedPNG.fix(\\\'img, .png_bg\\\'); //fix any <img> or .png_bg background-images </script>\\n    <![endif]-->\\n  \', escape=False)\nif response.google_analytics_id:\n    response.write(\'<script type="text/javascript"> var _gaq = _gaq || []; _gaq.push([\\\'_setAccount\\\', \\\'\', escape=False)\n    response.write(response.google_analytics_id)\n    response.write("\']); _gaq.push([\'_trackPageview\']); (function() { var ga = document.createElement(\'script\'); ga.type = \'text/javascript\'; ga.async = true; ga.src = (\'https:\' == document.location.protocol ? \'https://ssl\' : \'http://www\') + \'.google-analytics.com/ga.js\'; var s = document.getElementsByTagName(\'script\')[0]; s.parentNode.insertBefore(ga, s); })(); </script> ", escape=False)\n    pass\nresponse.write(\'\\n</body>\\n</html>\\n\', escape=False)'
p7
sS'snapshot'
p8
(dp9
S'exception'
p10
(dp11
S'__getslice__'
p12
S"<method-wrapper '__getslice__' of exceptions.SyntaxError object>"
p13
sS'text'
p14
S'"    response.write(\'\\\\n\\\\t\\\\t\\\\t\\\\t\\\\t\\\\t\', escape=False)\\n"'
p15
sS'__str__'
p16
S"<method-wrapper '__str__' of exceptions.SyntaxError object>"
p17
sS'__reduce__'
p18
S'<built-in method __reduce__ of exceptions.SyntaxError object>'
p19
sS'__dict__'
p20
S'{}'
p21
sS'__sizeof__'
p22
S'<built-in method __sizeof__ of exceptions.SyntaxError object>'
p23
sS'__init__'
p24
S"<method-wrapper '__init__' of exceptions.SyntaxError object>"
p25
sS'__setattr__'
p26
S"<method-wrapper '__setattr__' of exceptions.SyntaxError object>"
p27
sS'__reduce_ex__'
p28
S'<built-in method __reduce_ex__ of exceptions.SyntaxError object>'
p29
sS'__new__'
p30
S'<built-in method __new__ of type object>'
p31
sS'__format__'
p32
S'<built-in method __format__ of exceptions.SyntaxError object>'
p33
sS'__class__'
p34
S"<type 'exceptions.SyntaxError'>"
p35
sS'filename'
p36
S"'/home/enigma/web2py/applications/911_signin/views/default/profile.html'"
p37
sS'lineno'
p38
S'74'
p39
sS'msg'
p40
S"'invalid syntax'"
p41
sS'__doc__'
p42
S"'Invalid syntax.'"
p43
sS'__getitem__'
p44
S"<method-wrapper '__getitem__' of exceptions.SyntaxError object>"
p45
sS'__setstate__'
p46
S'<built-in method __setstate__ of exceptions.SyntaxError object>'
p47
sS'__getattribute__'
p48
S"<method-wrapper '__getattribute__' of exceptions.SyntaxError object>"
p49
sS'print_file_and_line'
p50
S'None'
p51
sS'args'
p52
S'(\'invalid syntax\', (\'/home/enigma/web2py/applications/911_signin/views/default/profile.html\', 74, 12, "    response.write(\'\\\\n\\\\t\\\\t\\\\t\\\\t\\\\t\\\\t\', escape=False)\\n"))'
p53
sS'__subclasshook__'
p54
S'<built-in method __subclasshook__ of type object>'
p55
sS'offset'
p56
S'12'
p57
sS'__unicode__'
p58
S'<built-in method __unicode__ of exceptions.SyntaxError object>'
p59
sS'__delattr__'
p60
S"<method-wrapper '__delattr__' of exceptions.SyntaxError object>"
p61
sS'__repr__'
p62
S"<method-wrapper '__repr__' of exceptions.SyntaxError object>"
p63
sS'__hash__'
p64
S"<method-wrapper '__hash__' of exceptions.SyntaxError object>"
p65
ssS'evalue'
p66
S'invalid syntax (profile.html, line 74)'
p67
sS'request'
p68
ccopy_reg
_reconstructor
p69
(cgluon.html
BEAUTIFY
p70
c__builtin__
object
p71
NtRp72
(dp73
S'attributes'
p74
(dp75
sS'components'
p76
(lp77
g69
(cgluon.html
TABLE
p78
g71
NtRp79
(dp80
g74
(dp81
S'level'
p82
I5
ssS'parent'
p83
Nsg76
(lp84
g69
(cgluon.html
TR
p85
g71
NtRp86
(dp87
g74
(dp88
sg83
g79
sg76
(lp89
g69
(cgluon.html
TD
p90
g71
NtRp91
(dp92
g74
(dp93
S'_style'
p94
S'font-weight:bold;vertical-align:top'
p95
ssg83
g86
sg76
(lp96
S'ajax'
p97
asbag69
(g90
g71
NtRp98
(dp99
g74
(dp100
S'_valign'
p101
S'top'
p102
ssg83
g86
sg76
(lp103
S':'
asbag69
(g90
g71
NtRp104
(dp105
g74
(dp106
sg83
g86
sg76
(lp107
g69
(g70
g71
NtRp108
(dp109
g74
(dp110
g82
I5
ssg83
g104
sg76
(lp111
S'False'
p112
asbasbasbag69
(g85
g71
NtRp113
(dp114
g74
(dp115
sg83
g79
sg76
(lp116
g69
(g90
g71
NtRp117
(dp118
g74
(dp119
g94
g95
ssg83
g113
sg76
(lp120
S'application'
p121
asbag69
(g90
g71
NtRp122
(dp123
g74
(dp124
g101
g102
ssg83
g113
sg76
(lp125
S':'
asbag69
(g90
g71
NtRp126
(dp127
g74
(dp128
sg83
g113
sg76
(lp129
g69
(g70
g71
NtRp130
(dp131
g74
(dp132
g82
I5
ssg83
g126
sg76
(lp133
S'911_signin'
p134
asbasbasbag69
(g85
g71
NtRp135
(dp136
g74
(dp137
sg83
g79
sg76
(lp138
g69
(g90
g71
NtRp139
(dp140
g74
(dp141
g94
g95
ssg83
g135
sg76
(lp142
g52
asbag69
(g90
g71
NtRp143
(dp144
g74
(dp145
g101
g102
ssg83
g135
sg76
(lp146
S':'
asbag69
(g90
g71
NtRp147
(dp148
g74
(dp149
sg83
g135
sg76
(lp150
g69
(g70
g71
NtRp151
(dp152
g74
(dp153
g82
I5
ssg83
g147
sg76
(lp154
g69
(g78
g71
NtRp155
(dp156
g74
(dp157
g82
I4
ssg83
Nsg76
(lp158
g69
(g85
g71
NtRp159
(dp160
g74
(dp161
sg83
g155
sg76
(lp162
g69
(g90
g71
NtRp163
(dp164
g74
(dp165
sg83
g159
sg76
(lp166
g69
(g70
g71
NtRp167
(dp168
g74
(dp169
g82
I4
ssg83
g163
sg76
(lp170
S'admi'
p171
asbasbasbasbasbasbasbag69
(g85
g71
NtRp172
(dp173
g74
(dp174
sg83
g79
sg76
(lp175
g69
(g90
g71
NtRp176
(dp177
g74
(dp178
g94
g95
ssg83
g172
sg76
(lp179
S'body'
p180
asbag69
(g90
g71
NtRp181
(dp182
g74
(dp183
g101
g102
ssg83
g172
sg76
(lp184
S':'
asbag69
(g90
g71
NtRp185
(dp186
g74
(dp187
sg83
g172
sg76
(lp188
g69
(g70
g71
NtRp189
(dp190
g74
(dp191
g82
I5
ssg83
g185
sg76
(lp192
S'<cStringIO.StringO object at 0xade81c20>'
p193
asbasbasbag69
(g85
g71
NtRp194
(dp195
g74
(dp196
sg83
g79
sg76
(lp197
g69
(g90
g71
NtRp198
(dp199
g74
(dp200
g94
g95
ssg83
g194
sg76
(lp201
S'client'
p202
asbag69
(g90
g71
NtRp203
(dp204
g74
(dp205
g101
g102
ssg83
g194
sg76
(lp206
S':'
asbag69
(g90
g71
NtRp207
(dp208
g74
(dp209
sg83
g194
sg76
(lp210
g69
(g70
g71
NtRp211
(dp212
g74
(dp213
g82
I5
ssg83
g207
sg76
(lp214
S'127.0.0.1'
p215
asbasbasbag69
(g85
g71
NtRp216
(dp217
g74
(dp218
sg83
g79
sg76
(lp219
g69
(g90
g71
NtRp220
(dp221
g74
(dp222
g94
g95
ssg83
g216
sg76
(lp223
S'controller'
p224
asbag69
(g90
g71
NtRp225
(dp226
g74
(dp227
g101
g102
ssg83
g216
sg76
(lp228
S':'
asbag69
(g90
g71
NtRp229
(dp230
g74
(dp231
sg83
g216
sg76
(lp232
g69
(g70
g71
NtRp233
(dp234
g74
(dp235
g82
I5
ssg83
g229
sg76
(lp236
S'default'
p237
asbasbasbag69
(g85
g71
NtRp238
(dp239
g74
(dp240
sg83
g79
sg76
(lp241
g69
(g90
g71
NtRp242
(dp243
g74
(dp244
g94
g95
ssg83
g238
sg76
(lp245
S'cookies'
p246
asbag69
(g90
g71
NtRp247
(dp248
g74
(dp249
g101
g102
ssg83
g238
sg76
(lp250
S':'
asbag69
(g90
g71
NtRp251
(dp252
g74
(dp253
sg83
g238
sg76
(lp254
g69
(g70
g71
NtRp255
(dp256
g74
(dp257
g82
I5
ssg83
g251
sg76
(lp258
g69
(g78
g71
NtRp259
(dp260
g74
(dp261
g82
I4
ssg83
Nsg76
(lp262
g69
(g85
g71
NtRp263
(dp264
g74
(dp265
sg83
g259
sg76
(lp266
g69
(g90
g71
NtRp267
(dp268
g74
(dp269
g94
g95
ssg83
g263
sg76
(lp270
S'session_id_911_signin'
p271
asbag69
(g90
g71
NtRp272
(dp273
g74
(dp274
g101
g102
ssg83
g263
sg76
(lp275
S':'
asbag69
(g90
g71
NtRp276
(dp277
g74
(dp278
sg83
g263
sg76
(lp279
g69
(g70
g71
NtRp280
(dp281
g74
(dp282
g82
I4
ssg83
g276
sg76
(lp283
g69
(g78
g71
NtRp284
(dp285
g74
(dp286
g82
I3
ssg83
Nsg76
(lp287
g69
(g85
g71
NtRp288
(dp289
g74
(dp290
sg83
g284
sg76
(lp291
g69
(g90
g71
NtRp292
(dp293
g74
(dp294
g94
g95
ssg83
g288
sg76
(lp295
S'comment'
p296
asbag69
(g90
g71
NtRp297
(dp298
g74
(dp299
g101
g102
ssg83
g288
sg76
(lp300
S':'
asbag69
(g90
g71
NtRp301
(dp302
g74
(dp303
sg83
g288
sg76
(lp304
g69
(g70
g71
NtRp305
(dp306
g74
(dp307
g82
I3
ssg83
g301
sg76
(lp308
S''
asbasbasbag69
(g85
g71
NtRp309
(dp310
g74
(dp311
sg83
g284
sg76
(lp312
g69
(g90
g71
NtRp313
(dp314
g74
(dp315
g94
g95
ssg83
g309
sg76
(lp316
S'domain'
p317
asbag69
(g90
g71
NtRp318
(dp319
g74
(dp320
g101
g102
ssg83
g309
sg76
(lp321
S':'
asbag69
(g90
g71
NtRp322
(dp323
g74
(dp324
sg83
g309
sg76
(lp325
g69
(g70
g71
NtRp326
(dp327
g74
(dp328
g82
I3
ssg83
g322
sg76
(lp329
S''
asbasbasbag69
(g85
g71
NtRp330
(dp331
g74
(dp332
sg83
g284
sg76
(lp333
g69
(g90
g71
NtRp334
(dp335
g74
(dp336
g94
g95
ssg83
g330
sg76
(lp337
S'expires'
p338
asbag69
(g90
g71
NtRp339
(dp340
g74
(dp341
g101
g102
ssg83
g330
sg76
(lp342
S':'
asbag69
(g90
g71
NtRp343
(dp344
g74
(dp345
sg83
g330
sg76
(lp346
g69
(g70
g71
NtRp347
(dp348
g74
(dp349
g82
I3
ssg83
g343
sg76
(lp350
S''
asbasbasbag69
(g85
g71
NtRp351
(dp352
g74
(dp353
sg83
g284
sg76
(lp354
g69
(g90
g71
NtRp355
(dp356
g74
(dp357
g94
g95
ssg83
g351
sg76
(lp358
S'httponly'
p359
asbag69
(g90
g71
NtRp360
(dp361
g74
(dp362
g101
g102
ssg83
g351
sg76
(lp363
S':'
asbag69
(g90
g71
NtRp364
(dp365
g74
(dp366
sg83
g351
sg76
(lp367
g69
(g70
g71
NtRp368
(dp369
g74
(dp370
g82
I3
ssg83
g364
sg76
(lp371
S''
asbasbasbag69
(g85
g71
NtRp372
(dp373
g74
(dp374
sg83
g284
sg76
(lp375
g69
(g90
g71
NtRp376
(dp377
g74
(dp378
g94
g95
ssg83
g372
sg76
(lp379
S'max-age'
p380
asbag69
(g90
g71
NtRp381
(dp382
g74
(dp383
g101
g102
ssg83
g372
sg76
(lp384
S':'
asbag69
(g90
g71
NtRp385
(dp386
g74
(dp387
sg83
g372
sg76
(lp388
g69
(g70
g71
NtRp389
(dp390
g74
(dp391
g82
I3
ssg83
g385
sg76
(lp392
S''
asbasbasbag69
(g85
g71
NtRp393
(dp394
g74
(dp395
sg83
g284
sg76
(lp396
g69
(g90
g71
NtRp397
(dp398
g74
(dp399
g94
g95
ssg83
g393
sg76
(lp400
S'path'
p401
asbag69
(g90
g71
NtRp402
(dp403
g74
(dp404
g101
g102
ssg83
g393
sg76
(lp405
S':'
asbag69
(g90
g71
NtRp406
(dp407
g74
(dp408
sg83
g393
sg76
(lp409
g69
(g70
g71
NtRp410
(dp411
g74
(dp412
g82
I3
ssg83
g406
sg76
(lp413
S''
asbasbasbag69
(g85
g71
NtRp414
(dp415
g74
(dp416
sg83
g284
sg76
(lp417
g69
(g90
g71
NtRp418
(dp419
g74
(dp420
g94
g95
ssg83
g414
sg76
(lp421
S'secure'
p422
asbag69
(g90
g71
NtRp423
(dp424
g74
(dp425
g101
g102
ssg83
g414
sg76
(lp426
S':'
asbag69
(g90
g71
NtRp427
(dp428
g74
(dp429
sg83
g414
sg76
(lp430
g69
(g70
g71
NtRp431
(dp432
g74
(dp433
g82
I3
ssg83
g427
sg76
(lp434
S''
asbasbasbag69
(g85
g71
NtRp435
(dp436
g74
(dp437
sg83
g284
sg76
(lp438
g69
(g90
g71
NtRp439
(dp440
g74
(dp441
g94
g95
ssg83
g435
sg76
(lp442
S'version'
p443
asbag69
(g90
g71
NtRp444
(dp445
g74
(dp446
g101
g102
ssg83
g435
sg76
(lp447
S':'
asbag69
(g90
g71
NtRp448
(dp449
g74
(dp450
sg83
g435
sg76
(lp451
g69
(g70
g71
NtRp452
(dp453
g74
(dp454
g82
I3
ssg83
g448
sg76
(lp455
S''
asbasbasbasbasbasbasbag69
(g85
g71
NtRp456
(dp457
g74
(dp458
sg83
g259
sg76
(lp459
g69
(g90
g71
NtRp460
(dp461
g74
(dp462
g94
g95
ssg83
g456
sg76
(lp463
S'session_id_admin'
p464
asbag69
(g90
g71
NtRp465
(dp466
g74
(dp467
g101
g102
ssg83
g456
sg76
(lp468
S':'
asbag69
(g90
g71
NtRp469
(dp470
g74
(dp471
sg83
g456
sg76
(lp472
g69
(g70
g71
NtRp473
(dp474
g74
(dp475
g82
I4
ssg83
g469
sg76
(lp476
g69
(g78
g71
NtRp477
(dp478
g74
(dp479
g82
I3
ssg83
Nsg76
(lp480
g69
(g85
g71
NtRp481
(dp482
g74
(dp483
sg83
g477
sg76
(lp484
g69
(g90
g71
NtRp485
(dp486
g74
(dp487
g94
g95
ssg83
g481
sg76
(lp488
g296
asbag69
(g90
g71
NtRp489
(dp490
g74
(dp491
g101
g102
ssg83
g481
sg76
(lp492
S':'
asbag69
(g90
g71
NtRp493
(dp494
g74
(dp495
sg83
g481
sg76
(lp496
g69
(g70
g71
NtRp497
(dp498
g74
(dp499
g82
I3
ssg83
g493
sg76
(lp500
S''
asbasbasbag69
(g85
g71
NtRp501
(dp502
g74
(dp503
sg83
g477
sg76
(lp504
g69
(g90
g71
NtRp505
(dp506
g74
(dp507
g94
g95
ssg83
g501
sg76
(lp508
g317
asbag69
(g90
g71
NtRp509
(dp510
g74
(dp511
g101
g102
ssg83
g501
sg76
(lp512
S':'
asbag69
(g90
g71
NtRp513
(dp514
g74
(dp515
sg83
g501
sg76
(lp516
g69
(g70
g71
NtRp517
(dp518
g74
(dp519
g82
I3
ssg83
g513
sg76
(lp520
S''
asbasbasbag69
(g85
g71
NtRp521
(dp522
g74
(dp523
sg83
g477
sg76
(lp524
g69
(g90
g71
NtRp525
(dp526
g74
(dp527
g94
g95
ssg83
g521
sg76
(lp528
g338
asbag69
(g90
g71
NtRp529
(dp530
g74
(dp531
g101
g102
ssg83
g521
sg76
(lp532
S':'
asbag69
(g90
g71
NtRp533
(dp534
g74
(dp535
sg83
g521
sg76
(lp536
g69
(g70
g71
NtRp537
(dp538
g74
(dp539
g82
I3
ssg83
g533
sg76
(lp540
S''
asbasbasbag69
(g85
g71
NtRp541
(dp542
g74
(dp543
sg83
g477
sg76
(lp544
g69
(g90
g71
NtRp545
(dp546
g74
(dp547
g94
g95
ssg83
g541
sg76
(lp548
g359
asbag69
(g90
g71
NtRp549
(dp550
g74
(dp551
g101
g102
ssg83
g541
sg76
(lp552
S':'
asbag69
(g90
g71
NtRp553
(dp554
g74
(dp555
sg83
g541
sg76
(lp556
g69
(g70
g71
NtRp557
(dp558
g74
(dp559
g82
I3
ssg83
g553
sg76
(lp560
S''
asbasbasbag69
(g85
g71
NtRp561
(dp562
g74
(dp563
sg83
g477
sg76
(lp564
g69
(g90
g71
NtRp565
(dp566
g74
(dp567
g94
g95
ssg83
g561
sg76
(lp568
g380
asbag69
(g90
g71
NtRp569
(dp570
g74
(dp571
g101
g102
ssg83
g561
sg76
(lp572
S':'
asbag69
(g90
g71
NtRp573
(dp574
g74
(dp575
sg83
g561
sg76
(lp576
g69
(g70
g71
NtRp577
(dp578
g74
(dp579
g82
I3
ssg83
g573
sg76
(lp580
S''
asbasbasbag69
(g85
g71
NtRp581
(dp582
g74
(dp583
sg83
g477
sg76
(lp584
g69
(g90
g71
NtRp585
(dp586
g74
(dp587
g94
g95
ssg83
g581
sg76
(lp588
g401
asbag69
(g90
g71
NtRp589
(dp590
g74
(dp591
g101
g102
ssg83
g581
sg76
(lp592
S':'
asbag69
(g90
g71
NtRp593
(dp594
g74
(dp595
sg83
g581
sg76
(lp596
g69
(g70
g71
NtRp597
(dp598
g74
(dp599
g82
I3
ssg83
g593
sg76
(lp600
S''
asbasbasbag69
(g85
g71
NtRp601
(dp602
g74
(dp603
sg83
g477
sg76
(lp604
g69
(g90
g71
NtRp605
(dp606
g74
(dp607
g94
g95
ssg83
g601
sg76
(lp608
g422
asbag69
(g90
g71
NtRp609
(dp610
g74
(dp611
g101
g102
ssg83
g601
sg76
(lp612
S':'
asbag69
(g90
g71
NtRp613
(dp614
g74
(dp615
sg83
g601
sg76
(lp616
g69
(g70
g71
NtRp617
(dp618
g74
(dp619
g82
I3
ssg83
g613
sg76
(lp620
S''
asbasbasbag69
(g85
g71
NtRp621
(dp622
g74
(dp623
sg83
g477
sg76
(lp624
g69
(g90
g71
NtRp625
(dp626
g74
(dp627
g94
g95
ssg83
g621
sg76
(lp628
g443
asbag69
(g90
g71
NtRp629
(dp630
g74
(dp631
g101
g102
ssg83
g621
sg76
(lp632
S':'
asbag69
(g90
g71
NtRp633
(dp634
g74
(dp635
sg83
g621
sg76
(lp636
g69
(g70
g71
NtRp637
(dp638
g74
(dp639
g82
I3
ssg83
g633
sg76
(lp640
S''
asbasbasbasbasbasbasbasbasbasbasbag69
(g85
g71
NtRp641
(dp642
g74
(dp643
sg83
g79
sg76
(lp644
g69
(g90
g71
NtRp645
(dp646
g74
(dp647
g94
g95
ssg83
g641
sg76
(lp648
S'env'
p649
asbag69
(g90
g71
NtRp650
(dp651
g74
(dp652
g101
g102
ssg83
g641
sg76
(lp653
S':'
asbag69
(g90
g71
NtRp654
(dp655
g74
(dp656
sg83
g641
sg76
(lp657
g69
(g70
g71
NtRp658
(dp659
g74
(dp660
g82
I5
ssg83
g654
sg76
(lp661
g69
(g78
g71
NtRp662
(dp663
g74
(dp664
g82
I4
ssg83
Nsg76
(lp665
g69
(g85
g71
NtRp666
(dp667
g74
(dp668
sg83
g662
sg76
(lp669
g69
(g90
g71
NtRp670
(dp671
g74
(dp672
g94
g95
ssg83
g666
sg76
(lp673
S'app_folders'
p674
asbag69
(g90
g71
NtRp675
(dp676
g74
(dp677
g101
g102
ssg83
g666
sg76
(lp678
S':'
asbag69
(g90
g71
NtRp679
(dp680
g74
(dp681
sg83
g666
sg76
(lp682
g69
(g70
g71
NtRp683
(dp684
g74
(dp685
g82
I4
ssg83
g679
sg76
(lp686
S"set(['/home/enigma/web2py/applications/admin/', '/home/enigma/web2py/applications/911_signin/'])"
p687
asbasbasbag69
(g85
g71
NtRp688
(dp689
g74
(dp690
sg83
g662
sg76
(lp691
g69
(g90
g71
NtRp692
(dp693
g74
(dp694
g94
g95
ssg83
g688
sg76
(lp695
S'applications_parent'
p696
asbag69
(g90
g71
NtRp697
(dp698
g74
(dp699
g101
g102
ssg83
g688
sg76
(lp700
S':'
asbag69
(g90
g71
NtRp701
(dp702
g74
(dp703
sg83
g688
sg76
(lp704
g69
(g70
g71
NtRp705
(dp706
g74
(dp707
g82
I4
ssg83
g701
sg76
(lp708
S'/home/enigma/web2py'
p709
asbasbasbag69
(g85
g71
NtRp710
(dp711
g74
(dp712
sg83
g662
sg76
(lp713
g69
(g90
g71
NtRp714
(dp715
g74
(dp716
g94
g95
ssg83
g710
sg76
(lp717
S'cmd_args'
p718
asbag69
(g90
g71
NtRp719
(dp720
g74
(dp721
g101
g102
ssg83
g710
sg76
(lp722
S':'
asbag69
(g90
g71
NtRp723
(dp724
g74
(dp725
sg83
g710
sg76
(lp726
g69
(g70
g71
NtRp727
(dp728
g74
(dp729
g82
I4
ssg83
g723
sg76
(lp730
g69
(g78
g71
NtRp731
(dp732
g74
(dp733
g82
I3
ssg83
Nsg76
(lp734
sbasbasbasbag69
(g85
g71
NtRp735
(dp736
g74
(dp737
sg83
g662
sg76
(lp738
g69
(g90
g71
NtRp739
(dp740
g74
(dp741
g94
g95
ssg83
g735
sg76
(lp742
S'cmd_options'
p743
asbag69
(g90
g71
NtRp744
(dp745
g74
(dp746
g101
g102
ssg83
g735
sg76
(lp747
S':'
asbag69
(g90
g71
NtRp748
(dp749
g74
(dp750
sg83
g735
sg76
(lp751
g69
(g70
g71
NtRp752
(dp753
g74
(dp754
g82
I4
ssg83
g748
sg76
(lp755
S"<Values at 0x9fdcbac: {'verbose': False, 'ip': '127.0.0.1', 'shutdown_timeout': 5, 'taskbar': False, 'nocron': False, 'pid_filename': 'httpserver.pid', 'maxthreads': None, 'softcron': False, 'server_name': 'ubuntu', 'bpython': False, 'nogui': False, 'port': 8000, 'extcron': False, 'debuglevel': 30, 'test': None, 'folder': '/home/enigma/web2py', 'config': '', 'import_models': False, 'winservice': '', 'shell': None, 'run': '', 'log_filename': 'httpserver.log', 'args': [''], 'socket_timeout': 5, 'ssl_ca_certificate': None, 'scheduler': None, 'profiler_filename': None, 'ssl_private_key': '', 'password': '<ask>', 'request_queue_size': 5, 'ssl_certificate': '', 'cronjob': False, 'numthreads': None, 'quiet': False, 'interfaces': None, 'minthreads': None, 'timeout': 10, 'plain': False, 'nobanner': False}>"
p756
asbasbasbag69
(g85
g71
NtRp757
(dp758
g74
(dp759
sg83
g662
sg76
(lp760
g69
(g90
g71
NtRp761
(dp762
g74
(dp763
g94
g95
ssg83
g757
sg76
(lp764
S'db_sessions'
p765
asbag69
(g90
g71
NtRp766
(dp767
g74
(dp768
g101
g102
ssg83
g757
sg76
(lp769
S':'
asbag69
(g90
g71
NtRp770
(dp771
g74
(dp772
sg83
g757
sg76
(lp773
g69
(g70
g71
NtRp774
(dp775
g74
(dp776
g82
I4
ssg83
g770
sg76
(lp777
S'set([])'
p778
asbasbasbag69
(g85
g71
NtRp779
(dp780
g74
(dp781
sg83
g662
sg76
(lp782
g69
(g90
g71
NtRp783
(dp784
g74
(dp785
g94
g95
ssg83
g779
sg76
(lp786
S'debugging'
p787
asbag69
(g90
g71
NtRp788
(dp789
g74
(dp790
g101
g102
ssg83
g779
sg76
(lp791
S':'
asbag69
(g90
g71
NtRp792
(dp793
g74
(dp794
sg83
g779
sg76
(lp795
g69
(g70
g71
NtRp796
(dp797
g74
(dp798
g82
I4
ssg83
g792
sg76
(lp799
g112
asbasbasbag69
(g85
g71
NtRp800
(dp801
g74
(dp802
sg83
g662
sg76
(lp803
g69
(g90
g71
NtRp804
(dp805
g74
(dp806
g94
g95
ssg83
g800
sg76
(lp807
S'gluon_parent'
p808
asbag69
(g90
g71
NtRp809
(dp810
g74
(dp811
g101
g102
ssg83
g800
sg76
(lp812
S':'
asbag69
(g90
g71
NtRp813
(dp814
g74
(dp815
sg83
g800
sg76
(lp816
g69
(g70
g71
NtRp817
(dp818
g74
(dp819
g82
I4
ssg83
g813
sg76
(lp820
S'/home/enigma/web2py'
p821
asbasbasbag69
(g85
g71
NtRp822
(dp823
g74
(dp824
sg83
g662
sg76
(lp825
g69
(g90
g71
NtRp826
(dp827
g74
(dp828
g94
g95
ssg83
g822
sg76
(lp829
S'http_accept'
p830
asbag69
(g90
g71
NtRp831
(dp832
g74
(dp833
g101
g102
ssg83
g822
sg76
(lp834
S':'
asbag69
(g90
g71
NtRp835
(dp836
g74
(dp837
sg83
g822
sg76
(lp838
g69
(g70
g71
NtRp839
(dp840
g74
(dp841
g82
I4
ssg83
g835
sg76
(lp842
S'text/html,application/xhtml+xml,application/xml;q=0.9,*/*;q=0.8'
p843
asbasbasbag69
(g85
g71
NtRp844
(dp845
g74
(dp846
sg83
g662
sg76
(lp847
g69
(g90
g71
NtRp848
(dp849
g74
(dp850
g94
g95
ssg83
g844
sg76
(lp851
S'http_accept_charset'
p852
asbag69
(g90
g71
NtRp853
(dp854
g74
(dp855
g101
g102
ssg83
g844
sg76
(lp856
S':'
asbag69
(g90
g71
NtRp857
(dp858
g74
(dp859
sg83
g844
sg76
(lp860
g69
(g70
g71
NtRp861
(dp862
g74
(dp863
g82
I4
ssg83
g857
sg76
(lp864
S'ISO-8859-1,utf-8;q=0.7,*;q=0.3'
p865
asbasbasbag69
(g85
g71
NtRp866
(dp867
g74
(dp868
sg83
g662
sg76
(lp869
g69
(g90
g71
NtRp870
(dp871
g74
(dp872
g94
g95
ssg83
g866
sg76
(lp873
S'http_accept_encoding'
p874
asbag69
(g90
g71
NtRp875
(dp876
g74
(dp877
g101
g102
ssg83
g866
sg76
(lp878
S':'
asbag69
(g90
g71
NtRp879
(dp880
g74
(dp881
sg83
g866
sg76
(lp882
g69
(g70
g71
NtRp883
(dp884
g74
(dp885
g82
I4
ssg83
g879
sg76
(lp886
S'gzip,deflate,sdch'
p887
asbasbasbag69
(g85
g71
NtRp888
(dp889
g74
(dp890
sg83
g662
sg76
(lp891
g69
(g90
g71
NtRp892
(dp893
g74
(dp894
g94
g95
ssg83
g888
sg76
(lp895
S'http_accept_language'
p896
asbag69
(g90
g71
NtRp897
(dp898
g74
(dp899
g101
g102
ssg83
g888
sg76
(lp900
S':'
asbag69
(g90
g71
NtRp901
(dp902
g74
(dp903
sg83
g888
sg76
(lp904
g69
(g70
g71
NtRp905
(dp906
g74
(dp907
g82
I4
ssg83
g901
sg76
(lp908
S'en-US,en;q=0.8'
p909
asbasbasbag69
(g85
g71
NtRp910
(dp911
g74
(dp912
sg83
g662
sg76
(lp913
g69
(g90
g71
NtRp914
(dp915
g74
(dp916
g94
g95
ssg83
g910
sg76
(lp917
S'http_cache_control'
p918
asbag69
(g90
g71
NtRp919
(dp920
g74
(dp921
g101
g102
ssg83
g910
sg76
(lp922
S':'
asbag69
(g90
g71
NtRp923
(dp924
g74
(dp925
sg83
g910
sg76
(lp926
g69
(g70
g71
NtRp927
(dp928
g74
(dp929
g82
I4
ssg83
g923
sg76
(lp930
S'max-age=0'
p931
asbasbasbag69
(g85
g71
NtRp932
(dp933
g74
(dp934
sg83
g662
sg76
(lp935
g69
(g90
g71
NtRp936
(dp937
g74
(dp938
g94
g95
ssg83
g932
sg76
(lp939
S'http_connection'
p940
asbag69
(g90
g71
NtRp941
(dp942
g74
(dp943
g101
g102
ssg83
g932
sg76
(lp944
S':'
asbag69
(g90
g71
NtRp945
(dp946
g74
(dp947
sg83
g932
sg76
(lp948
g69
(g70
g71
NtRp949
(dp950
g74
(dp951
g82
I4
ssg83
g945
sg76
(lp952
S'keep-alive'
p953
asbasbasbag69
(g85
g71
NtRp954
(dp955
g74
(dp956
sg83
g662
sg76
(lp957
g69
(g90
g71
NtRp958
(dp959
g74
(dp960
g94
g95
ssg83
g954
sg76
(lp961
S'http_cookie'
p962
asbag69
(g90
g71
NtRp963
(dp964
g74
(dp965
g101
g102
ssg83
g954
sg76
(lp966
S':'
asbag69
(g90
g71
NtRp967
(dp968
g74
(dp969
sg83
g954
sg76
(lp970
g69
(g70
g71
NtRp971
(dp972
g74
(dp973
g82
I4
ssg83
g967
sg76
(lp974
S'session_id_911_signin=127.0.0.1-2102934b-c5d9-414f-bba8-9d75c955d101; session_id_admin=127.0.0.1-713cadec-e8df-4768-a718-22bceef1505d'
p975
asbasbasbag69
(g85
g71
NtRp976
(dp977
g74
(dp978
sg83
g662
sg76
(lp979
g69
(g90
g71
NtRp980
(dp981
g74
(dp982
g94
g95
ssg83
g976
sg76
(lp983
S'http_host'
p984
asbag69
(g90
g71
NtRp985
(dp986
g74
(dp987
g101
g102
ssg83
g976
sg76
(lp988
S':'
asbag69
(g90
g71
NtRp989
(dp990
g74
(dp991
sg83
g976
sg76
(lp992
g69
(g70
g71
NtRp993
(dp994
g74
(dp995
g82
I4
ssg83
g989
sg76
(lp996
S'127.0.0.1:8000'
p997
asbasbasbag69
(g85
g71
NtRp998
(dp999
g74
(dp1000
sg83
g662
sg76
(lp1001
g69
(g90
g71
NtRp1002
(dp1003
g74
(dp1004
g94
g95
ssg83
g998
sg76
(lp1005
S'http_user_agent'
p1006
asbag69
(g90
g71
NtRp1007
(dp1008
g74
(dp1009
g101
g102
ssg83
g998
sg76
(lp1010
S':'
asbag69
(g90
g71
NtRp1011
(dp1012
g74
(dp1013
sg83
g998
sg76
(lp1014
g69
(g70
g71
NtRp1015
(dp1016
g74
(dp1017
g82
I4
ssg83
g1011
sg76
(lp1018
S'Mozilla/5.0 (X11; Linux i686) AppleWebKit/537.31 (KHTML, like Gecko) Chrome/26.0.1410.63 Safari/537.31'
p1019
asbasbasbag69
(g85
g71
NtRp1020
(dp1021
g74
(dp1022
sg83
g662
sg76
(lp1023
g69
(g90
g71
NtRp1024
(dp1025
g74
(dp1026
g94
g95
ssg83
g1020
sg76
(lp1027
S'is_jython'
p1028
asbag69
(g90
g71
NtRp1029
(dp1030
g74
(dp1031
g101
g102
ssg83
g1020
sg76
(lp1032
S':'
asbag69
(g90
g71
NtRp1033
(dp1034
g74
(dp1035
sg83
g1020
sg76
(lp1036
g69
(g70
g71
NtRp1037
(dp1038
g74
(dp1039
g82
I4
ssg83
g1033
sg76
(lp1040
g112
asbasbasbag69
(g85
g71
NtRp1041
(dp1042
g74
(dp1043
sg83
g662
sg76
(lp1044
g69
(g90
g71
NtRp1045
(dp1046
g74
(dp1047
g94
g95
ssg83
g1041
sg76
(lp1048
S'is_pypy'
p1049
asbag69
(g90
g71
NtRp1050
(dp1051
g74
(dp1052
g101
g102
ssg83
g1041
sg76
(lp1053
S':'
asbag69
(g90
g71
NtRp1054
(dp1055
g74
(dp1056
sg83
g1041
sg76
(lp1057
g69
(g70
g71
NtRp1058
(dp1059
g74
(dp1060
g82
I4
ssg83
g1054
sg76
(lp1061
g112
asbasbasbag69
(g85
g71
NtRp1062
(dp1063
g74
(dp1064
sg83
g662
sg76
(lp1065
g69
(g90
g71
NtRp1066
(dp1067
g74
(dp1068
g94
g95
ssg83
g1062
sg76
(lp1069
S'path_info'
p1070
asbag69
(g90
g71
NtRp1071
(dp1072
g74
(dp1073
g101
g102
ssg83
g1062
sg76
(lp1074
S':'
asbag69
(g90
g71
NtRp1075
(dp1076
g74
(dp1077
sg83
g1062
sg76
(lp1078
g69
(g70
g71
NtRp1079
(dp1080
g74
(dp1081
g82
I4
ssg83
g1075
sg76
(lp1082
S'/911_signin/default/profile/admi'
p1083
asbasbasbag69
(g85
g71
NtRp1084
(dp1085
g74
(dp1086
sg83
g662
sg76
(lp1087
g69
(g90
g71
NtRp1088
(dp1089
g74
(dp1090
g94
g95
ssg83
g1084
sg76
(lp1091
S'query_string'
p1092
asbag69
(g90
g71
NtRp1093
(dp1094
g74
(dp1095
g101
g102
ssg83
g1084
sg76
(lp1096
S':'
asbag69
(g90
g71
NtRp1097
(dp1098
g74
(dp1099
sg83
g1084
sg76
(lp1100
g69
(g70
g71
NtRp1101
(dp1102
g74
(dp1103
g82
I4
ssg83
g1097
sg76
(lp1104
S''
asbasbasbag69
(g85
g71
NtRp1105
(dp1106
g74
(dp1107
sg83
g662
sg76
(lp1108
g69
(g90
g71
NtRp1109
(dp1110
g74
(dp1111
g94
g95
ssg83
g1105
sg76
(lp1112
S'remote_addr'
p1113
asbag69
(g90
g71
NtRp1114
(dp1115
g74
(dp1116
g101
g102
ssg83
g1105
sg76
(lp1117
S':'
asbag69
(g90
g71
NtRp1118
(dp1119
g74
(dp1120
sg83
g1105
sg76
(lp1121
g69
(g70
g71
NtRp1122
(dp1123
g74
(dp1124
g82
I4
ssg83
g1118
sg76
(lp1125
g215
asbasbasbag69
(g85
g71
NtRp1126
(dp1127
g74
(dp1128
sg83
g662
sg76
(lp1129
g69
(g90
g71
NtRp1130
(dp1131
g74
(dp1132
g94
g95
ssg83
g1126
sg76
(lp1133
S'remote_port'
p1134
asbag69
(g90
g71
NtRp1135
(dp1136
g74
(dp1137
g101
g102
ssg83
g1126
sg76
(lp1138
S':'
asbag69
(g90
g71
NtRp1139
(dp1140
g74
(dp1141
sg83
g1126
sg76
(lp1142
g69
(g70
g71
NtRp1143
(dp1144
g74
(dp1145
g82
I4
ssg83
g1139
sg76
(lp1146
S'33715'
p1147
asbasbasbag69
(g85
g71
NtRp1148
(dp1149
g74
(dp1150
sg83
g662
sg76
(lp1151
g69
(g90
g71
NtRp1152
(dp1153
g74
(dp1154
g94
g95
ssg83
g1148
sg76
(lp1155
S'request_method'
p1156
asbag69
(g90
g71
NtRp1157
(dp1158
g74
(dp1159
g101
g102
ssg83
g1148
sg76
(lp1160
S':'
asbag69
(g90
g71
NtRp1161
(dp1162
g74
(dp1163
sg83
g1148
sg76
(lp1164
g69
(g70
g71
NtRp1165
(dp1166
g74
(dp1167
g82
I4
ssg83
g1161
sg76
(lp1168
S'GET'
p1169
asbasbasbag69
(g85
g71
NtRp1170
(dp1171
g74
(dp1172
sg83
g662
sg76
(lp1173
g69
(g90
g71
NtRp1174
(dp1175
g74
(dp1176
g94
g95
ssg83
g1170
sg76
(lp1177
S'script_name'
p1178
asbag69
(g90
g71
NtRp1179
(dp1180
g74
(dp1181
g101
g102
ssg83
g1170
sg76
(lp1182
S':'
asbag69
(g90
g71
NtRp1183
(dp1184
g74
(dp1185
sg83
g1170
sg76
(lp1186
g69
(g70
g71
NtRp1187
(dp1188
g74
(dp1189
g82
I4
ssg83
g1183
sg76
(lp1190
S''
asbasbasbag69
(g85
g71
NtRp1191
(dp1192
g74
(dp1193
sg83
g662
sg76
(lp1194
g69
(g90
g71
NtRp1195
(dp1196
g74
(dp1197
g94
g95
ssg83
g1191
sg76
(lp1198
S'server_name'
p1199
asbag69
(g90
g71
NtRp1200
(dp1201
g74
(dp1202
g101
g102
ssg83
g1191
sg76
(lp1203
S':'
asbag69
(g90
g71
NtRp1204
(dp1205
g74
(dp1206
sg83
g1191
sg76
(lp1207
g69
(g70
g71
NtRp1208
(dp1209
g74
(dp1210
g82
I4
ssg83
g1204
sg76
(lp1211
S'ubuntu'
p1212
asbasbasbag69
(g85
g71
NtRp1213
(dp1214
g74
(dp1215
sg83
g662
sg76
(lp1216
g69
(g90
g71
NtRp1217
(dp1218
g74
(dp1219
g94
g95
ssg83
g1213
sg76
(lp1220
S'server_port'
p1221
asbag69
(g90
g71
NtRp1222
(dp1223
g74
(dp1224
g101
g102
ssg83
g1213
sg76
(lp1225
S':'
asbag69
(g90
g71
NtRp1226
(dp1227
g74
(dp1228
sg83
g1213
sg76
(lp1229
g69
(g70
g71
NtRp1230
(dp1231
g74
(dp1232
g82
I4
ssg83
g1226
sg76
(lp1233
S'8000'
p1234
asbasbasbag69
(g85
g71
NtRp1235
(dp1236
g74
(dp1237
sg83
g662
sg76
(lp1238
g69
(g90
g71
NtRp1239
(dp1240
g74
(dp1241
g94
g95
ssg83
g1235
sg76
(lp1242
S'server_protocol'
p1243
asbag69
(g90
g71
NtRp1244
(dp1245
g74
(dp1246
g101
g102
ssg83
g1235
sg76
(lp1247
S':'
asbag69
(g90
g71
NtRp1248
(dp1249
g74
(dp1250
sg83
g1235
sg76
(lp1251
g69
(g70
g71
NtRp1252
(dp1253
g74
(dp1254
g82
I4
ssg83
g1248
sg76
(lp1255
S'HTTP/1.1'
p1256
asbasbasbag69
(g85
g71
NtRp1257
(dp1258
g74
(dp1259
sg83
g662
sg76
(lp1260
g69
(g90
g71
NtRp1261
(dp1262
g74
(dp1263
g94
g95
ssg83
g1257
sg76
(lp1264
S'server_software'
p1265
asbag69
(g90
g71
NtRp1266
(dp1267
g74
(dp1268
g101
g102
ssg83
g1257
sg76
(lp1269
S':'
asbag69
(g90
g71
NtRp1270
(dp1271
g74
(dp1272
sg83
g1257
sg76
(lp1273
g69
(g70
g71
NtRp1274
(dp1275
g74
(dp1276
g82
I4
ssg83
g1270
sg76
(lp1277
S'Rocket 1.2.4'
p1278
asbasbasbag69
(g85
g71
NtRp1279
(dp1280
g74
(dp1281
sg83
g662
sg76
(lp1282
g69
(g90
g71
NtRp1283
(dp1284
g74
(dp1285
g94
g95
ssg83
g1279
sg76
(lp1286
S'web2py_crontype'
p1287
asbag69
(g90
g71
NtRp1288
(dp1289
g74
(dp1290
g101
g102
ssg83
g1279
sg76
(lp1291
S':'
asbag69
(g90
g71
NtRp1292
(dp1293
g74
(dp1294
sg83
g1279
sg76
(lp1295
g69
(g70
g71
NtRp1296
(dp1297
g74
(dp1298
g82
I4
ssg83
g1292
sg76
(lp1299
S'hard'
p1300
asbasbasbag69
(g85
g71
NtRp1301
(dp1302
g74
(dp1303
sg83
g662
sg76
(lp1304
g69
(g90
g71
NtRp1305
(dp1306
g74
(dp1307
g94
g95
ssg83
g1301
sg76
(lp1308
S'web2py_path'
p1309
asbag69
(g90
g71
NtRp1310
(dp1311
g74
(dp1312
g101
g102
ssg83
g1301
sg76
(lp1313
S':'
asbag69
(g90
g71
NtRp1314
(dp1315
g74
(dp1316
sg83
g1301
sg76
(lp1317
g69
(g70
g71
NtRp1318
(dp1319
g74
(dp1320
g82
I4
ssg83
g1314
sg76
(lp1321
g709
asbasbasbag69
(g85
g71
NtRp1322
(dp1323
g74
(dp1324
sg83
g662
sg76
(lp1325
g69
(g90
g71
NtRp1326
(dp1327
g74
(dp1328
g94
g95
ssg83
g1322
sg76
(lp1329
S'web2py_version'
p1330
asbag69
(g90
g71
NtRp1331
(dp1332
g74
(dp1333
g101
g102
ssg83
g1322
sg76
(lp1334
S':'
asbag69
(g90
g71
NtRp1335
(dp1336
g74
(dp1337
sg83
g1322
sg76
(lp1338
g69
(g70
g71
NtRp1339
(dp1340
g74
(dp1341
g82
I4
ssg83
g1335
sg76
(lp1342
g69
(g78
g71
NtRp1343
(dp1344
g74
(dp1345
g82
I3
ssg83
Nsg76
(lp1346
g69
(g85
g71
NtRp1347
(dp1348
g74
(dp1349
sg83
g1343
sg76
(lp1350
g69
(g90
g71
NtRp1351
(dp1352
g74
(dp1353
sg83
g1347
sg76
(lp1354
g69
(g70
g71
NtRp1355
(dp1356
g74
(dp1357
g82
I3
ssg83
g1351
sg76
(lp1358
S'1'
asbasbasbag69
(g85
g71
NtRp1359
(dp1360
g74
(dp1361
sg83
g1343
sg76
(lp1362
g69
(g90
g71
NtRp1363
(dp1364
g74
(dp1365
sg83
g1359
sg76
(lp1366
g69
(g70
g71
NtRp1367
(dp1368
g74
(dp1369
g82
I3
ssg83
g1363
sg76
(lp1370
S'99'
p1371
asbasbasbag69
(g85
g71
NtRp1372
(dp1373
g74
(dp1374
sg83
g1343
sg76
(lp1375
g69
(g90
g71
NtRp1376
(dp1377
g74
(dp1378
sg83
g1372
sg76
(lp1379
g69
(g70
g71
NtRp1380
(dp1381
g74
(dp1382
g82
I3
ssg83
g1376
sg76
(lp1383
S'7'
asbasbasbag69
(g85
g71
NtRp1384
(dp1385
g74
(dp1386
sg83
g1343
sg76
(lp1387
g69
(g90
g71
NtRp1388
(dp1389
g74
(dp1390
sg83
g1384
sg76
(lp1391
g69
(g70
g71
NtRp1392
(dp1393
g74
(dp1394
g82
I3
ssg83
g1388
sg76
(lp1395
S'datetime.datetime(2012, 3, 4, 22, 12, 8)'
p1396
asbasbasbag69
(g85
g71
NtRp1397
(dp1398
g74
(dp1399
sg83
g1343
sg76
(lp1400
g69
(g90
g71
NtRp1401
(dp1402
g74
(dp1403
sg83
g1397
sg76
(lp1404
g69
(g70
g71
NtRp1405
(dp1406
g74
(dp1407
g82
I3
ssg83
g1401
sg76
(lp1408
S'stable'
p1409
asbasbasbasbasbasbasbag69
(g85
g71
NtRp1410
(dp1411
g74
(dp1412
sg83
g662
sg76
(lp1413
g69
(g90
g71
NtRp1414
(dp1415
g74
(dp1416
g94
g95
ssg83
g1410
sg76
(lp1417
S'wsgi_errors'
p1418
asbag69
(g90
g71
NtRp1419
(dp1420
g74
(dp1421
g101
g102
ssg83
g1410
sg76
(lp1422
S':'
asbag69
(g90
g71
NtRp1423
(dp1424
g74
(dp1425
sg83
g1410
sg76
(lp1426
g69
(g70
g71
NtRp1427
(dp1428
g74
(dp1429
g82
I4
ssg83
g1423
sg76
(lp1430
S"<open file '<stderr>', mode 'w' at 0xb72860d0>"
p1431
asbasbasbag69
(g85
g71
NtRp1432
(dp1433
g74
(dp1434
sg83
g662
sg76
(lp1435
g69
(g90
g71
NtRp1436
(dp1437
g74
(dp1438
g94
g95
ssg83
g1432
sg76
(lp1439
S'wsgi_file_wrapper'
p1440
asbag69
(g90
g71
NtRp1441
(dp1442
g74
(dp1443
g101
g102
ssg83
g1432
sg76
(lp1444
S':'
asbag69
(g90
g71
NtRp1445
(dp1446
g74
(dp1447
sg83
g1432
sg76
(lp1448
g69
(g70
g71
NtRp1449
(dp1450
g74
(dp1451
g82
I4
ssg83
g1445
sg76
(lp1452
S'<class wsgiref.util.FileWrapper at 0x9f1ee9c>'
p1453
asbasbasbag69
(g85
g71
NtRp1454
(dp1455
g74
(dp1456
sg83
g662
sg76
(lp1457
g69
(g90
g71
NtRp1458
(dp1459
g74
(dp1460
g94
g95
ssg83
g1454
sg76
(lp1461
S'wsgi_input'
p1462
asbag69
(g90
g71
NtRp1463
(dp1464
g74
(dp1465
g101
g102
ssg83
g1454
sg76
(lp1466
S':'
asbag69
(g90
g71
NtRp1467
(dp1468
g74
(dp1469
sg83
g1454
sg76
(lp1470
g69
(g70
g71
NtRp1471
(dp1472
g74
(dp1473
g82
I4
ssg83
g1467
sg76
(lp1474
S'<socket._fileobject object at 0xb2fec9ec>'
p1475
asbasbasbag69
(g85
g71
NtRp1476
(dp1477
g74
(dp1478
sg83
g662
sg76
(lp1479
g69
(g90
g71
NtRp1480
(dp1481
g74
(dp1482
g94
g95
ssg83
g1476
sg76
(lp1483
S'wsgi_multiprocess'
p1484
asbag69
(g90
g71
NtRp1485
(dp1486
g74
(dp1487
g101
g102
ssg83
g1476
sg76
(lp1488
S':'
asbag69
(g90
g71
NtRp1489
(dp1490
g74
(dp1491
sg83
g1476
sg76
(lp1492
g69
(g70
g71
NtRp1493
(dp1494
g74
(dp1495
g82
I4
ssg83
g1489
sg76
(lp1496
g112
asbasbasbag69
(g85
g71
NtRp1497
(dp1498
g74
(dp1499
sg83
g662
sg76
(lp1500
g69
(g90
g71
NtRp1501
(dp1502
g74
(dp1503
g94
g95
ssg83
g1497
sg76
(lp1504
S'wsgi_multithread'
p1505
asbag69
(g90
g71
NtRp1506
(dp1507
g74
(dp1508
g101
g102
ssg83
g1497
sg76
(lp1509
S':'
asbag69
(g90
g71
NtRp1510
(dp1511
g74
(dp1512
sg83
g1497
sg76
(lp1513
g69
(g70
g71
NtRp1514
(dp1515
g74
(dp1516
g82
I4
ssg83
g1510
sg76
(lp1517
S'True'
p1518
asbasbasbag69
(g85
g71
NtRp1519
(dp1520
g74
(dp1521
sg83
g662
sg76
(lp1522
g69
(g90
g71
NtRp1523
(dp1524
g74
(dp1525
g94
g95
ssg83
g1519
sg76
(lp1526
S'wsgi_run_once'
p1527
asbag69
(g90
g71
NtRp1528
(dp1529
g74
(dp1530
g101
g102
ssg83
g1519
sg76
(lp1531
S':'
asbag69
(g90
g71
NtRp1532
(dp1533
g74
(dp1534
sg83
g1519
sg76
(lp1535
g69
(g70
g71
NtRp1536
(dp1537
g74
(dp1538
g82
I4
ssg83
g1532
sg76
(lp1539
g112
asbasbasbag69
(g85
g71
NtRp1540
(dp1541
g74
(dp1542
sg83
g662
sg76
(lp1543
g69
(g90
g71
NtRp1544
(dp1545
g74
(dp1546
g94
g95
ssg83
g1540
sg76
(lp1547
S'wsgi_url_scheme'
p1548
asbag69
(g90
g71
NtRp1549
(dp1550
g74
(dp1551
g101
g102
ssg83
g1540
sg76
(lp1552
S':'
asbag69
(g90
g71
NtRp1553
(dp1554
g74
(dp1555
sg83
g1540
sg76
(lp1556
g69
(g70
g71
NtRp1557
(dp1558
g74
(dp1559
g82
I4
ssg83
g1553
sg76
(lp1560
S'http'
p1561
asbasbasbag69
(g85
g71
NtRp1562
(dp1563
g74
(dp1564
sg83
g662
sg76
(lp1565
g69
(g90
g71
NtRp1566
(dp1567
g74
(dp1568
g94
g95
ssg83
g1562
sg76
(lp1569
S'wsgi_version'
p1570
asbag69
(g90
g71
NtRp1571
(dp1572
g74
(dp1573
g101
g102
ssg83
g1562
sg76
(lp1574
S':'
asbag69
(g90
g71
NtRp1575
(dp1576
g74
(dp1577
sg83
g1562
sg76
(lp1578
g69
(g70
g71
NtRp1579
(dp1580
g74
(dp1581
g82
I4
ssg83
g1575
sg76
(lp1582
g69
(g78
g71
NtRp1583
(dp1584
g74
(dp1585
g82
I3
ssg83
Nsg76
(lp1586
g69
(g85
g71
NtRp1587
(dp1588
g74
(dp1589
sg83
g1583
sg76
(lp1590
g69
(g90
g71
NtRp1591
(dp1592
g74
(dp1593
sg83
g1587
sg76
(lp1594
g69
(g70
g71
NtRp1595
(dp1596
g74
(dp1597
g82
I3
ssg83
g1591
sg76
(lp1598
S'1'
asbasbasbag69
(g85
g71
NtRp1599
(dp1600
g74
(dp1601
sg83
g1583
sg76
(lp1602
g69
(g90
g71
NtRp1603
(dp1604
g74
(dp1605
sg83
g1599
sg76
(lp1606
g69
(g70
g71
NtRp1607
(dp1608
g74
(dp1609
g82
I3
ssg83
g1603
sg76
(lp1610
S'0'
asbasbasbasbasbasbasbasbasbasbasbag69
(g85
g71
NtRp1611
(dp1612
g74
(dp1613
sg83
g79
sg76
(lp1614
g69
(g90
g71
NtRp1615
(dp1616
g74
(dp1617
g94
g95
ssg83
g1611
sg76
(lp1618
S'extension'
p1619
asbag69
(g90
g71
NtRp1620
(dp1621
g74
(dp1622
g101
g102
ssg83
g1611
sg76
(lp1623
S':'
asbag69
(g90
g71
NtRp1624
(dp1625
g74
(dp1626
sg83
g1611
sg76
(lp1627
g69
(g70
g71
NtRp1628
(dp1629
g74
(dp1630
g82
I5
ssg83
g1624
sg76
(lp1631
S'html'
p1632
asbasbasbag69
(g85
g71
NtRp1633
(dp1634
g74
(dp1635
sg83
g79
sg76
(lp1636
g69
(g90
g71
NtRp1637
(dp1638
g74
(dp1639
g94
g95
ssg83
g1633
sg76
(lp1640
S'folder'
p1641
asbag69
(g90
g71
NtRp1642
(dp1643
g74
(dp1644
g101
g102
ssg83
g1633
sg76
(lp1645
S':'
asbag69
(g90
g71
NtRp1646
(dp1647
g74
(dp1648
sg83
g1633
sg76
(lp1649
g69
(g70
g71
NtRp1650
(dp1651
g74
(dp1652
g82
I5
ssg83
g1646
sg76
(lp1653
S'/home/enigma/web2py/applications/911_signin/'
p1654
asbasbasbag69
(g85
g71
NtRp1655
(dp1656
g74
(dp1657
sg83
g79
sg76
(lp1658
g69
(g90
g71
NtRp1659
(dp1660
g74
(dp1661
g94
g95
ssg83
g1655
sg76
(lp1662
S'function'
p1663
asbag69
(g90
g71
NtRp1664
(dp1665
g74
(dp1666
g101
g102
ssg83
g1655
sg76
(lp1667
S':'
asbag69
(g90
g71
NtRp1668
(dp1669
g74
(dp1670
sg83
g1655
sg76
(lp1671
g69
(g70
g71
NtRp1672
(dp1673
g74
(dp1674
g82
I5
ssg83
g1668
sg76
(lp1675
S'profile'
p1676
asbasbasbag69
(g85
g71
NtRp1677
(dp1678
g74
(dp1679
sg83
g79
sg76
(lp1680
g69
(g90
g71
NtRp1681
(dp1682
g74
(dp1683
g94
g95
ssg83
g1677
sg76
(lp1684
S'get_vars'
p1685
asbag69
(g90
g71
NtRp1686
(dp1687
g74
(dp1688
g101
g102
ssg83
g1677
sg76
(lp1689
S':'
asbag69
(g90
g71
NtRp1690
(dp1691
g74
(dp1692
sg83
g1677
sg76
(lp1693
g69
(g70
g71
NtRp1694
(dp1695
g74
(dp1696
g82
I5
ssg83
g1690
sg76
(lp1697
g69
(g78
g71
NtRp1698
(dp1699
g74
(dp1700
g82
I4
ssg83
Nsg76
(lp1701
sbasbasbasbag69
(g85
g71
NtRp1702
(dp1703
g74
(dp1704
sg83
g79
sg76
(lp1705
g69
(g90
g71
NtRp1706
(dp1707
g74
(dp1708
g94
g95
ssg83
g1702
sg76
(lp1709
S'global_settings'
p1710
asbag69
(g90
g71
NtRp1711
(dp1712
g74
(dp1713
g101
g102
ssg83
g1702
sg76
(lp1714
S':'
asbag69
(g90
g71
NtRp1715
(dp1716
g74
(dp1717
sg83
g1702
sg76
(lp1718
g69
(g70
g71
NtRp1719
(dp1720
g74
(dp1721
g82
I5
ssg83
g1715
sg76
(lp1722
g69
(g78
g71
NtRp1723
(dp1724
g74
(dp1725
g82
I4
ssg83
Nsg76
(lp1726
g69
(g85
g71
NtRp1727
(dp1728
g74
(dp1729
sg83
g1723
sg76
(lp1730
g69
(g90
g71
NtRp1731
(dp1732
g74
(dp1733
g94
g95
ssg83
g1727
sg76
(lp1734
g674
asbag69
(g90
g71
NtRp1735
(dp1736
g74
(dp1737
g101
g102
ssg83
g1727
sg76
(lp1738
S':'
asbag69
(g90
g71
NtRp1739
(dp1740
g74
(dp1741
sg83
g1727
sg76
(lp1742
g69
(g70
g71
NtRp1743
(dp1744
g74
(dp1745
g82
I4
ssg83
g1739
sg76
(lp1746
S"set(['/home/enigma/web2py/applications/admin/', '/home/enigma/web2py/applications/911_signin/'])"
p1747
asbasbasbag69
(g85
g71
NtRp1748
(dp1749
g74
(dp1750
sg83
g1723
sg76
(lp1751
g69
(g90
g71
NtRp1752
(dp1753
g74
(dp1754
g94
g95
ssg83
g1748
sg76
(lp1755
g696
asbag69
(g90
g71
NtRp1756
(dp1757
g74
(dp1758
g101
g102
ssg83
g1748
sg76
(lp1759
S':'
asbag69
(g90
g71
NtRp1760
(dp1761
g74
(dp1762
sg83
g1748
sg76
(lp1763
g69
(g70
g71
NtRp1764
(dp1765
g74
(dp1766
g82
I4
ssg83
g1760
sg76
(lp1767
g709
asbasbasbag69
(g85
g71
NtRp1768
(dp1769
g74
(dp1770
sg83
g1723
sg76
(lp1771
g69
(g90
g71
NtRp1772
(dp1773
g74
(dp1774
g94
g95
ssg83
g1768
sg76
(lp1775
g718
asbag69
(g90
g71
NtRp1776
(dp1777
g74
(dp1778
g101
g102
ssg83
g1768
sg76
(lp1779
S':'
asbag69
(g90
g71
NtRp1780
(dp1781
g74
(dp1782
sg83
g1768
sg76
(lp1783
g69
(g70
g71
NtRp1784
(dp1785
g74
(dp1786
g82
I4
ssg83
g1780
sg76
(lp1787
g69
(g78
g71
NtRp1788
(dp1789
g74
(dp1790
g82
I3
ssg83
Nsg76
(lp1791
sbasbasbasbag69
(g85
g71
NtRp1792
(dp1793
g74
(dp1794
sg83
g1723
sg76
(lp1795
g69
(g90
g71
NtRp1796
(dp1797
g74
(dp1798
g94
g95
ssg83
g1792
sg76
(lp1799
g743
asbag69
(g90
g71
NtRp1800
(dp1801
g74
(dp1802
g101
g102
ssg83
g1792
sg76
(lp1803
S':'
asbag69
(g90
g71
NtRp1804
(dp1805
g74
(dp1806
sg83
g1792
sg76
(lp1807
g69
(g70
g71
NtRp1808
(dp1809
g74
(dp1810
g82
I4
ssg83
g1804
sg76
(lp1811
S"<Values at 0x9fdcbac: {'verbose': False, 'ip': '127.0.0.1', 'shutdown_timeout': 5, 'taskbar': False, 'nocron': False, 'pid_filename': 'httpserver.pid', 'maxthreads': None, 'softcron': False, 'server_name': 'ubuntu', 'bpython': False, 'nogui': False, 'port': 8000, 'extcron': False, 'debuglevel': 30, 'test': None, 'folder': '/home/enigma/web2py', 'config': '', 'import_models': False, 'winservice': '', 'shell': None, 'run': '', 'log_filename': 'httpserver.log', 'args': [''], 'socket_timeout': 5, 'ssl_ca_certificate': None, 'scheduler': None, 'profiler_filename': None, 'ssl_private_key': '', 'password': '<ask>', 'request_queue_size': 5, 'ssl_certificate': '', 'cronjob': False, 'numthreads': None, 'quiet': False, 'interfaces': None, 'minthreads': None, 'timeout': 10, 'plain': False, 'nobanner': False}>"
p1812
asbasbasbag69
(g85
g71
NtRp1813
(dp1814
g74
(dp1815
sg83
g1723
sg76
(lp1816
g69
(g90
g71
NtRp1817
(dp1818
g74
(dp1819
g94
g95
ssg83
g1813
sg76
(lp1820
g765
asbag69
(g90
g71
NtRp1821
(dp1822
g74
(dp1823
g101
g102
ssg83
g1813
sg76
(lp1824
S':'
asbag69
(g90
g71
NtRp1825
(dp1826
g74
(dp1827
sg83
g1813
sg76
(lp1828
g69
(g70
g71
NtRp1829
(dp1830
g74
(dp1831
g82
I4
ssg83
g1825
sg76
(lp1832
S'set([])'
p1833
asbasbasbag69
(g85
g71
NtRp1834
(dp1835
g74
(dp1836
sg83
g1723
sg76
(lp1837
g69
(g90
g71
NtRp1838
(dp1839
g74
(dp1840
g94
g95
ssg83
g1834
sg76
(lp1841
g787
asbag69
(g90
g71
NtRp1842
(dp1843
g74
(dp1844
g101
g102
ssg83
g1834
sg76
(lp1845
S':'
asbag69
(g90
g71
NtRp1846
(dp1847
g74
(dp1848
sg83
g1834
sg76
(lp1849
g69
(g70
g71
NtRp1850
(dp1851
g74
(dp1852
g82
I4
ssg83
g1846
sg76
(lp1853
g112
asbasbasbag69
(g85
g71
NtRp1854
(dp1855
g74
(dp1856
sg83
g1723
sg76
(lp1857
g69
(g90
g71
NtRp1858
(dp1859
g74
(dp1860
g94
g95
ssg83
g1854
sg76
(lp1861
g808
asbag69
(g90
g71
NtRp1862
(dp1863
g74
(dp1864
g101
g102
ssg83
g1854
sg76
(lp1865
S':'
asbag69
(g90
g71
NtRp1866
(dp1867
g74
(dp1868
sg83
g1854
sg76
(lp1869
g69
(g70
g71
NtRp1870
(dp1871
g74
(dp1872
g82
I4
ssg83
g1866
sg76
(lp1873
g821
asbasbasbag69
(g85
g71
NtRp1874
(dp1875
g74
(dp1876
sg83
g1723
sg76
(lp1877
g69
(g90
g71
NtRp1878
(dp1879
g74
(dp1880
g94
g95
ssg83
g1874
sg76
(lp1881
g1028
asbag69
(g90
g71
NtRp1882
(dp1883
g74
(dp1884
g101
g102
ssg83
g1874
sg76
(lp1885
S':'
asbag69
(g90
g71
NtRp1886
(dp1887
g74
(dp1888
sg83
g1874
sg76
(lp1889
g69
(g70
g71
NtRp1890
(dp1891
g74
(dp1892
g82
I4
ssg83
g1886
sg76
(lp1893
g112
asbasbasbag69
(g85
g71
NtRp1894
(dp1895
g74
(dp1896
sg83
g1723
sg76
(lp1897
g69
(g90
g71
NtRp1898
(dp1899
g74
(dp1900
g94
g95
ssg83
g1894
sg76
(lp1901
g1049
asbag69
(g90
g71
NtRp1902
(dp1903
g74
(dp1904
g101
g102
ssg83
g1894
sg76
(lp1905
S':'
asbag69
(g90
g71
NtRp1906
(dp1907
g74
(dp1908
sg83
g1894
sg76
(lp1909
g69
(g70
g71
NtRp1910
(dp1911
g74
(dp1912
g82
I4
ssg83
g1906
sg76
(lp1913
g112
asbasbasbag69
(g85
g71
NtRp1914
(dp1915
g74
(dp1916
sg83
g1723
sg76
(lp1917
g69
(g90
g71
NtRp1918
(dp1919
g74
(dp1920
g94
g95
ssg83
g1914
sg76
(lp1921
g1287
asbag69
(g90
g71
NtRp1922
(dp1923
g74
(dp1924
g101
g102
ssg83
g1914
sg76
(lp1925
S':'
asbag69
(g90
g71
NtRp1926
(dp1927
g74
(dp1928
sg83
g1914
sg76
(lp1929
g69
(g70
g71
NtRp1930
(dp1931
g74
(dp1932
g82
I4
ssg83
g1926
sg76
(lp1933
g1300
asbasbasbag69
(g85
g71
NtRp1934
(dp1935
g74
(dp1936
sg83
g1723
sg76
(lp1937
g69
(g90
g71
NtRp1938
(dp1939
g74
(dp1940
g94
g95
ssg83
g1934
sg76
(lp1941
g1330
asbag69
(g90
g71
NtRp1942
(dp1943
g74
(dp1944
g101
g102
ssg83
g1934
sg76
(lp1945
S':'
asbag69
(g90
g71
NtRp1946
(dp1947
g74
(dp1948
sg83
g1934
sg76
(lp1949
g69
(g70
g71
NtRp1950
(dp1951
g74
(dp1952
g82
I4
ssg83
g1946
sg76
(lp1953
g69
(g78
g71
NtRp1954
(dp1955
g74
(dp1956
g82
I3
ssg83
Nsg76
(lp1957
g69
(g85
g71
NtRp1958
(dp1959
g74
(dp1960
sg83
g1954
sg76
(lp1961
g69
(g90
g71
NtRp1962
(dp1963
g74
(dp1964
sg83
g1958
sg76
(lp1965
g69
(g70
g71
NtRp1966
(dp1967
g74
(dp1968
g82
I3
ssg83
g1962
sg76
(lp1969
S'1'
asbasbasbag69
(g85
g71
NtRp1970
(dp1971
g74
(dp1972
sg83
g1954
sg76
(lp1973
g69
(g90
g71
NtRp1974
(dp1975
g74
(dp1976
sg83
g1970
sg76
(lp1977
g69
(g70
g71
NtRp1978
(dp1979
g74
(dp1980
g82
I3
ssg83
g1974
sg76
(lp1981
S'99'
p1982
asbasbasbag69
(g85
g71
NtRp1983
(dp1984
g74
(dp1985
sg83
g1954
sg76
(lp1986
g69
(g90
g71
NtRp1987
(dp1988
g74
(dp1989
sg83
g1983
sg76
(lp1990
g69
(g70
g71
NtRp1991
(dp1992
g74
(dp1993
g82
I3
ssg83
g1987
sg76
(lp1994
S'7'
asbasbasbag69
(g85
g71
NtRp1995
(dp1996
g74
(dp1997
sg83
g1954
sg76
(lp1998
g69
(g90
g71
NtRp1999
(dp2000
g74
(dp2001
sg83
g1995
sg76
(lp2002
g69
(g70
g71
NtRp2003
(dp2004
g74
(dp2005
g82
I3
ssg83
g1999
sg76
(lp2006
S'datetime.datetime(2012, 3, 4, 22, 12, 8)'
p2007
asbasbasbag69
(g85
g71
NtRp2008
(dp2009
g74
(dp2010
sg83
g1954
sg76
(lp2011
g69
(g90
g71
NtRp2012
(dp2013
g74
(dp2014
sg83
g2008
sg76
(lp2015
g69
(g70
g71
NtRp2016
(dp2017
g74
(dp2018
g82
I3
ssg83
g2012
sg76
(lp2019
g1409
asbasbasbasbasbasbasbasbasbasbasbag69
(g85
g71
NtRp2020
(dp2021
g74
(dp2022
sg83
g79
sg76
(lp2023
g69
(g90
g71
NtRp2024
(dp2025
g74
(dp2026
g94
g95
ssg83
g2020
sg76
(lp2027
S'is_https'
p2028
asbag69
(g90
g71
NtRp2029
(dp2030
g74
(dp2031
g101
g102
ssg83
g2020
sg76
(lp2032
S':'
asbag69
(g90
g71
NtRp2033
(dp2034
g74
(dp2035
sg83
g2020
sg76
(lp2036
g69
(g70
g71
NtRp2037
(dp2038
g74
(dp2039
g82
I5
ssg83
g2033
sg76
(lp2040
g112
asbasbasbag69
(g85
g71
NtRp2041
(dp2042
g74
(dp2043
sg83
g79
sg76
(lp2044
g69
(g90
g71
NtRp2045
(dp2046
g74
(dp2047
g94
g95
ssg83
g2041
sg76
(lp2048
S'is_local'
p2049
asbag69
(g90
g71
NtRp2050
(dp2051
g74
(dp2052
g101
g102
ssg83
g2041
sg76
(lp2053
S':'
asbag69
(g90
g71
NtRp2054
(dp2055
g74
(dp2056
sg83
g2041
sg76
(lp2057
g69
(g70
g71
NtRp2058
(dp2059
g74
(dp2060
g82
I5
ssg83
g2054
sg76
(lp2061
g1518
asbasbasbag69
(g85
g71
NtRp2062
(dp2063
g74
(dp2064
sg83
g79
sg76
(lp2065
g69
(g90
g71
NtRp2066
(dp2067
g74
(dp2068
g94
g95
ssg83
g2062
sg76
(lp2069
S'is_restful'
p2070
asbag69
(g90
g71
NtRp2071
(dp2072
g74
(dp2073
g101
g102
ssg83
g2062
sg76
(lp2074
S':'
asbag69
(g90
g71
NtRp2075
(dp2076
g74
(dp2077
sg83
g2062
sg76
(lp2078
g69
(g70
g71
NtRp2079
(dp2080
g74
(dp2081
g82
I5
ssg83
g2075
sg76
(lp2082
g112
asbasbasbag69
(g85
g71
NtRp2083
(dp2084
g74
(dp2085
sg83
g79
sg76
(lp2086
g69
(g90
g71
NtRp2087
(dp2088
g74
(dp2089
g94
g95
ssg83
g2083
sg76
(lp2090
S'now'
p2091
asbag69
(g90
g71
NtRp2092
(dp2093
g74
(dp2094
g101
g102
ssg83
g2083
sg76
(lp2095
S':'
asbag69
(g90
g71
NtRp2096
(dp2097
g74
(dp2098
sg83
g2083
sg76
(lp2099
g69
(g70
g71
NtRp2100
(dp2101
g74
(dp2102
g82
I5
ssg83
g2096
sg76
(lp2103
S'datetime.datetime(2013, 6, 30, 15, 59, 53, 354803)'
p2104
asbasbasbag69
(g85
g71
NtRp2105
(dp2106
g74
(dp2107
sg83
g79
sg76
(lp2108
g69
(g90
g71
NtRp2109
(dp2110
g74
(dp2111
g94
g95
ssg83
g2105
sg76
(lp2112
S'post_vars'
p2113
asbag69
(g90
g71
NtRp2114
(dp2115
g74
(dp2116
g101
g102
ssg83
g2105
sg76
(lp2117
S':'
asbag69
(g90
g71
NtRp2118
(dp2119
g74
(dp2120
sg83
g2105
sg76
(lp2121
g69
(g70
g71
NtRp2122
(dp2123
g74
(dp2124
g82
I5
ssg83
g2118
sg76
(lp2125
g69
(g78
g71
NtRp2126
(dp2127
g74
(dp2128
g82
I4
ssg83
Nsg76
(lp2129
sbasbasbasbag69
(g85
g71
NtRp2130
(dp2131
g74
(dp2132
sg83
g79
sg76
(lp2133
g69
(g90
g71
NtRp2134
(dp2135
g74
(dp2136
g94
g95
ssg83
g2130
sg76
(lp2137
S'raw_args'
p2138
asbag69
(g90
g71
NtRp2139
(dp2140
g74
(dp2141
g101
g102
ssg83
g2130
sg76
(lp2142
S':'
asbag69
(g90
g71
NtRp2143
(dp2144
g74
(dp2145
sg83
g2130
sg76
(lp2146
g69
(g70
g71
NtRp2147
(dp2148
g74
(dp2149
g82
I5
ssg83
g2143
sg76
(lp2150
g171
asbasbasbag69
(g85
g71
NtRp2151
(dp2152
g74
(dp2153
sg83
g79
sg76
(lp2154
g69
(g90
g71
NtRp2155
(dp2156
g74
(dp2157
g94
g95
ssg83
g2151
sg76
(lp2158
S'url'
p2159
asbag69
(g90
g71
NtRp2160
(dp2161
g74
(dp2162
g101
g102
ssg83
g2151
sg76
(lp2163
S':'
asbag69
(g90
g71
NtRp2164
(dp2165
g74
(dp2166
sg83
g2151
sg76
(lp2167
g69
(g70
g71
NtRp2168
(dp2169
g74
(dp2170
g82
I5
ssg83
g2164
sg76
(lp2171
S'/911_signin/default/profile/admi'
p2172
asbasbasbag69
(g85
g71
NtRp2173
(dp2174
g74
(dp2175
sg83
g79
sg76
(lp2176
g69
(g90
g71
NtRp2177
(dp2178
g74
(dp2179
g94
g95
ssg83
g2173
sg76
(lp2180
S'utcnow'
p2181
asbag69
(g90
g71
NtRp2182
(dp2183
g74
(dp2184
g101
g102
ssg83
g2173
sg76
(lp2185
S':'
asbag69
(g90
g71
NtRp2186
(dp2187
g74
(dp2188
sg83
g2173
sg76
(lp2189
g69
(g70
g71
NtRp2190
(dp2191
g74
(dp2192
g82
I5
ssg83
g2186
sg76
(lp2193
S'datetime.datetime(2013, 6, 30, 10, 29, 53, 354849)'
p2194
asbasbasbag69
(g85
g71
NtRp2195
(dp2196
g74
(dp2197
sg83
g79
sg76
(lp2198
g69
(g90
g71
NtRp2199
(dp2200
g74
(dp2201
g94
g95
ssg83
g2195
sg76
(lp2202
S'uuid'
p2203
asbag69
(g90
g71
NtRp2204
(dp2205
g74
(dp2206
g101
g102
ssg83
g2195
sg76
(lp2207
S':'
asbag69
(g90
g71
NtRp2208
(dp2209
g74
(dp2210
sg83
g2195
sg76
(lp2211
g69
(g70
g71
NtRp2212
(dp2213
g74
(dp2214
g82
I5
ssg83
g2208
sg76
(lp2215
S'911_signin/127.0.0.1.2013-06-30.15-59-53.02ced782-2d79-4274-8dfa-e75b87a76f24'
p2216
asbasbasbag69
(g85
g71
NtRp2217
(dp2218
g74
(dp2219
sg83
g79
sg76
(lp2220
g69
(g90
g71
NtRp2221
(dp2222
g74
(dp2223
g94
g95
ssg83
g2217
sg76
(lp2224
S'vars'
p2225
asbag69
(g90
g71
NtRp2226
(dp2227
g74
(dp2228
g101
g102
ssg83
g2217
sg76
(lp2229
S':'
asbag69
(g90
g71
NtRp2230
(dp2231
g74
(dp2232
sg83
g2217
sg76
(lp2233
g69
(g70
g71
NtRp2234
(dp2235
g74
(dp2236
g82
I5
ssg83
g2230
sg76
(lp2237
g69
(g78
g71
NtRp2238
(dp2239
g74
(dp2240
g82
I4
ssg83
Nsg76
(lp2241
sbasbasbasbag69
(g85
g71
NtRp2242
(dp2243
g74
(dp2244
sg83
g79
sg76
(lp2245
g69
(g90
g71
NtRp2246
(dp2247
g74
(dp2248
g94
g95
ssg83
g2242
sg76
(lp2249
S'wsgi'
p2250
asbag69
(g90
g71
NtRp2251
(dp2252
g74
(dp2253
g101
g102
ssg83
g2242
sg76
(lp2254
S':'
asbag69
(g90
g71
NtRp2255
(dp2256
g74
(dp2257
sg83
g2242
sg76
(lp2258
g69
(g70
g71
NtRp2259
(dp2260
g74
(dp2261
g82
I5
ssg83
g2255
sg76
(lp2262
g69
(g78
g71
NtRp2263
(dp2264
g74
(dp2265
g82
I4
ssg83
Nsg76
(lp2266
g69
(g85
g71
NtRp2267
(dp2268
g74
(dp2269
sg83
g2263
sg76
(lp2270
g69
(g90
g71
NtRp2271
(dp2272
g74
(dp2273
g94
g95
ssg83
g2267
sg76
(lp2274
S'environ'
p2275
asbag69
(g90
g71
NtRp2276
(dp2277
g74
(dp2278
g101
g102
ssg83
g2267
sg76
(lp2279
S':'
asbag69
(g90
g71
NtRp2280
(dp2281
g74
(dp2282
sg83
g2267
sg76
(lp2283
g69
(g70
g71
NtRp2284
(dp2285
g74
(dp2286
g82
I4
ssg83
g2280
sg76
(lp2287
g69
(g78
g71
NtRp2288
(dp2289
g74
(dp2290
g82
I3
ssg83
Nsg76
(lp2291
g69
(g85
g71
NtRp2292
(dp2293
g74
(dp2294
sg83
g2288
sg76
(lp2295
g69
(g90
g71
NtRp2296
(dp2297
g74
(dp2298
g94
g95
ssg83
g2292
sg76
(lp2299
S'HTTP_ACCEPT'
p2300
asbag69
(g90
g71
NtRp2301
(dp2302
g74
(dp2303
g101
g102
ssg83
g2292
sg76
(lp2304
S':'
asbag69
(g90
g71
NtRp2305
(dp2306
g74
(dp2307
sg83
g2292
sg76
(lp2308
g69
(g70
g71
NtRp2309
(dp2310
g74
(dp2311
g82
I3
ssg83
g2305
sg76
(lp2312
g843
asbasbasbag69
(g85
g71
NtRp2313
(dp2314
g74
(dp2315
sg83
g2288
sg76
(lp2316
g69
(g90
g71
NtRp2317
(dp2318
g74
(dp2319
g94
g95
ssg83
g2313
sg76
(lp2320
S'HTTP_ACCEPT_CHARSET'
p2321
asbag69
(g90
g71
NtRp2322
(dp2323
g74
(dp2324
g101
g102
ssg83
g2313
sg76
(lp2325
S':'
asbag69
(g90
g71
NtRp2326
(dp2327
g74
(dp2328
sg83
g2313
sg76
(lp2329
g69
(g70
g71
NtRp2330
(dp2331
g74
(dp2332
g82
I3
ssg83
g2326
sg76
(lp2333
g865
asbasbasbag69
(g85
g71
NtRp2334
(dp2335
g74
(dp2336
sg83
g2288
sg76
(lp2337
g69
(g90
g71
NtRp2338
(dp2339
g74
(dp2340
g94
g95
ssg83
g2334
sg76
(lp2341
S'HTTP_ACCEPT_ENCODING'
p2342
asbag69
(g90
g71
NtRp2343
(dp2344
g74
(dp2345
g101
g102
ssg83
g2334
sg76
(lp2346
S':'
asbag69
(g90
g71
NtRp2347
(dp2348
g74
(dp2349
sg83
g2334
sg76
(lp2350
g69
(g70
g71
NtRp2351
(dp2352
g74
(dp2353
g82
I3
ssg83
g2347
sg76
(lp2354
g887
asbasbasbag69
(g85
g71
NtRp2355
(dp2356
g74
(dp2357
sg83
g2288
sg76
(lp2358
g69
(g90
g71
NtRp2359
(dp2360
g74
(dp2361
g94
g95
ssg83
g2355
sg76
(lp2362
S'HTTP_ACCEPT_LANGUAGE'
p2363
asbag69
(g90
g71
NtRp2364
(dp2365
g74
(dp2366
g101
g102
ssg83
g2355
sg76
(lp2367
S':'
asbag69
(g90
g71
NtRp2368
(dp2369
g74
(dp2370
sg83
g2355
sg76
(lp2371
g69
(g70
g71
NtRp2372
(dp2373
g74
(dp2374
g82
I3
ssg83
g2368
sg76
(lp2375
g909
asbasbasbag69
(g85
g71
NtRp2376
(dp2377
g74
(dp2378
sg83
g2288
sg76
(lp2379
g69
(g90
g71
NtRp2380
(dp2381
g74
(dp2382
g94
g95
ssg83
g2376
sg76
(lp2383
S'HTTP_CACHE_CONTROL'
p2384
asbag69
(g90
g71
NtRp2385
(dp2386
g74
(dp2387
g101
g102
ssg83
g2376
sg76
(lp2388
S':'
asbag69
(g90
g71
NtRp2389
(dp2390
g74
(dp2391
sg83
g2376
sg76
(lp2392
g69
(g70
g71
NtRp2393
(dp2394
g74
(dp2395
g82
I3
ssg83
g2389
sg76
(lp2396
g931
asbasbasbag69
(g85
g71
NtRp2397
(dp2398
g74
(dp2399
sg83
g2288
sg76
(lp2400
g69
(g90
g71
NtRp2401
(dp2402
g74
(dp2403
g94
g95
ssg83
g2397
sg76
(lp2404
S'HTTP_CONNECTION'
p2405
asbag69
(g90
g71
NtRp2406
(dp2407
g74
(dp2408
g101
g102
ssg83
g2397
sg76
(lp2409
S':'
asbag69
(g90
g71
NtRp2410
(dp2411
g74
(dp2412
sg83
g2397
sg76
(lp2413
g69
(g70
g71
NtRp2414
(dp2415
g74
(dp2416
g82
I3
ssg83
g2410
sg76
(lp2417
g953
asbasbasbag69
(g85
g71
NtRp2418
(dp2419
g74
(dp2420
sg83
g2288
sg76
(lp2421
g69
(g90
g71
NtRp2422
(dp2423
g74
(dp2424
g94
g95
ssg83
g2418
sg76
(lp2425
S'HTTP_COOKIE'
p2426
asbag69
(g90
g71
NtRp2427
(dp2428
g74
(dp2429
g101
g102
ssg83
g2418
sg76
(lp2430
S':'
asbag69
(g90
g71
NtRp2431
(dp2432
g74
(dp2433
sg83
g2418
sg76
(lp2434
g69
(g70
g71
NtRp2435
(dp2436
g74
(dp2437
g82
I3
ssg83
g2431
sg76
(lp2438
g975
asbasbasbag69
(g85
g71
NtRp2439
(dp2440
g74
(dp2441
sg83
g2288
sg76
(lp2442
g69
(g90
g71
NtRp2443
(dp2444
g74
(dp2445
g94
g95
ssg83
g2439
sg76
(lp2446
S'HTTP_HOST'
p2447
asbag69
(g90
g71
NtRp2448
(dp2449
g74
(dp2450
g101
g102
ssg83
g2439
sg76
(lp2451
S':'
asbag69
(g90
g71
NtRp2452
(dp2453
g74
(dp2454
sg83
g2439
sg76
(lp2455
g69
(g70
g71
NtRp2456
(dp2457
g74
(dp2458
g82
I3
ssg83
g2452
sg76
(lp2459
g997
asbasbasbag69
(g85
g71
NtRp2460
(dp2461
g74
(dp2462
sg83
g2288
sg76
(lp2463
g69
(g90
g71
NtRp2464
(dp2465
g74
(dp2466
g94
g95
ssg83
g2460
sg76
(lp2467
S'HTTP_USER_AGENT'
p2468
asbag69
(g90
g71
NtRp2469
(dp2470
g74
(dp2471
g101
g102
ssg83
g2460
sg76
(lp2472
S':'
asbag69
(g90
g71
NtRp2473
(dp2474
g74
(dp2475
sg83
g2460
sg76
(lp2476
g69
(g70
g71
NtRp2477
(dp2478
g74
(dp2479
g82
I3
ssg83
g2473
sg76
(lp2480
g1019
asbasbasbag69
(g85
g71
NtRp2481
(dp2482
g74
(dp2483
sg83
g2288
sg76
(lp2484
g69
(g90
g71
NtRp2485
(dp2486
g74
(dp2487
g94
g95
ssg83
g2481
sg76
(lp2488
S'PATH_INFO'
p2489
asbag69
(g90
g71
NtRp2490
(dp2491
g74
(dp2492
g101
g102
ssg83
g2481
sg76
(lp2493
S':'
asbag69
(g90
g71
NtRp2494
(dp2495
g74
(dp2496
sg83
g2481
sg76
(lp2497
g69
(g70
g71
NtRp2498
(dp2499
g74
(dp2500
g82
I3
ssg83
g2494
sg76
(lp2501
g1083
asbasbasbag69
(g85
g71
NtRp2502
(dp2503
g74
(dp2504
sg83
g2288
sg76
(lp2505
g69
(g90
g71
NtRp2506
(dp2507
g74
(dp2508
g94
g95
ssg83
g2502
sg76
(lp2509
S'QUERY_STRING'
p2510
asbag69
(g90
g71
NtRp2511
(dp2512
g74
(dp2513
g101
g102
ssg83
g2502
sg76
(lp2514
S':'
asbag69
(g90
g71
NtRp2515
(dp2516
g74
(dp2517
sg83
g2502
sg76
(lp2518
g69
(g70
g71
NtRp2519
(dp2520
g74
(dp2521
g82
I3
ssg83
g2515
sg76
(lp2522
S''
asbasbasbag69
(g85
g71
NtRp2523
(dp2524
g74
(dp2525
sg83
g2288
sg76
(lp2526
g69
(g90
g71
NtRp2527
(dp2528
g74
(dp2529
g94
g95
ssg83
g2523
sg76
(lp2530
S'REMOTE_ADDR'
p2531
asbag69
(g90
g71
NtRp2532
(dp2533
g74
(dp2534
g101
g102
ssg83
g2523
sg76
(lp2535
S':'
asbag69
(g90
g71
NtRp2536
(dp2537
g74
(dp2538
sg83
g2523
sg76
(lp2539
g69
(g70
g71
NtRp2540
(dp2541
g74
(dp2542
g82
I3
ssg83
g2536
sg76
(lp2543
g215
asbasbasbag69
(g85
g71
NtRp2544
(dp2545
g74
(dp2546
sg83
g2288
sg76
(lp2547
g69
(g90
g71
NtRp2548
(dp2549
g74
(dp2550
g94
g95
ssg83
g2544
sg76
(lp2551
S'REMOTE_PORT'
p2552
asbag69
(g90
g71
NtRp2553
(dp2554
g74
(dp2555
g101
g102
ssg83
g2544
sg76
(lp2556
S':'
asbag69
(g90
g71
NtRp2557
(dp2558
g74
(dp2559
sg83
g2544
sg76
(lp2560
g69
(g70
g71
NtRp2561
(dp2562
g74
(dp2563
g82
I3
ssg83
g2557
sg76
(lp2564
g1147
asbasbasbag69
(g85
g71
NtRp2565
(dp2566
g74
(dp2567
sg83
g2288
sg76
(lp2568
g69
(g90
g71
NtRp2569
(dp2570
g74
(dp2571
g94
g95
ssg83
g2565
sg76
(lp2572
S'REQUEST_METHOD'
p2573
asbag69
(g90
g71
NtRp2574
(dp2575
g74
(dp2576
g101
g102
ssg83
g2565
sg76
(lp2577
S':'
asbag69
(g90
g71
NtRp2578
(dp2579
g74
(dp2580
sg83
g2565
sg76
(lp2581
g69
(g70
g71
NtRp2582
(dp2583
g74
(dp2584
g82
I3
ssg83
g2578
sg76
(lp2585
g1169
asbasbasbag69
(g85
g71
NtRp2586
(dp2587
g74
(dp2588
sg83
g2288
sg76
(lp2589
g69
(g90
g71
NtRp2590
(dp2591
g74
(dp2592
g94
g95
ssg83
g2586
sg76
(lp2593
S'SCRIPT_NAME'
p2594
asbag69
(g90
g71
NtRp2595
(dp2596
g74
(dp2597
g101
g102
ssg83
g2586
sg76
(lp2598
S':'
asbag69
(g90
g71
NtRp2599
(dp2600
g74
(dp2601
sg83
g2586
sg76
(lp2602
g69
(g70
g71
NtRp2603
(dp2604
g74
(dp2605
g82
I3
ssg83
g2599
sg76
(lp2606
S''
asbasbasbag69
(g85
g71
NtRp2607
(dp2608
g74
(dp2609
sg83
g2288
sg76
(lp2610
g69
(g90
g71
NtRp2611
(dp2612
g74
(dp2613
g94
g95
ssg83
g2607
sg76
(lp2614
S'SERVER_NAME'
p2615
asbag69
(g90
g71
NtRp2616
(dp2617
g74
(dp2618
g101
g102
ssg83
g2607
sg76
(lp2619
S':'
asbag69
(g90
g71
NtRp2620
(dp2621
g74
(dp2622
sg83
g2607
sg76
(lp2623
g69
(g70
g71
NtRp2624
(dp2625
g74
(dp2626
g82
I3
ssg83
g2620
sg76
(lp2627
g1212
asbasbasbag69
(g85
g71
NtRp2628
(dp2629
g74
(dp2630
sg83
g2288
sg76
(lp2631
g69
(g90
g71
NtRp2632
(dp2633
g74
(dp2634
g94
g95
ssg83
g2628
sg76
(lp2635
S'SERVER_PORT'
p2636
asbag69
(g90
g71
NtRp2637
(dp2638
g74
(dp2639
g101
g102
ssg83
g2628
sg76
(lp2640
S':'
asbag69
(g90
g71
NtRp2641
(dp2642
g74
(dp2643
sg83
g2628
sg76
(lp2644
g69
(g70
g71
NtRp2645
(dp2646
g74
(dp2647
g82
I3
ssg83
g2641
sg76
(lp2648
g1234
asbasbasbag69
(g85
g71
NtRp2649
(dp2650
g74
(dp2651
sg83
g2288
sg76
(lp2652
g69
(g90
g71
NtRp2653
(dp2654
g74
(dp2655
g94
g95
ssg83
g2649
sg76
(lp2656
S'SERVER_PROTOCOL'
p2657
asbag69
(g90
g71
NtRp2658
(dp2659
g74
(dp2660
g101
g102
ssg83
g2649
sg76
(lp2661
S':'
asbag69
(g90
g71
NtRp2662
(dp2663
g74
(dp2664
sg83
g2649
sg76
(lp2665
g69
(g70
g71
NtRp2666
(dp2667
g74
(dp2668
g82
I3
ssg83
g2662
sg76
(lp2669
g1256
asbasbasbag69
(g85
g71
NtRp2670
(dp2671
g74
(dp2672
sg83
g2288
sg76
(lp2673
g69
(g90
g71
NtRp2674
(dp2675
g74
(dp2676
g94
g95
ssg83
g2670
sg76
(lp2677
S'SERVER_SOFTWARE'
p2678
asbag69
(g90
g71
NtRp2679
(dp2680
g74
(dp2681
g101
g102
ssg83
g2670
sg76
(lp2682
S':'
asbag69
(g90
g71
NtRp2683
(dp2684
g74
(dp2685
sg83
g2670
sg76
(lp2686
g69
(g70
g71
NtRp2687
(dp2688
g74
(dp2689
g82
I3
ssg83
g2683
sg76
(lp2690
g1278
asbasbasbag69
(g85
g71
NtRp2691
(dp2692
g74
(dp2693
sg83
g2288
sg76
(lp2694
g69
(g90
g71
NtRp2695
(dp2696
g74
(dp2697
g94
g95
ssg83
g2691
sg76
(lp2698
S'wsgi.errors'
p2699
asbag69
(g90
g71
NtRp2700
(dp2701
g74
(dp2702
g101
g102
ssg83
g2691
sg76
(lp2703
S':'
asbag69
(g90
g71
NtRp2704
(dp2705
g74
(dp2706
sg83
g2691
sg76
(lp2707
g69
(g70
g71
NtRp2708
(dp2709
g74
(dp2710
g82
I3
ssg83
g2704
sg76
(lp2711
S"<open file '<stderr>', mode 'w' at 0xb72860d0>"
p2712
asbasbasbag69
(g85
g71
NtRp2713
(dp2714
g74
(dp2715
sg83
g2288
sg76
(lp2716
g69
(g90
g71
NtRp2717
(dp2718
g74
(dp2719
g94
g95
ssg83
g2713
sg76
(lp2720
S'wsgi.file_wrapper'
p2721
asbag69
(g90
g71
NtRp2722
(dp2723
g74
(dp2724
g101
g102
ssg83
g2713
sg76
(lp2725
S':'
asbag69
(g90
g71
NtRp2726
(dp2727
g74
(dp2728
sg83
g2713
sg76
(lp2729
g69
(g70
g71
NtRp2730
(dp2731
g74
(dp2732
g82
I3
ssg83
g2726
sg76
(lp2733
S'<class wsgiref.util.FileWrapper at 0x9f1ee9c>'
p2734
asbasbasbag69
(g85
g71
NtRp2735
(dp2736
g74
(dp2737
sg83
g2288
sg76
(lp2738
g69
(g90
g71
NtRp2739
(dp2740
g74
(dp2741
g94
g95
ssg83
g2735
sg76
(lp2742
S'wsgi.input'
p2743
asbag69
(g90
g71
NtRp2744
(dp2745
g74
(dp2746
g101
g102
ssg83
g2735
sg76
(lp2747
S':'
asbag69
(g90
g71
NtRp2748
(dp2749
g74
(dp2750
sg83
g2735
sg76
(lp2751
g69
(g70
g71
NtRp2752
(dp2753
g74
(dp2754
g82
I3
ssg83
g2748
sg76
(lp2755
S'<cStringIO.StringO object at 0xade81c20>'
p2756
asbasbasbag69
(g85
g71
NtRp2757
(dp2758
g74
(dp2759
sg83
g2288
sg76
(lp2760
g69
(g90
g71
NtRp2761
(dp2762
g74
(dp2763
g94
g95
ssg83
g2757
sg76
(lp2764
S'wsgi.multiprocess'
p2765
asbag69
(g90
g71
NtRp2766
(dp2767
g74
(dp2768
g101
g102
ssg83
g2757
sg76
(lp2769
S':'
asbag69
(g90
g71
NtRp2770
(dp2771
g74
(dp2772
sg83
g2757
sg76
(lp2773
g69
(g70
g71
NtRp2774
(dp2775
g74
(dp2776
g82
I3
ssg83
g2770
sg76
(lp2777
g112
asbasbasbag69
(g85
g71
NtRp2778
(dp2779
g74
(dp2780
sg83
g2288
sg76
(lp2781
g69
(g90
g71
NtRp2782
(dp2783
g74
(dp2784
g94
g95
ssg83
g2778
sg76
(lp2785
S'wsgi.multithread'
p2786
asbag69
(g90
g71
NtRp2787
(dp2788
g74
(dp2789
g101
g102
ssg83
g2778
sg76
(lp2790
S':'
asbag69
(g90
g71
NtRp2791
(dp2792
g74
(dp2793
sg83
g2778
sg76
(lp2794
g69
(g70
g71
NtRp2795
(dp2796
g74
(dp2797
g82
I3
ssg83
g2791
sg76
(lp2798
g1518
asbasbasbag69
(g85
g71
NtRp2799
(dp2800
g74
(dp2801
sg83
g2288
sg76
(lp2802
g69
(g90
g71
NtRp2803
(dp2804
g74
(dp2805
g94
g95
ssg83
g2799
sg76
(lp2806
S'wsgi.run_once'
p2807
asbag69
(g90
g71
NtRp2808
(dp2809
g74
(dp2810
g101
g102
ssg83
g2799
sg76
(lp2811
S':'
asbag69
(g90
g71
NtRp2812
(dp2813
g74
(dp2814
sg83
g2799
sg76
(lp2815
g69
(g70
g71
NtRp2816
(dp2817
g74
(dp2818
g82
I3
ssg83
g2812
sg76
(lp2819
g112
asbasbasbag69
(g85
g71
NtRp2820
(dp2821
g74
(dp2822
sg83
g2288
sg76
(lp2823
g69
(g90
g71
NtRp2824
(dp2825
g74
(dp2826
g94
g95
ssg83
g2820
sg76
(lp2827
S'wsgi.url_scheme'
p2828
asbag69
(g90
g71
NtRp2829
(dp2830
g74
(dp2831
g101
g102
ssg83
g2820
sg76
(lp2832
S':'
asbag69
(g90
g71
NtRp2833
(dp2834
g74
(dp2835
sg83
g2820
sg76
(lp2836
g69
(g70
g71
NtRp2837
(dp2838
g74
(dp2839
g82
I3
ssg83
g2833
sg76
(lp2840
g1561
asbasbasbag69
(g85
g71
NtRp2841
(dp2842
g74
(dp2843
sg83
g2288
sg76
(lp2844
g69
(g90
g71
NtRp2845
(dp2846
g74
(dp2847
g94
g95
ssg83
g2841
sg76
(lp2848
S'wsgi.version'
p2849
asbag69
(g90
g71
NtRp2850
(dp2851
g74
(dp2852
g101
g102
ssg83
g2841
sg76
(lp2853
S':'
asbag69
(g90
g71
NtRp2854
(dp2855
g74
(dp2856
sg83
g2841
sg76
(lp2857
g69
(g70
g71
NtRp2858
(dp2859
g74
(dp2860
g82
I3
ssg83
g2854
sg76
(lp2861
S'1'
asbasbasbasbasbasbasbasbasbasbasbasbasbsS'frames'
p2862
(lp2863
(dp2864
S'file'
p2865
S'/home/enigma/web2py/gluon/restricted.py'
p2866
sS'dump'
p2867
(dp2868
S'code'
p2869
S'r"response.write(\'<!DOCTYPE html>\\n<!-- paulirish....ponse.write(\'\\n</body>\\n</html>\\n\', escape=False)"'
p2870
sS'layer'
p2871
S"'/home/enigma/web2py/applications/911_signin/views/default/profile.html'"
p2872
sS'global compile2'
p2873
S'<function compile2>'
p2874
sS'ccode'
p2875
S'undefined'
p2876
ssS'lnum'
p2877
I204
sS'lines'
p2878
(dp2879
I199
S"    environment['__name__'] = '__restricted__'"
p2880
sI200
S'    try:'
p2881
sI201
S'        if type(code) == types.CodeType:'
p2882
sI202
S'            ccode = code'
p2883
sI203
S'        else:'
p2884
sI204
S'            ccode = compile2(code,layer)'
p2885
sI205
S'        exec ccode in environment'
p2886
sI206
S'    except HTTP:'
p2887
sI207
S'        raise'
p2888
sI208
S'    except RestrictedError:'
p2889
ssS'call'
p2890
S'(code=r"response.write(\'<!DOCTYPE html>\\n<!-- paulirish....ponse.write(\'\\n</body>\\n</html>\\n\', escape=False)", environment={\'A\': <class \'gluon.html.A\'>, \'Auth\': <class \'gluon.tools.Auth\'>, \'B\': <class \'gluon.html.B\'>, \'BEAUTIFY\': <class \'gluon.html.BEAUTIFY\'>, \'BODY\': <class \'gluon.html.BODY\'>, \'BR\': <class \'gluon.html.BR\'>, \'BUTTON\': <class \'gluon.html.BUTTON\'>, \'CAT\': <class \'gluon.html.CAT\'>, \'CENTER\': <class \'gluon.html.CENTER\'>, \'CLEANUP\': <class \'gluon.validators.CLEANUP\'>, ...}, layer=\'/home/enigma/web2py/applications/911_signin/views/default/profile.html\')'
p2891
sS'func'
p2892
S'restricted'
p2893
sa(dp2894
g2865
S'/home/enigma/web2py/gluon/restricted.py'
p2895
sg2867
(dp2896
S'builtincompile'
p2897
S'<built-in function compile>'
p2898
sS'code'
p2899
S'r"response.write(\'<!DOCTYPE html>\\n<!-- paulirish....ponse.write(\'\\n</body>\\n</html>\\n\', escape=False)"'
p2900
sS'code.rstrip'
p2901
S'<built-in method rstrip of str object>'
p2902
sS').replace'
p2903
g2876
sS'layer'
p2904
S"'/home/enigma/web2py/applications/911_signin/views/default/profile.html'"
p2905
ssg2877
I189
sg2878
(dp2906
I192
S'    """'
p2907
sI193
S'    runs code in environment and returns the output. if an exception occurs'
p2908
sI184
S''
sI185
S'def compile2(code,layer):'
p2909
sI186
S'    """'
p2910
sI187
S"    The +'\\n' is necessary else compile fails when code ends in a comment."
p2911
sI188
S'    """'
p2912
sI189
S"    return compile(code.rstrip().replace('\\r\\n','\\n')+'\\n', layer, 'exec')"
p2913
sI190
S''
sI191
S"def restricted(code, environment=None, layer='Unknown'):"
p2914
ssg2890
S'(code=r"response.write(\'<!DOCTYPE html>\\n<!-- paulirish....ponse.write(\'\\n</body>\\n</html>\\n\', escape=False)", layer=\'/home/enigma/web2py/applications/911_signin/views/default/profile.html\')'
p2915
sg2892
S'compile2'
p2916
sasS'pyver'
p2917
S'Python 2.7.3: /usr/bin/python'
p2918
sS'session'
p2919
g69
(g70
g71
NtRp2920
(dp2921
g74
(dp2922
sg76
(lp2923
g69
(g78
g71
NtRp2924
(dp2925
g74
(dp2926
g82
I5
ssg83
Nsg76
(lp2927
g69
(g85
g71
NtRp2928
(dp2929
g74
(dp2930
sg83
g2924
sg76
(lp2931
g69
(g90
g71
NtRp2932
(dp2933
g74
(dp2934
g94
g95
ssg83
g2928
sg76
(lp2935
S'auth'
p2936
asbag69
(g90
g71
NtRp2937
(dp2938
g74
(dp2939
g101
g102
ssg83
g2928
sg76
(lp2940
S':'
asbag69
(g90
g71
NtRp2941
(dp2942
g74
(dp2943
sg83
g2928
sg76
(lp2944
g69
(g70
g71
NtRp2945
(dp2946
g74
(dp2947
g82
I5
ssg83
g2941
sg76
(lp2948
g69
(g78
g71
NtRp2949
(dp2950
g74
(dp2951
g82
I4
ssg83
Nsg76
(lp2952
g69
(g85
g71
NtRp2953
(dp2954
g74
(dp2955
sg83
g2949
sg76
(lp2956
g69
(g90
g71
NtRp2957
(dp2958
g74
(dp2959
g94
g95
ssg83
g2953
sg76
(lp2960
S'expiration'
p2961
asbag69
(g90
g71
NtRp2962
(dp2963
g74
(dp2964
g101
g102
ssg83
g2953
sg76
(lp2965
S':'
asbag69
(g90
g71
NtRp2966
(dp2967
g74
(dp2968
sg83
g2953
sg76
(lp2969
g69
(g70
g71
NtRp2970
(dp2971
g74
(dp2972
g82
I4
ssg83
g2966
sg76
(lp2973
S'2592000'
p2974
asbasbasbag69
(g85
g71
NtRp2975
(dp2976
g74
(dp2977
sg83
g2949
sg76
(lp2978
g69
(g90
g71
NtRp2979
(dp2980
g74
(dp2981
g94
g95
ssg83
g2975
sg76
(lp2982
S'hmac_key'
p2983
asbag69
(g90
g71
NtRp2984
(dp2985
g74
(dp2986
g101
g102
ssg83
g2975
sg76
(lp2987
S':'
asbag69
(g90
g71
NtRp2988
(dp2989
g74
(dp2990
sg83
g2975
sg76
(lp2991
g69
(g70
g71
NtRp2992
(dp2993
g74
(dp2994
g82
I4
ssg83
g2988
sg76
(lp2995
S'131ce3c5-3f17-4e92-b139-55ca954eaf3b'
p2996
asbasbasbag69
(g85
g71
NtRp2997
(dp2998
g74
(dp2999
sg83
g2949
sg76
(lp3000
g69
(g90
g71
NtRp3001
(dp3002
g74
(dp3003
g94
g95
ssg83
g2997
sg76
(lp3004
S'last_visit'
p3005
asbag69
(g90
g71
NtRp3006
(dp3007
g74
(dp3008
g101
g102
ssg83
g2997
sg76
(lp3009
S':'
asbag69
(g90
g71
NtRp3010
(dp3011
g74
(dp3012
sg83
g2997
sg76
(lp3013
g69
(g70
g71
NtRp3014
(dp3015
g74
(dp3016
g82
I4
ssg83
g3010
sg76
(lp3017
S'datetime.datetime(2013, 6, 29, 14, 32, 7, 730609)'
p3018
asbasbasbag69
(g85
g71
NtRp3019
(dp3020
g74
(dp3021
sg83
g2949
sg76
(lp3022
g69
(g90
g71
NtRp3023
(dp3024
g74
(dp3025
g94
g95
ssg83
g3019
sg76
(lp3026
S'remember'
p3027
asbag69
(g90
g71
NtRp3028
(dp3029
g74
(dp3030
g101
g102
ssg83
g3019
sg76
(lp3031
S':'
asbag69
(g90
g71
NtRp3032
(dp3033
g74
(dp3034
sg83
g3019
sg76
(lp3035
g69
(g70
g71
NtRp3036
(dp3037
g74
(dp3038
g82
I4
ssg83
g3032
sg76
(lp3039
g1518
asbasbasbag69
(g85
g71
NtRp3040
(dp3041
g74
(dp3042
sg83
g2949
sg76
(lp3043
g69
(g90
g71
NtRp3044
(dp3045
g74
(dp3046
g94
g95
ssg83
g3040
sg76
(lp3047
S'user'
p3048
asbag69
(g90
g71
NtRp3049
(dp3050
g74
(dp3051
g101
g102
ssg83
g3040
sg76
(lp3052
S':'
asbag69
(g90
g71
NtRp3053
(dp3054
g74
(dp3055
sg83
g3040
sg76
(lp3056
g69
(g70
g71
NtRp3057
(dp3058
g74
(dp3059
g82
I4
ssg83
g3053
sg76
(lp3060
g69
(g78
g71
NtRp3061
(dp3062
g74
(dp3063
g82
I3
ssg83
Nsg76
(lp3064
g69
(g85
g71
NtRp3065
(dp3066
g74
(dp3067
sg83
g3061
sg76
(lp3068
g69
(g90
g71
NtRp3069
(dp3070
g74
(dp3071
g94
g95
ssg83
g3065
sg76
(lp3072
S'email'
p3073
asbag69
(g90
g71
NtRp3074
(dp3075
g74
(dp3076
g101
g102
ssg83
g3065
sg76
(lp3077
S':'
asbag69
(g90
g71
NtRp3078
(dp3079
g74
(dp3080
sg83
g3065
sg76
(lp3081
g69
(g70
g71
NtRp3082
(dp3083
g74
(dp3084
g82
I3
ssg83
g3078
sg76
(lp3085
S'csshadow26@gmail.com'
p3086
asbasbasbag69
(g85
g71
NtRp3087
(dp3088
g74
(dp3089
sg83
g3061
sg76
(lp3090
g69
(g90
g71
NtRp3091
(dp3092
g74
(dp3093
g94
g95
ssg83
g3087
sg76
(lp3094
S'first_name'
p3095
asbag69
(g90
g71
NtRp3096
(dp3097
g74
(dp3098
g101
g102
ssg83
g3087
sg76
(lp3099
S':'
asbag69
(g90
g71
NtRp3100
(dp3101
g74
(dp3102
sg83
g3087
sg76
(lp3103
g69
(g70
g71
NtRp3104
(dp3105
g74
(dp3106
g82
I3
ssg83
g3100
sg76
(lp3107
S'Chandan'
p3108
asbasbasbag69
(g85
g71
NtRp3109
(dp3110
g74
(dp3111
sg83
g3061
sg76
(lp3112
g69
(g90
g71
NtRp3113
(dp3114
g74
(dp3115
g94
g95
ssg83
g3109
sg76
(lp3116
S'id'
p3117
asbag69
(g90
g71
NtRp3118
(dp3119
g74
(dp3120
g101
g102
ssg83
g3109
sg76
(lp3121
S':'
asbag69
(g90
g71
NtRp3122
(dp3123
g74
(dp3124
sg83
g3109
sg76
(lp3125
g69
(g70
g71
NtRp3126
(dp3127
g74
(dp3128
g82
I3
ssg83
g3122
sg76
(lp3129
S'12'
p3130
asbasbasbag69
(g85
g71
NtRp3131
(dp3132
g74
(dp3133
sg83
g3061
sg76
(lp3134
g69
(g90
g71
NtRp3135
(dp3136
g74
(dp3137
g94
g95
ssg83
g3131
sg76
(lp3138
S'last_name'
p3139
asbag69
(g90
g71
NtRp3140
(dp3141
g74
(dp3142
g101
g102
ssg83
g3131
sg76
(lp3143
S':'
asbag69
(g90
g71
NtRp3144
(dp3145
g74
(dp3146
sg83
g3131
sg76
(lp3147
g69
(g70
g71
NtRp3148
(dp3149
g74
(dp3150
g82
I3
ssg83
g3144
sg76
(lp3151
S'Singh'
p3152
asbasbasbag69
(g85
g71
NtRp3153
(dp3154
g74
(dp3155
sg83
g3061
sg76
(lp3156
g69
(g90
g71
NtRp3157
(dp3158
g74
(dp3159
g94
g95
ssg83
g3153
sg76
(lp3160
S'password'
p3161
asbag69
(g90
g71
NtRp3162
(dp3163
g74
(dp3164
g101
g102
ssg83
g3153
sg76
(lp3165
S':'
asbag69
(g90
g71
NtRp3166
(dp3167
g74
(dp3168
sg83
g3153
sg76
(lp3169
g69
(g70
g71
NtRp3170
(dp3171
g74
(dp3172
g82
I3
ssg83
g3166
sg76
(lp3173
S'99adc231b045331e514a516b4b7680f588e3823213abe901738bc3ad67b2f6fcb3c64efb93d18002588d3ccc1a49efbae1ce20cb43df36b38651f11fa75678e8'
p3174
asbasbasbag69
(g85
g71
NtRp3175
(dp3176
g74
(dp3177
sg83
g3061
sg76
(lp3178
g69
(g90
g71
NtRp3179
(dp3180
g74
(dp3181
g94
g95
ssg83
g3175
sg76
(lp3182
S'registration_key'
p3183
asbag69
(g90
g71
NtRp3184
(dp3185
g74
(dp3186
g101
g102
ssg83
g3175
sg76
(lp3187
S':'
asbag69
(g90
g71
NtRp3188
(dp3189
g74
(dp3190
sg83
g3175
sg76
(lp3191
g69
(g70
g71
NtRp3192
(dp3193
g74
(dp3194
g82
I3
ssg83
g3188
sg76
(lp3195
S''
asbasbasbag69
(g85
g71
NtRp3196
(dp3197
g74
(dp3198
sg83
g3061
sg76
(lp3199
g69
(g90
g71
NtRp3200
(dp3201
g74
(dp3202
g94
g95
ssg83
g3196
sg76
(lp3203
S'unread_ctr'
p3204
asbag69
(g90
g71
NtRp3205
(dp3206
g74
(dp3207
g101
g102
ssg83
g3196
sg76
(lp3208
S':'
asbag69
(g90
g71
NtRp3209
(dp3210
g74
(dp3211
sg83
g3196
sg76
(lp3212
g69
(g70
g71
NtRp3213
(dp3214
g74
(dp3215
g82
I3
ssg83
g3209
sg76
(lp3216
S'0'
asbasbasbag69
(g85
g71
NtRp3217
(dp3218
g74
(dp3219
sg83
g3061
sg76
(lp3220
g69
(g90
g71
NtRp3221
(dp3222
g74
(dp3223
g94
g95
ssg83
g3217
sg76
(lp3224
S'username'
p3225
asbag69
(g90
g71
NtRp3226
(dp3227
g74
(dp3228
g101
g102
ssg83
g3217
sg76
(lp3229
S':'
asbag69
(g90
g71
NtRp3230
(dp3231
g74
(dp3232
sg83
g3217
sg76
(lp3233
g69
(g70
g71
NtRp3234
(dp3235
g74
(dp3236
g82
I3
ssg83
g3230
sg76
(lp3237
S'admin'
p3238
asbasbasbasbasbasbasbag69
(g85
g71
NtRp3239
(dp3240
g74
(dp3241
sg83
g2949
sg76
(lp3242
g69
(g90
g71
NtRp3243
(dp3244
g74
(dp3245
g94
g95
ssg83
g3239
sg76
(lp3246
S'user_groups'
p3247
asbag69
(g90
g71
NtRp3248
(dp3249
g74
(dp3250
g101
g102
ssg83
g3239
sg76
(lp3251
S':'
asbag69
(g90
g71
NtRp3252
(dp3253
g74
(dp3254
sg83
g3239
sg76
(lp3255
g69
(g70
g71
NtRp3256
(dp3257
g74
(dp3258
g82
I4
ssg83
g3252
sg76
(lp3259
g69
(g78
g71
NtRp3260
(dp3261
g74
(dp3262
g82
I3
ssg83
Nsg76
(lp3263
g69
(g85
g71
NtRp3264
(dp3265
g74
(dp3266
sg83
g3260
sg76
(lp3267
g69
(g90
g71
NtRp3268
(dp3269
g74
(dp3270
g94
g95
ssg83
g3264
sg76
(lp3271
S'13'
p3272
asbag69
(g90
g71
NtRp3273
(dp3274
g74
(dp3275
g101
g102
ssg83
g3264
sg76
(lp3276
S':'
asbag69
(g90
g71
NtRp3277
(dp3278
g74
(dp3279
sg83
g3264
sg76
(lp3280
g69
(g70
g71
NtRp3281
(dp3282
g74
(dp3283
g82
I3
ssg83
g3277
sg76
(lp3284
S'user_12'
p3285
asbasbasbasbasbasbasbasbasbasbasbag69
(g85
g71
NtRp3286
(dp3287
g74
(dp3288
sg83
g2924
sg76
(lp3289
g69
(g90
g71
NtRp3290
(dp3291
g74
(dp3292
g94
g95
ssg83
g3286
sg76
(lp3293
S'last_query'
p3294
asbag69
(g90
g71
NtRp3295
(dp3296
g74
(dp3297
g101
g102
ssg83
g3286
sg76
(lp3298
S':'
asbag69
(g90
g71
NtRp3299
(dp3300
g74
(dp3301
sg83
g3286
sg76
(lp3302
g69
(g70
g71
NtRp3303
(dp3304
g74
(dp3305
g82
I5
ssg83
g3299
sg76
(lp3306
S'db.profile_pic.id>0'
p3307
asbasbasbasbasbsS'etype'
p3308
S"<type 'exceptions.SyntaxError'>"
p3309
sS'date'
p3310
S'Sun Jun 30 15:59:53 2013'
p3311
sS'response'
p3312
g69
(g70
g71
NtRp3313
(dp3314
g74
(dp3315
sg76
(lp3316
g69
(g78
g71
NtRp3317
(dp3318
g74
(dp3319
g82
I5
ssg83
Nsg76
(lp3320
g69
(g85
g71
NtRp3321
(dp3322
g74
(dp3323
sg83
g3317
sg76
(lp3324
g69
(g90
g71
NtRp3325
(dp3326
g74
(dp3327
g94
g95
ssg83
g3321
sg76
(lp3328
g180
asbag69
(g90
g71
NtRp3329
(dp3330
g74
(dp3331
g101
g102
ssg83
g3321
sg76
(lp3332
S':'
asbag69
(g90
g71
NtRp3333
(dp3334
g74
(dp3335
sg83
g3321
sg76
(lp3336
g69
(g70
g71
NtRp3337
(dp3338
g74
(dp3339
g82
I5
ssg83
g3333
sg76
(lp3340
S'<cStringIO.StringO object at 0xad310ca0>'
p3341
asbasbasbag69
(g85
g71
NtRp3342
(dp3343
g74
(dp3344
sg83
g3317
sg76
(lp3345
g69
(g90
g71
NtRp3346
(dp3347
g74
(dp3348
g94
g95
ssg83
g3342
sg76
(lp3349
g246
asbag69
(g90
g71
NtRp3350
(dp3351
g74
(dp3352
g101
g102
ssg83
g3342
sg76
(lp3353
S':'
asbag69
(g90
g71
NtRp3354
(dp3355
g74
(dp3356
sg83
g3342
sg76
(lp3357
g69
(g70
g71
NtRp3358
(dp3359
g74
(dp3360
g82
I5
ssg83
g3354
sg76
(lp3361
g69
(g78
g71
NtRp3362
(dp3363
g74
(dp3364
g82
I4
ssg83
Nsg76
(lp3365
g69
(g85
g71
NtRp3366
(dp3367
g74
(dp3368
sg83
g3362
sg76
(lp3369
g69
(g90
g71
NtRp3370
(dp3371
g74
(dp3372
g94
g95
ssg83
g3366
sg76
(lp3373
S'session_id_911_signin'
p3374
asbag69
(g90
g71
NtRp3375
(dp3376
g74
(dp3377
g101
g102
ssg83
g3366
sg76
(lp3378
S':'
asbag69
(g90
g71
NtRp3379
(dp3380
g74
(dp3381
sg83
g3366
sg76
(lp3382
g69
(g70
g71
NtRp3383
(dp3384
g74
(dp3385
g82
I4
ssg83
g3379
sg76
(lp3386
g69
(g78
g71
NtRp3387
(dp3388
g74
(dp3389
g82
I3
ssg83
Nsg76
(lp3390
g69
(g85
g71
NtRp3391
(dp3392
g74
(dp3393
sg83
g3387
sg76
(lp3394
g69
(g90
g71
NtRp3395
(dp3396
g74
(dp3397
g94
g95
ssg83
g3391
sg76
(lp3398
g296
asbag69
(g90
g71
NtRp3399
(dp3400
g74
(dp3401
g101
g102
ssg83
g3391
sg76
(lp3402
S':'
asbag69
(g90
g71
NtRp3403
(dp3404
g74
(dp3405
sg83
g3391
sg76
(lp3406
g69
(g70
g71
NtRp3407
(dp3408
g74
(dp3409
g82
I3
ssg83
g3403
sg76
(lp3410
S''
asbasbasbag69
(g85
g71
NtRp3411
(dp3412
g74
(dp3413
sg83
g3387
sg76
(lp3414
g69
(g90
g71
NtRp3415
(dp3416
g74
(dp3417
g94
g95
ssg83
g3411
sg76
(lp3418
g317
asbag69
(g90
g71
NtRp3419
(dp3420
g74
(dp3421
g101
g102
ssg83
g3411
sg76
(lp3422
S':'
asbag69
(g90
g71
NtRp3423
(dp3424
g74
(dp3425
sg83
g3411
sg76
(lp3426
g69
(g70
g71
NtRp3427
(dp3428
g74
(dp3429
g82
I3
ssg83
g3423
sg76
(lp3430
S''
asbasbasbag69
(g85
g71
NtRp3431
(dp3432
g74
(dp3433
sg83
g3387
sg76
(lp3434
g69
(g90
g71
NtRp3435
(dp3436
g74
(dp3437
g94
g95
ssg83
g3431
sg76
(lp3438
g338
asbag69
(g90
g71
NtRp3439
(dp3440
g74
(dp3441
g101
g102
ssg83
g3431
sg76
(lp3442
S':'
asbag69
(g90
g71
NtRp3443
(dp3444
g74
(dp3445
sg83
g3431
sg76
(lp3446
g69
(g70
g71
NtRp3447
(dp3448
g74
(dp3449
g82
I3
ssg83
g3443
sg76
(lp3450
S'2592000'
p3451
asbasbasbag69
(g85
g71
NtRp3452
(dp3453
g74
(dp3454
sg83
g3387
sg76
(lp3455
g69
(g90
g71
NtRp3456
(dp3457
g74
(dp3458
g94
g95
ssg83
g3452
sg76
(lp3459
g359
asbag69
(g90
g71
NtRp3460
(dp3461
g74
(dp3462
g101
g102
ssg83
g3452
sg76
(lp3463
S':'
asbag69
(g90
g71
NtRp3464
(dp3465
g74
(dp3466
sg83
g3452
sg76
(lp3467
g69
(g70
g71
NtRp3468
(dp3469
g74
(dp3470
g82
I3
ssg83
g3464
sg76
(lp3471
S''
asbasbasbag69
(g85
g71
NtRp3472
(dp3473
g74
(dp3474
sg83
g3387
sg76
(lp3475
g69
(g90
g71
NtRp3476
(dp3477
g74
(dp3478
g94
g95
ssg83
g3472
sg76
(lp3479
g380
asbag69
(g90
g71
NtRp3480
(dp3481
g74
(dp3482
g101
g102
ssg83
g3472
sg76
(lp3483
S':'
asbag69
(g90
g71
NtRp3484
(dp3485
g74
(dp3486
sg83
g3472
sg76
(lp3487
g69
(g70
g71
NtRp3488
(dp3489
g74
(dp3490
g82
I3
ssg83
g3484
sg76
(lp3491
S''
asbasbasbag69
(g85
g71
NtRp3492
(dp3493
g74
(dp3494
sg83
g3387
sg76
(lp3495
g69
(g90
g71
NtRp3496
(dp3497
g74
(dp3498
g94
g95
ssg83
g3492
sg76
(lp3499
g401
asbag69
(g90
g71
NtRp3500
(dp3501
g74
(dp3502
g101
g102
ssg83
g3492
sg76
(lp3503
S':'
asbag69
(g90
g71
NtRp3504
(dp3505
g74
(dp3506
sg83
g3492
sg76
(lp3507
g69
(g70
g71
NtRp3508
(dp3509
g74
(dp3510
g82
I3
ssg83
g3504
sg76
(lp3511
S'/'
asbasbasbag69
(g85
g71
NtRp3512
(dp3513
g74
(dp3514
sg83
g3387
sg76
(lp3515
g69
(g90
g71
NtRp3516
(dp3517
g74
(dp3518
g94
g95
ssg83
g3512
sg76
(lp3519
g422
asbag69
(g90
g71
NtRp3520
(dp3521
g74
(dp3522
g101
g102
ssg83
g3512
sg76
(lp3523
S':'
asbag69
(g90
g71
NtRp3524
(dp3525
g74
(dp3526
sg83
g3512
sg76
(lp3527
g69
(g70
g71
NtRp3528
(dp3529
g74
(dp3530
g82
I3
ssg83
g3524
sg76
(lp3531
S''
asbasbasbag69
(g85
g71
NtRp3532
(dp3533
g74
(dp3534
sg83
g3387
sg76
(lp3535
g69
(g90
g71
NtRp3536
(dp3537
g74
(dp3538
g94
g95
ssg83
g3532
sg76
(lp3539
g443
asbag69
(g90
g71
NtRp3540
(dp3541
g74
(dp3542
g101
g102
ssg83
g3532
sg76
(lp3543
S':'
asbag69
(g90
g71
NtRp3544
(dp3545
g74
(dp3546
sg83
g3532
sg76
(lp3547
g69
(g70
g71
NtRp3548
(dp3549
g74
(dp3550
g82
I3
ssg83
g3544
sg76
(lp3551
S''
asbasbasbasbasbasbasbasbasbasbasbag69
(g85
g71
NtRp3552
(dp3553
g74
(dp3554
sg83
g3317
sg76
(lp3555
g69
(g90
g71
NtRp3556
(dp3557
g74
(dp3558
g94
g95
ssg83
g3552
sg76
(lp3559
S'delimiters'
p3560
asbag69
(g90
g71
NtRp3561
(dp3562
g74
(dp3563
g101
g102
ssg83
g3552
sg76
(lp3564
S':'
asbag69
(g90
g71
NtRp3565
(dp3566
g74
(dp3567
sg83
g3552
sg76
(lp3568
g69
(g70
g71
NtRp3569
(dp3570
g74
(dp3571
g82
I5
ssg83
g3565
sg76
(lp3572
g69
(g78
g71
NtRp3573
(dp3574
g74
(dp3575
g82
I4
ssg83
Nsg76
(lp3576
g69
(g85
g71
NtRp3577
(dp3578
g74
(dp3579
sg83
g3573
sg76
(lp3580
g69
(g90
g71
NtRp3581
(dp3582
g74
(dp3583
sg83
g3577
sg76
(lp3584
g69
(g70
g71
NtRp3585
(dp3586
g74
(dp3587
g82
I4
ssg83
g3581
sg76
(lp3588
S'{{'
p3589
asbasbasbag69
(g85
g71
NtRp3590
(dp3591
g74
(dp3592
sg83
g3573
sg76
(lp3593
g69
(g90
g71
NtRp3594
(dp3595
g74
(dp3596
sg83
g3590
sg76
(lp3597
g69
(g70
g71
NtRp3598
(dp3599
g74
(dp3600
g82
I4
ssg83
g3594
sg76
(lp3601
S'}}'
p3602
asbasbasbasbasbasbasbag69
(g85
g71
NtRp3603
(dp3604
g74
(dp3605
sg83
g3317
sg76
(lp3606
g69
(g90
g71
NtRp3607
(dp3608
g74
(dp3609
g94
g95
ssg83
g3603
sg76
(lp3610
S'files'
p3611
asbag69
(g90
g71
NtRp3612
(dp3613
g74
(dp3614
g101
g102
ssg83
g3603
sg76
(lp3615
S':'
asbag69
(g90
g71
NtRp3616
(dp3617
g74
(dp3618
sg83
g3603
sg76
(lp3619
g69
(g70
g71
NtRp3620
(dp3621
g74
(dp3622
g82
I5
ssg83
g3616
sg76
(lp3623
g69
(g78
g71
NtRp3624
(dp3625
g74
(dp3626
g82
I4
ssg83
Nsg76
(lp3627
sbasbasbasbag69
(g85
g71
NtRp3628
(dp3629
g74
(dp3630
sg83
g3317
sg76
(lp3631
g69
(g90
g71
NtRp3632
(dp3633
g74
(dp3634
g94
g95
ssg83
g3628
sg76
(lp3635
S'flash'
p3636
asbag69
(g90
g71
NtRp3637
(dp3638
g74
(dp3639
g101
g102
ssg83
g3628
sg76
(lp3640
S':'
asbag69
(g90
g71
NtRp3641
(dp3642
g74
(dp3643
sg83
g3628
sg76
(lp3644
g69
(g70
g71
NtRp3645
(dp3646
g74
(dp3647
g82
I5
ssg83
g3641
sg76
(lp3648
S''
asbasbasbag69
(g85
g71
NtRp3649
(dp3650
g74
(dp3651
sg83
g3317
sg76
(lp3652
g69
(g90
g71
NtRp3653
(dp3654
g74
(dp3655
g94
g95
ssg83
g3649
sg76
(lp3656
S'generic_patterns'
p3657
asbag69
(g90
g71
NtRp3658
(dp3659
g74
(dp3660
g101
g102
ssg83
g3649
sg76
(lp3661
S':'
asbag69
(g90
g71
NtRp3662
(dp3663
g74
(dp3664
sg83
g3649
sg76
(lp3665
g69
(g70
g71
NtRp3666
(dp3667
g74
(dp3668
g82
I5
ssg83
g3662
sg76
(lp3669
g69
(g78
g71
NtRp3670
(dp3671
g74
(dp3672
g82
I4
ssg83
Nsg76
(lp3673
g69
(g85
g71
NtRp3674
(dp3675
g74
(dp3676
sg83
g3670
sg76
(lp3677
g69
(g90
g71
NtRp3678
(dp3679
g74
(dp3680
sg83
g3674
sg76
(lp3681
g69
(g70
g71
NtRp3682
(dp3683
g74
(dp3684
g82
I4
ssg83
g3678
sg76
(lp3685
S'*'
asbasbasbasbasbasbasbag69
(g85
g71
NtRp3686
(dp3687
g74
(dp3688
sg83
g3317
sg76
(lp3689
g69
(g90
g71
NtRp3690
(dp3691
g74
(dp3692
g94
g95
ssg83
g3686
sg76
(lp3693
S'headers'
p3694
asbag69
(g90
g71
NtRp3695
(dp3696
g74
(dp3697
g101
g102
ssg83
g3686
sg76
(lp3698
S':'
asbag69
(g90
g71
NtRp3699
(dp3700
g74
(dp3701
sg83
g3686
sg76
(lp3702
g69
(g70
g71
NtRp3703
(dp3704
g74
(dp3705
g82
I5
ssg83
g3699
sg76
(lp3706
g69
(g78
g71
NtRp3707
(dp3708
g74
(dp3709
g82
I4
ssg83
Nsg76
(lp3710
g69
(g85
g71
NtRp3711
(dp3712
g74
(dp3713
sg83
g3707
sg76
(lp3714
g69
(g90
g71
NtRp3715
(dp3716
g74
(dp3717
g94
g95
ssg83
g3711
sg76
(lp3718
S'Cache-Control'
p3719
asbag69
(g90
g71
NtRp3720
(dp3721
g74
(dp3722
g101
g102
ssg83
g3711
sg76
(lp3723
S':'
asbag69
(g90
g71
NtRp3724
(dp3725
g74
(dp3726
sg83
g3711
sg76
(lp3727
g69
(g70
g71
NtRp3728
(dp3729
g74
(dp3730
g82
I4
ssg83
g3724
sg76
(lp3731
S'no-store, no-cache, must-revalidate, post-check=0, pre-check=0'
p3732
asbasbasbag69
(g85
g71
NtRp3733
(dp3734
g74
(dp3735
sg83
g3707
sg76
(lp3736
g69
(g90
g71
NtRp3737
(dp3738
g74
(dp3739
g94
g95
ssg83
g3733
sg76
(lp3740
S'Content-Type'
p3741
asbag69
(g90
g71
NtRp3742
(dp3743
g74
(dp3744
g101
g102
ssg83
g3733
sg76
(lp3745
S':'
asbag69
(g90
g71
NtRp3746
(dp3747
g74
(dp3748
sg83
g3733
sg76
(lp3749
g69
(g70
g71
NtRp3750
(dp3751
g74
(dp3752
g82
I4
ssg83
g3746
sg76
(lp3753
S'text/html; charset=utf-8'
p3754
asbasbasbag69
(g85
g71
NtRp3755
(dp3756
g74
(dp3757
sg83
g3707
sg76
(lp3758
g69
(g90
g71
NtRp3759
(dp3760
g74
(dp3761
g94
g95
ssg83
g3755
sg76
(lp3762
S'Expires'
p3763
asbag69
(g90
g71
NtRp3764
(dp3765
g74
(dp3766
g101
g102
ssg83
g3755
sg76
(lp3767
S':'
asbag69
(g90
g71
NtRp3768
(dp3769
g74
(dp3770
sg83
g3755
sg76
(lp3771
g69
(g70
g71
NtRp3772
(dp3773
g74
(dp3774
g82
I4
ssg83
g3768
sg76
(lp3775
S'Sun, 30 Jun 2013 10:29:53 GMT'
p3776
asbasbasbag69
(g85
g71
NtRp3777
(dp3778
g74
(dp3779
sg83
g3707
sg76
(lp3780
g69
(g90
g71
NtRp3781
(dp3782
g74
(dp3783
g94
g95
ssg83
g3777
sg76
(lp3784
S'Pragma'
p3785
asbag69
(g90
g71
NtRp3786
(dp3787
g74
(dp3788
g101
g102
ssg83
g3777
sg76
(lp3789
S':'
asbag69
(g90
g71
NtRp3790
(dp3791
g74
(dp3792
sg83
g3777
sg76
(lp3793
g69
(g70
g71
NtRp3794
(dp3795
g74
(dp3796
g82
I4
ssg83
g3790
sg76
(lp3797
S'no-cache'
p3798
asbasbasbag69
(g85
g71
NtRp3799
(dp3800
g74
(dp3801
sg83
g3707
sg76
(lp3802
g69
(g90
g71
NtRp3803
(dp3804
g74
(dp3805
g94
g95
ssg83
g3799
sg76
(lp3806
S'X-Powered-By'
p3807
asbag69
(g90
g71
NtRp3808
(dp3809
g74
(dp3810
g101
g102
ssg83
g3799
sg76
(lp3811
S':'
asbag69
(g90
g71
NtRp3812
(dp3813
g74
(dp3814
sg83
g3799
sg76
(lp3815
g69
(g70
g71
NtRp3816
(dp3817
g74
(dp3818
g82
I4
ssg83
g3812
sg76
(lp3819
S'web2py'
p3820
asbasbasbasbasbasbasbag69
(g85
g71
NtRp3821
(dp3822
g74
(dp3823
sg83
g3317
sg76
(lp3824
g69
(g90
g71
NtRp3825
(dp3826
g74
(dp3827
g94
g95
ssg83
g3821
sg76
(lp3828
S'menu'
p3829
asbag69
(g90
g71
NtRp3830
(dp3831
g74
(dp3832
g101
g102
ssg83
g3821
sg76
(lp3833
S':'
asbag69
(g90
g71
NtRp3834
(dp3835
g74
(dp3836
sg83
g3821
sg76
(lp3837
g69
(g70
g71
NtRp3838
(dp3839
g74
(dp3840
g82
I5
ssg83
g3834
sg76
(lp3841
g69
(g78
g71
NtRp3842
(dp3843
g74
(dp3844
g82
I4
ssg83
Nsg76
(lp3845
g69
(g85
g71
NtRp3846
(dp3847
g74
(dp3848
sg83
g3842
sg76
(lp3849
g69
(g90
g71
NtRp3850
(dp3851
g74
(dp3852
sg83
g3846
sg76
(lp3853
g69
(g70
g71
NtRp3854
(dp3855
g74
(dp3856
g82
I4
ssg83
g3850
sg76
(lp3857
g69
(g78
g71
NtRp3858
(dp3859
g74
(dp3860
g82
I3
ssg83
Nsg76
(lp3861
g69
(g85
g71
NtRp3862
(dp3863
g74
(dp3864
sg83
g3858
sg76
(lp3865
g69
(g90
g71
NtRp3866
(dp3867
g74
(dp3868
sg83
g3862
sg76
(lp3869
g69
(g70
g71
NtRp3870
(dp3871
g74
(dp3872
g82
I3
ssg83
g3866
sg76
(lp3873
cgluon.languages
lazyT_unpickle
p3874
(S't\x04\x00\x00\x00Home'
tRp3875
asbasbasbag69
(g85
g71
NtRp3876
(dp3877
g74
(dp3878
sg83
g3858
sg76
(lp3879
g69
(g90
g71
NtRp3880
(dp3881
g74
(dp3882
sg83
g3876
sg76
(lp3883
g69
(g70
g71
NtRp3884
(dp3885
g74
(dp3886
g82
I3
ssg83
g3880
sg76
(lp3887
g112
asbasbasbag69
(g85
g71
NtRp3888
(dp3889
g74
(dp3890
sg83
g3858
sg76
(lp3891
g69
(g90
g71
NtRp3892
(dp3893
g74
(dp3894
sg83
g3888
sg76
(lp3895
g69
(g70
g71
NtRp3896
(dp3897
g74
(dp3898
g82
I3
ssg83
g3892
sg76
(lp3899
S'/911_signin/default/index'
p3900
asbasbasbag69
(g85
g71
NtRp3901
(dp3902
g74
(dp3903
sg83
g3858
sg76
(lp3904
g69
(g90
g71
NtRp3905
(dp3906
g74
(dp3907
sg83
g3901
sg76
(lp3908
g69
(g70
g71
NtRp3909
(dp3910
g74
(dp3911
g82
I3
ssg83
g3905
sg76
(lp3912
g69
(g78
g71
NtRp3913
(dp3914
g74
(dp3915
g82
I2
ssg83
Nsg76
(lp3916
sbasbasbasbasbasbasbasbag69
(g85
g71
NtRp3917
(dp3918
g74
(dp3919
sg83
g3842
sg76
(lp3920
g69
(g90
g71
NtRp3921
(dp3922
g74
(dp3923
sg83
g3917
sg76
(lp3924
g69
(g70
g71
NtRp3925
(dp3926
g74
(dp3927
g82
I4
ssg83
g3921
sg76
(lp3928
g69
(g78
g71
NtRp3929
(dp3930
g74
(dp3931
g82
I3
ssg83
Nsg76
(lp3932
g69
(g85
g71
NtRp3933
(dp3934
g74
(dp3935
sg83
g3929
sg76
(lp3936
g69
(g90
g71
NtRp3937
(dp3938
g74
(dp3939
sg83
g3933
sg76
(lp3940
g69
(g70
g71
NtRp3941
(dp3942
g74
(dp3943
g82
I3
ssg83
g3937
sg76
(lp3944
g69
(cgluon.html
SPAN
p3945
g71
NtRp3946
(dp3947
g74
(dp3948
g94
S'color:yellow'
p3949
ssg83
Nsg76
(lp3950
g3820
asbasbasbasbag69
(g85
g71
NtRp3951
(dp3952
g74
(dp3953
sg83
g3929
sg76
(lp3954
g69
(g90
g71
NtRp3955
(dp3956
g74
(dp3957
sg83
g3951
sg76
(lp3958
g69
(g70
g71
NtRp3959
(dp3960
g74
(dp3961
g82
I3
ssg83
g3955
sg76
(lp3962
g112
asbasbasbag69
(g85
g71
NtRp3963
(dp3964
g74
(dp3965
sg83
g3929
sg76
(lp3966
g69
(g90
g71
NtRp3967
(dp3968
g74
(dp3969
sg83
g3963
sg76
(lp3970
g69
(g70
g71
NtRp3971
(dp3972
g74
(dp3973
g82
I3
ssg83
g3967
sg76
(lp3974
S'None'
p3975
asbasbasbag69
(g85
g71
NtRp3976
(dp3977
g74
(dp3978
sg83
g3929
sg76
(lp3979
g69
(g90
g71
NtRp3980
(dp3981
g74
(dp3982
sg83
g3976
sg76
(lp3983
g69
(g70
g71
NtRp3984
(dp3985
g74
(dp3986
g82
I3
ssg83
g3980
sg76
(lp3987
g69
(g78
g71
NtRp3988
(dp3989
g74
(dp3990
g82
I2
ssg83
Nsg76
(lp3991
g69
(g85
g71
NtRp3992
(dp3993
g74
(dp3994
sg83
g3988
sg76
(lp3995
g69
(g90
g71
NtRp3996
(dp3997
g74
(dp3998
sg83
g3992
sg76
(lp3999
g69
(g70
g71
NtRp4000
(dp4001
g74
(dp4002
g82
I2
ssg83
g3996
sg76
(lp4003
g69
(g78
g71
NtRp4004
(dp4005
g74
(dp4006
g82
I1
ssg83
Nsg76
(lp4007
g69
(g85
g71
NtRp4008
(dp4009
g74
(dp4010
sg83
g4004
sg76
(lp4011
g69
(g90
g71
NtRp4012
(dp4013
g74
(dp4014
sg83
g4008
sg76
(lp4015
g69
(g70
g71
NtRp4016
(dp4017
g74
(dp4018
g82
I1
ssg83
g4012
sg76
(lp4019
g3874
(S's\x08\x00\x00\x00My Sites'
tRp4020
asbasbasbag69
(g85
g71
NtRp4021
(dp4022
g74
(dp4023
sg83
g4004
sg76
(lp4024
g69
(g90
g71
NtRp4025
(dp4026
g74
(dp4027
sg83
g4021
sg76
(lp4028
g69
(g70
g71
NtRp4029
(dp4030
g74
(dp4031
g82
I1
ssg83
g4025
sg76
(lp4032
I00
asbasbasbag69
(g85
g71
NtRp4033
(dp4034
g74
(dp4035
sg83
g4004
sg76
(lp4036
g69
(g90
g71
NtRp4037
(dp4038
g74
(dp4039
sg83
g4033
sg76
(lp4040
g69
(g70
g71
NtRp4041
(dp4042
g74
(dp4043
g82
I1
ssg83
g4037
sg76
(lp4044
S'/admin/default/site'
p4045
asbasbasbasbasbasbasbag69
(g85
g71
NtRp4046
(dp4047
g74
(dp4048
sg83
g3988
sg76
(lp4049
g69
(g90
g71
NtRp4050
(dp4051
g74
(dp4052
sg83
g4046
sg76
(lp4053
g69
(g70
g71
NtRp4054
(dp4055
g74
(dp4056
g82
I2
ssg83
g4050
sg76
(lp4057
g69
(g78
g71
NtRp4058
(dp4059
g74
(dp4060
g82
I1
ssg83
Nsg76
(lp4061
g69
(g85
g71
NtRp4062
(dp4063
g74
(dp4064
sg83
g4058
sg76
(lp4065
g69
(g90
g71
NtRp4066
(dp4067
g74
(dp4068
sg83
g4062
sg76
(lp4069
g69
(g70
g71
NtRp4070
(dp4071
g74
(dp4072
g82
I1
ssg83
g4066
sg76
(lp4073
g3874
(S's\x08\x00\x00\x00This App'
tRp4074
asbasbasbag69
(g85
g71
NtRp4075
(dp4076
g74
(dp4077
sg83
g4058
sg76
(lp4078
g69
(g90
g71
NtRp4079
(dp4080
g74
(dp4081
sg83
g4075
sg76
(lp4082
g69
(g70
g71
NtRp4083
(dp4084
g74
(dp4085
g82
I1
ssg83
g4079
sg76
(lp4086
I00
asbasbasbag69
(g85
g71
NtRp4087
(dp4088
g74
(dp4089
sg83
g4058
sg76
(lp4090
g69
(g90
g71
NtRp4091
(dp4092
g74
(dp4093
sg83
g4087
sg76
(lp4094
g69
(g70
g71
NtRp4095
(dp4096
g74
(dp4097
g82
I1
ssg83
g4091
sg76
(lp4098
S'/admin/default/design/911_signin'
p4099
asbasbasbag69
(g85
g71
NtRp4100
(dp4101
g74
(dp4102
sg83
g4058
sg76
(lp4103
g69
(g90
g71
NtRp4104
(dp4105
g74
(dp4106
sg83
g4100
sg76
(lp4107
g69
(g70
g71
NtRp4108
(dp4109
g74
(dp4110
g82
I1
ssg83
g4104
sg76
(lp4111
(lp4112
(g3874
(S't\n\x00\x00\x00Controller'
tRp4113
I00
S'/admin/default/edit/911_signin/controllers/default.py'
tp4114
a(g3874
(S't\x04\x00\x00\x00View'
tRp4115
I00
S'/admin/default/edit/911_signin/views/default/profile.html'
tp4116
a(g3874
(S't\x06\x00\x00\x00Layout'
tRp4117
I00
S'/admin/default/edit/911_signin/views/layout.html'
tp4118
a(g3874
(S't\n\x00\x00\x00Stylesheet'
tRp4119
I00
S'/admin/default/edit/911_signin/static/css/web2py.css'
tp4120
a(g3874
(S's\x08\x00\x00\x00DB Model'
tRp4121
I00
S'/admin/default/edit/911_signin/models/db.py'
tp4122
a(g3874
(S's\n\x00\x00\x00Menu Model'
tRp4123
I00
S'/admin/default/edit/911_signin/models/menu.py'
tp4124
a(g3874
(S't\x08\x00\x00\x00Database'
tRp4125
I00
S'/911_signin/appadmin/index'
tp4126
a(g3874
(S't\x06\x00\x00\x00Errors'
tRp4127
I00
S'/admin/default/errors/911_signin'
tp4128
a(g3874
(S't\x05\x00\x00\x00About'
tRp4129
I00
S'/admin/default/about/911_signin'
tp4130
aasbasbasbasbasbasbasbag69
(g85
g71
NtRp4131
(dp4132
g74
(dp4133
sg83
g3988
sg76
(lp4134
g69
(g90
g71
NtRp4135
(dp4136
g74
(dp4137
sg83
g4131
sg76
(lp4138
g69
(g70
g71
NtRp4139
(dp4140
g74
(dp4141
g82
I2
ssg83
g4135
sg76
(lp4142
g69
(g78
g71
NtRp4143
(dp4144
g74
(dp4145
g82
I1
ssg83
Nsg76
(lp4146
g69
(g85
g71
NtRp4147
(dp4148
g74
(dp4149
sg83
g4143
sg76
(lp4150
g69
(g90
g71
NtRp4151
(dp4152
g74
(dp4153
sg83
g4147
sg76
(lp4154
g69
(g70
g71
NtRp4155
(dp4156
g74
(dp4157
g82
I1
ssg83
g4151
sg76
(lp4158
S'web2py.com'
p4159
asbasbasbag69
(g85
g71
NtRp4160
(dp4161
g74
(dp4162
sg83
g4143
sg76
(lp4163
g69
(g90
g71
NtRp4164
(dp4165
g74
(dp4166
sg83
g4160
sg76
(lp4167
g69
(g70
g71
NtRp4168
(dp4169
g74
(dp4170
g82
I1
ssg83
g4164
sg76
(lp4171
I00
asbasbasbag69
(g85
g71
NtRp4172
(dp4173
g74
(dp4174
sg83
g4143
sg76
(lp4175
g69
(g90
g71
NtRp4176
(dp4177
g74
(dp4178
sg83
g4172
sg76
(lp4179
g69
(g70
g71
NtRp4180
(dp4181
g74
(dp4182
g82
I1
ssg83
g4176
sg76
(lp4183
S'http://www.web2py.com'
p4184
asbasbasbag69
(g85
g71
NtRp4185
(dp4186
g74
(dp4187
sg83
g4143
sg76
(lp4188
g69
(g90
g71
NtRp4189
(dp4190
g74
(dp4191
sg83
g4185
sg76
(lp4192
g69
(g70
g71
NtRp4193
(dp4194
g74
(dp4195
g82
I1
ssg83
g4189
sg76
(lp4196
(lp4197
(g3874
(S't\x08\x00\x00\x00Download'
tRp4198
I00
S'http://www.web2py.com/examples/default/download'
p4199
tp4200
a(g3874
(S't\x07\x00\x00\x00Support'
tRp4201
I00
S'http://www.web2py.com/examples/default/support'
p4202
tp4203
a(g3874
(S't\x04\x00\x00\x00Demo'
tRp4204
I00
S'http://web2py.com/demo_admin'
p4205
tp4206
a(g3874
(S's\x0e\x00\x00\x00Quick Examples'
tRp4207
I00
S'http://web2py.com/examples/default/examples'
p4208
tp4209
a(g3874
(S't\x03\x00\x00\x00FAQ'
tRp4210
I00
S'http://web2py.com/AlterEgo'
p4211
tp4212
a(g3874
(S't\x06\x00\x00\x00Videos'
tRp4213
I00
S'http://www.web2py.com/examples/default/videos/'
p4214
tp4215
a(g3874
(S's\x11\x00\x00\x00Free Applications'
tRp4216
I00
S'http://web2py.com/appliances'
p4217
tp4218
a(g3874
(S't\x07\x00\x00\x00Plugins'
tRp4219
I00
S'http://web2py.com/plugins'
p4220
tp4221
a(g3874
(S't\x07\x00\x00\x00Layouts'
tRp4222
I00
S'http://web2py.com/layouts'
p4223
tp4224
a(g3874
(S't\x07\x00\x00\x00Recipes'
tRp4225
I00
S'http://web2pyslices.com/'
p4226
tp4227
a(g3874
(S't\x08\x00\x00\x00Semantic'
tRp4228
I00
S'http://web2py.com/semantic'
p4229
tp4230
aasbasbasbasbasbasbasbag69
(g85
g71
NtRp4231
(dp4232
g74
(dp4233
sg83
g3988
sg76
(lp4234
g69
(g90
g71
NtRp4235
(dp4236
g74
(dp4237
sg83
g4231
sg76
(lp4238
g69
(g70
g71
NtRp4239
(dp4240
g74
(dp4241
g82
I2
ssg83
g4235
sg76
(lp4242
g69
(g78
g71
NtRp4243
(dp4244
g74
(dp4245
g82
I1
ssg83
Nsg76
(lp4246
g69
(g85
g71
NtRp4247
(dp4248
g74
(dp4249
sg83
g4243
sg76
(lp4250
g69
(g90
g71
NtRp4251
(dp4252
g74
(dp4253
sg83
g4247
sg76
(lp4254
g69
(g70
g71
NtRp4255
(dp4256
g74
(dp4257
g82
I1
ssg83
g4251
sg76
(lp4258
g3874
(S't\r\x00\x00\x00Documentation'
tRp4259
asbasbasbag69
(g85
g71
NtRp4260
(dp4261
g74
(dp4262
sg83
g4243
sg76
(lp4263
g69
(g90
g71
NtRp4264
(dp4265
g74
(dp4266
sg83
g4260
sg76
(lp4267
g69
(g70
g71
NtRp4268
(dp4269
g74
(dp4270
g82
I1
ssg83
g4264
sg76
(lp4271
I00
asbasbasbag69
(g85
g71
NtRp4272
(dp4273
g74
(dp4274
sg83
g4243
sg76
(lp4275
g69
(g90
g71
NtRp4276
(dp4277
g74
(dp4278
sg83
g4272
sg76
(lp4279
g69
(g70
g71
NtRp4280
(dp4281
g74
(dp4282
g82
I1
ssg83
g4276
sg76
(lp4283
S'http://www.web2py.com/book'
p4284
asbasbasbag69
(g85
g71
NtRp4285
(dp4286
g74
(dp4287
sg83
g4243
sg76
(lp4288
g69
(g90
g71
NtRp4289
(dp4290
g74
(dp4291
sg83
g4285
sg76
(lp4292
g69
(g70
g71
NtRp4293
(dp4294
g74
(dp4295
g82
I1
ssg83
g4289
sg76
(lp4296
(lp4297
(g3874
(S't\x07\x00\x00\x00Preface'
tRp4298
I00
S'http://www.web2py.com/book/default/chapter/00'
p4299
tp4300
a(g3874
(S't\x0c\x00\x00\x00Introduction'
tRp4301
I00
S'http://www.web2py.com/book/default/chapter/01'
p4302
tp4303
a(g3874
(S't\x06\x00\x00\x00Python'
tRp4304
I00
S'http://www.web2py.com/book/default/chapter/02'
p4305
tp4306
a(g3874
(S't\x08\x00\x00\x00Overview'
tRp4307
I00
S'http://www.web2py.com/book/default/chapter/03'
p4308
tp4309
a(g3874
(S's\x08\x00\x00\x00The Core'
tRp4310
I00
S'http://www.web2py.com/book/default/chapter/04'
p4311
tp4312
a(g3874
(S's\t\x00\x00\x00The Views'
tRp4313
I00
S'http://www.web2py.com/book/default/chapter/05'
p4314
tp4315
a(g3874
(S't\x08\x00\x00\x00Database'
tRp4316
I00
S'http://www.web2py.com/book/default/chapter/06'
p4317
tp4318
a(g3874
(S's\x14\x00\x00\x00Forms and Validators'
tRp4319
I00
S'http://www.web2py.com/book/default/chapter/07'
p4320
tp4321
a(g3874
(S's\r\x00\x00\x00Email and SMS'
tRp4322
I00
S'http://www.web2py.com/book/default/chapter/08'
p4323
tp4324
a(g3874
(S's\x0e\x00\x00\x00Access Control'
tRp4325
I00
S'http://www.web2py.com/book/default/chapter/09'
p4326
tp4327
a(g3874
(S't\x08\x00\x00\x00Services'
tRp4328
I00
S'http://www.web2py.com/book/default/chapter/10'
p4329
tp4330
a(g3874
(S's\x0c\x00\x00\x00Ajax Recipes'
tRp4331
I00
S'http://www.web2py.com/book/default/chapter/11'
p4332
tp4333
a(g3874
(S's\x16\x00\x00\x00Components and Plugins'
tRp4334
I00
S'http://www.web2py.com/book/default/chapter/12'
p4335
tp4336
a(g3874
(S's\x12\x00\x00\x00Deployment Recipes'
tRp4337
I00
S'http://www.web2py.com/book/default/chapter/13'
p4338
tp4339
a(g3874
(S's\r\x00\x00\x00Other Recipes'
tRp4340
I00
S'http://www.web2py.com/book/default/chapter/14'
p4341
tp4342
a(g3874
(S's\r\x00\x00\x00Buy this book'
tRp4343
I00
S'http://stores.lulu.com/web2py'
p4344
tp4345
aasbasbasbasbasbasbasbag69
(g85
g71
NtRp4346
(dp4347
g74
(dp4348
sg83
g3988
sg76
(lp4349
g69
(g90
g71
NtRp4350
(dp4351
g74
(dp4352
sg83
g4346
sg76
(lp4353
g69
(g70
g71
NtRp4354
(dp4355
g74
(dp4356
g82
I2
ssg83
g4350
sg76
(lp4357
g69
(g78
g71
NtRp4358
(dp4359
g74
(dp4360
g82
I1
ssg83
Nsg76
(lp4361
g69
(g85
g71
NtRp4362
(dp4363
g74
(dp4364
sg83
g4358
sg76
(lp4365
g69
(g90
g71
NtRp4366
(dp4367
g74
(dp4368
sg83
g4362
sg76
(lp4369
g69
(g70
g71
NtRp4370
(dp4371
g74
(dp4372
g82
I1
ssg83
g4366
sg76
(lp4373
g3874
(S't\t\x00\x00\x00Community'
tRp4374
asbasbasbag69
(g85
g71
NtRp4375
(dp4376
g74
(dp4377
sg83
g4358
sg76
(lp4378
g69
(g90
g71
NtRp4379
(dp4380
g74
(dp4381
sg83
g4375
sg76
(lp4382
g69
(g70
g71
NtRp4383
(dp4384
g74
(dp4385
g82
I1
ssg83
g4379
sg76
(lp4386
I00
asbasbasbag69
(g85
g71
NtRp4387
(dp4388
g74
(dp4389
sg83
g4358
sg76
(lp4390
g69
(g90
g71
NtRp4391
(dp4392
g74
(dp4393
sg83
g4387
sg76
(lp4394
g69
(g70
g71
NtRp4395
(dp4396
g74
(dp4397
g82
I1
ssg83
g4391
sg76
(lp4398
Nasbasbasbag69
(g85
g71
NtRp4399
(dp4400
g74
(dp4401
sg83
g4358
sg76
(lp4402
g69
(g90
g71
NtRp4403
(dp4404
g74
(dp4405
sg83
g4399
sg76
(lp4406
g69
(g70
g71
NtRp4407
(dp4408
g74
(dp4409
g82
I1
ssg83
g4403
sg76
(lp4410
(lp4411
(g3874
(S't\x06\x00\x00\x00Groups'
tRp4412
I00
S'http://www.web2py.com/examples/default/usergroups'
p4413
tp4414
a(g3874
(S't\x07\x00\x00\x00Twitter'
tRp4415
I00
S'http://twitter.com/web2py'
p4416
tp4417
a(g3874
(S's\t\x00\x00\x00Live Chat'
tRp4418
I00
S'http://webchat.freenode.net/?channels=web2py'
p4419
tp4420
aasbasbasbasbasbasbasbag69
(g85
g71
NtRp4421
(dp4422
g74
(dp4423
sg83
g3988
sg76
(lp4424
g69
(g90
g71
NtRp4425
(dp4426
g74
(dp4427
sg83
g4421
sg76
(lp4428
g69
(g70
g71
NtRp4429
(dp4430
g74
(dp4431
g82
I2
ssg83
g4425
sg76
(lp4432
g69
(g78
g71
NtRp4433
(dp4434
g74
(dp4435
g82
I1
ssg83
Nsg76
(lp4436
g69
(g85
g71
NtRp4437
(dp4438
g74
(dp4439
sg83
g4433
sg76
(lp4440
g69
(g90
g71
NtRp4441
(dp4442
g74
(dp4443
sg83
g4437
sg76
(lp4444
g69
(g70
g71
NtRp4445
(dp4446
g74
(dp4447
g82
I1
ssg83
g4441
sg76
(lp4448
g3874
(S't\x07\x00\x00\x00Plugins'
tRp4449
asbasbasbag69
(g85
g71
NtRp4450
(dp4451
g74
(dp4452
sg83
g4433
sg76
(lp4453
g69
(g90
g71
NtRp4454
(dp4455
g74
(dp4456
sg83
g4450
sg76
(lp4457
g69
(g70
g71
NtRp4458
(dp4459
g74
(dp4460
g82
I1
ssg83
g4454
sg76
(lp4461
I00
asbasbasbag69
(g85
g71
NtRp4462
(dp4463
g74
(dp4464
sg83
g4433
sg76
(lp4465
g69
(g90
g71
NtRp4466
(dp4467
g74
(dp4468
sg83
g4462
sg76
(lp4469
g69
(g70
g71
NtRp4470
(dp4471
g74
(dp4472
g82
I1
ssg83
g4466
sg76
(lp4473
Nasbasbasbag69
(g85
g71
NtRp4474
(dp4475
g74
(dp4476
sg83
g4433
sg76
(lp4477
g69
(g90
g71
NtRp4478
(dp4479
g74
(dp4480
sg83
g4474
sg76
(lp4481
g69
(g70
g71
NtRp4482
(dp4483
g74
(dp4484
g82
I1
ssg83
g4478
sg76
(lp4485
(lp4486
(S'plugin_wiki'
p4487
I00
S'http://web2py.com/examples/default/download'
p4488
tp4489
a(g3874
(S's\r\x00\x00\x00Other Plugins'
tRp4490
I00
g4220
tp4491
a(g3874
(S's\x0e\x00\x00\x00Layout Plugins'
tRp4492
I00
g4223
tp4493
aasbasbasbasbasbasbasbasbasbasbasbasbasbasbasbasbasbasbasbag69
(g85
g71
NtRp4494
(dp4495
g74
(dp4496
sg83
g3317
sg76
(lp4497
g69
(g90
g71
NtRp4498
(dp4499
g74
(dp4500
g94
g95
ssg83
g4494
sg76
(lp4501
S'meta'
p4502
asbag69
(g90
g71
NtRp4503
(dp4504
g74
(dp4505
g101
g102
ssg83
g4494
sg76
(lp4506
S':'
asbag69
(g90
g71
NtRp4507
(dp4508
g74
(dp4509
sg83
g4494
sg76
(lp4510
g69
(g70
g71
NtRp4511
(dp4512
g74
(dp4513
g82
I5
ssg83
g4507
sg76
(lp4514
g69
(g78
g71
NtRp4515
(dp4516
g74
(dp4517
g82
I4
ssg83
Nsg76
(lp4518
g69
(g85
g71
NtRp4519
(dp4520
g74
(dp4521
sg83
g4515
sg76
(lp4522
g69
(g90
g71
NtRp4523
(dp4524
g74
(dp4525
g94
g95
ssg83
g4519
sg76
(lp4526
S'author'
p4527
asbag69
(g90
g71
NtRp4528
(dp4529
g74
(dp4530
g101
g102
ssg83
g4519
sg76
(lp4531
S':'
asbag69
(g90
g71
NtRp4532
(dp4533
g74
(dp4534
sg83
g4519
sg76
(lp4535
g69
(g70
g71
NtRp4536
(dp4537
g74
(dp4538
g82
I4
ssg83
g4532
sg76
(lp4539
S'Your Name <you@example.com>'
p4540
asbasbasbag69
(g85
g71
NtRp4541
(dp4542
g74
(dp4543
sg83
g4515
sg76
(lp4544
g69
(g90
g71
NtRp4545
(dp4546
g74
(dp4547
g94
g95
ssg83
g4541
sg76
(lp4548
S'copyright'
p4549
asbag69
(g90
g71
NtRp4550
(dp4551
g74
(dp4552
g101
g102
ssg83
g4541
sg76
(lp4553
S':'
asbag69
(g90
g71
NtRp4554
(dp4555
g74
(dp4556
sg83
g4541
sg76
(lp4557
g69
(g70
g71
NtRp4558
(dp4559
g74
(dp4560
g82
I4
ssg83
g4554
sg76
(lp4561
S'Copyright 2011'
p4562
asbasbasbag69
(g85
g71
NtRp4563
(dp4564
g74
(dp4565
sg83
g4515
sg76
(lp4566
g69
(g90
g71
NtRp4567
(dp4568
g74
(dp4569
g94
g95
ssg83
g4563
sg76
(lp4570
S'description'
p4571
asbag69
(g90
g71
NtRp4572
(dp4573
g74
(dp4574
g101
g102
ssg83
g4563
sg76
(lp4575
S':'
asbag69
(g90
g71
NtRp4576
(dp4577
g74
(dp4578
sg83
g4563
sg76
(lp4579
g69
(g70
g71
NtRp4580
(dp4581
g74
(dp4582
g82
I4
ssg83
g4576
sg76
(lp4583
S'a cool new app'
p4584
asbasbasbag69
(g85
g71
NtRp4585
(dp4586
g74
(dp4587
sg83
g4515
sg76
(lp4588
g69
(g90
g71
NtRp4589
(dp4590
g74
(dp4591
g94
g95
ssg83
g4585
sg76
(lp4592
S'generator'
p4593
asbag69
(g90
g71
NtRp4594
(dp4595
g74
(dp4596
g101
g102
ssg83
g4585
sg76
(lp4597
S':'
asbag69
(g90
g71
NtRp4598
(dp4599
g74
(dp4600
sg83
g4585
sg76
(lp4601
g69
(g70
g71
NtRp4602
(dp4603
g74
(dp4604
g82
I4
ssg83
g4598
sg76
(lp4605
S'Web2py Web Framework'
p4606
asbasbasbag69
(g85
g71
NtRp4607
(dp4608
g74
(dp4609
sg83
g4515
sg76
(lp4610
g69
(g90
g71
NtRp4611
(dp4612
g74
(dp4613
g94
g95
ssg83
g4607
sg76
(lp4614
S'keywords'
p4615
asbag69
(g90
g71
NtRp4616
(dp4617
g74
(dp4618
g101
g102
ssg83
g4607
sg76
(lp4619
S':'
asbag69
(g90
g71
NtRp4620
(dp4621
g74
(dp4622
sg83
g4607
sg76
(lp4623
g69
(g70
g71
NtRp4624
(dp4625
g74
(dp4626
g82
I4
ssg83
g4620
sg76
(lp4627
S'web2py, python, framework'
p4628
asbasbasbasbasbasbasbag69
(g85
g71
NtRp4629
(dp4630
g74
(dp4631
sg83
g3317
sg76
(lp4632
g69
(g90
g71
NtRp4633
(dp4634
g74
(dp4635
g94
g95
ssg83
g4629
sg76
(lp4636
S'postprocessing'
p4637
asbag69
(g90
g71
NtRp4638
(dp4639
g74
(dp4640
g101
g102
ssg83
g4629
sg76
(lp4641
S':'
asbag69
(g90
g71
NtRp4642
(dp4643
g74
(dp4644
sg83
g4629
sg76
(lp4645
g69
(g70
g71
NtRp4646
(dp4647
g74
(dp4648
g82
I5
ssg83
g4642
sg76
(lp4649
g69
(g78
g71
NtRp4650
(dp4651
g74
(dp4652
g82
I4
ssg83
Nsg76
(lp4653
sbasbasbasbag69
(g85
g71
NtRp4654
(dp4655
g74
(dp4656
sg83
g3317
sg76
(lp4657
g69
(g90
g71
NtRp4658
(dp4659
g74
(dp4660
g94
g95
ssg83
g4654
sg76
(lp4661
S'session_file'
p4662
asbag69
(g90
g71
NtRp4663
(dp4664
g74
(dp4665
g101
g102
ssg83
g4654
sg76
(lp4666
S':'
asbag69
(g90
g71
NtRp4667
(dp4668
g74
(dp4669
sg83
g4654
sg76
(lp4670
g69
(g70
g71
NtRp4671
(dp4672
g74
(dp4673
g82
I5
ssg83
g4667
sg76
(lp4674
S"<open file '/home/enigma/web2py/applications/911_signin/sessions/127.0.0.1-2102934b-c5d9-414f-bba8-9d75c955d101', mode 'rb+' at 0xade130d0>"
p4675
asbasbasbag69
(g85
g71
NtRp4676
(dp4677
g74
(dp4678
sg83
g3317
sg76
(lp4679
g69
(g90
g71
NtRp4680
(dp4681
g74
(dp4682
g94
g95
ssg83
g4676
sg76
(lp4683
S'session_filename'
p4684
asbag69
(g90
g71
NtRp4685
(dp4686
g74
(dp4687
g101
g102
ssg83
g4676
sg76
(lp4688
S':'
asbag69
(g90
g71
NtRp4689
(dp4690
g74
(dp4691
sg83
g4676
sg76
(lp4692
g69
(g70
g71
NtRp4693
(dp4694
g74
(dp4695
g82
I5
ssg83
g4689
sg76
(lp4696
S'/home/enigma/web2py/applications/911_signin/sessions/127.0.0.1-2102934b-c5d9-414f-bba8-9d75c955d101'
p4697
asbasbasbag69
(g85
g71
NtRp4698
(dp4699
g74
(dp4700
sg83
g3317
sg76
(lp4701
g69
(g90
g71
NtRp4702
(dp4703
g74
(dp4704
g94
g95
ssg83
g4698
sg76
(lp4705
S'session_id'
p4706
asbag69
(g90
g71
NtRp4707
(dp4708
g74
(dp4709
g101
g102
ssg83
g4698
sg76
(lp4710
S':'
asbag69
(g90
g71
NtRp4711
(dp4712
g74
(dp4713
sg83
g4698
sg76
(lp4714
g69
(g70
g71
NtRp4715
(dp4716
g74
(dp4717
g82
I5
ssg83
g4711
sg76
(lp4718
S'127.0.0.1-2102934b-c5d9-414f-bba8-9d75c955d101'
p4719
asbasbasbag69
(g85
g71
NtRp4720
(dp4721
g74
(dp4722
sg83
g3317
sg76
(lp4723
g69
(g90
g71
NtRp4724
(dp4725
g74
(dp4726
g94
g95
ssg83
g4720
sg76
(lp4727
S'session_id_name'
p4728
asbag69
(g90
g71
NtRp4729
(dp4730
g74
(dp4731
g101
g102
ssg83
g4720
sg76
(lp4732
S':'
asbag69
(g90
g71
NtRp4733
(dp4734
g74
(dp4735
sg83
g4720
sg76
(lp4736
g69
(g70
g71
NtRp4737
(dp4738
g74
(dp4739
g82
I5
ssg83
g4733
sg76
(lp4740
g3374
asbasbasbag69
(g85
g71
NtRp4741
(dp4742
g74
(dp4743
sg83
g3317
sg76
(lp4744
g69
(g90
g71
NtRp4745
(dp4746
g74
(dp4747
g94
g95
ssg83
g4741
sg76
(lp4748
S'session_locked'
p4749
asbag69
(g90
g71
NtRp4750
(dp4751
g74
(dp4752
g101
g102
ssg83
g4741
sg76
(lp4753
S':'
asbag69
(g90
g71
NtRp4754
(dp4755
g74
(dp4756
sg83
g4741
sg76
(lp4757
g69
(g70
g71
NtRp4758
(dp4759
g74
(dp4760
g82
I5
ssg83
g4754
sg76
(lp4761
g1518
asbasbasbag69
(g85
g71
NtRp4762
(dp4763
g74
(dp4764
sg83
g3317
sg76
(lp4765
g69
(g90
g71
NtRp4766
(dp4767
g74
(dp4768
g94
g95
ssg83
g4762
sg76
(lp4769
S'session_new'
p4770
asbag69
(g90
g71
NtRp4771
(dp4772
g74
(dp4773
g101
g102
ssg83
g4762
sg76
(lp4774
S':'
asbag69
(g90
g71
NtRp4775
(dp4776
g74
(dp4777
sg83
g4762
sg76
(lp4778
g69
(g70
g71
NtRp4779
(dp4780
g74
(dp4781
g82
I5
ssg83
g4775
sg76
(lp4782
g112
asbasbasbag69
(g85
g71
NtRp4783
(dp4784
g74
(dp4785
sg83
g3317
sg76
(lp4786
g69
(g90
g71
NtRp4787
(dp4788
g74
(dp4789
g94
g95
ssg83
g4783
sg76
(lp4790
S'status'
p4791
asbag69
(g90
g71
NtRp4792
(dp4793
g74
(dp4794
g101
g102
ssg83
g4783
sg76
(lp4795
S':'
asbag69
(g90
g71
NtRp4796
(dp4797
g74
(dp4798
sg83
g4783
sg76
(lp4799
g69
(g70
g71
NtRp4800
(dp4801
g74
(dp4802
g82
I5
ssg83
g4796
sg76
(lp4803
S'200'
p4804
asbasbasbag69
(g85
g71
NtRp4805
(dp4806
g74
(dp4807
sg83
g3317
sg76
(lp4808
g69
(g90
g71
NtRp4809
(dp4810
g74
(dp4811
g94
g95
ssg83
g4805
sg76
(lp4812
S'subtitle'
p4813
asbag69
(g90
g71
NtRp4814
(dp4815
g74
(dp4816
g101
g102
ssg83
g4805
sg76
(lp4817
S':'
asbag69
(g90
g71
NtRp4818
(dp4819
g74
(dp4820
sg83
g4805
sg76
(lp4821
g69
(g70
g71
NtRp4822
(dp4823
g74
(dp4824
g82
I5
ssg83
g4818
sg76
(lp4825
g3874
(S's\r\x00\x00\x00customize me!'
tRp4826
asbasbasbag69
(g85
g71
NtRp4827
(dp4828
g74
(dp4829
sg83
g3317
sg76
(lp4830
g69
(g90
g71
NtRp4831
(dp4832
g74
(dp4833
g94
g95
ssg83
g4827
sg76
(lp4834
S'title'
p4835
asbag69
(g90
g71
NtRp4836
(dp4837
g74
(dp4838
g101
g102
ssg83
g4827
sg76
(lp4839
S':'
asbag69
(g90
g71
NtRp4840
(dp4841
g74
(dp4842
sg83
g4827
sg76
(lp4843
g69
(g70
g71
NtRp4844
(dp4845
g74
(dp4846
g82
I5
ssg83
g4840
sg76
(lp4847
S'911 Signin'
p4848
asbasbasbag69
(g85
g71
NtRp4849
(dp4850
g74
(dp4851
sg83
g3317
sg76
(lp4852
g69
(g90
g71
NtRp4853
(dp4854
g74
(dp4855
g94
g95
ssg83
g4849
sg76
(lp4856
g2203
asbag69
(g90
g71
NtRp4857
(dp4858
g74
(dp4859
g101
g102
ssg83
g4849
sg76
(lp4860
S':'
asbag69
(g90
g71
NtRp4861
(dp4862
g74
(dp4863
sg83
g4849
sg76
(lp4864
g69
(g70
g71
NtRp4865
(dp4866
g74
(dp4867
g82
I5
ssg83
g4861
sg76
(lp4868
g2216
asbasbasbag69
(g85
g71
NtRp4869
(dp4870
g74
(dp4871
sg83
g3317
sg76
(lp4872
g69
(g90
g71
NtRp4873
(dp4874
g74
(dp4875
g94
g95
ssg83
g4869
sg76
(lp4876
S'view'
p4877
asbag69
(g90
g71
NtRp4878
(dp4879
g74
(dp4880
g101
g102
ssg83
g4869
sg76
(lp4881
S':'
asbag69
(g90
g71
NtRp4882
(dp4883
g74
(dp4884
sg83
g4869
sg76
(lp4885
g69
(g70
g71
NtRp4886
(dp4887
g74
(dp4888
g82
I5
ssg83
g4882
sg76
(lp4889
S'default/profile.html'
p4890
asbasbasbasbasbsS'locals'
p4891
(dp4892
g4
S"'/home/enigma/web2py/applications/911_signin/views/default/profile.html'"
p4893
sg6
S'r"response.write(\'<!DOCTYPE html>\\n<!-- paulirish....ponse.write(\'\\n</body>\\n</html>\\n\', escape=False)"'
p4894
sssS'traceback'
p4895
S'Traceback (most recent call last):\n  File "/home/enigma/web2py/gluon/restricted.py", line 204, in restricted\n    ccode = compile2(code,layer)\n  File "/home/enigma/web2py/gluon/restricted.py", line 189, in compile2\n    return compile(code.rstrip().replace(\'\\r\\n\',\'\\n\')+\'\\n\', layer, \'exec\')\n  File "/home/enigma/web2py/applications/911_signin/views/default/profile.html", line 74\n    response.write(\'\\n\\t\\t\\t\\t\\t\\t\', escape=False)\n           ^\nSyntaxError: invalid syntax\n'
p4896
s.