(dp1
S'output'
p2
S"<type 'exceptions.IndentationError'> expected an indented block (default.py, line 204)"
p3
sS'layer'
p4
S'/home/krutarth/Downloads/911india/applications/911_signin/controllers/default.py'
p5
sS'code'
p6
S'import datetime\n# -*- coding: utf-8 -*-\n# this file is released under public domain and you can use without limitations\n\n#########################################################################\n## This is a samples controller\n## - index is the default action of any application\n## - user is required for authentication and authorization\n## - download is for downloading files uploaded in the db (does streaming)\n## - call exposes all registered services (none by default)\n#########################################################################\n\nfrom gluon.contrib.login_methods.rpx_account import use_janrain\nfrom gluon.contrib.login_methods.extended_login_form import ExtendedLoginForm\n\n@auth.requires_login()\ndef index():\n    """\n    example action using the internationalization operator T and flash\n    rendered by views/default/index.html or views/generic.html\n    """\n    response.flash = "Welcome to web2py!"\n    return dict(message=T(\'Hello World\'))\n\n\ndef user():\n    """\n    exposes:\n    http://..../[app]/default/user/login\n    http://..../[app]/default/user/logout\n    http://..../[app]/default/user/register\n    http://..../[app]/default/user/profile\n    http://..../[app]/default/user/retrieve_password\n    http://..../[app]/default/user/change_password\n    use @auth.requires_login()\n        @auth.requires_membership(\'group name\')\n        @auth.requires_permission(\'read\',\'table name\',record_id)\n    to decorate functions that need access control\n    """\n    \n    form_janrain = use_janrain(auth,filename=\'private/janrain.key\')\n    auth.settings.login_form = ExtendedLoginForm(auth, form_janrain, signals=[\'token\'])\n    return dict(form=auth())\n\n\ndef home():\n    return dict(uid=auth.user_id)\n\n\ndef download():\n    """\n    allows downloading of uploaded files\n    http://..../[app]/default/download/[filename]\n    """\n    return response.download(request,db)\n\n\ndef call():\n    """\n    exposes services. for example:\n    http://..../[app]/default/call/jsonrpc\n    decorate with @services.jsonrpc the functions to expose\n    supports xml, json, xmlrpc, jsonrpc, amfrpc, rss, csv\n    """\n    return service()\n\n\n@auth.requires_signature()\ndef data():\n    """\n    http://..../[app]/default/data/tables\n    http://..../[app]/default/data/create/[table]\n    http://..../[app]/default/data/read/[table]/[id]\n    http://..../[app]/default/data/update/[table]/[id]\n    http://..../[app]/default/data/delete/[table]/[id]\n    http://..../[app]/default/data/select/[table]\n    http://..../[app]/default/data/search/[table]\n    but URLs must be signed, i.e. linked with\n      A(\'table\',_href=URL(\'data/tables\',user_signature=True))\n    or with the signed load operator\n      LOAD(\'default\',\'data.load\',args=\'tables\',ajax=True,user_signature=True)\n    """\n    return dict(form=crud())\n\n@auth.requires_login()\ndef myprofile():\n\ttmp_usr=db(db.basic_info.username == auth.user.username)(db.basic_info.email == auth.user.email).select().first()\n\tif tmp_usr==None:\n\t\tdb.basic_info.email.default=auth.user.email\n\t\tform=SQLFORM(db.basic_info, submit_button=\'Create Profile\')\n\t\tform.vars.first_name=auth.user.first_name\n\t\tform.vars.last_name=auth.user.last_name\n\t\tform.vars.username=auth.user.username\n\n\telse:\n\t\tform=SQLFORM(db.basic_info,tmp_usr.id,showid=False, submit_button=\'Update Profile\')\n\n\tform.vars.prefix = \'Mr.\'\n\tform.vars.email_share_with = \'Only my network\'\n\tform.vars.phone_share_with = \'Only my network\'\n\n\tdb.experience.username.default=auth.user.username\n\tdb.education.username.default=auth.user.username\n\tform2=SQLFORM(db.experience, submit_button=\'Add experience\')\n\tform3=SQLFORM(db.education, submit_button=\'Add education\')\n\n\tif form.process().accepted:\n\t\tresponse.flash=\'Profile updated\'\n\n\tif form2.process().accepted:\n\t\tresponse.flash=\'Experience added\'\n\n\tif form3.process().accepted:\n\t\tresponse.flash=\'Education added\'\n\n\texperience=db(db.experience.username == auth.user.username).select()\n\teducation=db(db.education.username == auth.user.username).select()\n\n\treturn dict(form=form, form2=form2, form3=form3, experience=experience, education=education)\n\n\n\ndef profile():\n\tuname = request.args(0)\n\tuser_obj = db(db.auth_users.username == uname).select()\n\tprofile_obj = db(db.basic_info.username == uname).select()\n\texp_obj = db(db.experience.username == uname).select()\n\tedu_obj = db(db.education.username == uname).select()\n\treturn dict(user=user_obj, profile=profile_obj, experience=exp_obj, education=edu_obj)\n\n\n@auth.requires_login()\ndef changepicture():\n\ttmp_pic=db(db.profile_pic.uname == auth.user.username).select()\n\tif tmp_pic:\n\t\tform=SQLFORM(db.profile_pic,tmp_pic.first().id,showid=False, submit_button=\'Upload Picture\')\n\telse:\n\t\tdb.profile_pic.uname.default=auth.user.username\n\t\tform=SQLFORM(db.profile_pic, submit_button=\'Upload Picture\')\n\n\tif form.process().accepted:\n\t\tresponse.flash=\'Image uploaded\'\n\t\tredirect(URL(\'myprofile\'))\n\n\treturn dict(form=form)\n\n\n@auth.requires_login()\ndef compose():\n\tform=SQLFORM(db.message)\n\tform.vars.sender=auth.user.username\n\tform.vars.read=False\n\n\tif form.process().accepted:\n\t\tresponse.flash=\'Message Sent\'\n\t\trow = db(db.auth_users.username == form.vars.reciever).select().first()\n\t\tif row:\n\t\t\tctr=row.unread_ctr+1\n\t\t\tdb.auth_users[row.id] = dict(unread_ctr=ctr)\n\treturn dict(form=form)\n\n@auth.requires_login()\ndef inbox():\n\tinbox=db(db.message.reciever == auth.user.username).select(db.message.id, db.message.sender,db.message.subject,db.message.read, orderby=~db.message.id )\n\treturn dict(inbox=inbox)\n\n@auth.requires_login()\ndef message():\n\tmail = db.message(request.args(0))\n\tif mail.read == False:\n\t\tdb.message[mail.id] = dict(read=True)\n\t\tctr = db.auth_users(auth.user.id).unread_ctr-1\n\t\tdb.auth_users[auth.user.id]\t= dict(unread_ctr=ctr)\n\treturn dict(mail=mail)\n\n@auth.requires_login()\ndef outbox():\n\toutbox=db(db.message.sender == auth.user.username).select(db.message.id, db.message.reciever,db.message.subject, db.message.read, orderby=~db.message.id )\n\treturn dict(outbox=outbox)\n\n@auth.requires_login()\ndef sent_message():\n\tmail = db.message(request.args(0))\n\treturn dict(mail=mail)\n\n@auth.requires_login()\ndef events():\n    form = SQLFORM(db.events)\n    if form.accepts(request.vars, session):\n\tresponse.flash = "Event created on " + request.now \n\trow = db(db.auth_users.username == form.vars.reciever).select().first()\n    return dict(form=form)\n\ndef invitations():\n\trow = db(db.auth_users.username == form.vars.reciever).select().first()\n\tif row:\n\t\tctr=row.unread_ctr+1\n\t\tdb.auth_users[row.id] = dict(unread_ctr=ctr)\n\treturn db(db.events.id > 0).select()\n\ndef case_studies():\n\tform=SQLFORM(db.case_studies)\n\tif form.accepts(request.vars, session):\n\treturn dict(form=form)\ndef case_studies_result():\n\treturn db(db.case_studies.id > 0).select()\n\n\nresponse._vars=response._caller(events)\n'
p7
sS'snapshot'
p8
(dp9
S'exception'
p10
(dp11
S'__getslice__'
p12
S"<method-wrapper '__getslice__' of exceptions.IndentationError object>"
p13
sS'text'
p14
S"'\\treturn dict(form=form)\\n'"
p15
sS'__str__'
p16
S"<method-wrapper '__str__' of exceptions.IndentationError object>"
p17
sS'__reduce__'
p18
S'<built-in method __reduce__ of exceptions.IndentationError object>'
p19
sS'__dict__'
p20
S'{}'
p21
sS'__sizeof__'
p22
S'<built-in method __sizeof__ of exceptions.IndentationError object>'
p23
sS'__init__'
p24
S"<method-wrapper '__init__' of exceptions.IndentationError object>"
p25
sS'__setattr__'
p26
S"<method-wrapper '__setattr__' of exceptions.IndentationError object>"
p27
sS'__reduce_ex__'
p28
S'<built-in method __reduce_ex__ of exceptions.IndentationError object>'
p29
sS'__new__'
p30
S'<built-in method __new__ of type object>'
p31
sS'__format__'
p32
S'<built-in method __format__ of exceptions.IndentationError object>'
p33
sS'__class__'
p34
S"<type 'exceptions.IndentationError'>"
p35
sS'filename'
p36
S"'/home/krutarth/Downloads/911india/applications/911_signin/controllers/default.py'"
p37
sS'lineno'
p38
S'204'
p39
sS'msg'
p40
S"'expected an indented block'"
p41
sS'__doc__'
p42
S"'Improper indentation.'"
p43
sS'__getitem__'
p44
S"<method-wrapper '__getitem__' of exceptions.IndentationError object>"
p45
sS'__setstate__'
p46
S'<built-in method __setstate__ of exceptions.IndentationError object>'
p47
sS'__getattribute__'
p48
S"<method-wrapper '__getattribute__' of exceptions.IndentationError object>"
p49
sS'print_file_and_line'
p50
S'None'
p51
sS'args'
p52
S"('expected an indented block', ('/home/krutarth/Downloads/911india/applications/911_signin/controllers/default.py', 204, 7, '\\treturn dict(form=form)\\n'))"
p53
sS'__subclasshook__'
p54
S'<built-in method __subclasshook__ of type object>'
p55
sS'offset'
p56
S'7'
sS'__unicode__'
p57
S'<built-in method __unicode__ of exceptions.IndentationError object>'
p58
sS'__delattr__'
p59
S"<method-wrapper '__delattr__' of exceptions.IndentationError object>"
p60
sS'__repr__'
p61
S"<method-wrapper '__repr__' of exceptions.IndentationError object>"
p62
sS'__hash__'
p63
S"<method-wrapper '__hash__' of exceptions.IndentationError object>"
p64
ssS'evalue'
p65
S'expected an indented block (default.py, line 204)'
p66
sS'request'
p67
ccopy_reg
_reconstructor
p68
(cgluon.html
BEAUTIFY
p69
c__builtin__
object
p70
NtRp71
(dp72
S'attributes'
p73
(dp74
sS'components'
p75
(lp76
g68
(cgluon.html
TABLE
p77
g70
NtRp78
(dp79
g73
(dp80
S'level'
p81
I5
ssS'parent'
p82
Nsg75
(lp83
g68
(cgluon.html
TR
p84
g70
NtRp85
(dp86
g73
(dp87
sg82
g78
sg75
(lp88
g68
(cgluon.html
TD
p89
g70
NtRp90
(dp91
g73
(dp92
S'_style'
p93
S'font-weight:bold;vertical-align:top'
p94
ssg82
g85
sg75
(lp95
S'ajax'
p96
asbag68
(g89
g70
NtRp97
(dp98
g73
(dp99
S'_valign'
p100
S'top'
p101
ssg82
g85
sg75
(lp102
S':'
asbag68
(g89
g70
NtRp103
(dp104
g73
(dp105
sg82
g85
sg75
(lp106
g68
(g69
g70
NtRp107
(dp108
g73
(dp109
g81
I5
ssg82
g103
sg75
(lp110
S'False'
p111
asbasbasbag68
(g84
g70
NtRp112
(dp113
g73
(dp114
sg82
g78
sg75
(lp115
g68
(g89
g70
NtRp116
(dp117
g73
(dp118
g93
g94
ssg82
g112
sg75
(lp119
S'application'
p120
asbag68
(g89
g70
NtRp121
(dp122
g73
(dp123
g100
g101
ssg82
g112
sg75
(lp124
S':'
asbag68
(g89
g70
NtRp125
(dp126
g73
(dp127
sg82
g112
sg75
(lp128
g68
(g69
g70
NtRp129
(dp130
g73
(dp131
g81
I5
ssg82
g125
sg75
(lp132
S'911_signin'
p133
asbasbasbag68
(g84
g70
NtRp134
(dp135
g73
(dp136
sg82
g78
sg75
(lp137
g68
(g89
g70
NtRp138
(dp139
g73
(dp140
g93
g94
ssg82
g134
sg75
(lp141
g52
asbag68
(g89
g70
NtRp142
(dp143
g73
(dp144
g100
g101
ssg82
g134
sg75
(lp145
S':'
asbag68
(g89
g70
NtRp146
(dp147
g73
(dp148
sg82
g134
sg75
(lp149
g68
(g69
g70
NtRp150
(dp151
g73
(dp152
g81
I5
ssg82
g146
sg75
(lp153
g68
(g77
g70
NtRp154
(dp155
g73
(dp156
g81
I4
ssg82
Nsg75
(lp157
sbasbasbasbag68
(g84
g70
NtRp158
(dp159
g73
(dp160
sg82
g78
sg75
(lp161
g68
(g89
g70
NtRp162
(dp163
g73
(dp164
g93
g94
ssg82
g158
sg75
(lp165
S'body'
p166
asbag68
(g89
g70
NtRp167
(dp168
g73
(dp169
g100
g101
ssg82
g158
sg75
(lp170
S':'
asbag68
(g89
g70
NtRp171
(dp172
g73
(dp173
sg82
g158
sg75
(lp174
g68
(g69
g70
NtRp175
(dp176
g73
(dp177
g81
I5
ssg82
g171
sg75
(lp178
S'<cStringIO.StringO object at 0xad461320>'
p179
asbasbasbag68
(g84
g70
NtRp180
(dp181
g73
(dp182
sg82
g78
sg75
(lp183
g68
(g89
g70
NtRp184
(dp185
g73
(dp186
g93
g94
ssg82
g180
sg75
(lp187
S'client'
p188
asbag68
(g89
g70
NtRp189
(dp190
g73
(dp191
g100
g101
ssg82
g180
sg75
(lp192
S':'
asbag68
(g89
g70
NtRp193
(dp194
g73
(dp195
sg82
g180
sg75
(lp196
g68
(g69
g70
NtRp197
(dp198
g73
(dp199
g81
I5
ssg82
g193
sg75
(lp200
S'127.0.0.1'
p201
asbasbasbag68
(g84
g70
NtRp202
(dp203
g73
(dp204
sg82
g78
sg75
(lp205
g68
(g89
g70
NtRp206
(dp207
g73
(dp208
g93
g94
ssg82
g202
sg75
(lp209
S'controller'
p210
asbag68
(g89
g70
NtRp211
(dp212
g73
(dp213
g100
g101
ssg82
g202
sg75
(lp214
S':'
asbag68
(g89
g70
NtRp215
(dp216
g73
(dp217
sg82
g202
sg75
(lp218
g68
(g69
g70
NtRp219
(dp220
g73
(dp221
g81
I5
ssg82
g215
sg75
(lp222
S'default'
p223
asbasbasbag68
(g84
g70
NtRp224
(dp225
g73
(dp226
sg82
g78
sg75
(lp227
g68
(g89
g70
NtRp228
(dp229
g73
(dp230
g93
g94
ssg82
g224
sg75
(lp231
S'cookies'
p232
asbag68
(g89
g70
NtRp233
(dp234
g73
(dp235
g100
g101
ssg82
g224
sg75
(lp236
S':'
asbag68
(g89
g70
NtRp237
(dp238
g73
(dp239
sg82
g224
sg75
(lp240
g68
(g69
g70
NtRp241
(dp242
g73
(dp243
g81
I5
ssg82
g237
sg75
(lp244
g68
(g77
g70
NtRp245
(dp246
g73
(dp247
g81
I4
ssg82
Nsg75
(lp248
g68
(g84
g70
NtRp249
(dp250
g73
(dp251
sg82
g245
sg75
(lp252
g68
(g89
g70
NtRp253
(dp254
g73
(dp255
g93
g94
ssg82
g249
sg75
(lp256
S'session_id_911_signin'
p257
asbag68
(g89
g70
NtRp258
(dp259
g73
(dp260
g100
g101
ssg82
g249
sg75
(lp261
S':'
asbag68
(g89
g70
NtRp262
(dp263
g73
(dp264
sg82
g249
sg75
(lp265
g68
(g69
g70
NtRp266
(dp267
g73
(dp268
g81
I4
ssg82
g262
sg75
(lp269
g68
(g77
g70
NtRp270
(dp271
g73
(dp272
g81
I3
ssg82
Nsg75
(lp273
g68
(g84
g70
NtRp274
(dp275
g73
(dp276
sg82
g270
sg75
(lp277
g68
(g89
g70
NtRp278
(dp279
g73
(dp280
g93
g94
ssg82
g274
sg75
(lp281
S'comment'
p282
asbag68
(g89
g70
NtRp283
(dp284
g73
(dp285
g100
g101
ssg82
g274
sg75
(lp286
S':'
asbag68
(g89
g70
NtRp287
(dp288
g73
(dp289
sg82
g274
sg75
(lp290
g68
(g69
g70
NtRp291
(dp292
g73
(dp293
g81
I3
ssg82
g287
sg75
(lp294
S''
asbasbasbag68
(g84
g70
NtRp295
(dp296
g73
(dp297
sg82
g270
sg75
(lp298
g68
(g89
g70
NtRp299
(dp300
g73
(dp301
g93
g94
ssg82
g295
sg75
(lp302
S'domain'
p303
asbag68
(g89
g70
NtRp304
(dp305
g73
(dp306
g100
g101
ssg82
g295
sg75
(lp307
S':'
asbag68
(g89
g70
NtRp308
(dp309
g73
(dp310
sg82
g295
sg75
(lp311
g68
(g69
g70
NtRp312
(dp313
g73
(dp314
g81
I3
ssg82
g308
sg75
(lp315
S''
asbasbasbag68
(g84
g70
NtRp316
(dp317
g73
(dp318
sg82
g270
sg75
(lp319
g68
(g89
g70
NtRp320
(dp321
g73
(dp322
g93
g94
ssg82
g316
sg75
(lp323
S'expires'
p324
asbag68
(g89
g70
NtRp325
(dp326
g73
(dp327
g100
g101
ssg82
g316
sg75
(lp328
S':'
asbag68
(g89
g70
NtRp329
(dp330
g73
(dp331
sg82
g316
sg75
(lp332
g68
(g69
g70
NtRp333
(dp334
g73
(dp335
g81
I3
ssg82
g329
sg75
(lp336
S''
asbasbasbag68
(g84
g70
NtRp337
(dp338
g73
(dp339
sg82
g270
sg75
(lp340
g68
(g89
g70
NtRp341
(dp342
g73
(dp343
g93
g94
ssg82
g337
sg75
(lp344
S'httponly'
p345
asbag68
(g89
g70
NtRp346
(dp347
g73
(dp348
g100
g101
ssg82
g337
sg75
(lp349
S':'
asbag68
(g89
g70
NtRp350
(dp351
g73
(dp352
sg82
g337
sg75
(lp353
g68
(g69
g70
NtRp354
(dp355
g73
(dp356
g81
I3
ssg82
g350
sg75
(lp357
S''
asbasbasbag68
(g84
g70
NtRp358
(dp359
g73
(dp360
sg82
g270
sg75
(lp361
g68
(g89
g70
NtRp362
(dp363
g73
(dp364
g93
g94
ssg82
g358
sg75
(lp365
S'max-age'
p366
asbag68
(g89
g70
NtRp367
(dp368
g73
(dp369
g100
g101
ssg82
g358
sg75
(lp370
S':'
asbag68
(g89
g70
NtRp371
(dp372
g73
(dp373
sg82
g358
sg75
(lp374
g68
(g69
g70
NtRp375
(dp376
g73
(dp377
g81
I3
ssg82
g371
sg75
(lp378
S''
asbasbasbag68
(g84
g70
NtRp379
(dp380
g73
(dp381
sg82
g270
sg75
(lp382
g68
(g89
g70
NtRp383
(dp384
g73
(dp385
g93
g94
ssg82
g379
sg75
(lp386
S'path'
p387
asbag68
(g89
g70
NtRp388
(dp389
g73
(dp390
g100
g101
ssg82
g379
sg75
(lp391
S':'
asbag68
(g89
g70
NtRp392
(dp393
g73
(dp394
sg82
g379
sg75
(lp395
g68
(g69
g70
NtRp396
(dp397
g73
(dp398
g81
I3
ssg82
g392
sg75
(lp399
S''
asbasbasbag68
(g84
g70
NtRp400
(dp401
g73
(dp402
sg82
g270
sg75
(lp403
g68
(g89
g70
NtRp404
(dp405
g73
(dp406
g93
g94
ssg82
g400
sg75
(lp407
S'secure'
p408
asbag68
(g89
g70
NtRp409
(dp410
g73
(dp411
g100
g101
ssg82
g400
sg75
(lp412
S':'
asbag68
(g89
g70
NtRp413
(dp414
g73
(dp415
sg82
g400
sg75
(lp416
g68
(g69
g70
NtRp417
(dp418
g73
(dp419
g81
I3
ssg82
g413
sg75
(lp420
S''
asbasbasbag68
(g84
g70
NtRp421
(dp422
g73
(dp423
sg82
g270
sg75
(lp424
g68
(g89
g70
NtRp425
(dp426
g73
(dp427
g93
g94
ssg82
g421
sg75
(lp428
S'version'
p429
asbag68
(g89
g70
NtRp430
(dp431
g73
(dp432
g100
g101
ssg82
g421
sg75
(lp433
S':'
asbag68
(g89
g70
NtRp434
(dp435
g73
(dp436
sg82
g421
sg75
(lp437
g68
(g69
g70
NtRp438
(dp439
g73
(dp440
g81
I3
ssg82
g434
sg75
(lp441
S''
asbasbasbasbasbasbasbag68
(g84
g70
NtRp442
(dp443
g73
(dp444
sg82
g245
sg75
(lp445
g68
(g89
g70
NtRp446
(dp447
g73
(dp448
g93
g94
ssg82
g442
sg75
(lp449
S'session_id_admin'
p450
asbag68
(g89
g70
NtRp451
(dp452
g73
(dp453
g100
g101
ssg82
g442
sg75
(lp454
S':'
asbag68
(g89
g70
NtRp455
(dp456
g73
(dp457
sg82
g442
sg75
(lp458
g68
(g69
g70
NtRp459
(dp460
g73
(dp461
g81
I4
ssg82
g455
sg75
(lp462
g68
(g77
g70
NtRp463
(dp464
g73
(dp465
g81
I3
ssg82
Nsg75
(lp466
g68
(g84
g70
NtRp467
(dp468
g73
(dp469
sg82
g463
sg75
(lp470
g68
(g89
g70
NtRp471
(dp472
g73
(dp473
g93
g94
ssg82
g467
sg75
(lp474
g282
asbag68
(g89
g70
NtRp475
(dp476
g73
(dp477
g100
g101
ssg82
g467
sg75
(lp478
S':'
asbag68
(g89
g70
NtRp479
(dp480
g73
(dp481
sg82
g467
sg75
(lp482
g68
(g69
g70
NtRp483
(dp484
g73
(dp485
g81
I3
ssg82
g479
sg75
(lp486
S''
asbasbasbag68
(g84
g70
NtRp487
(dp488
g73
(dp489
sg82
g463
sg75
(lp490
g68
(g89
g70
NtRp491
(dp492
g73
(dp493
g93
g94
ssg82
g487
sg75
(lp494
g303
asbag68
(g89
g70
NtRp495
(dp496
g73
(dp497
g100
g101
ssg82
g487
sg75
(lp498
S':'
asbag68
(g89
g70
NtRp499
(dp500
g73
(dp501
sg82
g487
sg75
(lp502
g68
(g69
g70
NtRp503
(dp504
g73
(dp505
g81
I3
ssg82
g499
sg75
(lp506
S''
asbasbasbag68
(g84
g70
NtRp507
(dp508
g73
(dp509
sg82
g463
sg75
(lp510
g68
(g89
g70
NtRp511
(dp512
g73
(dp513
g93
g94
ssg82
g507
sg75
(lp514
g324
asbag68
(g89
g70
NtRp515
(dp516
g73
(dp517
g100
g101
ssg82
g507
sg75
(lp518
S':'
asbag68
(g89
g70
NtRp519
(dp520
g73
(dp521
sg82
g507
sg75
(lp522
g68
(g69
g70
NtRp523
(dp524
g73
(dp525
g81
I3
ssg82
g519
sg75
(lp526
S''
asbasbasbag68
(g84
g70
NtRp527
(dp528
g73
(dp529
sg82
g463
sg75
(lp530
g68
(g89
g70
NtRp531
(dp532
g73
(dp533
g93
g94
ssg82
g527
sg75
(lp534
g345
asbag68
(g89
g70
NtRp535
(dp536
g73
(dp537
g100
g101
ssg82
g527
sg75
(lp538
S':'
asbag68
(g89
g70
NtRp539
(dp540
g73
(dp541
sg82
g527
sg75
(lp542
g68
(g69
g70
NtRp543
(dp544
g73
(dp545
g81
I3
ssg82
g539
sg75
(lp546
S''
asbasbasbag68
(g84
g70
NtRp547
(dp548
g73
(dp549
sg82
g463
sg75
(lp550
g68
(g89
g70
NtRp551
(dp552
g73
(dp553
g93
g94
ssg82
g547
sg75
(lp554
g366
asbag68
(g89
g70
NtRp555
(dp556
g73
(dp557
g100
g101
ssg82
g547
sg75
(lp558
S':'
asbag68
(g89
g70
NtRp559
(dp560
g73
(dp561
sg82
g547
sg75
(lp562
g68
(g69
g70
NtRp563
(dp564
g73
(dp565
g81
I3
ssg82
g559
sg75
(lp566
S''
asbasbasbag68
(g84
g70
NtRp567
(dp568
g73
(dp569
sg82
g463
sg75
(lp570
g68
(g89
g70
NtRp571
(dp572
g73
(dp573
g93
g94
ssg82
g567
sg75
(lp574
g387
asbag68
(g89
g70
NtRp575
(dp576
g73
(dp577
g100
g101
ssg82
g567
sg75
(lp578
S':'
asbag68
(g89
g70
NtRp579
(dp580
g73
(dp581
sg82
g567
sg75
(lp582
g68
(g69
g70
NtRp583
(dp584
g73
(dp585
g81
I3
ssg82
g579
sg75
(lp586
S''
asbasbasbag68
(g84
g70
NtRp587
(dp588
g73
(dp589
sg82
g463
sg75
(lp590
g68
(g89
g70
NtRp591
(dp592
g73
(dp593
g93
g94
ssg82
g587
sg75
(lp594
g408
asbag68
(g89
g70
NtRp595
(dp596
g73
(dp597
g100
g101
ssg82
g587
sg75
(lp598
S':'
asbag68
(g89
g70
NtRp599
(dp600
g73
(dp601
sg82
g587
sg75
(lp602
g68
(g69
g70
NtRp603
(dp604
g73
(dp605
g81
I3
ssg82
g599
sg75
(lp606
S''
asbasbasbag68
(g84
g70
NtRp607
(dp608
g73
(dp609
sg82
g463
sg75
(lp610
g68
(g89
g70
NtRp611
(dp612
g73
(dp613
g93
g94
ssg82
g607
sg75
(lp614
g429
asbag68
(g89
g70
NtRp615
(dp616
g73
(dp617
g100
g101
ssg82
g607
sg75
(lp618
S':'
asbag68
(g89
g70
NtRp619
(dp620
g73
(dp621
sg82
g607
sg75
(lp622
g68
(g69
g70
NtRp623
(dp624
g73
(dp625
g81
I3
ssg82
g619
sg75
(lp626
S''
asbasbasbasbasbasbasbag68
(g84
g70
NtRp627
(dp628
g73
(dp629
sg82
g245
sg75
(lp630
g68
(g89
g70
NtRp631
(dp632
g73
(dp633
g93
g94
ssg82
g627
sg75
(lp634
S'session_id_welcome'
p635
asbag68
(g89
g70
NtRp636
(dp637
g73
(dp638
g100
g101
ssg82
g627
sg75
(lp639
S':'
asbag68
(g89
g70
NtRp640
(dp641
g73
(dp642
sg82
g627
sg75
(lp643
g68
(g69
g70
NtRp644
(dp645
g73
(dp646
g81
I4
ssg82
g640
sg75
(lp647
g68
(g77
g70
NtRp648
(dp649
g73
(dp650
g81
I3
ssg82
Nsg75
(lp651
g68
(g84
g70
NtRp652
(dp653
g73
(dp654
sg82
g648
sg75
(lp655
g68
(g89
g70
NtRp656
(dp657
g73
(dp658
g93
g94
ssg82
g652
sg75
(lp659
g282
asbag68
(g89
g70
NtRp660
(dp661
g73
(dp662
g100
g101
ssg82
g652
sg75
(lp663
S':'
asbag68
(g89
g70
NtRp664
(dp665
g73
(dp666
sg82
g652
sg75
(lp667
g68
(g69
g70
NtRp668
(dp669
g73
(dp670
g81
I3
ssg82
g664
sg75
(lp671
S''
asbasbasbag68
(g84
g70
NtRp672
(dp673
g73
(dp674
sg82
g648
sg75
(lp675
g68
(g89
g70
NtRp676
(dp677
g73
(dp678
g93
g94
ssg82
g672
sg75
(lp679
g303
asbag68
(g89
g70
NtRp680
(dp681
g73
(dp682
g100
g101
ssg82
g672
sg75
(lp683
S':'
asbag68
(g89
g70
NtRp684
(dp685
g73
(dp686
sg82
g672
sg75
(lp687
g68
(g69
g70
NtRp688
(dp689
g73
(dp690
g81
I3
ssg82
g684
sg75
(lp691
S''
asbasbasbag68
(g84
g70
NtRp692
(dp693
g73
(dp694
sg82
g648
sg75
(lp695
g68
(g89
g70
NtRp696
(dp697
g73
(dp698
g93
g94
ssg82
g692
sg75
(lp699
g324
asbag68
(g89
g70
NtRp700
(dp701
g73
(dp702
g100
g101
ssg82
g692
sg75
(lp703
S':'
asbag68
(g89
g70
NtRp704
(dp705
g73
(dp706
sg82
g692
sg75
(lp707
g68
(g69
g70
NtRp708
(dp709
g73
(dp710
g81
I3
ssg82
g704
sg75
(lp711
S''
asbasbasbag68
(g84
g70
NtRp712
(dp713
g73
(dp714
sg82
g648
sg75
(lp715
g68
(g89
g70
NtRp716
(dp717
g73
(dp718
g93
g94
ssg82
g712
sg75
(lp719
g345
asbag68
(g89
g70
NtRp720
(dp721
g73
(dp722
g100
g101
ssg82
g712
sg75
(lp723
S':'
asbag68
(g89
g70
NtRp724
(dp725
g73
(dp726
sg82
g712
sg75
(lp727
g68
(g69
g70
NtRp728
(dp729
g73
(dp730
g81
I3
ssg82
g724
sg75
(lp731
S''
asbasbasbag68
(g84
g70
NtRp732
(dp733
g73
(dp734
sg82
g648
sg75
(lp735
g68
(g89
g70
NtRp736
(dp737
g73
(dp738
g93
g94
ssg82
g732
sg75
(lp739
g366
asbag68
(g89
g70
NtRp740
(dp741
g73
(dp742
g100
g101
ssg82
g732
sg75
(lp743
S':'
asbag68
(g89
g70
NtRp744
(dp745
g73
(dp746
sg82
g732
sg75
(lp747
g68
(g69
g70
NtRp748
(dp749
g73
(dp750
g81
I3
ssg82
g744
sg75
(lp751
S''
asbasbasbag68
(g84
g70
NtRp752
(dp753
g73
(dp754
sg82
g648
sg75
(lp755
g68
(g89
g70
NtRp756
(dp757
g73
(dp758
g93
g94
ssg82
g752
sg75
(lp759
g387
asbag68
(g89
g70
NtRp760
(dp761
g73
(dp762
g100
g101
ssg82
g752
sg75
(lp763
S':'
asbag68
(g89
g70
NtRp764
(dp765
g73
(dp766
sg82
g752
sg75
(lp767
g68
(g69
g70
NtRp768
(dp769
g73
(dp770
g81
I3
ssg82
g764
sg75
(lp771
S''
asbasbasbag68
(g84
g70
NtRp772
(dp773
g73
(dp774
sg82
g648
sg75
(lp775
g68
(g89
g70
NtRp776
(dp777
g73
(dp778
g93
g94
ssg82
g772
sg75
(lp779
g408
asbag68
(g89
g70
NtRp780
(dp781
g73
(dp782
g100
g101
ssg82
g772
sg75
(lp783
S':'
asbag68
(g89
g70
NtRp784
(dp785
g73
(dp786
sg82
g772
sg75
(lp787
g68
(g69
g70
NtRp788
(dp789
g73
(dp790
g81
I3
ssg82
g784
sg75
(lp791
S''
asbasbasbag68
(g84
g70
NtRp792
(dp793
g73
(dp794
sg82
g648
sg75
(lp795
g68
(g89
g70
NtRp796
(dp797
g73
(dp798
g93
g94
ssg82
g792
sg75
(lp799
g429
asbag68
(g89
g70
NtRp800
(dp801
g73
(dp802
g100
g101
ssg82
g792
sg75
(lp803
S':'
asbag68
(g89
g70
NtRp804
(dp805
g73
(dp806
sg82
g792
sg75
(lp807
g68
(g69
g70
NtRp808
(dp809
g73
(dp810
g81
I3
ssg82
g804
sg75
(lp811
S''
asbasbasbasbasbasbasbasbasbasbasbag68
(g84
g70
NtRp812
(dp813
g73
(dp814
sg82
g78
sg75
(lp815
g68
(g89
g70
NtRp816
(dp817
g73
(dp818
g93
g94
ssg82
g812
sg75
(lp819
S'env'
p820
asbag68
(g89
g70
NtRp821
(dp822
g73
(dp823
g100
g101
ssg82
g812
sg75
(lp824
S':'
asbag68
(g89
g70
NtRp825
(dp826
g73
(dp827
sg82
g812
sg75
(lp828
g68
(g69
g70
NtRp829
(dp830
g73
(dp831
g81
I5
ssg82
g825
sg75
(lp832
g68
(g77
g70
NtRp833
(dp834
g73
(dp835
g81
I4
ssg82
Nsg75
(lp836
g68
(g84
g70
NtRp837
(dp838
g73
(dp839
sg82
g833
sg75
(lp840
g68
(g89
g70
NtRp841
(dp842
g73
(dp843
g93
g94
ssg82
g837
sg75
(lp844
S'app_folders'
p845
asbag68
(g89
g70
NtRp846
(dp847
g73
(dp848
g100
g101
ssg82
g837
sg75
(lp849
S':'
asbag68
(g89
g70
NtRp850
(dp851
g73
(dp852
sg82
g837
sg75
(lp853
g68
(g69
g70
NtRp854
(dp855
g73
(dp856
g81
I4
ssg82
g850
sg75
(lp857
S"set(['/home/krutarth/Downloads/911india/applications/welcome/', '/home/krutarth/Downloads/911india/applications/911_signin/', '/home/krutarth/Downloads/911india/applications/admin/'])"
p858
asbasbasbag68
(g84
g70
NtRp859
(dp860
g73
(dp861
sg82
g833
sg75
(lp862
g68
(g89
g70
NtRp863
(dp864
g73
(dp865
g93
g94
ssg82
g859
sg75
(lp866
S'applications_parent'
p867
asbag68
(g89
g70
NtRp868
(dp869
g73
(dp870
g100
g101
ssg82
g859
sg75
(lp871
S':'
asbag68
(g89
g70
NtRp872
(dp873
g73
(dp874
sg82
g859
sg75
(lp875
g68
(g69
g70
NtRp876
(dp877
g73
(dp878
g81
I4
ssg82
g872
sg75
(lp879
S'/home/krutarth/Downloads/911india'
p880
asbasbasbag68
(g84
g70
NtRp881
(dp882
g73
(dp883
sg82
g833
sg75
(lp884
g68
(g89
g70
NtRp885
(dp886
g73
(dp887
g93
g94
ssg82
g881
sg75
(lp888
S'cmd_args'
p889
asbag68
(g89
g70
NtRp890
(dp891
g73
(dp892
g100
g101
ssg82
g881
sg75
(lp893
S':'
asbag68
(g89
g70
NtRp894
(dp895
g73
(dp896
sg82
g881
sg75
(lp897
g68
(g69
g70
NtRp898
(dp899
g73
(dp900
g81
I4
ssg82
g894
sg75
(lp901
g68
(g77
g70
NtRp902
(dp903
g73
(dp904
g81
I3
ssg82
Nsg75
(lp905
sbasbasbasbag68
(g84
g70
NtRp906
(dp907
g73
(dp908
sg82
g833
sg75
(lp909
g68
(g89
g70
NtRp910
(dp911
g73
(dp912
g93
g94
ssg82
g906
sg75
(lp913
S'cmd_options'
p914
asbag68
(g89
g70
NtRp915
(dp916
g73
(dp917
g100
g101
ssg82
g906
sg75
(lp918
S':'
asbag68
(g89
g70
NtRp919
(dp920
g73
(dp921
sg82
g906
sg75
(lp922
g68
(g69
g70
NtRp923
(dp924
g73
(dp925
g81
I4
ssg82
g919
sg75
(lp926
S"<Values at 0xa854aec: {'verbose': False, 'ip': '127.0.0.1', 'shutdown_timeout': 5, 'taskbar': False, 'nocron': False, 'pid_filename': 'httpserver.pid', 'maxthreads': None, 'softcron': False, 'server_name': 'krutarth-Compaq-610', 'bpython': False, 'nogui': False, 'port': 8000, 'extcron': False, 'debuglevel': 30, 'test': None, 'folder': '/home/krutarth/Downloads/911india', 'config': '', 'import_models': False, 'winservice': '', 'shell': None, 'run': '', 'log_filename': 'httpserver.log', 'args': [''], 'socket_timeout': 5, 'ssl_ca_certificate': None, 'scheduler': None, 'profiler_filename': None, 'ssl_private_key': '', 'password': '<ask>', 'request_queue_size': 5, 'ssl_certificate': '', 'cronjob': False, 'numthreads': None, 'quiet': False, 'interfaces': None, 'minthreads': None, 'timeout': 10, 'plain': False, 'nobanner': False}>"
p927
asbasbasbag68
(g84
g70
NtRp928
(dp929
g73
(dp930
sg82
g833
sg75
(lp931
g68
(g89
g70
NtRp932
(dp933
g73
(dp934
g93
g94
ssg82
g928
sg75
(lp935
S'db_sessions'
p936
asbag68
(g89
g70
NtRp937
(dp938
g73
(dp939
g100
g101
ssg82
g928
sg75
(lp940
S':'
asbag68
(g89
g70
NtRp941
(dp942
g73
(dp943
sg82
g928
sg75
(lp944
g68
(g69
g70
NtRp945
(dp946
g73
(dp947
g81
I4
ssg82
g941
sg75
(lp948
S'set([])'
p949
asbasbasbag68
(g84
g70
NtRp950
(dp951
g73
(dp952
sg82
g833
sg75
(lp953
g68
(g89
g70
NtRp954
(dp955
g73
(dp956
g93
g94
ssg82
g950
sg75
(lp957
S'debugging'
p958
asbag68
(g89
g70
NtRp959
(dp960
g73
(dp961
g100
g101
ssg82
g950
sg75
(lp962
S':'
asbag68
(g89
g70
NtRp963
(dp964
g73
(dp965
sg82
g950
sg75
(lp966
g68
(g69
g70
NtRp967
(dp968
g73
(dp969
g81
I4
ssg82
g963
sg75
(lp970
g111
asbasbasbag68
(g84
g70
NtRp971
(dp972
g73
(dp973
sg82
g833
sg75
(lp974
g68
(g89
g70
NtRp975
(dp976
g73
(dp977
g93
g94
ssg82
g971
sg75
(lp978
S'gluon_parent'
p979
asbag68
(g89
g70
NtRp980
(dp981
g73
(dp982
g100
g101
ssg82
g971
sg75
(lp983
S':'
asbag68
(g89
g70
NtRp984
(dp985
g73
(dp986
sg82
g971
sg75
(lp987
g68
(g69
g70
NtRp988
(dp989
g73
(dp990
g81
I4
ssg82
g984
sg75
(lp991
S'/home/krutarth/Downloads/911india'
p992
asbasbasbag68
(g84
g70
NtRp993
(dp994
g73
(dp995
sg82
g833
sg75
(lp996
g68
(g89
g70
NtRp997
(dp998
g73
(dp999
g93
g94
ssg82
g993
sg75
(lp1000
S'http_accept'
p1001
asbag68
(g89
g70
NtRp1002
(dp1003
g73
(dp1004
g100
g101
ssg82
g993
sg75
(lp1005
S':'
asbag68
(g89
g70
NtRp1006
(dp1007
g73
(dp1008
sg82
g993
sg75
(lp1009
g68
(g69
g70
NtRp1010
(dp1011
g73
(dp1012
g81
I4
ssg82
g1006
sg75
(lp1013
S'text/html,application/xhtml+xml,application/xml;q=0.9,*/*;q=0.8'
p1014
asbasbasbag68
(g84
g70
NtRp1015
(dp1016
g73
(dp1017
sg82
g833
sg75
(lp1018
g68
(g89
g70
NtRp1019
(dp1020
g73
(dp1021
g93
g94
ssg82
g1015
sg75
(lp1022
S'http_accept_encoding'
p1023
asbag68
(g89
g70
NtRp1024
(dp1025
g73
(dp1026
g100
g101
ssg82
g1015
sg75
(lp1027
S':'
asbag68
(g89
g70
NtRp1028
(dp1029
g73
(dp1030
sg82
g1015
sg75
(lp1031
g68
(g69
g70
NtRp1032
(dp1033
g73
(dp1034
g81
I4
ssg82
g1028
sg75
(lp1035
S'gzip,deflate,sdch'
p1036
asbasbasbag68
(g84
g70
NtRp1037
(dp1038
g73
(dp1039
sg82
g833
sg75
(lp1040
g68
(g89
g70
NtRp1041
(dp1042
g73
(dp1043
g93
g94
ssg82
g1037
sg75
(lp1044
S'http_accept_language'
p1045
asbag68
(g89
g70
NtRp1046
(dp1047
g73
(dp1048
g100
g101
ssg82
g1037
sg75
(lp1049
S':'
asbag68
(g89
g70
NtRp1050
(dp1051
g73
(dp1052
sg82
g1037
sg75
(lp1053
g68
(g69
g70
NtRp1054
(dp1055
g73
(dp1056
g81
I4
ssg82
g1050
sg75
(lp1057
S'en-US,en;q=0.8'
p1058
asbasbasbag68
(g84
g70
NtRp1059
(dp1060
g73
(dp1061
sg82
g833
sg75
(lp1062
g68
(g89
g70
NtRp1063
(dp1064
g73
(dp1065
g93
g94
ssg82
g1059
sg75
(lp1066
S'http_connection'
p1067
asbag68
(g89
g70
NtRp1068
(dp1069
g73
(dp1070
g100
g101
ssg82
g1059
sg75
(lp1071
S':'
asbag68
(g89
g70
NtRp1072
(dp1073
g73
(dp1074
sg82
g1059
sg75
(lp1075
g68
(g69
g70
NtRp1076
(dp1077
g73
(dp1078
g81
I4
ssg82
g1072
sg75
(lp1079
S'keep-alive'
p1080
asbasbasbag68
(g84
g70
NtRp1081
(dp1082
g73
(dp1083
sg82
g833
sg75
(lp1084
g68
(g89
g70
NtRp1085
(dp1086
g73
(dp1087
g93
g94
ssg82
g1081
sg75
(lp1088
S'http_cookie'
p1089
asbag68
(g89
g70
NtRp1090
(dp1091
g73
(dp1092
g100
g101
ssg82
g1081
sg75
(lp1093
S':'
asbag68
(g89
g70
NtRp1094
(dp1095
g73
(dp1096
sg82
g1081
sg75
(lp1097
g68
(g69
g70
NtRp1098
(dp1099
g73
(dp1100
g81
I4
ssg82
g1094
sg75
(lp1101
S'session_id_welcome=127.0.0.1-a73fe0b0-571b-4b9c-8cb3-356110c25864; session_id_admin=127.0.0.1-6ea7c853-7f54-451d-bd03-783d5c8e214a; session_id_911_signin=127.0.0.1-6572663b-59b7-4eae-8a04-69e22de716cf'
p1102
asbasbasbag68
(g84
g70
NtRp1103
(dp1104
g73
(dp1105
sg82
g833
sg75
(lp1106
g68
(g89
g70
NtRp1107
(dp1108
g73
(dp1109
g93
g94
ssg82
g1103
sg75
(lp1110
S'http_dnt'
p1111
asbag68
(g89
g70
NtRp1112
(dp1113
g73
(dp1114
g100
g101
ssg82
g1103
sg75
(lp1115
S':'
asbag68
(g89
g70
NtRp1116
(dp1117
g73
(dp1118
sg82
g1103
sg75
(lp1119
g68
(g69
g70
NtRp1120
(dp1121
g73
(dp1122
g81
I4
ssg82
g1116
sg75
(lp1123
S'1'
asbasbasbag68
(g84
g70
NtRp1124
(dp1125
g73
(dp1126
sg82
g833
sg75
(lp1127
g68
(g89
g70
NtRp1128
(dp1129
g73
(dp1130
g93
g94
ssg82
g1124
sg75
(lp1131
S'http_host'
p1132
asbag68
(g89
g70
NtRp1133
(dp1134
g73
(dp1135
g100
g101
ssg82
g1124
sg75
(lp1136
S':'
asbag68
(g89
g70
NtRp1137
(dp1138
g73
(dp1139
sg82
g1124
sg75
(lp1140
g68
(g69
g70
NtRp1141
(dp1142
g73
(dp1143
g81
I4
ssg82
g1137
sg75
(lp1144
S'127.0.0.1:8000'
p1145
asbasbasbag68
(g84
g70
NtRp1146
(dp1147
g73
(dp1148
sg82
g833
sg75
(lp1149
g68
(g89
g70
NtRp1150
(dp1151
g73
(dp1152
g93
g94
ssg82
g1146
sg75
(lp1153
S'http_referer'
p1154
asbag68
(g89
g70
NtRp1155
(dp1156
g73
(dp1157
g100
g101
ssg82
g1146
sg75
(lp1158
S':'
asbag68
(g89
g70
NtRp1159
(dp1160
g73
(dp1161
sg82
g1146
sg75
(lp1162
g68
(g69
g70
NtRp1163
(dp1164
g73
(dp1165
g81
I4
ssg82
g1159
sg75
(lp1166
S'http://127.0.0.1:8000/911_signin/default/index'
p1167
asbasbasbag68
(g84
g70
NtRp1168
(dp1169
g73
(dp1170
sg82
g833
sg75
(lp1171
g68
(g89
g70
NtRp1172
(dp1173
g73
(dp1174
g93
g94
ssg82
g1168
sg75
(lp1175
S'http_user_agent'
p1176
asbag68
(g89
g70
NtRp1177
(dp1178
g73
(dp1179
g100
g101
ssg82
g1168
sg75
(lp1180
S':'
asbag68
(g89
g70
NtRp1181
(dp1182
g73
(dp1183
sg82
g1168
sg75
(lp1184
g68
(g69
g70
NtRp1185
(dp1186
g73
(dp1187
g81
I4
ssg82
g1181
sg75
(lp1188
S'Mozilla/5.0 (X11; Linux i686) AppleWebKit/537.36 (KHTML, like Gecko) Chrome/28.0.1500.70 Safari/537.36'
p1189
asbasbasbag68
(g84
g70
NtRp1190
(dp1191
g73
(dp1192
sg82
g833
sg75
(lp1193
g68
(g89
g70
NtRp1194
(dp1195
g73
(dp1196
g93
g94
ssg82
g1190
sg75
(lp1197
S'is_jython'
p1198
asbag68
(g89
g70
NtRp1199
(dp1200
g73
(dp1201
g100
g101
ssg82
g1190
sg75
(lp1202
S':'
asbag68
(g89
g70
NtRp1203
(dp1204
g73
(dp1205
sg82
g1190
sg75
(lp1206
g68
(g69
g70
NtRp1207
(dp1208
g73
(dp1209
g81
I4
ssg82
g1203
sg75
(lp1210
g111
asbasbasbag68
(g84
g70
NtRp1211
(dp1212
g73
(dp1213
sg82
g833
sg75
(lp1214
g68
(g89
g70
NtRp1215
(dp1216
g73
(dp1217
g93
g94
ssg82
g1211
sg75
(lp1218
S'is_pypy'
p1219
asbag68
(g89
g70
NtRp1220
(dp1221
g73
(dp1222
g100
g101
ssg82
g1211
sg75
(lp1223
S':'
asbag68
(g89
g70
NtRp1224
(dp1225
g73
(dp1226
sg82
g1211
sg75
(lp1227
g68
(g69
g70
NtRp1228
(dp1229
g73
(dp1230
g81
I4
ssg82
g1224
sg75
(lp1231
g111
asbasbasbag68
(g84
g70
NtRp1232
(dp1233
g73
(dp1234
sg82
g833
sg75
(lp1235
g68
(g89
g70
NtRp1236
(dp1237
g73
(dp1238
g93
g94
ssg82
g1232
sg75
(lp1239
S'path_info'
p1240
asbag68
(g89
g70
NtRp1241
(dp1242
g73
(dp1243
g100
g101
ssg82
g1232
sg75
(lp1244
S':'
asbag68
(g89
g70
NtRp1245
(dp1246
g73
(dp1247
sg82
g1232
sg75
(lp1248
g68
(g69
g70
NtRp1249
(dp1250
g73
(dp1251
g81
I4
ssg82
g1245
sg75
(lp1252
S'/911_signin/default/events'
p1253
asbasbasbag68
(g84
g70
NtRp1254
(dp1255
g73
(dp1256
sg82
g833
sg75
(lp1257
g68
(g89
g70
NtRp1258
(dp1259
g73
(dp1260
g93
g94
ssg82
g1254
sg75
(lp1261
S'query_string'
p1262
asbag68
(g89
g70
NtRp1263
(dp1264
g73
(dp1265
g100
g101
ssg82
g1254
sg75
(lp1266
S':'
asbag68
(g89
g70
NtRp1267
(dp1268
g73
(dp1269
sg82
g1254
sg75
(lp1270
g68
(g69
g70
NtRp1271
(dp1272
g73
(dp1273
g81
I4
ssg82
g1267
sg75
(lp1274
S''
asbasbasbag68
(g84
g70
NtRp1275
(dp1276
g73
(dp1277
sg82
g833
sg75
(lp1278
g68
(g89
g70
NtRp1279
(dp1280
g73
(dp1281
g93
g94
ssg82
g1275
sg75
(lp1282
S'remote_addr'
p1283
asbag68
(g89
g70
NtRp1284
(dp1285
g73
(dp1286
g100
g101
ssg82
g1275
sg75
(lp1287
S':'
asbag68
(g89
g70
NtRp1288
(dp1289
g73
(dp1290
sg82
g1275
sg75
(lp1291
g68
(g69
g70
NtRp1292
(dp1293
g73
(dp1294
g81
I4
ssg82
g1288
sg75
(lp1295
g201
asbasbasbag68
(g84
g70
NtRp1296
(dp1297
g73
(dp1298
sg82
g833
sg75
(lp1299
g68
(g89
g70
NtRp1300
(dp1301
g73
(dp1302
g93
g94
ssg82
g1296
sg75
(lp1303
S'remote_port'
p1304
asbag68
(g89
g70
NtRp1305
(dp1306
g73
(dp1307
g100
g101
ssg82
g1296
sg75
(lp1308
S':'
asbag68
(g89
g70
NtRp1309
(dp1310
g73
(dp1311
sg82
g1296
sg75
(lp1312
g68
(g69
g70
NtRp1313
(dp1314
g73
(dp1315
g81
I4
ssg82
g1309
sg75
(lp1316
S'39128'
p1317
asbasbasbag68
(g84
g70
NtRp1318
(dp1319
g73
(dp1320
sg82
g833
sg75
(lp1321
g68
(g89
g70
NtRp1322
(dp1323
g73
(dp1324
g93
g94
ssg82
g1318
sg75
(lp1325
S'request_method'
p1326
asbag68
(g89
g70
NtRp1327
(dp1328
g73
(dp1329
g100
g101
ssg82
g1318
sg75
(lp1330
S':'
asbag68
(g89
g70
NtRp1331
(dp1332
g73
(dp1333
sg82
g1318
sg75
(lp1334
g68
(g69
g70
NtRp1335
(dp1336
g73
(dp1337
g81
I4
ssg82
g1331
sg75
(lp1338
S'GET'
p1339
asbasbasbag68
(g84
g70
NtRp1340
(dp1341
g73
(dp1342
sg82
g833
sg75
(lp1343
g68
(g89
g70
NtRp1344
(dp1345
g73
(dp1346
g93
g94
ssg82
g1340
sg75
(lp1347
S'script_name'
p1348
asbag68
(g89
g70
NtRp1349
(dp1350
g73
(dp1351
g100
g101
ssg82
g1340
sg75
(lp1352
S':'
asbag68
(g89
g70
NtRp1353
(dp1354
g73
(dp1355
sg82
g1340
sg75
(lp1356
g68
(g69
g70
NtRp1357
(dp1358
g73
(dp1359
g81
I4
ssg82
g1353
sg75
(lp1360
S''
asbasbasbag68
(g84
g70
NtRp1361
(dp1362
g73
(dp1363
sg82
g833
sg75
(lp1364
g68
(g89
g70
NtRp1365
(dp1366
g73
(dp1367
g93
g94
ssg82
g1361
sg75
(lp1368
S'server_name'
p1369
asbag68
(g89
g70
NtRp1370
(dp1371
g73
(dp1372
g100
g101
ssg82
g1361
sg75
(lp1373
S':'
asbag68
(g89
g70
NtRp1374
(dp1375
g73
(dp1376
sg82
g1361
sg75
(lp1377
g68
(g69
g70
NtRp1378
(dp1379
g73
(dp1380
g81
I4
ssg82
g1374
sg75
(lp1381
S'krutarth-Compaq-610'
p1382
asbasbasbag68
(g84
g70
NtRp1383
(dp1384
g73
(dp1385
sg82
g833
sg75
(lp1386
g68
(g89
g70
NtRp1387
(dp1388
g73
(dp1389
g93
g94
ssg82
g1383
sg75
(lp1390
S'server_port'
p1391
asbag68
(g89
g70
NtRp1392
(dp1393
g73
(dp1394
g100
g101
ssg82
g1383
sg75
(lp1395
S':'
asbag68
(g89
g70
NtRp1396
(dp1397
g73
(dp1398
sg82
g1383
sg75
(lp1399
g68
(g69
g70
NtRp1400
(dp1401
g73
(dp1402
g81
I4
ssg82
g1396
sg75
(lp1403
S'8000'
p1404
asbasbasbag68
(g84
g70
NtRp1405
(dp1406
g73
(dp1407
sg82
g833
sg75
(lp1408
g68
(g89
g70
NtRp1409
(dp1410
g73
(dp1411
g93
g94
ssg82
g1405
sg75
(lp1412
S'server_protocol'
p1413
asbag68
(g89
g70
NtRp1414
(dp1415
g73
(dp1416
g100
g101
ssg82
g1405
sg75
(lp1417
S':'
asbag68
(g89
g70
NtRp1418
(dp1419
g73
(dp1420
sg82
g1405
sg75
(lp1421
g68
(g69
g70
NtRp1422
(dp1423
g73
(dp1424
g81
I4
ssg82
g1418
sg75
(lp1425
S'HTTP/1.1'
p1426
asbasbasbag68
(g84
g70
NtRp1427
(dp1428
g73
(dp1429
sg82
g833
sg75
(lp1430
g68
(g89
g70
NtRp1431
(dp1432
g73
(dp1433
g93
g94
ssg82
g1427
sg75
(lp1434
S'server_software'
p1435
asbag68
(g89
g70
NtRp1436
(dp1437
g73
(dp1438
g100
g101
ssg82
g1427
sg75
(lp1439
S':'
asbag68
(g89
g70
NtRp1440
(dp1441
g73
(dp1442
sg82
g1427
sg75
(lp1443
g68
(g69
g70
NtRp1444
(dp1445
g73
(dp1446
g81
I4
ssg82
g1440
sg75
(lp1447
S'Rocket 1.2.4'
p1448
asbasbasbag68
(g84
g70
NtRp1449
(dp1450
g73
(dp1451
sg82
g833
sg75
(lp1452
g68
(g89
g70
NtRp1453
(dp1454
g73
(dp1455
g93
g94
ssg82
g1449
sg75
(lp1456
S'web2py_crontype'
p1457
asbag68
(g89
g70
NtRp1458
(dp1459
g73
(dp1460
g100
g101
ssg82
g1449
sg75
(lp1461
S':'
asbag68
(g89
g70
NtRp1462
(dp1463
g73
(dp1464
sg82
g1449
sg75
(lp1465
g68
(g69
g70
NtRp1466
(dp1467
g73
(dp1468
g81
I4
ssg82
g1462
sg75
(lp1469
S'hard'
p1470
asbasbasbag68
(g84
g70
NtRp1471
(dp1472
g73
(dp1473
sg82
g833
sg75
(lp1474
g68
(g89
g70
NtRp1475
(dp1476
g73
(dp1477
g93
g94
ssg82
g1471
sg75
(lp1478
S'web2py_path'
p1479
asbag68
(g89
g70
NtRp1480
(dp1481
g73
(dp1482
g100
g101
ssg82
g1471
sg75
(lp1483
S':'
asbag68
(g89
g70
NtRp1484
(dp1485
g73
(dp1486
sg82
g1471
sg75
(lp1487
g68
(g69
g70
NtRp1488
(dp1489
g73
(dp1490
g81
I4
ssg82
g1484
sg75
(lp1491
g880
asbasbasbag68
(g84
g70
NtRp1492
(dp1493
g73
(dp1494
sg82
g833
sg75
(lp1495
g68
(g89
g70
NtRp1496
(dp1497
g73
(dp1498
g93
g94
ssg82
g1492
sg75
(lp1499
S'web2py_version'
p1500
asbag68
(g89
g70
NtRp1501
(dp1502
g73
(dp1503
g100
g101
ssg82
g1492
sg75
(lp1504
S':'
asbag68
(g89
g70
NtRp1505
(dp1506
g73
(dp1507
sg82
g1492
sg75
(lp1508
g68
(g69
g70
NtRp1509
(dp1510
g73
(dp1511
g81
I4
ssg82
g1505
sg75
(lp1512
g68
(g77
g70
NtRp1513
(dp1514
g73
(dp1515
g81
I3
ssg82
Nsg75
(lp1516
g68
(g84
g70
NtRp1517
(dp1518
g73
(dp1519
sg82
g1513
sg75
(lp1520
g68
(g89
g70
NtRp1521
(dp1522
g73
(dp1523
sg82
g1517
sg75
(lp1524
g68
(g69
g70
NtRp1525
(dp1526
g73
(dp1527
g81
I3
ssg82
g1521
sg75
(lp1528
S'1'
asbasbasbag68
(g84
g70
NtRp1529
(dp1530
g73
(dp1531
sg82
g1513
sg75
(lp1532
g68
(g89
g70
NtRp1533
(dp1534
g73
(dp1535
sg82
g1529
sg75
(lp1536
g68
(g69
g70
NtRp1537
(dp1538
g73
(dp1539
g81
I3
ssg82
g1533
sg75
(lp1540
S'99'
p1541
asbasbasbag68
(g84
g70
NtRp1542
(dp1543
g73
(dp1544
sg82
g1513
sg75
(lp1545
g68
(g89
g70
NtRp1546
(dp1547
g73
(dp1548
sg82
g1542
sg75
(lp1549
g68
(g69
g70
NtRp1550
(dp1551
g73
(dp1552
g81
I3
ssg82
g1546
sg75
(lp1553
S'7'
asbasbasbag68
(g84
g70
NtRp1554
(dp1555
g73
(dp1556
sg82
g1513
sg75
(lp1557
g68
(g89
g70
NtRp1558
(dp1559
g73
(dp1560
sg82
g1554
sg75
(lp1561
g68
(g69
g70
NtRp1562
(dp1563
g73
(dp1564
g81
I3
ssg82
g1558
sg75
(lp1565
S'datetime.datetime(2012, 3, 4, 22, 12, 8)'
p1566
asbasbasbag68
(g84
g70
NtRp1567
(dp1568
g73
(dp1569
sg82
g1513
sg75
(lp1570
g68
(g89
g70
NtRp1571
(dp1572
g73
(dp1573
sg82
g1567
sg75
(lp1574
g68
(g69
g70
NtRp1575
(dp1576
g73
(dp1577
g81
I3
ssg82
g1571
sg75
(lp1578
S'stable'
p1579
asbasbasbasbasbasbasbag68
(g84
g70
NtRp1580
(dp1581
g73
(dp1582
sg82
g833
sg75
(lp1583
g68
(g89
g70
NtRp1584
(dp1585
g73
(dp1586
g93
g94
ssg82
g1580
sg75
(lp1587
S'wsgi_errors'
p1588
asbag68
(g89
g70
NtRp1589
(dp1590
g73
(dp1591
g100
g101
ssg82
g1580
sg75
(lp1592
S':'
asbag68
(g89
g70
NtRp1593
(dp1594
g73
(dp1595
sg82
g1580
sg75
(lp1596
g68
(g69
g70
NtRp1597
(dp1598
g73
(dp1599
g81
I4
ssg82
g1593
sg75
(lp1600
S"<open file '<stderr>', mode 'w' at 0xb75190d0>"
p1601
asbasbasbag68
(g84
g70
NtRp1602
(dp1603
g73
(dp1604
sg82
g833
sg75
(lp1605
g68
(g89
g70
NtRp1606
(dp1607
g73
(dp1608
g93
g94
ssg82
g1602
sg75
(lp1609
S'wsgi_file_wrapper'
p1610
asbag68
(g89
g70
NtRp1611
(dp1612
g73
(dp1613
g100
g101
ssg82
g1602
sg75
(lp1614
S':'
asbag68
(g89
g70
NtRp1615
(dp1616
g73
(dp1617
sg82
g1602
sg75
(lp1618
g68
(g69
g70
NtRp1619
(dp1620
g73
(dp1621
g81
I4
ssg82
g1615
sg75
(lp1622
S'<class wsgiref.util.FileWrapper at 0xb6a4f1dc>'
p1623
asbasbasbag68
(g84
g70
NtRp1624
(dp1625
g73
(dp1626
sg82
g833
sg75
(lp1627
g68
(g89
g70
NtRp1628
(dp1629
g73
(dp1630
g93
g94
ssg82
g1624
sg75
(lp1631
S'wsgi_input'
p1632
asbag68
(g89
g70
NtRp1633
(dp1634
g73
(dp1635
g100
g101
ssg82
g1624
sg75
(lp1636
S':'
asbag68
(g89
g70
NtRp1637
(dp1638
g73
(dp1639
sg82
g1624
sg75
(lp1640
g68
(g69
g70
NtRp1641
(dp1642
g73
(dp1643
g81
I4
ssg82
g1637
sg75
(lp1644
S'<socket._fileobject object at 0xad946cec>'
p1645
asbasbasbag68
(g84
g70
NtRp1646
(dp1647
g73
(dp1648
sg82
g833
sg75
(lp1649
g68
(g89
g70
NtRp1650
(dp1651
g73
(dp1652
g93
g94
ssg82
g1646
sg75
(lp1653
S'wsgi_multiprocess'
p1654
asbag68
(g89
g70
NtRp1655
(dp1656
g73
(dp1657
g100
g101
ssg82
g1646
sg75
(lp1658
S':'
asbag68
(g89
g70
NtRp1659
(dp1660
g73
(dp1661
sg82
g1646
sg75
(lp1662
g68
(g69
g70
NtRp1663
(dp1664
g73
(dp1665
g81
I4
ssg82
g1659
sg75
(lp1666
g111
asbasbasbag68
(g84
g70
NtRp1667
(dp1668
g73
(dp1669
sg82
g833
sg75
(lp1670
g68
(g89
g70
NtRp1671
(dp1672
g73
(dp1673
g93
g94
ssg82
g1667
sg75
(lp1674
S'wsgi_multithread'
p1675
asbag68
(g89
g70
NtRp1676
(dp1677
g73
(dp1678
g100
g101
ssg82
g1667
sg75
(lp1679
S':'
asbag68
(g89
g70
NtRp1680
(dp1681
g73
(dp1682
sg82
g1667
sg75
(lp1683
g68
(g69
g70
NtRp1684
(dp1685
g73
(dp1686
g81
I4
ssg82
g1680
sg75
(lp1687
S'True'
p1688
asbasbasbag68
(g84
g70
NtRp1689
(dp1690
g73
(dp1691
sg82
g833
sg75
(lp1692
g68
(g89
g70
NtRp1693
(dp1694
g73
(dp1695
g93
g94
ssg82
g1689
sg75
(lp1696
S'wsgi_run_once'
p1697
asbag68
(g89
g70
NtRp1698
(dp1699
g73
(dp1700
g100
g101
ssg82
g1689
sg75
(lp1701
S':'
asbag68
(g89
g70
NtRp1702
(dp1703
g73
(dp1704
sg82
g1689
sg75
(lp1705
g68
(g69
g70
NtRp1706
(dp1707
g73
(dp1708
g81
I4
ssg82
g1702
sg75
(lp1709
g111
asbasbasbag68
(g84
g70
NtRp1710
(dp1711
g73
(dp1712
sg82
g833
sg75
(lp1713
g68
(g89
g70
NtRp1714
(dp1715
g73
(dp1716
g93
g94
ssg82
g1710
sg75
(lp1717
S'wsgi_url_scheme'
p1718
asbag68
(g89
g70
NtRp1719
(dp1720
g73
(dp1721
g100
g101
ssg82
g1710
sg75
(lp1722
S':'
asbag68
(g89
g70
NtRp1723
(dp1724
g73
(dp1725
sg82
g1710
sg75
(lp1726
g68
(g69
g70
NtRp1727
(dp1728
g73
(dp1729
g81
I4
ssg82
g1723
sg75
(lp1730
S'http'
p1731
asbasbasbag68
(g84
g70
NtRp1732
(dp1733
g73
(dp1734
sg82
g833
sg75
(lp1735
g68
(g89
g70
NtRp1736
(dp1737
g73
(dp1738
g93
g94
ssg82
g1732
sg75
(lp1739
S'wsgi_version'
p1740
asbag68
(g89
g70
NtRp1741
(dp1742
g73
(dp1743
g100
g101
ssg82
g1732
sg75
(lp1744
S':'
asbag68
(g89
g70
NtRp1745
(dp1746
g73
(dp1747
sg82
g1732
sg75
(lp1748
g68
(g69
g70
NtRp1749
(dp1750
g73
(dp1751
g81
I4
ssg82
g1745
sg75
(lp1752
g68
(g77
g70
NtRp1753
(dp1754
g73
(dp1755
g81
I3
ssg82
Nsg75
(lp1756
g68
(g84
g70
NtRp1757
(dp1758
g73
(dp1759
sg82
g1753
sg75
(lp1760
g68
(g89
g70
NtRp1761
(dp1762
g73
(dp1763
sg82
g1757
sg75
(lp1764
g68
(g69
g70
NtRp1765
(dp1766
g73
(dp1767
g81
I3
ssg82
g1761
sg75
(lp1768
S'1'
asbasbasbag68
(g84
g70
NtRp1769
(dp1770
g73
(dp1771
sg82
g1753
sg75
(lp1772
g68
(g89
g70
NtRp1773
(dp1774
g73
(dp1775
sg82
g1769
sg75
(lp1776
g68
(g69
g70
NtRp1777
(dp1778
g73
(dp1779
g81
I3
ssg82
g1773
sg75
(lp1780
S'0'
asbasbasbasbasbasbasbasbasbasbasbag68
(g84
g70
NtRp1781
(dp1782
g73
(dp1783
sg82
g78
sg75
(lp1784
g68
(g89
g70
NtRp1785
(dp1786
g73
(dp1787
g93
g94
ssg82
g1781
sg75
(lp1788
S'extension'
p1789
asbag68
(g89
g70
NtRp1790
(dp1791
g73
(dp1792
g100
g101
ssg82
g1781
sg75
(lp1793
S':'
asbag68
(g89
g70
NtRp1794
(dp1795
g73
(dp1796
sg82
g1781
sg75
(lp1797
g68
(g69
g70
NtRp1798
(dp1799
g73
(dp1800
g81
I5
ssg82
g1794
sg75
(lp1801
S'html'
p1802
asbasbasbag68
(g84
g70
NtRp1803
(dp1804
g73
(dp1805
sg82
g78
sg75
(lp1806
g68
(g89
g70
NtRp1807
(dp1808
g73
(dp1809
g93
g94
ssg82
g1803
sg75
(lp1810
S'folder'
p1811
asbag68
(g89
g70
NtRp1812
(dp1813
g73
(dp1814
g100
g101
ssg82
g1803
sg75
(lp1815
S':'
asbag68
(g89
g70
NtRp1816
(dp1817
g73
(dp1818
sg82
g1803
sg75
(lp1819
g68
(g69
g70
NtRp1820
(dp1821
g73
(dp1822
g81
I5
ssg82
g1816
sg75
(lp1823
S'/home/krutarth/Downloads/911india/applications/911_signin/'
p1824
asbasbasbag68
(g84
g70
NtRp1825
(dp1826
g73
(dp1827
sg82
g78
sg75
(lp1828
g68
(g89
g70
NtRp1829
(dp1830
g73
(dp1831
g93
g94
ssg82
g1825
sg75
(lp1832
S'function'
p1833
asbag68
(g89
g70
NtRp1834
(dp1835
g73
(dp1836
g100
g101
ssg82
g1825
sg75
(lp1837
S':'
asbag68
(g89
g70
NtRp1838
(dp1839
g73
(dp1840
sg82
g1825
sg75
(lp1841
g68
(g69
g70
NtRp1842
(dp1843
g73
(dp1844
g81
I5
ssg82
g1838
sg75
(lp1845
S'events'
p1846
asbasbasbag68
(g84
g70
NtRp1847
(dp1848
g73
(dp1849
sg82
g78
sg75
(lp1850
g68
(g89
g70
NtRp1851
(dp1852
g73
(dp1853
g93
g94
ssg82
g1847
sg75
(lp1854
S'get_vars'
p1855
asbag68
(g89
g70
NtRp1856
(dp1857
g73
(dp1858
g100
g101
ssg82
g1847
sg75
(lp1859
S':'
asbag68
(g89
g70
NtRp1860
(dp1861
g73
(dp1862
sg82
g1847
sg75
(lp1863
g68
(g69
g70
NtRp1864
(dp1865
g73
(dp1866
g81
I5
ssg82
g1860
sg75
(lp1867
g68
(g77
g70
NtRp1868
(dp1869
g73
(dp1870
g81
I4
ssg82
Nsg75
(lp1871
sbasbasbasbag68
(g84
g70
NtRp1872
(dp1873
g73
(dp1874
sg82
g78
sg75
(lp1875
g68
(g89
g70
NtRp1876
(dp1877
g73
(dp1878
g93
g94
ssg82
g1872
sg75
(lp1879
S'global_settings'
p1880
asbag68
(g89
g70
NtRp1881
(dp1882
g73
(dp1883
g100
g101
ssg82
g1872
sg75
(lp1884
S':'
asbag68
(g89
g70
NtRp1885
(dp1886
g73
(dp1887
sg82
g1872
sg75
(lp1888
g68
(g69
g70
NtRp1889
(dp1890
g73
(dp1891
g81
I5
ssg82
g1885
sg75
(lp1892
g68
(g77
g70
NtRp1893
(dp1894
g73
(dp1895
g81
I4
ssg82
Nsg75
(lp1896
g68
(g84
g70
NtRp1897
(dp1898
g73
(dp1899
sg82
g1893
sg75
(lp1900
g68
(g89
g70
NtRp1901
(dp1902
g73
(dp1903
g93
g94
ssg82
g1897
sg75
(lp1904
g845
asbag68
(g89
g70
NtRp1905
(dp1906
g73
(dp1907
g100
g101
ssg82
g1897
sg75
(lp1908
S':'
asbag68
(g89
g70
NtRp1909
(dp1910
g73
(dp1911
sg82
g1897
sg75
(lp1912
g68
(g69
g70
NtRp1913
(dp1914
g73
(dp1915
g81
I4
ssg82
g1909
sg75
(lp1916
S"set(['/home/krutarth/Downloads/911india/applications/welcome/', '/home/krutarth/Downloads/911india/applications/911_signin/', '/home/krutarth/Downloads/911india/applications/admin/'])"
p1917
asbasbasbag68
(g84
g70
NtRp1918
(dp1919
g73
(dp1920
sg82
g1893
sg75
(lp1921
g68
(g89
g70
NtRp1922
(dp1923
g73
(dp1924
g93
g94
ssg82
g1918
sg75
(lp1925
g867
asbag68
(g89
g70
NtRp1926
(dp1927
g73
(dp1928
g100
g101
ssg82
g1918
sg75
(lp1929
S':'
asbag68
(g89
g70
NtRp1930
(dp1931
g73
(dp1932
sg82
g1918
sg75
(lp1933
g68
(g69
g70
NtRp1934
(dp1935
g73
(dp1936
g81
I4
ssg82
g1930
sg75
(lp1937
g880
asbasbasbag68
(g84
g70
NtRp1938
(dp1939
g73
(dp1940
sg82
g1893
sg75
(lp1941
g68
(g89
g70
NtRp1942
(dp1943
g73
(dp1944
g93
g94
ssg82
g1938
sg75
(lp1945
g889
asbag68
(g89
g70
NtRp1946
(dp1947
g73
(dp1948
g100
g101
ssg82
g1938
sg75
(lp1949
S':'
asbag68
(g89
g70
NtRp1950
(dp1951
g73
(dp1952
sg82
g1938
sg75
(lp1953
g68
(g69
g70
NtRp1954
(dp1955
g73
(dp1956
g81
I4
ssg82
g1950
sg75
(lp1957
g68
(g77
g70
NtRp1958
(dp1959
g73
(dp1960
g81
I3
ssg82
Nsg75
(lp1961
sbasbasbasbag68
(g84
g70
NtRp1962
(dp1963
g73
(dp1964
sg82
g1893
sg75
(lp1965
g68
(g89
g70
NtRp1966
(dp1967
g73
(dp1968
g93
g94
ssg82
g1962
sg75
(lp1969
g914
asbag68
(g89
g70
NtRp1970
(dp1971
g73
(dp1972
g100
g101
ssg82
g1962
sg75
(lp1973
S':'
asbag68
(g89
g70
NtRp1974
(dp1975
g73
(dp1976
sg82
g1962
sg75
(lp1977
g68
(g69
g70
NtRp1978
(dp1979
g73
(dp1980
g81
I4
ssg82
g1974
sg75
(lp1981
S"<Values at 0xa854aec: {'verbose': False, 'ip': '127.0.0.1', 'shutdown_timeout': 5, 'taskbar': False, 'nocron': False, 'pid_filename': 'httpserver.pid', 'maxthreads': None, 'softcron': False, 'server_name': 'krutarth-Compaq-610', 'bpython': False, 'nogui': False, 'port': 8000, 'extcron': False, 'debuglevel': 30, 'test': None, 'folder': '/home/krutarth/Downloads/911india', 'config': '', 'import_models': False, 'winservice': '', 'shell': None, 'run': '', 'log_filename': 'httpserver.log', 'args': [''], 'socket_timeout': 5, 'ssl_ca_certificate': None, 'scheduler': None, 'profiler_filename': None, 'ssl_private_key': '', 'password': '<ask>', 'request_queue_size': 5, 'ssl_certificate': '', 'cronjob': False, 'numthreads': None, 'quiet': False, 'interfaces': None, 'minthreads': None, 'timeout': 10, 'plain': False, 'nobanner': False}>"
p1982
asbasbasbag68
(g84
g70
NtRp1983
(dp1984
g73
(dp1985
sg82
g1893
sg75
(lp1986
g68
(g89
g70
NtRp1987
(dp1988
g73
(dp1989
g93
g94
ssg82
g1983
sg75
(lp1990
g936
asbag68
(g89
g70
NtRp1991
(dp1992
g73
(dp1993
g100
g101
ssg82
g1983
sg75
(lp1994
S':'
asbag68
(g89
g70
NtRp1995
(dp1996
g73
(dp1997
sg82
g1983
sg75
(lp1998
g68
(g69
g70
NtRp1999
(dp2000
g73
(dp2001
g81
I4
ssg82
g1995
sg75
(lp2002
S'set([])'
p2003
asbasbasbag68
(g84
g70
NtRp2004
(dp2005
g73
(dp2006
sg82
g1893
sg75
(lp2007
g68
(g89
g70
NtRp2008
(dp2009
g73
(dp2010
g93
g94
ssg82
g2004
sg75
(lp2011
g958
asbag68
(g89
g70
NtRp2012
(dp2013
g73
(dp2014
g100
g101
ssg82
g2004
sg75
(lp2015
S':'
asbag68
(g89
g70
NtRp2016
(dp2017
g73
(dp2018
sg82
g2004
sg75
(lp2019
g68
(g69
g70
NtRp2020
(dp2021
g73
(dp2022
g81
I4
ssg82
g2016
sg75
(lp2023
g111
asbasbasbag68
(g84
g70
NtRp2024
(dp2025
g73
(dp2026
sg82
g1893
sg75
(lp2027
g68
(g89
g70
NtRp2028
(dp2029
g73
(dp2030
g93
g94
ssg82
g2024
sg75
(lp2031
g979
asbag68
(g89
g70
NtRp2032
(dp2033
g73
(dp2034
g100
g101
ssg82
g2024
sg75
(lp2035
S':'
asbag68
(g89
g70
NtRp2036
(dp2037
g73
(dp2038
sg82
g2024
sg75
(lp2039
g68
(g69
g70
NtRp2040
(dp2041
g73
(dp2042
g81
I4
ssg82
g2036
sg75
(lp2043
g992
asbasbasbag68
(g84
g70
NtRp2044
(dp2045
g73
(dp2046
sg82
g1893
sg75
(lp2047
g68
(g89
g70
NtRp2048
(dp2049
g73
(dp2050
g93
g94
ssg82
g2044
sg75
(lp2051
g1198
asbag68
(g89
g70
NtRp2052
(dp2053
g73
(dp2054
g100
g101
ssg82
g2044
sg75
(lp2055
S':'
asbag68
(g89
g70
NtRp2056
(dp2057
g73
(dp2058
sg82
g2044
sg75
(lp2059
g68
(g69
g70
NtRp2060
(dp2061
g73
(dp2062
g81
I4
ssg82
g2056
sg75
(lp2063
g111
asbasbasbag68
(g84
g70
NtRp2064
(dp2065
g73
(dp2066
sg82
g1893
sg75
(lp2067
g68
(g89
g70
NtRp2068
(dp2069
g73
(dp2070
g93
g94
ssg82
g2064
sg75
(lp2071
g1219
asbag68
(g89
g70
NtRp2072
(dp2073
g73
(dp2074
g100
g101
ssg82
g2064
sg75
(lp2075
S':'
asbag68
(g89
g70
NtRp2076
(dp2077
g73
(dp2078
sg82
g2064
sg75
(lp2079
g68
(g69
g70
NtRp2080
(dp2081
g73
(dp2082
g81
I4
ssg82
g2076
sg75
(lp2083
g111
asbasbasbag68
(g84
g70
NtRp2084
(dp2085
g73
(dp2086
sg82
g1893
sg75
(lp2087
g68
(g89
g70
NtRp2088
(dp2089
g73
(dp2090
g93
g94
ssg82
g2084
sg75
(lp2091
g1457
asbag68
(g89
g70
NtRp2092
(dp2093
g73
(dp2094
g100
g101
ssg82
g2084
sg75
(lp2095
S':'
asbag68
(g89
g70
NtRp2096
(dp2097
g73
(dp2098
sg82
g2084
sg75
(lp2099
g68
(g69
g70
NtRp2100
(dp2101
g73
(dp2102
g81
I4
ssg82
g2096
sg75
(lp2103
g1470
asbasbasbag68
(g84
g70
NtRp2104
(dp2105
g73
(dp2106
sg82
g1893
sg75
(lp2107
g68
(g89
g70
NtRp2108
(dp2109
g73
(dp2110
g93
g94
ssg82
g2104
sg75
(lp2111
g1500
asbag68
(g89
g70
NtRp2112
(dp2113
g73
(dp2114
g100
g101
ssg82
g2104
sg75
(lp2115
S':'
asbag68
(g89
g70
NtRp2116
(dp2117
g73
(dp2118
sg82
g2104
sg75
(lp2119
g68
(g69
g70
NtRp2120
(dp2121
g73
(dp2122
g81
I4
ssg82
g2116
sg75
(lp2123
g68
(g77
g70
NtRp2124
(dp2125
g73
(dp2126
g81
I3
ssg82
Nsg75
(lp2127
g68
(g84
g70
NtRp2128
(dp2129
g73
(dp2130
sg82
g2124
sg75
(lp2131
g68
(g89
g70
NtRp2132
(dp2133
g73
(dp2134
sg82
g2128
sg75
(lp2135
g68
(g69
g70
NtRp2136
(dp2137
g73
(dp2138
g81
I3
ssg82
g2132
sg75
(lp2139
S'1'
asbasbasbag68
(g84
g70
NtRp2140
(dp2141
g73
(dp2142
sg82
g2124
sg75
(lp2143
g68
(g89
g70
NtRp2144
(dp2145
g73
(dp2146
sg82
g2140
sg75
(lp2147
g68
(g69
g70
NtRp2148
(dp2149
g73
(dp2150
g81
I3
ssg82
g2144
sg75
(lp2151
S'99'
p2152
asbasbasbag68
(g84
g70
NtRp2153
(dp2154
g73
(dp2155
sg82
g2124
sg75
(lp2156
g68
(g89
g70
NtRp2157
(dp2158
g73
(dp2159
sg82
g2153
sg75
(lp2160
g68
(g69
g70
NtRp2161
(dp2162
g73
(dp2163
g81
I3
ssg82
g2157
sg75
(lp2164
S'7'
asbasbasbag68
(g84
g70
NtRp2165
(dp2166
g73
(dp2167
sg82
g2124
sg75
(lp2168
g68
(g89
g70
NtRp2169
(dp2170
g73
(dp2171
sg82
g2165
sg75
(lp2172
g68
(g69
g70
NtRp2173
(dp2174
g73
(dp2175
g81
I3
ssg82
g2169
sg75
(lp2176
S'datetime.datetime(2012, 3, 4, 22, 12, 8)'
p2177
asbasbasbag68
(g84
g70
NtRp2178
(dp2179
g73
(dp2180
sg82
g2124
sg75
(lp2181
g68
(g89
g70
NtRp2182
(dp2183
g73
(dp2184
sg82
g2178
sg75
(lp2185
g68
(g69
g70
NtRp2186
(dp2187
g73
(dp2188
g81
I3
ssg82
g2182
sg75
(lp2189
g1579
asbasbasbasbasbasbasbasbasbasbasbag68
(g84
g70
NtRp2190
(dp2191
g73
(dp2192
sg82
g78
sg75
(lp2193
g68
(g89
g70
NtRp2194
(dp2195
g73
(dp2196
g93
g94
ssg82
g2190
sg75
(lp2197
S'is_https'
p2198
asbag68
(g89
g70
NtRp2199
(dp2200
g73
(dp2201
g100
g101
ssg82
g2190
sg75
(lp2202
S':'
asbag68
(g89
g70
NtRp2203
(dp2204
g73
(dp2205
sg82
g2190
sg75
(lp2206
g68
(g69
g70
NtRp2207
(dp2208
g73
(dp2209
g81
I5
ssg82
g2203
sg75
(lp2210
g111
asbasbasbag68
(g84
g70
NtRp2211
(dp2212
g73
(dp2213
sg82
g78
sg75
(lp2214
g68
(g89
g70
NtRp2215
(dp2216
g73
(dp2217
g93
g94
ssg82
g2211
sg75
(lp2218
S'is_local'
p2219
asbag68
(g89
g70
NtRp2220
(dp2221
g73
(dp2222
g100
g101
ssg82
g2211
sg75
(lp2223
S':'
asbag68
(g89
g70
NtRp2224
(dp2225
g73
(dp2226
sg82
g2211
sg75
(lp2227
g68
(g69
g70
NtRp2228
(dp2229
g73
(dp2230
g81
I5
ssg82
g2224
sg75
(lp2231
g1688
asbasbasbag68
(g84
g70
NtRp2232
(dp2233
g73
(dp2234
sg82
g78
sg75
(lp2235
g68
(g89
g70
NtRp2236
(dp2237
g73
(dp2238
g93
g94
ssg82
g2232
sg75
(lp2239
S'is_restful'
p2240
asbag68
(g89
g70
NtRp2241
(dp2242
g73
(dp2243
g100
g101
ssg82
g2232
sg75
(lp2244
S':'
asbag68
(g89
g70
NtRp2245
(dp2246
g73
(dp2247
sg82
g2232
sg75
(lp2248
g68
(g69
g70
NtRp2249
(dp2250
g73
(dp2251
g81
I5
ssg82
g2245
sg75
(lp2252
g111
asbasbasbag68
(g84
g70
NtRp2253
(dp2254
g73
(dp2255
sg82
g78
sg75
(lp2256
g68
(g89
g70
NtRp2257
(dp2258
g73
(dp2259
g93
g94
ssg82
g2253
sg75
(lp2260
S'now'
p2261
asbag68
(g89
g70
NtRp2262
(dp2263
g73
(dp2264
g100
g101
ssg82
g2253
sg75
(lp2265
S':'
asbag68
(g89
g70
NtRp2266
(dp2267
g73
(dp2268
sg82
g2253
sg75
(lp2269
g68
(g69
g70
NtRp2270
(dp2271
g73
(dp2272
g81
I5
ssg82
g2266
sg75
(lp2273
S'datetime.datetime(2013, 7, 5, 2, 28, 48, 827949)'
p2274
asbasbasbag68
(g84
g70
NtRp2275
(dp2276
g73
(dp2277
sg82
g78
sg75
(lp2278
g68
(g89
g70
NtRp2279
(dp2280
g73
(dp2281
g93
g94
ssg82
g2275
sg75
(lp2282
S'post_vars'
p2283
asbag68
(g89
g70
NtRp2284
(dp2285
g73
(dp2286
g100
g101
ssg82
g2275
sg75
(lp2287
S':'
asbag68
(g89
g70
NtRp2288
(dp2289
g73
(dp2290
sg82
g2275
sg75
(lp2291
g68
(g69
g70
NtRp2292
(dp2293
g73
(dp2294
g81
I5
ssg82
g2288
sg75
(lp2295
g68
(g77
g70
NtRp2296
(dp2297
g73
(dp2298
g81
I4
ssg82
Nsg75
(lp2299
sbasbasbasbag68
(g84
g70
NtRp2300
(dp2301
g73
(dp2302
sg82
g78
sg75
(lp2303
g68
(g89
g70
NtRp2304
(dp2305
g73
(dp2306
g93
g94
ssg82
g2300
sg75
(lp2307
S'url'
p2308
asbag68
(g89
g70
NtRp2309
(dp2310
g73
(dp2311
g100
g101
ssg82
g2300
sg75
(lp2312
S':'
asbag68
(g89
g70
NtRp2313
(dp2314
g73
(dp2315
sg82
g2300
sg75
(lp2316
g68
(g69
g70
NtRp2317
(dp2318
g73
(dp2319
g81
I5
ssg82
g2313
sg75
(lp2320
S'/911_signin/default/events'
p2321
asbasbasbag68
(g84
g70
NtRp2322
(dp2323
g73
(dp2324
sg82
g78
sg75
(lp2325
g68
(g89
g70
NtRp2326
(dp2327
g73
(dp2328
g93
g94
ssg82
g2322
sg75
(lp2329
S'utcnow'
p2330
asbag68
(g89
g70
NtRp2331
(dp2332
g73
(dp2333
g100
g101
ssg82
g2322
sg75
(lp2334
S':'
asbag68
(g89
g70
NtRp2335
(dp2336
g73
(dp2337
sg82
g2322
sg75
(lp2338
g68
(g69
g70
NtRp2339
(dp2340
g73
(dp2341
g81
I5
ssg82
g2335
sg75
(lp2342
S'datetime.datetime(2013, 7, 4, 20, 58, 48, 827982)'
p2343
asbasbasbag68
(g84
g70
NtRp2344
(dp2345
g73
(dp2346
sg82
g78
sg75
(lp2347
g68
(g89
g70
NtRp2348
(dp2349
g73
(dp2350
g93
g94
ssg82
g2344
sg75
(lp2351
S'uuid'
p2352
asbag68
(g89
g70
NtRp2353
(dp2354
g73
(dp2355
g100
g101
ssg82
g2344
sg75
(lp2356
S':'
asbag68
(g89
g70
NtRp2357
(dp2358
g73
(dp2359
sg82
g2344
sg75
(lp2360
g68
(g69
g70
NtRp2361
(dp2362
g73
(dp2363
g81
I5
ssg82
g2357
sg75
(lp2364
S'911_signin/127.0.0.1.2013-07-05.02-28-48.d975c403-6644-421e-87e7-ec323acf82c0'
p2365
asbasbasbag68
(g84
g70
NtRp2366
(dp2367
g73
(dp2368
sg82
g78
sg75
(lp2369
g68
(g89
g70
NtRp2370
(dp2371
g73
(dp2372
g93
g94
ssg82
g2366
sg75
(lp2373
S'vars'
p2374
asbag68
(g89
g70
NtRp2375
(dp2376
g73
(dp2377
g100
g101
ssg82
g2366
sg75
(lp2378
S':'
asbag68
(g89
g70
NtRp2379
(dp2380
g73
(dp2381
sg82
g2366
sg75
(lp2382
g68
(g69
g70
NtRp2383
(dp2384
g73
(dp2385
g81
I5
ssg82
g2379
sg75
(lp2386
g68
(g77
g70
NtRp2387
(dp2388
g73
(dp2389
g81
I4
ssg82
Nsg75
(lp2390
sbasbasbasbag68
(g84
g70
NtRp2391
(dp2392
g73
(dp2393
sg82
g78
sg75
(lp2394
g68
(g89
g70
NtRp2395
(dp2396
g73
(dp2397
g93
g94
ssg82
g2391
sg75
(lp2398
S'wsgi'
p2399
asbag68
(g89
g70
NtRp2400
(dp2401
g73
(dp2402
g100
g101
ssg82
g2391
sg75
(lp2403
S':'
asbag68
(g89
g70
NtRp2404
(dp2405
g73
(dp2406
sg82
g2391
sg75
(lp2407
g68
(g69
g70
NtRp2408
(dp2409
g73
(dp2410
g81
I5
ssg82
g2404
sg75
(lp2411
g68
(g77
g70
NtRp2412
(dp2413
g73
(dp2414
g81
I4
ssg82
Nsg75
(lp2415
g68
(g84
g70
NtRp2416
(dp2417
g73
(dp2418
sg82
g2412
sg75
(lp2419
g68
(g89
g70
NtRp2420
(dp2421
g73
(dp2422
g93
g94
ssg82
g2416
sg75
(lp2423
S'environ'
p2424
asbag68
(g89
g70
NtRp2425
(dp2426
g73
(dp2427
g100
g101
ssg82
g2416
sg75
(lp2428
S':'
asbag68
(g89
g70
NtRp2429
(dp2430
g73
(dp2431
sg82
g2416
sg75
(lp2432
g68
(g69
g70
NtRp2433
(dp2434
g73
(dp2435
g81
I4
ssg82
g2429
sg75
(lp2436
g68
(g77
g70
NtRp2437
(dp2438
g73
(dp2439
g81
I3
ssg82
Nsg75
(lp2440
g68
(g84
g70
NtRp2441
(dp2442
g73
(dp2443
sg82
g2437
sg75
(lp2444
g68
(g89
g70
NtRp2445
(dp2446
g73
(dp2447
g93
g94
ssg82
g2441
sg75
(lp2448
S'HTTP_ACCEPT'
p2449
asbag68
(g89
g70
NtRp2450
(dp2451
g73
(dp2452
g100
g101
ssg82
g2441
sg75
(lp2453
S':'
asbag68
(g89
g70
NtRp2454
(dp2455
g73
(dp2456
sg82
g2441
sg75
(lp2457
g68
(g69
g70
NtRp2458
(dp2459
g73
(dp2460
g81
I3
ssg82
g2454
sg75
(lp2461
g1014
asbasbasbag68
(g84
g70
NtRp2462
(dp2463
g73
(dp2464
sg82
g2437
sg75
(lp2465
g68
(g89
g70
NtRp2466
(dp2467
g73
(dp2468
g93
g94
ssg82
g2462
sg75
(lp2469
S'HTTP_ACCEPT_ENCODING'
p2470
asbag68
(g89
g70
NtRp2471
(dp2472
g73
(dp2473
g100
g101
ssg82
g2462
sg75
(lp2474
S':'
asbag68
(g89
g70
NtRp2475
(dp2476
g73
(dp2477
sg82
g2462
sg75
(lp2478
g68
(g69
g70
NtRp2479
(dp2480
g73
(dp2481
g81
I3
ssg82
g2475
sg75
(lp2482
g1036
asbasbasbag68
(g84
g70
NtRp2483
(dp2484
g73
(dp2485
sg82
g2437
sg75
(lp2486
g68
(g89
g70
NtRp2487
(dp2488
g73
(dp2489
g93
g94
ssg82
g2483
sg75
(lp2490
S'HTTP_ACCEPT_LANGUAGE'
p2491
asbag68
(g89
g70
NtRp2492
(dp2493
g73
(dp2494
g100
g101
ssg82
g2483
sg75
(lp2495
S':'
asbag68
(g89
g70
NtRp2496
(dp2497
g73
(dp2498
sg82
g2483
sg75
(lp2499
g68
(g69
g70
NtRp2500
(dp2501
g73
(dp2502
g81
I3
ssg82
g2496
sg75
(lp2503
g1058
asbasbasbag68
(g84
g70
NtRp2504
(dp2505
g73
(dp2506
sg82
g2437
sg75
(lp2507
g68
(g89
g70
NtRp2508
(dp2509
g73
(dp2510
g93
g94
ssg82
g2504
sg75
(lp2511
S'HTTP_CONNECTION'
p2512
asbag68
(g89
g70
NtRp2513
(dp2514
g73
(dp2515
g100
g101
ssg82
g2504
sg75
(lp2516
S':'
asbag68
(g89
g70
NtRp2517
(dp2518
g73
(dp2519
sg82
g2504
sg75
(lp2520
g68
(g69
g70
NtRp2521
(dp2522
g73
(dp2523
g81
I3
ssg82
g2517
sg75
(lp2524
g1080
asbasbasbag68
(g84
g70
NtRp2525
(dp2526
g73
(dp2527
sg82
g2437
sg75
(lp2528
g68
(g89
g70
NtRp2529
(dp2530
g73
(dp2531
g93
g94
ssg82
g2525
sg75
(lp2532
S'HTTP_COOKIE'
p2533
asbag68
(g89
g70
NtRp2534
(dp2535
g73
(dp2536
g100
g101
ssg82
g2525
sg75
(lp2537
S':'
asbag68
(g89
g70
NtRp2538
(dp2539
g73
(dp2540
sg82
g2525
sg75
(lp2541
g68
(g69
g70
NtRp2542
(dp2543
g73
(dp2544
g81
I3
ssg82
g2538
sg75
(lp2545
g1102
asbasbasbag68
(g84
g70
NtRp2546
(dp2547
g73
(dp2548
sg82
g2437
sg75
(lp2549
g68
(g89
g70
NtRp2550
(dp2551
g73
(dp2552
g93
g94
ssg82
g2546
sg75
(lp2553
S'HTTP_DNT'
p2554
asbag68
(g89
g70
NtRp2555
(dp2556
g73
(dp2557
g100
g101
ssg82
g2546
sg75
(lp2558
S':'
asbag68
(g89
g70
NtRp2559
(dp2560
g73
(dp2561
sg82
g2546
sg75
(lp2562
g68
(g69
g70
NtRp2563
(dp2564
g73
(dp2565
g81
I3
ssg82
g2559
sg75
(lp2566
S'1'
asbasbasbag68
(g84
g70
NtRp2567
(dp2568
g73
(dp2569
sg82
g2437
sg75
(lp2570
g68
(g89
g70
NtRp2571
(dp2572
g73
(dp2573
g93
g94
ssg82
g2567
sg75
(lp2574
S'HTTP_HOST'
p2575
asbag68
(g89
g70
NtRp2576
(dp2577
g73
(dp2578
g100
g101
ssg82
g2567
sg75
(lp2579
S':'
asbag68
(g89
g70
NtRp2580
(dp2581
g73
(dp2582
sg82
g2567
sg75
(lp2583
g68
(g69
g70
NtRp2584
(dp2585
g73
(dp2586
g81
I3
ssg82
g2580
sg75
(lp2587
g1145
asbasbasbag68
(g84
g70
NtRp2588
(dp2589
g73
(dp2590
sg82
g2437
sg75
(lp2591
g68
(g89
g70
NtRp2592
(dp2593
g73
(dp2594
g93
g94
ssg82
g2588
sg75
(lp2595
S'HTTP_REFERER'
p2596
asbag68
(g89
g70
NtRp2597
(dp2598
g73
(dp2599
g100
g101
ssg82
g2588
sg75
(lp2600
S':'
asbag68
(g89
g70
NtRp2601
(dp2602
g73
(dp2603
sg82
g2588
sg75
(lp2604
g68
(g69
g70
NtRp2605
(dp2606
g73
(dp2607
g81
I3
ssg82
g2601
sg75
(lp2608
g1167
asbasbasbag68
(g84
g70
NtRp2609
(dp2610
g73
(dp2611
sg82
g2437
sg75
(lp2612
g68
(g89
g70
NtRp2613
(dp2614
g73
(dp2615
g93
g94
ssg82
g2609
sg75
(lp2616
S'HTTP_USER_AGENT'
p2617
asbag68
(g89
g70
NtRp2618
(dp2619
g73
(dp2620
g100
g101
ssg82
g2609
sg75
(lp2621
S':'
asbag68
(g89
g70
NtRp2622
(dp2623
g73
(dp2624
sg82
g2609
sg75
(lp2625
g68
(g69
g70
NtRp2626
(dp2627
g73
(dp2628
g81
I3
ssg82
g2622
sg75
(lp2629
g1189
asbasbasbag68
(g84
g70
NtRp2630
(dp2631
g73
(dp2632
sg82
g2437
sg75
(lp2633
g68
(g89
g70
NtRp2634
(dp2635
g73
(dp2636
g93
g94
ssg82
g2630
sg75
(lp2637
S'PATH_INFO'
p2638
asbag68
(g89
g70
NtRp2639
(dp2640
g73
(dp2641
g100
g101
ssg82
g2630
sg75
(lp2642
S':'
asbag68
(g89
g70
NtRp2643
(dp2644
g73
(dp2645
sg82
g2630
sg75
(lp2646
g68
(g69
g70
NtRp2647
(dp2648
g73
(dp2649
g81
I3
ssg82
g2643
sg75
(lp2650
g1253
asbasbasbag68
(g84
g70
NtRp2651
(dp2652
g73
(dp2653
sg82
g2437
sg75
(lp2654
g68
(g89
g70
NtRp2655
(dp2656
g73
(dp2657
g93
g94
ssg82
g2651
sg75
(lp2658
S'QUERY_STRING'
p2659
asbag68
(g89
g70
NtRp2660
(dp2661
g73
(dp2662
g100
g101
ssg82
g2651
sg75
(lp2663
S':'
asbag68
(g89
g70
NtRp2664
(dp2665
g73
(dp2666
sg82
g2651
sg75
(lp2667
g68
(g69
g70
NtRp2668
(dp2669
g73
(dp2670
g81
I3
ssg82
g2664
sg75
(lp2671
S''
asbasbasbag68
(g84
g70
NtRp2672
(dp2673
g73
(dp2674
sg82
g2437
sg75
(lp2675
g68
(g89
g70
NtRp2676
(dp2677
g73
(dp2678
g93
g94
ssg82
g2672
sg75
(lp2679
S'REMOTE_ADDR'
p2680
asbag68
(g89
g70
NtRp2681
(dp2682
g73
(dp2683
g100
g101
ssg82
g2672
sg75
(lp2684
S':'
asbag68
(g89
g70
NtRp2685
(dp2686
g73
(dp2687
sg82
g2672
sg75
(lp2688
g68
(g69
g70
NtRp2689
(dp2690
g73
(dp2691
g81
I3
ssg82
g2685
sg75
(lp2692
g201
asbasbasbag68
(g84
g70
NtRp2693
(dp2694
g73
(dp2695
sg82
g2437
sg75
(lp2696
g68
(g89
g70
NtRp2697
(dp2698
g73
(dp2699
g93
g94
ssg82
g2693
sg75
(lp2700
S'REMOTE_PORT'
p2701
asbag68
(g89
g70
NtRp2702
(dp2703
g73
(dp2704
g100
g101
ssg82
g2693
sg75
(lp2705
S':'
asbag68
(g89
g70
NtRp2706
(dp2707
g73
(dp2708
sg82
g2693
sg75
(lp2709
g68
(g69
g70
NtRp2710
(dp2711
g73
(dp2712
g81
I3
ssg82
g2706
sg75
(lp2713
g1317
asbasbasbag68
(g84
g70
NtRp2714
(dp2715
g73
(dp2716
sg82
g2437
sg75
(lp2717
g68
(g89
g70
NtRp2718
(dp2719
g73
(dp2720
g93
g94
ssg82
g2714
sg75
(lp2721
S'REQUEST_METHOD'
p2722
asbag68
(g89
g70
NtRp2723
(dp2724
g73
(dp2725
g100
g101
ssg82
g2714
sg75
(lp2726
S':'
asbag68
(g89
g70
NtRp2727
(dp2728
g73
(dp2729
sg82
g2714
sg75
(lp2730
g68
(g69
g70
NtRp2731
(dp2732
g73
(dp2733
g81
I3
ssg82
g2727
sg75
(lp2734
g1339
asbasbasbag68
(g84
g70
NtRp2735
(dp2736
g73
(dp2737
sg82
g2437
sg75
(lp2738
g68
(g89
g70
NtRp2739
(dp2740
g73
(dp2741
g93
g94
ssg82
g2735
sg75
(lp2742
S'SCRIPT_NAME'
p2743
asbag68
(g89
g70
NtRp2744
(dp2745
g73
(dp2746
g100
g101
ssg82
g2735
sg75
(lp2747
S':'
asbag68
(g89
g70
NtRp2748
(dp2749
g73
(dp2750
sg82
g2735
sg75
(lp2751
g68
(g69
g70
NtRp2752
(dp2753
g73
(dp2754
g81
I3
ssg82
g2748
sg75
(lp2755
S''
asbasbasbag68
(g84
g70
NtRp2756
(dp2757
g73
(dp2758
sg82
g2437
sg75
(lp2759
g68
(g89
g70
NtRp2760
(dp2761
g73
(dp2762
g93
g94
ssg82
g2756
sg75
(lp2763
S'SERVER_NAME'
p2764
asbag68
(g89
g70
NtRp2765
(dp2766
g73
(dp2767
g100
g101
ssg82
g2756
sg75
(lp2768
S':'
asbag68
(g89
g70
NtRp2769
(dp2770
g73
(dp2771
sg82
g2756
sg75
(lp2772
g68
(g69
g70
NtRp2773
(dp2774
g73
(dp2775
g81
I3
ssg82
g2769
sg75
(lp2776
g1382
asbasbasbag68
(g84
g70
NtRp2777
(dp2778
g73
(dp2779
sg82
g2437
sg75
(lp2780
g68
(g89
g70
NtRp2781
(dp2782
g73
(dp2783
g93
g94
ssg82
g2777
sg75
(lp2784
S'SERVER_PORT'
p2785
asbag68
(g89
g70
NtRp2786
(dp2787
g73
(dp2788
g100
g101
ssg82
g2777
sg75
(lp2789
S':'
asbag68
(g89
g70
NtRp2790
(dp2791
g73
(dp2792
sg82
g2777
sg75
(lp2793
g68
(g69
g70
NtRp2794
(dp2795
g73
(dp2796
g81
I3
ssg82
g2790
sg75
(lp2797
g1404
asbasbasbag68
(g84
g70
NtRp2798
(dp2799
g73
(dp2800
sg82
g2437
sg75
(lp2801
g68
(g89
g70
NtRp2802
(dp2803
g73
(dp2804
g93
g94
ssg82
g2798
sg75
(lp2805
S'SERVER_PROTOCOL'
p2806
asbag68
(g89
g70
NtRp2807
(dp2808
g73
(dp2809
g100
g101
ssg82
g2798
sg75
(lp2810
S':'
asbag68
(g89
g70
NtRp2811
(dp2812
g73
(dp2813
sg82
g2798
sg75
(lp2814
g68
(g69
g70
NtRp2815
(dp2816
g73
(dp2817
g81
I3
ssg82
g2811
sg75
(lp2818
g1426
asbasbasbag68
(g84
g70
NtRp2819
(dp2820
g73
(dp2821
sg82
g2437
sg75
(lp2822
g68
(g89
g70
NtRp2823
(dp2824
g73
(dp2825
g93
g94
ssg82
g2819
sg75
(lp2826
S'SERVER_SOFTWARE'
p2827
asbag68
(g89
g70
NtRp2828
(dp2829
g73
(dp2830
g100
g101
ssg82
g2819
sg75
(lp2831
S':'
asbag68
(g89
g70
NtRp2832
(dp2833
g73
(dp2834
sg82
g2819
sg75
(lp2835
g68
(g69
g70
NtRp2836
(dp2837
g73
(dp2838
g81
I3
ssg82
g2832
sg75
(lp2839
g1448
asbasbasbag68
(g84
g70
NtRp2840
(dp2841
g73
(dp2842
sg82
g2437
sg75
(lp2843
g68
(g89
g70
NtRp2844
(dp2845
g73
(dp2846
g93
g94
ssg82
g2840
sg75
(lp2847
S'wsgi.errors'
p2848
asbag68
(g89
g70
NtRp2849
(dp2850
g73
(dp2851
g100
g101
ssg82
g2840
sg75
(lp2852
S':'
asbag68
(g89
g70
NtRp2853
(dp2854
g73
(dp2855
sg82
g2840
sg75
(lp2856
g68
(g69
g70
NtRp2857
(dp2858
g73
(dp2859
g81
I3
ssg82
g2853
sg75
(lp2860
S"<open file '<stderr>', mode 'w' at 0xb75190d0>"
p2861
asbasbasbag68
(g84
g70
NtRp2862
(dp2863
g73
(dp2864
sg82
g2437
sg75
(lp2865
g68
(g89
g70
NtRp2866
(dp2867
g73
(dp2868
g93
g94
ssg82
g2862
sg75
(lp2869
S'wsgi.file_wrapper'
p2870
asbag68
(g89
g70
NtRp2871
(dp2872
g73
(dp2873
g100
g101
ssg82
g2862
sg75
(lp2874
S':'
asbag68
(g89
g70
NtRp2875
(dp2876
g73
(dp2877
sg82
g2862
sg75
(lp2878
g68
(g69
g70
NtRp2879
(dp2880
g73
(dp2881
g81
I3
ssg82
g2875
sg75
(lp2882
S'<class wsgiref.util.FileWrapper at 0xb6a4f1dc>'
p2883
asbasbasbag68
(g84
g70
NtRp2884
(dp2885
g73
(dp2886
sg82
g2437
sg75
(lp2887
g68
(g89
g70
NtRp2888
(dp2889
g73
(dp2890
g93
g94
ssg82
g2884
sg75
(lp2891
S'wsgi.input'
p2892
asbag68
(g89
g70
NtRp2893
(dp2894
g73
(dp2895
g100
g101
ssg82
g2884
sg75
(lp2896
S':'
asbag68
(g89
g70
NtRp2897
(dp2898
g73
(dp2899
sg82
g2884
sg75
(lp2900
g68
(g69
g70
NtRp2901
(dp2902
g73
(dp2903
g81
I3
ssg82
g2897
sg75
(lp2904
S'<cStringIO.StringO object at 0xad461320>'
p2905
asbasbasbag68
(g84
g70
NtRp2906
(dp2907
g73
(dp2908
sg82
g2437
sg75
(lp2909
g68
(g89
g70
NtRp2910
(dp2911
g73
(dp2912
g93
g94
ssg82
g2906
sg75
(lp2913
S'wsgi.multiprocess'
p2914
asbag68
(g89
g70
NtRp2915
(dp2916
g73
(dp2917
g100
g101
ssg82
g2906
sg75
(lp2918
S':'
asbag68
(g89
g70
NtRp2919
(dp2920
g73
(dp2921
sg82
g2906
sg75
(lp2922
g68
(g69
g70
NtRp2923
(dp2924
g73
(dp2925
g81
I3
ssg82
g2919
sg75
(lp2926
g111
asbasbasbag68
(g84
g70
NtRp2927
(dp2928
g73
(dp2929
sg82
g2437
sg75
(lp2930
g68
(g89
g70
NtRp2931
(dp2932
g73
(dp2933
g93
g94
ssg82
g2927
sg75
(lp2934
S'wsgi.multithread'
p2935
asbag68
(g89
g70
NtRp2936
(dp2937
g73
(dp2938
g100
g101
ssg82
g2927
sg75
(lp2939
S':'
asbag68
(g89
g70
NtRp2940
(dp2941
g73
(dp2942
sg82
g2927
sg75
(lp2943
g68
(g69
g70
NtRp2944
(dp2945
g73
(dp2946
g81
I3
ssg82
g2940
sg75
(lp2947
g1688
asbasbasbag68
(g84
g70
NtRp2948
(dp2949
g73
(dp2950
sg82
g2437
sg75
(lp2951
g68
(g89
g70
NtRp2952
(dp2953
g73
(dp2954
g93
g94
ssg82
g2948
sg75
(lp2955
S'wsgi.run_once'
p2956
asbag68
(g89
g70
NtRp2957
(dp2958
g73
(dp2959
g100
g101
ssg82
g2948
sg75
(lp2960
S':'
asbag68
(g89
g70
NtRp2961
(dp2962
g73
(dp2963
sg82
g2948
sg75
(lp2964
g68
(g69
g70
NtRp2965
(dp2966
g73
(dp2967
g81
I3
ssg82
g2961
sg75
(lp2968
g111
asbasbasbag68
(g84
g70
NtRp2969
(dp2970
g73
(dp2971
sg82
g2437
sg75
(lp2972
g68
(g89
g70
NtRp2973
(dp2974
g73
(dp2975
g93
g94
ssg82
g2969
sg75
(lp2976
S'wsgi.url_scheme'
p2977
asbag68
(g89
g70
NtRp2978
(dp2979
g73
(dp2980
g100
g101
ssg82
g2969
sg75
(lp2981
S':'
asbag68
(g89
g70
NtRp2982
(dp2983
g73
(dp2984
sg82
g2969
sg75
(lp2985
g68
(g69
g70
NtRp2986
(dp2987
g73
(dp2988
g81
I3
ssg82
g2982
sg75
(lp2989
g1731
asbasbasbag68
(g84
g70
NtRp2990
(dp2991
g73
(dp2992
sg82
g2437
sg75
(lp2993
g68
(g89
g70
NtRp2994
(dp2995
g73
(dp2996
g93
g94
ssg82
g2990
sg75
(lp2997
S'wsgi.version'
p2998
asbag68
(g89
g70
NtRp2999
(dp3000
g73
(dp3001
g100
g101
ssg82
g2990
sg75
(lp3002
S':'
asbag68
(g89
g70
NtRp3003
(dp3004
g73
(dp3005
sg82
g2990
sg75
(lp3006
g68
(g69
g70
NtRp3007
(dp3008
g73
(dp3009
g81
I3
ssg82
g3003
sg75
(lp3010
S'1'
asbasbasbasbasbasbasbasbasbasbasbasbasbsS'frames'
p3011
(lp3012
(dp3013
S'file'
p3014
S'/home/krutarth/Downloads/911india/gluon/restricted.py'
p3015
sS'dump'
p3016
(dp3017
S'code'
p3018
S"'import datetime\\n# -*- coding: utf-8 -*-\\n# this f...lect()\\n\\n\\nresponse._vars=response._caller(events)\\n'"
p3019
sS'layer'
p3020
S"'/home/krutarth/Downloads/911india/applications/911_signin/controllers/default.py'"
p3021
sS'global compile2'
p3022
S'<function compile2>'
p3023
sS'ccode'
p3024
S'undefined'
p3025
ssS'lnum'
p3026
I204
sS'lines'
p3027
(dp3028
I199
S"    environment['__name__'] = '__restricted__'"
p3029
sI200
S'    try:'
p3030
sI201
S'        if type(code) == types.CodeType:'
p3031
sI202
S'            ccode = code'
p3032
sI203
S'        else:'
p3033
sI204
S'            ccode = compile2(code,layer)'
p3034
sI205
S'        exec ccode in environment'
p3035
sI206
S'    except HTTP:'
p3036
sI207
S'        raise'
p3037
sI208
S'    except RestrictedError:'
p3038
ssS'call'
p3039
S"(code='import datetime\\n# -*- coding: utf-8 -*-\\n# this f...lect()\\n\\n\\nresponse._vars=response._caller(events)\\n', environment={'A': <class 'gluon.html.A'>, 'Auth': <class 'gluon.tools.Auth'>, 'B': <class 'gluon.html.B'>, 'BEAUTIFY': <class 'gluon.html.BEAUTIFY'>, 'BODY': <class 'gluon.html.BODY'>, 'BR': <class 'gluon.html.BR'>, 'BUTTON': <class 'gluon.html.BUTTON'>, 'CAT': <class 'gluon.html.CAT'>, 'CENTER': <class 'gluon.html.CENTER'>, 'CLEANUP': <class 'gluon.validators.CLEANUP'>, ...}, layer='/home/krutarth/Downloads/911india/applications/911_signin/controllers/default.py')"
p3040
sS'func'
p3041
S'restricted'
p3042
sa(dp3043
g3014
S'/home/krutarth/Downloads/911india/gluon/restricted.py'
p3044
sg3016
(dp3045
S'builtincompile'
p3046
S'<built-in function compile>'
p3047
sS'code'
p3048
S"'import datetime\\n# -*- coding: utf-8 -*-\\n# this f...lect()\\n\\n\\nresponse._vars=response._caller(events)\\n'"
p3049
sS'code.rstrip'
p3050
S'<built-in method rstrip of str object>'
p3051
sS').replace'
p3052
g3025
sS'layer'
p3053
S"'/home/krutarth/Downloads/911india/applications/911_signin/controllers/default.py'"
p3054
ssg3026
I189
sg3027
(dp3055
I192
S'    """'
p3056
sI193
S'    runs code in environment and returns the output. if an exception occurs'
p3057
sI184
S''
sI185
S'def compile2(code,layer):'
p3058
sI186
S'    """'
p3059
sI187
S"    The +'\\n' is necessary else compile fails when code ends in a comment."
p3060
sI188
S'    """'
p3061
sI189
S"    return compile(code.rstrip().replace('\\r\\n','\\n')+'\\n', layer, 'exec')"
p3062
sI190
S''
sI191
S"def restricted(code, environment=None, layer='Unknown'):"
p3063
ssg3039
S"(code='import datetime\\n# -*- coding: utf-8 -*-\\n# this f...lect()\\n\\n\\nresponse._vars=response._caller(events)\\n', layer='/home/krutarth/Downloads/911india/applications/911_signin/controllers/default.py')"
p3064
sg3041
S'compile2'
p3065
sasS'pyver'
p3066
S'Python 2.7.4: /usr/bin/python'
p3067
sS'session'
p3068
g68
(g69
g70
NtRp3069
(dp3070
g73
(dp3071
sg75
(lp3072
g68
(g77
g70
NtRp3073
(dp3074
g73
(dp3075
g81
I5
ssg82
Nsg75
(lp3076
g68
(g84
g70
NtRp3077
(dp3078
g73
(dp3079
sg82
g3073
sg75
(lp3080
g68
(g89
g70
NtRp3081
(dp3082
g73
(dp3083
g93
g94
ssg82
g3077
sg75
(lp3084
S'auth'
p3085
asbag68
(g89
g70
NtRp3086
(dp3087
g73
(dp3088
g100
g101
ssg82
g3077
sg75
(lp3089
S':'
asbag68
(g89
g70
NtRp3090
(dp3091
g73
(dp3092
sg82
g3077
sg75
(lp3093
g68
(g69
g70
NtRp3094
(dp3095
g73
(dp3096
g81
I5
ssg82
g3090
sg75
(lp3097
g68
(g77
g70
NtRp3098
(dp3099
g73
(dp3100
g81
I4
ssg82
Nsg75
(lp3101
g68
(g84
g70
NtRp3102
(dp3103
g73
(dp3104
sg82
g3098
sg75
(lp3105
g68
(g89
g70
NtRp3106
(dp3107
g73
(dp3108
g93
g94
ssg82
g3102
sg75
(lp3109
S'expiration'
p3110
asbag68
(g89
g70
NtRp3111
(dp3112
g73
(dp3113
g100
g101
ssg82
g3102
sg75
(lp3114
S':'
asbag68
(g89
g70
NtRp3115
(dp3116
g73
(dp3117
sg82
g3102
sg75
(lp3118
g68
(g69
g70
NtRp3119
(dp3120
g73
(dp3121
g81
I4
ssg82
g3115
sg75
(lp3122
S'2592000'
p3123
asbasbasbag68
(g84
g70
NtRp3124
(dp3125
g73
(dp3126
sg82
g3098
sg75
(lp3127
g68
(g89
g70
NtRp3128
(dp3129
g73
(dp3130
g93
g94
ssg82
g3124
sg75
(lp3131
S'hmac_key'
p3132
asbag68
(g89
g70
NtRp3133
(dp3134
g73
(dp3135
g100
g101
ssg82
g3124
sg75
(lp3136
S':'
asbag68
(g89
g70
NtRp3137
(dp3138
g73
(dp3139
sg82
g3124
sg75
(lp3140
g68
(g69
g70
NtRp3141
(dp3142
g73
(dp3143
g81
I4
ssg82
g3137
sg75
(lp3144
S'ca2923ef-1665-4ff1-8955-e232df5ddde6'
p3145
asbasbasbag68
(g84
g70
NtRp3146
(dp3147
g73
(dp3148
sg82
g3098
sg75
(lp3149
g68
(g89
g70
NtRp3150
(dp3151
g73
(dp3152
g93
g94
ssg82
g3146
sg75
(lp3153
S'last_visit'
p3154
asbag68
(g89
g70
NtRp3155
(dp3156
g73
(dp3157
g100
g101
ssg82
g3146
sg75
(lp3158
S':'
asbag68
(g89
g70
NtRp3159
(dp3160
g73
(dp3161
sg82
g3146
sg75
(lp3162
g68
(g69
g70
NtRp3163
(dp3164
g73
(dp3165
g81
I4
ssg82
g3159
sg75
(lp3166
S'datetime.datetime(2013, 7, 5, 1, 18, 4, 709638)'
p3167
asbasbasbag68
(g84
g70
NtRp3168
(dp3169
g73
(dp3170
sg82
g3098
sg75
(lp3171
g68
(g89
g70
NtRp3172
(dp3173
g73
(dp3174
g93
g94
ssg82
g3168
sg75
(lp3175
S'remember'
p3176
asbag68
(g89
g70
NtRp3177
(dp3178
g73
(dp3179
g100
g101
ssg82
g3168
sg75
(lp3180
S':'
asbag68
(g89
g70
NtRp3181
(dp3182
g73
(dp3183
sg82
g3168
sg75
(lp3184
g68
(g69
g70
NtRp3185
(dp3186
g73
(dp3187
g81
I4
ssg82
g3181
sg75
(lp3188
g1688
asbasbasbag68
(g84
g70
NtRp3189
(dp3190
g73
(dp3191
sg82
g3098
sg75
(lp3192
g68
(g89
g70
NtRp3193
(dp3194
g73
(dp3195
g93
g94
ssg82
g3189
sg75
(lp3196
S'user'
p3197
asbag68
(g89
g70
NtRp3198
(dp3199
g73
(dp3200
g100
g101
ssg82
g3189
sg75
(lp3201
S':'
asbag68
(g89
g70
NtRp3202
(dp3203
g73
(dp3204
sg82
g3189
sg75
(lp3205
g68
(g69
g70
NtRp3206
(dp3207
g73
(dp3208
g81
I4
ssg82
g3202
sg75
(lp3209
g68
(g77
g70
NtRp3210
(dp3211
g73
(dp3212
g81
I3
ssg82
Nsg75
(lp3213
g68
(g84
g70
NtRp3214
(dp3215
g73
(dp3216
sg82
g3210
sg75
(lp3217
g68
(g89
g70
NtRp3218
(dp3219
g73
(dp3220
g93
g94
ssg82
g3214
sg75
(lp3221
S'email'
p3222
asbag68
(g89
g70
NtRp3223
(dp3224
g73
(dp3225
g100
g101
ssg82
g3214
sg75
(lp3226
S':'
asbag68
(g89
g70
NtRp3227
(dp3228
g73
(dp3229
sg82
g3214
sg75
(lp3230
g68
(g69
g70
NtRp3231
(dp3232
g73
(dp3233
g81
I3
ssg82
g3227
sg75
(lp3234
S'krutarthkp800@gmail.com'
p3235
asbasbasbag68
(g84
g70
NtRp3236
(dp3237
g73
(dp3238
sg82
g3210
sg75
(lp3239
g68
(g89
g70
NtRp3240
(dp3241
g73
(dp3242
g93
g94
ssg82
g3236
sg75
(lp3243
S'first_name'
p3244
asbag68
(g89
g70
NtRp3245
(dp3246
g73
(dp3247
g100
g101
ssg82
g3236
sg75
(lp3248
S':'
asbag68
(g89
g70
NtRp3249
(dp3250
g73
(dp3251
sg82
g3236
sg75
(lp3252
g68
(g69
g70
NtRp3253
(dp3254
g73
(dp3255
g81
I3
ssg82
g3249
sg75
(lp3256
S'Krutarth'
p3257
asbasbasbag68
(g84
g70
NtRp3258
(dp3259
g73
(dp3260
sg82
g3210
sg75
(lp3261
g68
(g89
g70
NtRp3262
(dp3263
g73
(dp3264
g93
g94
ssg82
g3258
sg75
(lp3265
S'id'
p3266
asbag68
(g89
g70
NtRp3267
(dp3268
g73
(dp3269
g100
g101
ssg82
g3258
sg75
(lp3270
S':'
asbag68
(g89
g70
NtRp3271
(dp3272
g73
(dp3273
sg82
g3258
sg75
(lp3274
g68
(g69
g70
NtRp3275
(dp3276
g73
(dp3277
g81
I3
ssg82
g3271
sg75
(lp3278
S'15'
p3279
asbasbasbag68
(g84
g70
NtRp3280
(dp3281
g73
(dp3282
sg82
g3210
sg75
(lp3283
g68
(g89
g70
NtRp3284
(dp3285
g73
(dp3286
g93
g94
ssg82
g3280
sg75
(lp3287
S'last_name'
p3288
asbag68
(g89
g70
NtRp3289
(dp3290
g73
(dp3291
g100
g101
ssg82
g3280
sg75
(lp3292
S':'
asbag68
(g89
g70
NtRp3293
(dp3294
g73
(dp3295
sg82
g3280
sg75
(lp3296
g68
(g69
g70
NtRp3297
(dp3298
g73
(dp3299
g81
I3
ssg82
g3293
sg75
(lp3300
S'Patel'
p3301
asbasbasbag68
(g84
g70
NtRp3302
(dp3303
g73
(dp3304
sg82
g3210
sg75
(lp3305
g68
(g89
g70
NtRp3306
(dp3307
g73
(dp3308
g93
g94
ssg82
g3302
sg75
(lp3309
S'password'
p3310
asbag68
(g89
g70
NtRp3311
(dp3312
g73
(dp3313
g100
g101
ssg82
g3302
sg75
(lp3314
S':'
asbag68
(g89
g70
NtRp3315
(dp3316
g73
(dp3317
sg82
g3302
sg75
(lp3318
g68
(g69
g70
NtRp3319
(dp3320
g73
(dp3321
g81
I3
ssg82
g3315
sg75
(lp3322
S'009310309c51c03cf474b4fac65521e3b03b5bbdf643e606d54a1b6644c0cee69bed84e134408efa1dc8562b96303a8eeecf11cc0621efd5d1388afff98252ac'
p3323
asbasbasbag68
(g84
g70
NtRp3324
(dp3325
g73
(dp3326
sg82
g3210
sg75
(lp3327
g68
(g89
g70
NtRp3328
(dp3329
g73
(dp3330
g93
g94
ssg82
g3324
sg75
(lp3331
S'registration_key'
p3332
asbag68
(g89
g70
NtRp3333
(dp3334
g73
(dp3335
g100
g101
ssg82
g3324
sg75
(lp3336
S':'
asbag68
(g89
g70
NtRp3337
(dp3338
g73
(dp3339
sg82
g3324
sg75
(lp3340
g68
(g69
g70
NtRp3341
(dp3342
g73
(dp3343
g81
I3
ssg82
g3337
sg75
(lp3344
S''
asbasbasbag68
(g84
g70
NtRp3345
(dp3346
g73
(dp3347
sg82
g3210
sg75
(lp3348
g68
(g89
g70
NtRp3349
(dp3350
g73
(dp3351
g93
g94
ssg82
g3345
sg75
(lp3352
S'unread_ctr'
p3353
asbag68
(g89
g70
NtRp3354
(dp3355
g73
(dp3356
g100
g101
ssg82
g3345
sg75
(lp3357
S':'
asbag68
(g89
g70
NtRp3358
(dp3359
g73
(dp3360
sg82
g3345
sg75
(lp3361
g68
(g69
g70
NtRp3362
(dp3363
g73
(dp3364
g81
I3
ssg82
g3358
sg75
(lp3365
S'0'
asbasbasbag68
(g84
g70
NtRp3366
(dp3367
g73
(dp3368
sg82
g3210
sg75
(lp3369
g68
(g89
g70
NtRp3370
(dp3371
g73
(dp3372
g93
g94
ssg82
g3366
sg75
(lp3373
S'username'
p3374
asbag68
(g89
g70
NtRp3375
(dp3376
g73
(dp3377
g100
g101
ssg82
g3366
sg75
(lp3378
S':'
asbag68
(g89
g70
NtRp3379
(dp3380
g73
(dp3381
sg82
g3366
sg75
(lp3382
g68
(g69
g70
NtRp3383
(dp3384
g73
(dp3385
g81
I3
ssg82
g3379
sg75
(lp3386
S'krutarth_iiit'
p3387
asbasbasbasbasbasbasbag68
(g84
g70
NtRp3388
(dp3389
g73
(dp3390
sg82
g3098
sg75
(lp3391
g68
(g89
g70
NtRp3392
(dp3393
g73
(dp3394
g93
g94
ssg82
g3388
sg75
(lp3395
S'user_groups'
p3396
asbag68
(g89
g70
NtRp3397
(dp3398
g73
(dp3399
g100
g101
ssg82
g3388
sg75
(lp3400
S':'
asbag68
(g89
g70
NtRp3401
(dp3402
g73
(dp3403
sg82
g3388
sg75
(lp3404
g68
(g69
g70
NtRp3405
(dp3406
g73
(dp3407
g81
I4
ssg82
g3401
sg75
(lp3408
g68
(g77
g70
NtRp3409
(dp3410
g73
(dp3411
g81
I3
ssg82
Nsg75
(lp3412
g68
(g84
g70
NtRp3413
(dp3414
g73
(dp3415
sg82
g3409
sg75
(lp3416
g68
(g89
g70
NtRp3417
(dp3418
g73
(dp3419
g93
g94
ssg82
g3413
sg75
(lp3420
S'16'
p3421
asbag68
(g89
g70
NtRp3422
(dp3423
g73
(dp3424
g100
g101
ssg82
g3413
sg75
(lp3425
S':'
asbag68
(g89
g70
NtRp3426
(dp3427
g73
(dp3428
sg82
g3413
sg75
(lp3429
g68
(g69
g70
NtRp3430
(dp3431
g73
(dp3432
g81
I3
ssg82
g3426
sg75
(lp3433
S'user_15'
p3434
asbasbasbasbasbasbasbasbasbasbasbasbasbsS'etype'
p3435
S"<type 'exceptions.IndentationError'>"
p3436
sS'date'
p3437
S'Fri Jul  5 02:28:48 2013'
p3438
sS'response'
p3439
g68
(g69
g70
NtRp3440
(dp3441
g73
(dp3442
sg75
(lp3443
g68
(g77
g70
NtRp3444
(dp3445
g73
(dp3446
g81
I5
ssg82
Nsg75
(lp3447
g68
(g84
g70
NtRp3448
(dp3449
g73
(dp3450
sg82
g3444
sg75
(lp3451
g68
(g89
g70
NtRp3452
(dp3453
g73
(dp3454
g93
g94
ssg82
g3448
sg75
(lp3455
g166
asbag68
(g89
g70
NtRp3456
(dp3457
g73
(dp3458
g100
g101
ssg82
g3448
sg75
(lp3459
S':'
asbag68
(g89
g70
NtRp3460
(dp3461
g73
(dp3462
sg82
g3448
sg75
(lp3463
g68
(g69
g70
NtRp3464
(dp3465
g73
(dp3466
g81
I5
ssg82
g3460
sg75
(lp3467
S'<cStringIO.StringO object at 0xa7ae880>'
p3468
asbasbasbag68
(g84
g70
NtRp3469
(dp3470
g73
(dp3471
sg82
g3444
sg75
(lp3472
g68
(g89
g70
NtRp3473
(dp3474
g73
(dp3475
g93
g94
ssg82
g3469
sg75
(lp3476
g232
asbag68
(g89
g70
NtRp3477
(dp3478
g73
(dp3479
g100
g101
ssg82
g3469
sg75
(lp3480
S':'
asbag68
(g89
g70
NtRp3481
(dp3482
g73
(dp3483
sg82
g3469
sg75
(lp3484
g68
(g69
g70
NtRp3485
(dp3486
g73
(dp3487
g81
I5
ssg82
g3481
sg75
(lp3488
g68
(g77
g70
NtRp3489
(dp3490
g73
(dp3491
g81
I4
ssg82
Nsg75
(lp3492
g68
(g84
g70
NtRp3493
(dp3494
g73
(dp3495
sg82
g3489
sg75
(lp3496
g68
(g89
g70
NtRp3497
(dp3498
g73
(dp3499
g93
g94
ssg82
g3493
sg75
(lp3500
S'session_id_911_signin'
p3501
asbag68
(g89
g70
NtRp3502
(dp3503
g73
(dp3504
g100
g101
ssg82
g3493
sg75
(lp3505
S':'
asbag68
(g89
g70
NtRp3506
(dp3507
g73
(dp3508
sg82
g3493
sg75
(lp3509
g68
(g69
g70
NtRp3510
(dp3511
g73
(dp3512
g81
I4
ssg82
g3506
sg75
(lp3513
g68
(g77
g70
NtRp3514
(dp3515
g73
(dp3516
g81
I3
ssg82
Nsg75
(lp3517
g68
(g84
g70
NtRp3518
(dp3519
g73
(dp3520
sg82
g3514
sg75
(lp3521
g68
(g89
g70
NtRp3522
(dp3523
g73
(dp3524
g93
g94
ssg82
g3518
sg75
(lp3525
g282
asbag68
(g89
g70
NtRp3526
(dp3527
g73
(dp3528
g100
g101
ssg82
g3518
sg75
(lp3529
S':'
asbag68
(g89
g70
NtRp3530
(dp3531
g73
(dp3532
sg82
g3518
sg75
(lp3533
g68
(g69
g70
NtRp3534
(dp3535
g73
(dp3536
g81
I3
ssg82
g3530
sg75
(lp3537
S''
asbasbasbag68
(g84
g70
NtRp3538
(dp3539
g73
(dp3540
sg82
g3514
sg75
(lp3541
g68
(g89
g70
NtRp3542
(dp3543
g73
(dp3544
g93
g94
ssg82
g3538
sg75
(lp3545
g303
asbag68
(g89
g70
NtRp3546
(dp3547
g73
(dp3548
g100
g101
ssg82
g3538
sg75
(lp3549
S':'
asbag68
(g89
g70
NtRp3550
(dp3551
g73
(dp3552
sg82
g3538
sg75
(lp3553
g68
(g69
g70
NtRp3554
(dp3555
g73
(dp3556
g81
I3
ssg82
g3550
sg75
(lp3557
S''
asbasbasbag68
(g84
g70
NtRp3558
(dp3559
g73
(dp3560
sg82
g3514
sg75
(lp3561
g68
(g89
g70
NtRp3562
(dp3563
g73
(dp3564
g93
g94
ssg82
g3558
sg75
(lp3565
g324
asbag68
(g89
g70
NtRp3566
(dp3567
g73
(dp3568
g100
g101
ssg82
g3558
sg75
(lp3569
S':'
asbag68
(g89
g70
NtRp3570
(dp3571
g73
(dp3572
sg82
g3558
sg75
(lp3573
g68
(g69
g70
NtRp3574
(dp3575
g73
(dp3576
g81
I3
ssg82
g3570
sg75
(lp3577
S'2592000'
p3578
asbasbasbag68
(g84
g70
NtRp3579
(dp3580
g73
(dp3581
sg82
g3514
sg75
(lp3582
g68
(g89
g70
NtRp3583
(dp3584
g73
(dp3585
g93
g94
ssg82
g3579
sg75
(lp3586
g345
asbag68
(g89
g70
NtRp3587
(dp3588
g73
(dp3589
g100
g101
ssg82
g3579
sg75
(lp3590
S':'
asbag68
(g89
g70
NtRp3591
(dp3592
g73
(dp3593
sg82
g3579
sg75
(lp3594
g68
(g69
g70
NtRp3595
(dp3596
g73
(dp3597
g81
I3
ssg82
g3591
sg75
(lp3598
S''
asbasbasbag68
(g84
g70
NtRp3599
(dp3600
g73
(dp3601
sg82
g3514
sg75
(lp3602
g68
(g89
g70
NtRp3603
(dp3604
g73
(dp3605
g93
g94
ssg82
g3599
sg75
(lp3606
g366
asbag68
(g89
g70
NtRp3607
(dp3608
g73
(dp3609
g100
g101
ssg82
g3599
sg75
(lp3610
S':'
asbag68
(g89
g70
NtRp3611
(dp3612
g73
(dp3613
sg82
g3599
sg75
(lp3614
g68
(g69
g70
NtRp3615
(dp3616
g73
(dp3617
g81
I3
ssg82
g3611
sg75
(lp3618
S''
asbasbasbag68
(g84
g70
NtRp3619
(dp3620
g73
(dp3621
sg82
g3514
sg75
(lp3622
g68
(g89
g70
NtRp3623
(dp3624
g73
(dp3625
g93
g94
ssg82
g3619
sg75
(lp3626
g387
asbag68
(g89
g70
NtRp3627
(dp3628
g73
(dp3629
g100
g101
ssg82
g3619
sg75
(lp3630
S':'
asbag68
(g89
g70
NtRp3631
(dp3632
g73
(dp3633
sg82
g3619
sg75
(lp3634
g68
(g69
g70
NtRp3635
(dp3636
g73
(dp3637
g81
I3
ssg82
g3631
sg75
(lp3638
S'/'
asbasbasbag68
(g84
g70
NtRp3639
(dp3640
g73
(dp3641
sg82
g3514
sg75
(lp3642
g68
(g89
g70
NtRp3643
(dp3644
g73
(dp3645
g93
g94
ssg82
g3639
sg75
(lp3646
g408
asbag68
(g89
g70
NtRp3647
(dp3648
g73
(dp3649
g100
g101
ssg82
g3639
sg75
(lp3650
S':'
asbag68
(g89
g70
NtRp3651
(dp3652
g73
(dp3653
sg82
g3639
sg75
(lp3654
g68
(g69
g70
NtRp3655
(dp3656
g73
(dp3657
g81
I3
ssg82
g3651
sg75
(lp3658
S''
asbasbasbag68
(g84
g70
NtRp3659
(dp3660
g73
(dp3661
sg82
g3514
sg75
(lp3662
g68
(g89
g70
NtRp3663
(dp3664
g73
(dp3665
g93
g94
ssg82
g3659
sg75
(lp3666
g429
asbag68
(g89
g70
NtRp3667
(dp3668
g73
(dp3669
g100
g101
ssg82
g3659
sg75
(lp3670
S':'
asbag68
(g89
g70
NtRp3671
(dp3672
g73
(dp3673
sg82
g3659
sg75
(lp3674
g68
(g69
g70
NtRp3675
(dp3676
g73
(dp3677
g81
I3
ssg82
g3671
sg75
(lp3678
S''
asbasbasbasbasbasbasbasbasbasbasbag68
(g84
g70
NtRp3679
(dp3680
g73
(dp3681
sg82
g3444
sg75
(lp3682
g68
(g89
g70
NtRp3683
(dp3684
g73
(dp3685
g93
g94
ssg82
g3679
sg75
(lp3686
S'delimiters'
p3687
asbag68
(g89
g70
NtRp3688
(dp3689
g73
(dp3690
g100
g101
ssg82
g3679
sg75
(lp3691
S':'
asbag68
(g89
g70
NtRp3692
(dp3693
g73
(dp3694
sg82
g3679
sg75
(lp3695
g68
(g69
g70
NtRp3696
(dp3697
g73
(dp3698
g81
I5
ssg82
g3692
sg75
(lp3699
g68
(g77
g70
NtRp3700
(dp3701
g73
(dp3702
g81
I4
ssg82
Nsg75
(lp3703
g68
(g84
g70
NtRp3704
(dp3705
g73
(dp3706
sg82
g3700
sg75
(lp3707
g68
(g89
g70
NtRp3708
(dp3709
g73
(dp3710
sg82
g3704
sg75
(lp3711
g68
(g69
g70
NtRp3712
(dp3713
g73
(dp3714
g81
I4
ssg82
g3708
sg75
(lp3715
S'{{'
p3716
asbasbasbag68
(g84
g70
NtRp3717
(dp3718
g73
(dp3719
sg82
g3700
sg75
(lp3720
g68
(g89
g70
NtRp3721
(dp3722
g73
(dp3723
sg82
g3717
sg75
(lp3724
g68
(g69
g70
NtRp3725
(dp3726
g73
(dp3727
g81
I4
ssg82
g3721
sg75
(lp3728
S'}}'
p3729
asbasbasbasbasbasbasbag68
(g84
g70
NtRp3730
(dp3731
g73
(dp3732
sg82
g3444
sg75
(lp3733
g68
(g89
g70
NtRp3734
(dp3735
g73
(dp3736
g93
g94
ssg82
g3730
sg75
(lp3737
S'files'
p3738
asbag68
(g89
g70
NtRp3739
(dp3740
g73
(dp3741
g100
g101
ssg82
g3730
sg75
(lp3742
S':'
asbag68
(g89
g70
NtRp3743
(dp3744
g73
(dp3745
sg82
g3730
sg75
(lp3746
g68
(g69
g70
NtRp3747
(dp3748
g73
(dp3749
g81
I5
ssg82
g3743
sg75
(lp3750
g68
(g77
g70
NtRp3751
(dp3752
g73
(dp3753
g81
I4
ssg82
Nsg75
(lp3754
sbasbasbasbag68
(g84
g70
NtRp3755
(dp3756
g73
(dp3757
sg82
g3444
sg75
(lp3758
g68
(g89
g70
NtRp3759
(dp3760
g73
(dp3761
g93
g94
ssg82
g3755
sg75
(lp3762
S'flash'
p3763
asbag68
(g89
g70
NtRp3764
(dp3765
g73
(dp3766
g100
g101
ssg82
g3755
sg75
(lp3767
S':'
asbag68
(g89
g70
NtRp3768
(dp3769
g73
(dp3770
sg82
g3755
sg75
(lp3771
g68
(g69
g70
NtRp3772
(dp3773
g73
(dp3774
g81
I5
ssg82
g3768
sg75
(lp3775
S''
asbasbasbag68
(g84
g70
NtRp3776
(dp3777
g73
(dp3778
sg82
g3444
sg75
(lp3779
g68
(g89
g70
NtRp3780
(dp3781
g73
(dp3782
g93
g94
ssg82
g3776
sg75
(lp3783
S'generic_patterns'
p3784
asbag68
(g89
g70
NtRp3785
(dp3786
g73
(dp3787
g100
g101
ssg82
g3776
sg75
(lp3788
S':'
asbag68
(g89
g70
NtRp3789
(dp3790
g73
(dp3791
sg82
g3776
sg75
(lp3792
g68
(g69
g70
NtRp3793
(dp3794
g73
(dp3795
g81
I5
ssg82
g3789
sg75
(lp3796
g68
(g77
g70
NtRp3797
(dp3798
g73
(dp3799
g81
I4
ssg82
Nsg75
(lp3800
g68
(g84
g70
NtRp3801
(dp3802
g73
(dp3803
sg82
g3797
sg75
(lp3804
g68
(g89
g70
NtRp3805
(dp3806
g73
(dp3807
sg82
g3801
sg75
(lp3808
g68
(g69
g70
NtRp3809
(dp3810
g73
(dp3811
g81
I4
ssg82
g3805
sg75
(lp3812
S'*'
asbasbasbasbasbasbasbag68
(g84
g70
NtRp3813
(dp3814
g73
(dp3815
sg82
g3444
sg75
(lp3816
g68
(g89
g70
NtRp3817
(dp3818
g73
(dp3819
g93
g94
ssg82
g3813
sg75
(lp3820
S'headers'
p3821
asbag68
(g89
g70
NtRp3822
(dp3823
g73
(dp3824
g100
g101
ssg82
g3813
sg75
(lp3825
S':'
asbag68
(g89
g70
NtRp3826
(dp3827
g73
(dp3828
sg82
g3813
sg75
(lp3829
g68
(g69
g70
NtRp3830
(dp3831
g73
(dp3832
g81
I5
ssg82
g3826
sg75
(lp3833
g68
(g77
g70
NtRp3834
(dp3835
g73
(dp3836
g81
I4
ssg82
Nsg75
(lp3837
g68
(g84
g70
NtRp3838
(dp3839
g73
(dp3840
sg82
g3834
sg75
(lp3841
g68
(g89
g70
NtRp3842
(dp3843
g73
(dp3844
g93
g94
ssg82
g3838
sg75
(lp3845
S'Cache-Control'
p3846
asbag68
(g89
g70
NtRp3847
(dp3848
g73
(dp3849
g100
g101
ssg82
g3838
sg75
(lp3850
S':'
asbag68
(g89
g70
NtRp3851
(dp3852
g73
(dp3853
sg82
g3838
sg75
(lp3854
g68
(g69
g70
NtRp3855
(dp3856
g73
(dp3857
g81
I4
ssg82
g3851
sg75
(lp3858
S'no-store, no-cache, must-revalidate, post-check=0, pre-check=0'
p3859
asbasbasbag68
(g84
g70
NtRp3860
(dp3861
g73
(dp3862
sg82
g3834
sg75
(lp3863
g68
(g89
g70
NtRp3864
(dp3865
g73
(dp3866
g93
g94
ssg82
g3860
sg75
(lp3867
S'Content-Type'
p3868
asbag68
(g89
g70
NtRp3869
(dp3870
g73
(dp3871
g100
g101
ssg82
g3860
sg75
(lp3872
S':'
asbag68
(g89
g70
NtRp3873
(dp3874
g73
(dp3875
sg82
g3860
sg75
(lp3876
g68
(g69
g70
NtRp3877
(dp3878
g73
(dp3879
g81
I4
ssg82
g3873
sg75
(lp3880
S'text/html; charset=utf-8'
p3881
asbasbasbag68
(g84
g70
NtRp3882
(dp3883
g73
(dp3884
sg82
g3834
sg75
(lp3885
g68
(g89
g70
NtRp3886
(dp3887
g73
(dp3888
g93
g94
ssg82
g3882
sg75
(lp3889
S'Expires'
p3890
asbag68
(g89
g70
NtRp3891
(dp3892
g73
(dp3893
g100
g101
ssg82
g3882
sg75
(lp3894
S':'
asbag68
(g89
g70
NtRp3895
(dp3896
g73
(dp3897
sg82
g3882
sg75
(lp3898
g68
(g69
g70
NtRp3899
(dp3900
g73
(dp3901
g81
I4
ssg82
g3895
sg75
(lp3902
S'Thu, 04 Jul 2013 20:58:48 GMT'
p3903
asbasbasbag68
(g84
g70
NtRp3904
(dp3905
g73
(dp3906
sg82
g3834
sg75
(lp3907
g68
(g89
g70
NtRp3908
(dp3909
g73
(dp3910
g93
g94
ssg82
g3904
sg75
(lp3911
S'Pragma'
p3912
asbag68
(g89
g70
NtRp3913
(dp3914
g73
(dp3915
g100
g101
ssg82
g3904
sg75
(lp3916
S':'
asbag68
(g89
g70
NtRp3917
(dp3918
g73
(dp3919
sg82
g3904
sg75
(lp3920
g68
(g69
g70
NtRp3921
(dp3922
g73
(dp3923
g81
I4
ssg82
g3917
sg75
(lp3924
S'no-cache'
p3925
asbasbasbag68
(g84
g70
NtRp3926
(dp3927
g73
(dp3928
sg82
g3834
sg75
(lp3929
g68
(g89
g70
NtRp3930
(dp3931
g73
(dp3932
g93
g94
ssg82
g3926
sg75
(lp3933
S'X-Powered-By'
p3934
asbag68
(g89
g70
NtRp3935
(dp3936
g73
(dp3937
g100
g101
ssg82
g3926
sg75
(lp3938
S':'
asbag68
(g89
g70
NtRp3939
(dp3940
g73
(dp3941
sg82
g3926
sg75
(lp3942
g68
(g69
g70
NtRp3943
(dp3944
g73
(dp3945
g81
I4
ssg82
g3939
sg75
(lp3946
S'web2py'
p3947
asbasbasbasbasbasbasbag68
(g84
g70
NtRp3948
(dp3949
g73
(dp3950
sg82
g3444
sg75
(lp3951
g68
(g89
g70
NtRp3952
(dp3953
g73
(dp3954
g93
g94
ssg82
g3948
sg75
(lp3955
S'menu'
p3956
asbag68
(g89
g70
NtRp3957
(dp3958
g73
(dp3959
g100
g101
ssg82
g3948
sg75
(lp3960
S':'
asbag68
(g89
g70
NtRp3961
(dp3962
g73
(dp3963
sg82
g3948
sg75
(lp3964
g68
(g69
g70
NtRp3965
(dp3966
g73
(dp3967
g81
I5
ssg82
g3961
sg75
(lp3968
g68
(g77
g70
NtRp3969
(dp3970
g73
(dp3971
g81
I4
ssg82
Nsg75
(lp3972
g68
(g84
g70
NtRp3973
(dp3974
g73
(dp3975
sg82
g3969
sg75
(lp3976
g68
(g89
g70
NtRp3977
(dp3978
g73
(dp3979
sg82
g3973
sg75
(lp3980
g68
(g69
g70
NtRp3981
(dp3982
g73
(dp3983
g81
I4
ssg82
g3977
sg75
(lp3984
g68
(g77
g70
NtRp3985
(dp3986
g73
(dp3987
g81
I3
ssg82
Nsg75
(lp3988
g68
(g84
g70
NtRp3989
(dp3990
g73
(dp3991
sg82
g3985
sg75
(lp3992
g68
(g89
g70
NtRp3993
(dp3994
g73
(dp3995
sg82
g3989
sg75
(lp3996
g68
(g69
g70
NtRp3997
(dp3998
g73
(dp3999
g81
I3
ssg82
g3993
sg75
(lp4000
cgluon.languages
lazyT_unpickle
p4001
(S't\x04\x00\x00\x00Home'
tRp4002
asbasbasbag68
(g84
g70
NtRp4003
(dp4004
g73
(dp4005
sg82
g3985
sg75
(lp4006
g68
(g89
g70
NtRp4007
(dp4008
g73
(dp4009
sg82
g4003
sg75
(lp4010
g68
(g69
g70
NtRp4011
(dp4012
g73
(dp4013
g81
I3
ssg82
g4007
sg75
(lp4014
g111
asbasbasbag68
(g84
g70
NtRp4015
(dp4016
g73
(dp4017
sg82
g3985
sg75
(lp4018
g68
(g89
g70
NtRp4019
(dp4020
g73
(dp4021
sg82
g4015
sg75
(lp4022
g68
(g69
g70
NtRp4023
(dp4024
g73
(dp4025
g81
I3
ssg82
g4019
sg75
(lp4026
S'/911_signin/default/index'
p4027
asbasbasbag68
(g84
g70
NtRp4028
(dp4029
g73
(dp4030
sg82
g3985
sg75
(lp4031
g68
(g89
g70
NtRp4032
(dp4033
g73
(dp4034
sg82
g4028
sg75
(lp4035
g68
(g69
g70
NtRp4036
(dp4037
g73
(dp4038
g81
I3
ssg82
g4032
sg75
(lp4039
g68
(g77
g70
NtRp4040
(dp4041
g73
(dp4042
g81
I2
ssg82
Nsg75
(lp4043
sbasbasbasbasbasbasbasbag68
(g84
g70
NtRp4044
(dp4045
g73
(dp4046
sg82
g3969
sg75
(lp4047
g68
(g89
g70
NtRp4048
(dp4049
g73
(dp4050
sg82
g4044
sg75
(lp4051
g68
(g69
g70
NtRp4052
(dp4053
g73
(dp4054
g81
I4
ssg82
g4048
sg75
(lp4055
g68
(g77
g70
NtRp4056
(dp4057
g73
(dp4058
g81
I3
ssg82
Nsg75
(lp4059
g68
(g84
g70
NtRp4060
(dp4061
g73
(dp4062
sg82
g4056
sg75
(lp4063
g68
(g89
g70
NtRp4064
(dp4065
g73
(dp4066
sg82
g4060
sg75
(lp4067
g68
(g69
g70
NtRp4068
(dp4069
g73
(dp4070
g81
I3
ssg82
g4064
sg75
(lp4071
g68
(cgluon.html
SPAN
p4072
g70
NtRp4073
(dp4074
g73
(dp4075
g93
S'color:yellow'
p4076
ssg82
Nsg75
(lp4077
g3947
asbasbasbasbag68
(g84
g70
NtRp4078
(dp4079
g73
(dp4080
sg82
g4056
sg75
(lp4081
g68
(g89
g70
NtRp4082
(dp4083
g73
(dp4084
sg82
g4078
sg75
(lp4085
g68
(g69
g70
NtRp4086
(dp4087
g73
(dp4088
g81
I3
ssg82
g4082
sg75
(lp4089
g111
asbasbasbag68
(g84
g70
NtRp4090
(dp4091
g73
(dp4092
sg82
g4056
sg75
(lp4093
g68
(g89
g70
NtRp4094
(dp4095
g73
(dp4096
sg82
g4090
sg75
(lp4097
g68
(g69
g70
NtRp4098
(dp4099
g73
(dp4100
g81
I3
ssg82
g4094
sg75
(lp4101
S'None'
p4102
asbasbasbag68
(g84
g70
NtRp4103
(dp4104
g73
(dp4105
sg82
g4056
sg75
(lp4106
g68
(g89
g70
NtRp4107
(dp4108
g73
(dp4109
sg82
g4103
sg75
(lp4110
g68
(g69
g70
NtRp4111
(dp4112
g73
(dp4113
g81
I3
ssg82
g4107
sg75
(lp4114
g68
(g77
g70
NtRp4115
(dp4116
g73
(dp4117
g81
I2
ssg82
Nsg75
(lp4118
g68
(g84
g70
NtRp4119
(dp4120
g73
(dp4121
sg82
g4115
sg75
(lp4122
g68
(g89
g70
NtRp4123
(dp4124
g73
(dp4125
sg82
g4119
sg75
(lp4126
g68
(g69
g70
NtRp4127
(dp4128
g73
(dp4129
g81
I2
ssg82
g4123
sg75
(lp4130
g68
(g77
g70
NtRp4131
(dp4132
g73
(dp4133
g81
I1
ssg82
Nsg75
(lp4134
g68
(g84
g70
NtRp4135
(dp4136
g73
(dp4137
sg82
g4131
sg75
(lp4138
g68
(g89
g70
NtRp4139
(dp4140
g73
(dp4141
sg82
g4135
sg75
(lp4142
g68
(g69
g70
NtRp4143
(dp4144
g73
(dp4145
g81
I1
ssg82
g4139
sg75
(lp4146
g4001
(S's\x08\x00\x00\x00My Sites'
tRp4147
asbasbasbag68
(g84
g70
NtRp4148
(dp4149
g73
(dp4150
sg82
g4131
sg75
(lp4151
g68
(g89
g70
NtRp4152
(dp4153
g73
(dp4154
sg82
g4148
sg75
(lp4155
g68
(g69
g70
NtRp4156
(dp4157
g73
(dp4158
g81
I1
ssg82
g4152
sg75
(lp4159
I00
asbasbasbag68
(g84
g70
NtRp4160
(dp4161
g73
(dp4162
sg82
g4131
sg75
(lp4163
g68
(g89
g70
NtRp4164
(dp4165
g73
(dp4166
sg82
g4160
sg75
(lp4167
g68
(g69
g70
NtRp4168
(dp4169
g73
(dp4170
g81
I1
ssg82
g4164
sg75
(lp4171
S'/admin/default/site'
p4172
asbasbasbasbasbasbasbag68
(g84
g70
NtRp4173
(dp4174
g73
(dp4175
sg82
g4115
sg75
(lp4176
g68
(g89
g70
NtRp4177
(dp4178
g73
(dp4179
sg82
g4173
sg75
(lp4180
g68
(g69
g70
NtRp4181
(dp4182
g73
(dp4183
g81
I2
ssg82
g4177
sg75
(lp4184
g68
(g77
g70
NtRp4185
(dp4186
g73
(dp4187
g81
I1
ssg82
Nsg75
(lp4188
g68
(g84
g70
NtRp4189
(dp4190
g73
(dp4191
sg82
g4185
sg75
(lp4192
g68
(g89
g70
NtRp4193
(dp4194
g73
(dp4195
sg82
g4189
sg75
(lp4196
g68
(g69
g70
NtRp4197
(dp4198
g73
(dp4199
g81
I1
ssg82
g4193
sg75
(lp4200
g4001
(S's\x08\x00\x00\x00This App'
tRp4201
asbasbasbag68
(g84
g70
NtRp4202
(dp4203
g73
(dp4204
sg82
g4185
sg75
(lp4205
g68
(g89
g70
NtRp4206
(dp4207
g73
(dp4208
sg82
g4202
sg75
(lp4209
g68
(g69
g70
NtRp4210
(dp4211
g73
(dp4212
g81
I1
ssg82
g4206
sg75
(lp4213
I00
asbasbasbag68
(g84
g70
NtRp4214
(dp4215
g73
(dp4216
sg82
g4185
sg75
(lp4217
g68
(g89
g70
NtRp4218
(dp4219
g73
(dp4220
sg82
g4214
sg75
(lp4221
g68
(g69
g70
NtRp4222
(dp4223
g73
(dp4224
g81
I1
ssg82
g4218
sg75
(lp4225
S'/admin/default/design/911_signin'
p4226
asbasbasbag68
(g84
g70
NtRp4227
(dp4228
g73
(dp4229
sg82
g4185
sg75
(lp4230
g68
(g89
g70
NtRp4231
(dp4232
g73
(dp4233
sg82
g4227
sg75
(lp4234
g68
(g69
g70
NtRp4235
(dp4236
g73
(dp4237
g81
I1
ssg82
g4231
sg75
(lp4238
(lp4239
(g4001
(S't\n\x00\x00\x00Controller'
tRp4240
I00
S'/admin/default/edit/911_signin/controllers/default.py'
tp4241
a(g4001
(S't\x04\x00\x00\x00View'
tRp4242
I00
S'/admin/default/edit/911_signin/views/default/events.html'
tp4243
a(g4001
(S't\x06\x00\x00\x00Layout'
tRp4244
I00
S'/admin/default/edit/911_signin/views/layout.html'
tp4245
a(g4001
(S't\n\x00\x00\x00Stylesheet'
tRp4246
I00
S'/admin/default/edit/911_signin/static/css/web2py.css'
tp4247
a(g4001
(S's\x08\x00\x00\x00DB Model'
tRp4248
I00
S'/admin/default/edit/911_signin/models/db.py'
tp4249
a(g4001
(S's\n\x00\x00\x00Menu Model'
tRp4250
I00
S'/admin/default/edit/911_signin/models/menu.py'
tp4251
a(g4001
(S't\x08\x00\x00\x00Database'
tRp4252
I00
S'/911_signin/appadmin/index'
tp4253
a(g4001
(S't\x06\x00\x00\x00Errors'
tRp4254
I00
S'/admin/default/errors/911_signin'
tp4255
a(g4001
(S't\x05\x00\x00\x00About'
tRp4256
I00
S'/admin/default/about/911_signin'
tp4257
aasbasbasbasbasbasbasbag68
(g84
g70
NtRp4258
(dp4259
g73
(dp4260
sg82
g4115
sg75
(lp4261
g68
(g89
g70
NtRp4262
(dp4263
g73
(dp4264
sg82
g4258
sg75
(lp4265
g68
(g69
g70
NtRp4266
(dp4267
g73
(dp4268
g81
I2
ssg82
g4262
sg75
(lp4269
g68
(g77
g70
NtRp4270
(dp4271
g73
(dp4272
g81
I1
ssg82
Nsg75
(lp4273
g68
(g84
g70
NtRp4274
(dp4275
g73
(dp4276
sg82
g4270
sg75
(lp4277
g68
(g89
g70
NtRp4278
(dp4279
g73
(dp4280
sg82
g4274
sg75
(lp4281
g68
(g69
g70
NtRp4282
(dp4283
g73
(dp4284
g81
I1
ssg82
g4278
sg75
(lp4285
S'web2py.com'
p4286
asbasbasbag68
(g84
g70
NtRp4287
(dp4288
g73
(dp4289
sg82
g4270
sg75
(lp4290
g68
(g89
g70
NtRp4291
(dp4292
g73
(dp4293
sg82
g4287
sg75
(lp4294
g68
(g69
g70
NtRp4295
(dp4296
g73
(dp4297
g81
I1
ssg82
g4291
sg75
(lp4298
I00
asbasbasbag68
(g84
g70
NtRp4299
(dp4300
g73
(dp4301
sg82
g4270
sg75
(lp4302
g68
(g89
g70
NtRp4303
(dp4304
g73
(dp4305
sg82
g4299
sg75
(lp4306
g68
(g69
g70
NtRp4307
(dp4308
g73
(dp4309
g81
I1
ssg82
g4303
sg75
(lp4310
S'http://www.web2py.com'
p4311
asbasbasbag68
(g84
g70
NtRp4312
(dp4313
g73
(dp4314
sg82
g4270
sg75
(lp4315
g68
(g89
g70
NtRp4316
(dp4317
g73
(dp4318
sg82
g4312
sg75
(lp4319
g68
(g69
g70
NtRp4320
(dp4321
g73
(dp4322
g81
I1
ssg82
g4316
sg75
(lp4323
(lp4324
(g4001
(S't\x08\x00\x00\x00Download'
tRp4325
I00
S'http://www.web2py.com/examples/default/download'
p4326
tp4327
a(g4001
(S't\x07\x00\x00\x00Support'
tRp4328
I00
S'http://www.web2py.com/examples/default/support'
p4329
tp4330
a(g4001
(S't\x04\x00\x00\x00Demo'
tRp4331
I00
S'http://web2py.com/demo_admin'
p4332
tp4333
a(g4001
(S's\x0e\x00\x00\x00Quick Examples'
tRp4334
I00
S'http://web2py.com/examples/default/examples'
p4335
tp4336
a(g4001
(S't\x03\x00\x00\x00FAQ'
tRp4337
I00
S'http://web2py.com/AlterEgo'
p4338
tp4339
a(g4001
(S't\x06\x00\x00\x00Videos'
tRp4340
I00
S'http://www.web2py.com/examples/default/videos/'
p4341
tp4342
a(g4001
(S's\x11\x00\x00\x00Free Applications'
tRp4343
I00
S'http://web2py.com/appliances'
p4344
tp4345
a(g4001
(S't\x07\x00\x00\x00Plugins'
tRp4346
I00
S'http://web2py.com/plugins'
p4347
tp4348
a(g4001
(S't\x07\x00\x00\x00Layouts'
tRp4349
I00
S'http://web2py.com/layouts'
p4350
tp4351
a(g4001
(S't\x07\x00\x00\x00Recipes'
tRp4352
I00
S'http://web2pyslices.com/'
p4353
tp4354
a(g4001
(S't\x08\x00\x00\x00Semantic'
tRp4355
I00
S'http://web2py.com/semantic'
p4356
tp4357
aasbasbasbasbasbasbasbag68
(g84
g70
NtRp4358
(dp4359
g73
(dp4360
sg82
g4115
sg75
(lp4361
g68
(g89
g70
NtRp4362
(dp4363
g73
(dp4364
sg82
g4358
sg75
(lp4365
g68
(g69
g70
NtRp4366
(dp4367
g73
(dp4368
g81
I2
ssg82
g4362
sg75
(lp4369
g68
(g77
g70
NtRp4370
(dp4371
g73
(dp4372
g81
I1
ssg82
Nsg75
(lp4373
g68
(g84
g70
NtRp4374
(dp4375
g73
(dp4376
sg82
g4370
sg75
(lp4377
g68
(g89
g70
NtRp4378
(dp4379
g73
(dp4380
sg82
g4374
sg75
(lp4381
g68
(g69
g70
NtRp4382
(dp4383
g73
(dp4384
g81
I1
ssg82
g4378
sg75
(lp4385
g4001
(S't\r\x00\x00\x00Documentation'
tRp4386
asbasbasbag68
(g84
g70
NtRp4387
(dp4388
g73
(dp4389
sg82
g4370
sg75
(lp4390
g68
(g89
g70
NtRp4391
(dp4392
g73
(dp4393
sg82
g4387
sg75
(lp4394
g68
(g69
g70
NtRp4395
(dp4396
g73
(dp4397
g81
I1
ssg82
g4391
sg75
(lp4398
I00
asbasbasbag68
(g84
g70
NtRp4399
(dp4400
g73
(dp4401
sg82
g4370
sg75
(lp4402
g68
(g89
g70
NtRp4403
(dp4404
g73
(dp4405
sg82
g4399
sg75
(lp4406
g68
(g69
g70
NtRp4407
(dp4408
g73
(dp4409
g81
I1
ssg82
g4403
sg75
(lp4410
S'http://www.web2py.com/book'
p4411
asbasbasbag68
(g84
g70
NtRp4412
(dp4413
g73
(dp4414
sg82
g4370
sg75
(lp4415
g68
(g89
g70
NtRp4416
(dp4417
g73
(dp4418
sg82
g4412
sg75
(lp4419
g68
(g69
g70
NtRp4420
(dp4421
g73
(dp4422
g81
I1
ssg82
g4416
sg75
(lp4423
(lp4424
(g4001
(S't\x07\x00\x00\x00Preface'
tRp4425
I00
S'http://www.web2py.com/book/default/chapter/00'
p4426
tp4427
a(g4001
(S't\x0c\x00\x00\x00Introduction'
tRp4428
I00
S'http://www.web2py.com/book/default/chapter/01'
p4429
tp4430
a(g4001
(S't\x06\x00\x00\x00Python'
tRp4431
I00
S'http://www.web2py.com/book/default/chapter/02'
p4432
tp4433
a(g4001
(S't\x08\x00\x00\x00Overview'
tRp4434
I00
S'http://www.web2py.com/book/default/chapter/03'
p4435
tp4436
a(g4001
(S's\x08\x00\x00\x00The Core'
tRp4437
I00
S'http://www.web2py.com/book/default/chapter/04'
p4438
tp4439
a(g4001
(S's\t\x00\x00\x00The Views'
tRp4440
I00
S'http://www.web2py.com/book/default/chapter/05'
p4441
tp4442
a(g4001
(S't\x08\x00\x00\x00Database'
tRp4443
I00
S'http://www.web2py.com/book/default/chapter/06'
p4444
tp4445
a(g4001
(S's\x14\x00\x00\x00Forms and Validators'
tRp4446
I00
S'http://www.web2py.com/book/default/chapter/07'
p4447
tp4448
a(g4001
(S's\r\x00\x00\x00Email and SMS'
tRp4449
I00
S'http://www.web2py.com/book/default/chapter/08'
p4450
tp4451
a(g4001
(S's\x0e\x00\x00\x00Access Control'
tRp4452
I00
S'http://www.web2py.com/book/default/chapter/09'
p4453
tp4454
a(g4001
(S't\x08\x00\x00\x00Services'
tRp4455
I00
S'http://www.web2py.com/book/default/chapter/10'
p4456
tp4457
a(g4001
(S's\x0c\x00\x00\x00Ajax Recipes'
tRp4458
I00
S'http://www.web2py.com/book/default/chapter/11'
p4459
tp4460
a(g4001
(S's\x16\x00\x00\x00Components and Plugins'
tRp4461
I00
S'http://www.web2py.com/book/default/chapter/12'
p4462
tp4463
a(g4001
(S's\x12\x00\x00\x00Deployment Recipes'
tRp4464
I00
S'http://www.web2py.com/book/default/chapter/13'
p4465
tp4466
a(g4001
(S's\r\x00\x00\x00Other Recipes'
tRp4467
I00
S'http://www.web2py.com/book/default/chapter/14'
p4468
tp4469
a(g4001
(S's\r\x00\x00\x00Buy this book'
tRp4470
I00
S'http://stores.lulu.com/web2py'
p4471
tp4472
aasbasbasbasbasbasbasbag68
(g84
g70
NtRp4473
(dp4474
g73
(dp4475
sg82
g4115
sg75
(lp4476
g68
(g89
g70
NtRp4477
(dp4478
g73
(dp4479
sg82
g4473
sg75
(lp4480
g68
(g69
g70
NtRp4481
(dp4482
g73
(dp4483
g81
I2
ssg82
g4477
sg75
(lp4484
g68
(g77
g70
NtRp4485
(dp4486
g73
(dp4487
g81
I1
ssg82
Nsg75
(lp4488
g68
(g84
g70
NtRp4489
(dp4490
g73
(dp4491
sg82
g4485
sg75
(lp4492
g68
(g89
g70
NtRp4493
(dp4494
g73
(dp4495
sg82
g4489
sg75
(lp4496
g68
(g69
g70
NtRp4497
(dp4498
g73
(dp4499
g81
I1
ssg82
g4493
sg75
(lp4500
g4001
(S't\t\x00\x00\x00Community'
tRp4501
asbasbasbag68
(g84
g70
NtRp4502
(dp4503
g73
(dp4504
sg82
g4485
sg75
(lp4505
g68
(g89
g70
NtRp4506
(dp4507
g73
(dp4508
sg82
g4502
sg75
(lp4509
g68
(g69
g70
NtRp4510
(dp4511
g73
(dp4512
g81
I1
ssg82
g4506
sg75
(lp4513
I00
asbasbasbag68
(g84
g70
NtRp4514
(dp4515
g73
(dp4516
sg82
g4485
sg75
(lp4517
g68
(g89
g70
NtRp4518
(dp4519
g73
(dp4520
sg82
g4514
sg75
(lp4521
g68
(g69
g70
NtRp4522
(dp4523
g73
(dp4524
g81
I1
ssg82
g4518
sg75
(lp4525
Nasbasbasbag68
(g84
g70
NtRp4526
(dp4527
g73
(dp4528
sg82
g4485
sg75
(lp4529
g68
(g89
g70
NtRp4530
(dp4531
g73
(dp4532
sg82
g4526
sg75
(lp4533
g68
(g69
g70
NtRp4534
(dp4535
g73
(dp4536
g81
I1
ssg82
g4530
sg75
(lp4537
(lp4538
(g4001
(S't\x06\x00\x00\x00Groups'
tRp4539
I00
S'http://www.web2py.com/examples/default/usergroups'
p4540
tp4541
a(g4001
(S't\x07\x00\x00\x00Twitter'
tRp4542
I00
S'http://twitter.com/web2py'
p4543
tp4544
a(g4001
(S's\t\x00\x00\x00Live Chat'
tRp4545
I00
S'http://webchat.freenode.net/?channels=web2py'
p4546
tp4547
aasbasbasbasbasbasbasbag68
(g84
g70
NtRp4548
(dp4549
g73
(dp4550
sg82
g4115
sg75
(lp4551
g68
(g89
g70
NtRp4552
(dp4553
g73
(dp4554
sg82
g4548
sg75
(lp4555
g68
(g69
g70
NtRp4556
(dp4557
g73
(dp4558
g81
I2
ssg82
g4552
sg75
(lp4559
g68
(g77
g70
NtRp4560
(dp4561
g73
(dp4562
g81
I1
ssg82
Nsg75
(lp4563
g68
(g84
g70
NtRp4564
(dp4565
g73
(dp4566
sg82
g4560
sg75
(lp4567
g68
(g89
g70
NtRp4568
(dp4569
g73
(dp4570
sg82
g4564
sg75
(lp4571
g68
(g69
g70
NtRp4572
(dp4573
g73
(dp4574
g81
I1
ssg82
g4568
sg75
(lp4575
g4001
(S't\x07\x00\x00\x00Plugins'
tRp4576
asbasbasbag68
(g84
g70
NtRp4577
(dp4578
g73
(dp4579
sg82
g4560
sg75
(lp4580
g68
(g89
g70
NtRp4581
(dp4582
g73
(dp4583
sg82
g4577
sg75
(lp4584
g68
(g69
g70
NtRp4585
(dp4586
g73
(dp4587
g81
I1
ssg82
g4581
sg75
(lp4588
I00
asbasbasbag68
(g84
g70
NtRp4589
(dp4590
g73
(dp4591
sg82
g4560
sg75
(lp4592
g68
(g89
g70
NtRp4593
(dp4594
g73
(dp4595
sg82
g4589
sg75
(lp4596
g68
(g69
g70
NtRp4597
(dp4598
g73
(dp4599
g81
I1
ssg82
g4593
sg75
(lp4600
Nasbasbasbag68
(g84
g70
NtRp4601
(dp4602
g73
(dp4603
sg82
g4560
sg75
(lp4604
g68
(g89
g70
NtRp4605
(dp4606
g73
(dp4607
sg82
g4601
sg75
(lp4608
g68
(g69
g70
NtRp4609
(dp4610
g73
(dp4611
g81
I1
ssg82
g4605
sg75
(lp4612
(lp4613
(S'plugin_wiki'
p4614
I00
S'http://web2py.com/examples/default/download'
p4615
tp4616
a(g4001
(S's\r\x00\x00\x00Other Plugins'
tRp4617
I00
g4347
tp4618
a(g4001
(S's\x0e\x00\x00\x00Layout Plugins'
tRp4619
I00
g4350
tp4620
aasbasbasbasbasbasbasbasbasbasbasbasbasbasbasbasbasbasbasbag68
(g84
g70
NtRp4621
(dp4622
g73
(dp4623
sg82
g3444
sg75
(lp4624
g68
(g89
g70
NtRp4625
(dp4626
g73
(dp4627
g93
g94
ssg82
g4621
sg75
(lp4628
S'meta'
p4629
asbag68
(g89
g70
NtRp4630
(dp4631
g73
(dp4632
g100
g101
ssg82
g4621
sg75
(lp4633
S':'
asbag68
(g89
g70
NtRp4634
(dp4635
g73
(dp4636
sg82
g4621
sg75
(lp4637
g68
(g69
g70
NtRp4638
(dp4639
g73
(dp4640
g81
I5
ssg82
g4634
sg75
(lp4641
g68
(g77
g70
NtRp4642
(dp4643
g73
(dp4644
g81
I4
ssg82
Nsg75
(lp4645
g68
(g84
g70
NtRp4646
(dp4647
g73
(dp4648
sg82
g4642
sg75
(lp4649
g68
(g89
g70
NtRp4650
(dp4651
g73
(dp4652
g93
g94
ssg82
g4646
sg75
(lp4653
S'author'
p4654
asbag68
(g89
g70
NtRp4655
(dp4656
g73
(dp4657
g100
g101
ssg82
g4646
sg75
(lp4658
S':'
asbag68
(g89
g70
NtRp4659
(dp4660
g73
(dp4661
sg82
g4646
sg75
(lp4662
g68
(g69
g70
NtRp4663
(dp4664
g73
(dp4665
g81
I4
ssg82
g4659
sg75
(lp4666
S'Your Name <you@example.com>'
p4667
asbasbasbag68
(g84
g70
NtRp4668
(dp4669
g73
(dp4670
sg82
g4642
sg75
(lp4671
g68
(g89
g70
NtRp4672
(dp4673
g73
(dp4674
g93
g94
ssg82
g4668
sg75
(lp4675
S'copyright'
p4676
asbag68
(g89
g70
NtRp4677
(dp4678
g73
(dp4679
g100
g101
ssg82
g4668
sg75
(lp4680
S':'
asbag68
(g89
g70
NtRp4681
(dp4682
g73
(dp4683
sg82
g4668
sg75
(lp4684
g68
(g69
g70
NtRp4685
(dp4686
g73
(dp4687
g81
I4
ssg82
g4681
sg75
(lp4688
S'Copyright 2011'
p4689
asbasbasbag68
(g84
g70
NtRp4690
(dp4691
g73
(dp4692
sg82
g4642
sg75
(lp4693
g68
(g89
g70
NtRp4694
(dp4695
g73
(dp4696
g93
g94
ssg82
g4690
sg75
(lp4697
S'description'
p4698
asbag68
(g89
g70
NtRp4699
(dp4700
g73
(dp4701
g100
g101
ssg82
g4690
sg75
(lp4702
S':'
asbag68
(g89
g70
NtRp4703
(dp4704
g73
(dp4705
sg82
g4690
sg75
(lp4706
g68
(g69
g70
NtRp4707
(dp4708
g73
(dp4709
g81
I4
ssg82
g4703
sg75
(lp4710
S'a cool new app'
p4711
asbasbasbag68
(g84
g70
NtRp4712
(dp4713
g73
(dp4714
sg82
g4642
sg75
(lp4715
g68
(g89
g70
NtRp4716
(dp4717
g73
(dp4718
g93
g94
ssg82
g4712
sg75
(lp4719
S'generator'
p4720
asbag68
(g89
g70
NtRp4721
(dp4722
g73
(dp4723
g100
g101
ssg82
g4712
sg75
(lp4724
S':'
asbag68
(g89
g70
NtRp4725
(dp4726
g73
(dp4727
sg82
g4712
sg75
(lp4728
g68
(g69
g70
NtRp4729
(dp4730
g73
(dp4731
g81
I4
ssg82
g4725
sg75
(lp4732
S'Web2py Web Framework'
p4733
asbasbasbag68
(g84
g70
NtRp4734
(dp4735
g73
(dp4736
sg82
g4642
sg75
(lp4737
g68
(g89
g70
NtRp4738
(dp4739
g73
(dp4740
g93
g94
ssg82
g4734
sg75
(lp4741
S'keywords'
p4742
asbag68
(g89
g70
NtRp4743
(dp4744
g73
(dp4745
g100
g101
ssg82
g4734
sg75
(lp4746
S':'
asbag68
(g89
g70
NtRp4747
(dp4748
g73
(dp4749
sg82
g4734
sg75
(lp4750
g68
(g69
g70
NtRp4751
(dp4752
g73
(dp4753
g81
I4
ssg82
g4747
sg75
(lp4754
S'web2py, python, framework'
p4755
asbasbasbasbasbasbasbag68
(g84
g70
NtRp4756
(dp4757
g73
(dp4758
sg82
g3444
sg75
(lp4759
g68
(g89
g70
NtRp4760
(dp4761
g73
(dp4762
g93
g94
ssg82
g4756
sg75
(lp4763
S'postprocessing'
p4764
asbag68
(g89
g70
NtRp4765
(dp4766
g73
(dp4767
g100
g101
ssg82
g4756
sg75
(lp4768
S':'
asbag68
(g89
g70
NtRp4769
(dp4770
g73
(dp4771
sg82
g4756
sg75
(lp4772
g68
(g69
g70
NtRp4773
(dp4774
g73
(dp4775
g81
I5
ssg82
g4769
sg75
(lp4776
g68
(g77
g70
NtRp4777
(dp4778
g73
(dp4779
g81
I4
ssg82
Nsg75
(lp4780
sbasbasbasbag68
(g84
g70
NtRp4781
(dp4782
g73
(dp4783
sg82
g3444
sg75
(lp4784
g68
(g89
g70
NtRp4785
(dp4786
g73
(dp4787
g93
g94
ssg82
g4781
sg75
(lp4788
S'session_file'
p4789
asbag68
(g89
g70
NtRp4790
(dp4791
g73
(dp4792
g100
g101
ssg82
g4781
sg75
(lp4793
S':'
asbag68
(g89
g70
NtRp4794
(dp4795
g73
(dp4796
sg82
g4781
sg75
(lp4797
g68
(g69
g70
NtRp4798
(dp4799
g73
(dp4800
g81
I5
ssg82
g4794
sg75
(lp4801
S"<open file '/home/krutarth/Downloads/911india/applications/911_signin/sessions/127.0.0.1-6572663b-59b7-4eae-8a04-69e22de716cf', mode 'rb+' at 0xa6b9338>"
p4802
asbasbasbag68
(g84
g70
NtRp4803
(dp4804
g73
(dp4805
sg82
g3444
sg75
(lp4806
g68
(g89
g70
NtRp4807
(dp4808
g73
(dp4809
g93
g94
ssg82
g4803
sg75
(lp4810
S'session_filename'
p4811
asbag68
(g89
g70
NtRp4812
(dp4813
g73
(dp4814
g100
g101
ssg82
g4803
sg75
(lp4815
S':'
asbag68
(g89
g70
NtRp4816
(dp4817
g73
(dp4818
sg82
g4803
sg75
(lp4819
g68
(g69
g70
NtRp4820
(dp4821
g73
(dp4822
g81
I5
ssg82
g4816
sg75
(lp4823
S'/home/krutarth/Downloads/911india/applications/911_signin/sessions/127.0.0.1-6572663b-59b7-4eae-8a04-69e22de716cf'
p4824
asbasbasbag68
(g84
g70
NtRp4825
(dp4826
g73
(dp4827
sg82
g3444
sg75
(lp4828
g68
(g89
g70
NtRp4829
(dp4830
g73
(dp4831
g93
g94
ssg82
g4825
sg75
(lp4832
S'session_id'
p4833
asbag68
(g89
g70
NtRp4834
(dp4835
g73
(dp4836
g100
g101
ssg82
g4825
sg75
(lp4837
S':'
asbag68
(g89
g70
NtRp4838
(dp4839
g73
(dp4840
sg82
g4825
sg75
(lp4841
g68
(g69
g70
NtRp4842
(dp4843
g73
(dp4844
g81
I5
ssg82
g4838
sg75
(lp4845
S'127.0.0.1-6572663b-59b7-4eae-8a04-69e22de716cf'
p4846
asbasbasbag68
(g84
g70
NtRp4847
(dp4848
g73
(dp4849
sg82
g3444
sg75
(lp4850
g68
(g89
g70
NtRp4851
(dp4852
g73
(dp4853
g93
g94
ssg82
g4847
sg75
(lp4854
S'session_id_name'
p4855
asbag68
(g89
g70
NtRp4856
(dp4857
g73
(dp4858
g100
g101
ssg82
g4847
sg75
(lp4859
S':'
asbag68
(g89
g70
NtRp4860
(dp4861
g73
(dp4862
sg82
g4847
sg75
(lp4863
g68
(g69
g70
NtRp4864
(dp4865
g73
(dp4866
g81
I5
ssg82
g4860
sg75
(lp4867
g3501
asbasbasbag68
(g84
g70
NtRp4868
(dp4869
g73
(dp4870
sg82
g3444
sg75
(lp4871
g68
(g89
g70
NtRp4872
(dp4873
g73
(dp4874
g93
g94
ssg82
g4868
sg75
(lp4875
S'session_locked'
p4876
asbag68
(g89
g70
NtRp4877
(dp4878
g73
(dp4879
g100
g101
ssg82
g4868
sg75
(lp4880
S':'
asbag68
(g89
g70
NtRp4881
(dp4882
g73
(dp4883
sg82
g4868
sg75
(lp4884
g68
(g69
g70
NtRp4885
(dp4886
g73
(dp4887
g81
I5
ssg82
g4881
sg75
(lp4888
g1688
asbasbasbag68
(g84
g70
NtRp4889
(dp4890
g73
(dp4891
sg82
g3444
sg75
(lp4892
g68
(g89
g70
NtRp4893
(dp4894
g73
(dp4895
g93
g94
ssg82
g4889
sg75
(lp4896
S'session_new'
p4897
asbag68
(g89
g70
NtRp4898
(dp4899
g73
(dp4900
g100
g101
ssg82
g4889
sg75
(lp4901
S':'
asbag68
(g89
g70
NtRp4902
(dp4903
g73
(dp4904
sg82
g4889
sg75
(lp4905
g68
(g69
g70
NtRp4906
(dp4907
g73
(dp4908
g81
I5
ssg82
g4902
sg75
(lp4909
g111
asbasbasbag68
(g84
g70
NtRp4910
(dp4911
g73
(dp4912
sg82
g3444
sg75
(lp4913
g68
(g89
g70
NtRp4914
(dp4915
g73
(dp4916
g93
g94
ssg82
g4910
sg75
(lp4917
S'status'
p4918
asbag68
(g89
g70
NtRp4919
(dp4920
g73
(dp4921
g100
g101
ssg82
g4910
sg75
(lp4922
S':'
asbag68
(g89
g70
NtRp4923
(dp4924
g73
(dp4925
sg82
g4910
sg75
(lp4926
g68
(g69
g70
NtRp4927
(dp4928
g73
(dp4929
g81
I5
ssg82
g4923
sg75
(lp4930
S'200'
p4931
asbasbasbag68
(g84
g70
NtRp4932
(dp4933
g73
(dp4934
sg82
g3444
sg75
(lp4935
g68
(g89
g70
NtRp4936
(dp4937
g73
(dp4938
g93
g94
ssg82
g4932
sg75
(lp4939
S'subtitle'
p4940
asbag68
(g89
g70
NtRp4941
(dp4942
g73
(dp4943
g100
g101
ssg82
g4932
sg75
(lp4944
S':'
asbag68
(g89
g70
NtRp4945
(dp4946
g73
(dp4947
sg82
g4932
sg75
(lp4948
g68
(g69
g70
NtRp4949
(dp4950
g73
(dp4951
g81
I5
ssg82
g4945
sg75
(lp4952
g4001
(S's\r\x00\x00\x00customize me!'
tRp4953
asbasbasbag68
(g84
g70
NtRp4954
(dp4955
g73
(dp4956
sg82
g3444
sg75
(lp4957
g68
(g89
g70
NtRp4958
(dp4959
g73
(dp4960
g93
g94
ssg82
g4954
sg75
(lp4961
S'title'
p4962
asbag68
(g89
g70
NtRp4963
(dp4964
g73
(dp4965
g100
g101
ssg82
g4954
sg75
(lp4966
S':'
asbag68
(g89
g70
NtRp4967
(dp4968
g73
(dp4969
sg82
g4954
sg75
(lp4970
g68
(g69
g70
NtRp4971
(dp4972
g73
(dp4973
g81
I5
ssg82
g4967
sg75
(lp4974
S'911 Signin'
p4975
asbasbasbag68
(g84
g70
NtRp4976
(dp4977
g73
(dp4978
sg82
g3444
sg75
(lp4979
g68
(g89
g70
NtRp4980
(dp4981
g73
(dp4982
g93
g94
ssg82
g4976
sg75
(lp4983
g2352
asbag68
(g89
g70
NtRp4984
(dp4985
g73
(dp4986
g100
g101
ssg82
g4976
sg75
(lp4987
S':'
asbag68
(g89
g70
NtRp4988
(dp4989
g73
(dp4990
sg82
g4976
sg75
(lp4991
g68
(g69
g70
NtRp4992
(dp4993
g73
(dp4994
g81
I5
ssg82
g4988
sg75
(lp4995
g2365
asbasbasbag68
(g84
g70
NtRp4996
(dp4997
g73
(dp4998
sg82
g3444
sg75
(lp4999
g68
(g89
g70
NtRp5000
(dp5001
g73
(dp5002
g93
g94
ssg82
g4996
sg75
(lp5003
S'view'
p5004
asbag68
(g89
g70
NtRp5005
(dp5006
g73
(dp5007
g100
g101
ssg82
g4996
sg75
(lp5008
S':'
asbag68
(g89
g70
NtRp5009
(dp5010
g73
(dp5011
sg82
g4996
sg75
(lp5012
g68
(g69
g70
NtRp5013
(dp5014
g73
(dp5015
g81
I5
ssg82
g5009
sg75
(lp5016
S'default/events.html'
p5017
asbasbasbasbasbsS'locals'
p5018
(dp5019
g4
S"'/home/krutarth/Downloads/911india/applications/911_signin/controllers/default.py'"
p5020
sg6
S"'import datetime\\n# -*- coding: utf-8 -*-\\n# this f...lect()\\n\\n\\nresponse._vars=response._caller(events)\\n'"
p5021
sssS'traceback'
p5022
S'Traceback (most recent call last):\n  File "/home/krutarth/Downloads/911india/gluon/restricted.py", line 204, in restricted\n    ccode = compile2(code,layer)\n  File "/home/krutarth/Downloads/911india/gluon/restricted.py", line 189, in compile2\n    return compile(code.rstrip().replace(\'\\r\\n\',\'\\n\')+\'\\n\', layer, \'exec\')\n  File "/home/krutarth/Downloads/911india/applications/911_signin/controllers/default.py", line 204\n    return dict(form=form)\n         ^\nIndentationError: expected an indented block\n'
p5023
s.