(dp1
S'output'
p2
S"<type 'exceptions.SyntaxError'> invalid syntax (profile.html, line 81)"
p3
sS'layer'
p4
S'/home/enigma/web2py/applications/911_signin/views/default/profile.html'
p5
sS'code'
p6
S'response.write(\'<!DOCTYPE html>\\n<!-- paulirish.com/2008/conditional-stylesheets-vs-css-hacks-answer-neither/ -->\\n<!--[if lt IE 7]><html class="ie ie6 ie-lte9 ie-lte8 ie-lte7 no-js" lang="\', escape=False)\nresponse.write(T.accepted_language or \'en\')\nresponse.write(\'"> <![endif]-->\\n<!--[if IE 7]><html class="ie ie7 ie-lte9 ie-lte8 ie-lte7 no-js" lang="\', escape=False)\nresponse.write(T.accepted_language or \'en\')\nresponse.write(\'"> <![endif]-->\\n<!--[if IE 8]><html class="ie ie8 ie-lte9 ie-lte8 no-js" lang="\', escape=False)\nresponse.write(T.accepted_language or \'en\')\nresponse.write(\'"> <![endif]-->\\n<!--[if IE 9]><html class="ie9 ie-lte9 no-js" lang="\', escape=False)\nresponse.write(T.accepted_language or \'en\')\nresponse.write(\'"> <![endif]-->\\n<!--[if (gt IE 9)|!(IE)]><!--> <html class="no-js" lang="\', escape=False)\nresponse.write(T.accepted_language or \'en\')\nresponse.write(\'"> <!--<![endif]-->\\n<head>\\n  <meta charset="utf-8" />\\n  <!-- www.phpied.com/conditional-comments-block-downloads/ -->\\n  <!-- Always force latest IE rendering engine\\n       (even in intranet) & Chrome Frame\\n       Remove this if you use the .htaccess -->\\n  <!--[if IE]>\\n    <meta http-equiv="X-UA-Compatible" content="IE=edge\', escape=False)\nresponse.write(not request.is_local and \',chrome=1\' or \'\')\nresponse.write(\'">\\n  <![endif]-->\\n  \\n  <title>\', escape=False)\nresponse.write(response.title or request.application)\nresponse.write(\'</title>\\n  \\n  <!-- http://dev.w3.org/html5/markup/meta.name.html -->\\n  <meta name="application-name" content="\', escape=False)\nresponse.write(request.application)\nresponse.write(\'" />\\n  \\n  <!-- Speaking of Google, don\\\'t forget to set your site up:\\n       http://google.com/webmasters -->\\n  <meta name="google-site-verification" content="" />\\n\\n  <!--  Mobile Viewport Fix\\n      j.mp/mobileviewport & davidbcalhoun.com/2010/viewport-metatag\\n      device-width: Occupy full width of the screen in its current orientation\\n      initial-scale = 1.0 retains dimensions instead of zooming out if page height > device height\\n      user-scalable = yes allows the user to zoom in -->\\n  <meta name="viewport" content="width=device-width, initial-scale=1.0, user-scalable=yes">\\n  \\n  <!-- Place favicon.ico and apple-touch-icon.png in the root of your domain and delete these references \\n  <link rel="shortcut icon" href="\', escape=False)\nresponse.write(URL(\'static\',\'favicon.ico\'))\nresponse.write(\'" type="image/x-icon"> -->\\n  <link rel="apple-touch-icon" href="\', escape=False)\nresponse.write(URL(\'static\',\'favicon.png\'))\nresponse.write(\'">\\n\\n  <!-- All JavaScript at the bottom, except for Modernizr which enables \\n       HTML5 elements & feature detects -->\\n  <script src="\', escape=False)\nresponse.write(URL(\'static\',\'js/modernizr.custom.js\'))\nresponse.write(\'"></script>  \\n\\n  <!-- include stylesheets -->\\n  \', escape=False)\nresponse.files.append(URL(\'static\',\'css/skeleton.css\'))\nresponse.files.append(URL(\'static\',\'css/web2py.css\'))\nif response.menu:\n    response.files.append(URL(\'static\',\'css/superfish.css\'))\n    response.files.append(URL(\'static\',\'js/superfish.js\'))\n    pass\nresponse.files.append(URL(\'static\',\'css/911_signin.css\'))\nresponse.write(\'\\n\\n  \', escape=False)\nresponse.write(\'<script type="text/javascript"><!--\\n    // These variables are used by the web2py_ajax_init function in web2py_ajax.js (which is loaded below).\\n    var w2p_ajax_confirm_message = "\', escape=False)\nresponse.write(T(\'Are you sure you want to delete this object?\'))\nresponse.write(\'";\\n    var w2p_ajax_date_format = "\', escape=False)\nresponse.write(T(\'%Y-%m-%d\'))\nresponse.write(\'";\\n    var w2p_ajax_datetime_format = "\', escape=False)\nresponse.write(T(\'%Y-%m-%d %H:%M:%S\'))\nresponse.write(\'";\\n    //--></script>\\n\', escape=False)\nresponse.files.insert(0,URL(\'static\',\'js/jquery.js\'))\nresponse.files.insert(1,URL(\'static\',\'css/calendar.css\'))\nresponse.files.insert(2,URL(\'static\',\'js/calendar.js\'))\nresponse.files.insert(3,URL(\'static\',\'js/web2py.js\'))\nresponse.include_meta()\nresponse.include_files()\nresponse.write(\'\\n\', escape=False)\nresponse.write(\'\\n\\n  \', escape=False)\nif response.menu:\n    response.write(\'\\n  <script type="text/javascript">\\n    jQuery(function(){ jQuery(\\\'ul.sf-menu\\\').supersubs({minWidth:12,maxWidth:30,extraWidth:3}).superfish(); });\\n  </script>\\n  \', escape=False)\n    pass\nresponse.write(\'\\n\\n  \', escape=False)\n# using sidebars need to know what sidebar you want to use\nleft_sidebar_enabled = globals().get(\'left_sidebar_enabled\',False)\nright_sidebar_enabled = globals().get(\'right_sidebar_enabled\',False)\nmiddle_columns = {0:\'sixteen\',1:\'twelve\',2:\'eight\'}[\n(left_sidebar_enabled and 1 or 0)+(right_sidebar_enabled and 1 or 0)]\nresponse.write(\'\\n\\n  <!-- uncomment here to load jquery-ui\\n  <link rel="stylesheet" href="http://ajax.googleapis.com/ajax/libs/jqueryui/1.8.16/themes/base/jquery-ui.css" type="text/css" media="all" />\\n  <script src="http://ajax.googleapis.com/ajax/libs/jqueryui/1.8.16/jquery-ui.min.js" type="text/javascript"></script>\\n  uncomment to load jquery-ui //-->\\n</head>\\n<body>\\n  <div class="wrapper"><!-- for sticky footer -->\\n  \\n    <div class="topbar">\\n      <div class="container">    \\n        <div class="sixteen columns">\\n          <div id="navbar">\', escape=False)\nresponse.write(\'auth\' in globals() and auth.navbar(separators=(\' \',\' | \',\'\')))\nresponse.write(\'</div>\\n          \', escape=False)\nis_mobile=request.user_agent().is_mobile\nresponse.write(\'\\n      \', escape=False)\nif response.menu:\n    response.write(\'\\n          <div id="menu">\\n             <strong><h6><a href= \', escape=False)\n    response.write(URL(\'index\'))\n    response.write(\'>HOME</a></h6></strong>\\n          </div>\\n          \', escape=False)\n    pass\nresponse.write(\'\\n        </div>\\n      </div>\\n    </div><!-- topbar -->\\n    \\n    <div class="flash">\', escape=False)\nresponse.write(response.flash or \'\')\nresponse.write(\'</div>\\n    \\n    <div class="header">\\n      <div class="container">         \\n        <div class="sixteen columns">\\n\\t\\t\\t\\t\\t<div class="profile-pic"></div>\\n\\t\\t\\t\\t\\t<div class="connections">\\n\\t\\t\\t\\t\\t\\t325 connections<br />\\n\\t\\t\\t\\t\\t\\th-network/\', escape=False)\nresponse.write(auth.user.username)\nresponse.write(\'\\n\\t\\t\\t\\t\\t</div>\\n\\t\\t\\t\\t</div>\\n      </div>\\n    </div>\\n\\n    <div class="main">\\n      <div class="container">                 \\n        \', escape=False)\nif left_sidebar_enabled:\n    response.write(\'\\n        <div class="four columns left-sidebar">\\n          \', escape=False)\n    response.write(\'\\n          <h3>Left Sidebar</h3>\\n          <p></p>\\n          \', escape=False)\n    response.write(\'\\n        </div>\\n        \', escape=False)\n    pass\nresponse.write(\'\\n        \\n        <div class="\', escape=False)\nresponse.write(middle_columns)\nresponse.write(\' columns center">\\n          \', escape=False)\nresponse.write(\'\\n          \', escape=False)\nresponse.write(\'\\n\', escape=False)\nif request.args(0) == auth.user.username\nresponse.write("\\n<div class=\'profile-page\'>\\n\\t<h4>ABOUT</h4>\\n\\t", escape=False)\nresponse.write(form)\nresponse.write("\\n\\t<div class=\'experience\'>\\n\\t\\t<h4>EXPERIENCE</h4>\\n\\t\\t", escape=False)\nfor row in experience:\n    response.write(\'\\n\\t\\t<h5>\', escape=False)\n    response.write(row.post)\n    response.write("</h5>\\n\\t\\t<div id=\'place\'>", escape=False)\n    response.write(row.hospital)\n    response.write(\' | \', escape=False)\n    response.write(row.city)\n    response.write(\', \', escape=False)\n    response.write(row.country)\n    response.write("</div>\\n\\t\\t<div id=\'date\'>", escape=False)\n    response.write(row.start_date)\n    response.write(\' to \', escape=False)\n    response.write(row.end_date)\n    response.write("</div>\\n\\t\\t<div id=\'desc\'>", escape=False)\n    response.write(row.description)\n    response.write(\'</div><br />\\n\\t\\t\', escape=False)\n    pass\nresponse.write("\\n\\t\\t<div id=\'add-experience-trigger\' class=\'trigger\'>Add experience</div>\\n\\t\\t<div id=\'add-experience\'>\\n\\t\\t\\t", escape=False)\nresponse.write(form2)\nresponse.write("\\n\\t\\t\\t<div id=\'add-experience-trigger2\' class=\'trigger\'>Hide Form</div>\\n\\t\\t</div>\\t\\n\\t</div>\\t\\n\\n\\t<div class=\'education\'>\\n\\t<h4>EDUCATION</h4>\\n\\t\\t", escape=False)\nfor row in education:\n    response.write(\'\\n\\t\\t<h5>\', escape=False)\n    response.write(row.degree)\n    response.write("</h5>\\n\\t\\t<div id=\'place\'>", escape=False)\n    response.write(row.institute)\n    response.write(\' | \', escape=False)\n    response.write(row.city)\n    response.write(\', \', escape=False)\n    response.write(row.country)\n    response.write("</div>\\n\\t\\t<div id=\'date\'>", escape=False)\n    response.write(row.start_date)\n    response.write(\' to \', escape=False)\n    response.write(row.end_date)\n    response.write("</div>\\n\\t\\t<div id=\'desc\'>", escape=False)\n    response.write(row.description)\n    response.write(\'</div><br />\\n\\t\\t\', escape=False)\n    pass\nresponse.write("\\n\\n\\t<div id=\'add-education-trigger\' class=\'trigger\'>Add education</div>\\n\\t<div id=\'add-education\'>\\n\\t\\t", escape=False)\nresponse.write(form3)\nresponse.write(\'\\n\\t\\t<div id=\\\'add-education-trigger2\\\' class=\\\'trigger\\\'>Hide Form</div>\\n\\t</div>\\t\\n\\t</div>\\t\\n</div>\\n\\n<script src="\', escape=False)\nresponse.write(URL(\'static\',\'js/911_profile.js\'))\nresponse.write(\'"></script>\\n\', escape=False)\npass\nresponse.write(\'\\n\', escape=False)\nresponse.write(\'\\n          \', escape=False)\nresponse.write(\'\\n        </div>\\n        \\n        \', escape=False)\nif right_sidebar_enabled:\n    response.write(\'\\n        <div class="four columns">\\n          \', escape=False)\n    response.write(\'\\n          <h3>Right Sidebar</h3>\\n          <p></p>\\n          \', escape=False)\n    response.write(\'\\n        </div>    \\n        \', escape=False)\n    pass\nresponse.write(\'\\n        \\n      </div><!-- container -->\\n    </div><!-- main -->\\n    \\n    <div class="push"></div>\\n  </div><!-- wrapper -->\\n\\n  <div class="footer">\\n    <div class="container">    \\n      <div class="sixteen columns">\\n\\t\\t\\t\\t\', escape=False)\nresponse.write(\' <!-- this is default footer -->\\n\\t\\t\\t\\t<div class="footer-content clearfix">\\n          <div class="copyright">\', escape=False)\nresponse.write(T(\'Copyright\'))\nresponse.write(\' &#169; 2013</div>\\n          <div style="float: right;">\\n            <a href="http://www.web2py.com/">\\n            <img style="padding-bottom: 0;" src="\', escape=False)\nresponse.write(URL(\'static\',\'images/poweredby.png\'))\nresponse.write(\'"/>\\n            </a>\\n          </div>\\n        </div>\\n      </div>\\n    </div><!-- container -->\\n  </div><!-- footer -->\\n  \\n  <!--[if lt IE 7 ]>\\n    <script src="\', escape=False)\nresponse.write(URL(\'static\',\'js/dd_belatedpng.js\'))\nresponse.write(\'"></script>\\n    <script> DD_belatedPNG.fix(\\\'img, .png_bg\\\'); //fix any <img> or .png_bg background-images </script>\\n    <![endif]-->\\n  \', escape=False)\nif response.google_analytics_id:\n    response.write(\'<script type="text/javascript"> var _gaq = _gaq || []; _gaq.push([\\\'_setAccount\\\', \\\'\', escape=False)\n    response.write(response.google_analytics_id)\n    response.write("\']); _gaq.push([\'_trackPageview\']); (function() { var ga = document.createElement(\'script\'); ga.type = \'text/javascript\'; ga.async = true; ga.src = (\'https:\' == document.location.protocol ? \'https://ssl\' : \'http://www\') + \'.google-analytics.com/ga.js\'; var s = document.getElementsByTagName(\'script\')[0]; s.parentNode.insertBefore(ga, s); })(); </script> ", escape=False)\n    pass\nresponse.write(\'\\n</body>\\n</html>\\n\', escape=False)'
p7
sS'snapshot'
p8
(dp9
S'exception'
p10
(dp11
S'__getslice__'
p12
S"<method-wrapper '__getslice__' of exceptions.SyntaxError object>"
p13
sS'text'
p14
S"'if request.args(0) == auth.user.username\\n'"
p15
sS'__str__'
p16
S"<method-wrapper '__str__' of exceptions.SyntaxError object>"
p17
sS'__reduce__'
p18
S'<built-in method __reduce__ of exceptions.SyntaxError object>'
p19
sS'__dict__'
p20
S'{}'
p21
sS'__sizeof__'
p22
S'<built-in method __sizeof__ of exceptions.SyntaxError object>'
p23
sS'__init__'
p24
S"<method-wrapper '__init__' of exceptions.SyntaxError object>"
p25
sS'__setattr__'
p26
S"<method-wrapper '__setattr__' of exceptions.SyntaxError object>"
p27
sS'__reduce_ex__'
p28
S'<built-in method __reduce_ex__ of exceptions.SyntaxError object>'
p29
sS'__new__'
p30
S'<built-in method __new__ of type object>'
p31
sS'__format__'
p32
S'<built-in method __format__ of exceptions.SyntaxError object>'
p33
sS'__class__'
p34
S"<type 'exceptions.SyntaxError'>"
p35
sS'filename'
p36
S"'/home/enigma/web2py/applications/911_signin/views/default/profile.html'"
p37
sS'lineno'
p38
S'81'
p39
sS'msg'
p40
S"'invalid syntax'"
p41
sS'__doc__'
p42
S"'Invalid syntax.'"
p43
sS'__getitem__'
p44
S"<method-wrapper '__getitem__' of exceptions.SyntaxError object>"
p45
sS'__setstate__'
p46
S'<built-in method __setstate__ of exceptions.SyntaxError object>'
p47
sS'__getattribute__'
p48
S"<method-wrapper '__getattribute__' of exceptions.SyntaxError object>"
p49
sS'print_file_and_line'
p50
S'None'
p51
sS'args'
p52
S"('invalid syntax', ('/home/enigma/web2py/applications/911_signin/views/default/profile.html', 81, 41, 'if request.args(0) == auth.user.username\\n'))"
p53
sS'__subclasshook__'
p54
S'<built-in method __subclasshook__ of type object>'
p55
sS'offset'
p56
S'41'
p57
sS'__unicode__'
p58
S'<built-in method __unicode__ of exceptions.SyntaxError object>'
p59
sS'__delattr__'
p60
S"<method-wrapper '__delattr__' of exceptions.SyntaxError object>"
p61
sS'__repr__'
p62
S"<method-wrapper '__repr__' of exceptions.SyntaxError object>"
p63
sS'__hash__'
p64
S"<method-wrapper '__hash__' of exceptions.SyntaxError object>"
p65
ssS'evalue'
p66
S'invalid syntax (profile.html, line 81)'
p67
sS'request'
p68
ccopy_reg
_reconstructor
p69
(cgluon.html
BEAUTIFY
p70
c__builtin__
object
p71
NtRp72
(dp73
S'attributes'
p74
(dp75
sS'components'
p76
(lp77
g69
(cgluon.html
TABLE
p78
g71
NtRp79
(dp80
g74
(dp81
S'level'
p82
I5
ssS'parent'
p83
Nsg76
(lp84
g69
(cgluon.html
TR
p85
g71
NtRp86
(dp87
g74
(dp88
sg83
g79
sg76
(lp89
g69
(cgluon.html
TD
p90
g71
NtRp91
(dp92
g74
(dp93
S'_style'
p94
S'font-weight:bold;vertical-align:top'
p95
ssg83
g86
sg76
(lp96
S'ajax'
p97
asbag69
(g90
g71
NtRp98
(dp99
g74
(dp100
S'_valign'
p101
S'top'
p102
ssg83
g86
sg76
(lp103
S':'
asbag69
(g90
g71
NtRp104
(dp105
g74
(dp106
sg83
g86
sg76
(lp107
g69
(g70
g71
NtRp108
(dp109
g74
(dp110
g82
I5
ssg83
g104
sg76
(lp111
S'False'
p112
asbasbasbag69
(g85
g71
NtRp113
(dp114
g74
(dp115
sg83
g79
sg76
(lp116
g69
(g90
g71
NtRp117
(dp118
g74
(dp119
g94
g95
ssg83
g113
sg76
(lp120
S'application'
p121
asbag69
(g90
g71
NtRp122
(dp123
g74
(dp124
g101
g102
ssg83
g113
sg76
(lp125
S':'
asbag69
(g90
g71
NtRp126
(dp127
g74
(dp128
sg83
g113
sg76
(lp129
g69
(g70
g71
NtRp130
(dp131
g74
(dp132
g82
I5
ssg83
g126
sg76
(lp133
S'911_signin'
p134
asbasbasbag69
(g85
g71
NtRp135
(dp136
g74
(dp137
sg83
g79
sg76
(lp138
g69
(g90
g71
NtRp139
(dp140
g74
(dp141
g94
g95
ssg83
g135
sg76
(lp142
g52
asbag69
(g90
g71
NtRp143
(dp144
g74
(dp145
g101
g102
ssg83
g135
sg76
(lp146
S':'
asbag69
(g90
g71
NtRp147
(dp148
g74
(dp149
sg83
g135
sg76
(lp150
g69
(g70
g71
NtRp151
(dp152
g74
(dp153
g82
I5
ssg83
g147
sg76
(lp154
g69
(g78
g71
NtRp155
(dp156
g74
(dp157
g82
I4
ssg83
Nsg76
(lp158
g69
(g85
g71
NtRp159
(dp160
g74
(dp161
sg83
g155
sg76
(lp162
g69
(g90
g71
NtRp163
(dp164
g74
(dp165
sg83
g159
sg76
(lp166
g69
(g70
g71
NtRp167
(dp168
g74
(dp169
g82
I4
ssg83
g163
sg76
(lp170
S'1'
asbasbasbasbasbasbasbag69
(g85
g71
NtRp171
(dp172
g74
(dp173
sg83
g79
sg76
(lp174
g69
(g90
g71
NtRp175
(dp176
g74
(dp177
g94
g95
ssg83
g171
sg76
(lp178
S'body'
p179
asbag69
(g90
g71
NtRp180
(dp181
g74
(dp182
g101
g102
ssg83
g171
sg76
(lp183
S':'
asbag69
(g90
g71
NtRp184
(dp185
g74
(dp186
sg83
g171
sg76
(lp187
g69
(g70
g71
NtRp188
(dp189
g74
(dp190
g82
I5
ssg83
g184
sg76
(lp191
S'<cStringIO.StringO object at 0xb43c7620>'
p192
asbasbasbag69
(g85
g71
NtRp193
(dp194
g74
(dp195
sg83
g79
sg76
(lp196
g69
(g90
g71
NtRp197
(dp198
g74
(dp199
g94
g95
ssg83
g193
sg76
(lp200
S'client'
p201
asbag69
(g90
g71
NtRp202
(dp203
g74
(dp204
g101
g102
ssg83
g193
sg76
(lp205
S':'
asbag69
(g90
g71
NtRp206
(dp207
g74
(dp208
sg83
g193
sg76
(lp209
g69
(g70
g71
NtRp210
(dp211
g74
(dp212
g82
I5
ssg83
g206
sg76
(lp213
S'127.0.0.1'
p214
asbasbasbag69
(g85
g71
NtRp215
(dp216
g74
(dp217
sg83
g79
sg76
(lp218
g69
(g90
g71
NtRp219
(dp220
g74
(dp221
g94
g95
ssg83
g215
sg76
(lp222
S'controller'
p223
asbag69
(g90
g71
NtRp224
(dp225
g74
(dp226
g101
g102
ssg83
g215
sg76
(lp227
S':'
asbag69
(g90
g71
NtRp228
(dp229
g74
(dp230
sg83
g215
sg76
(lp231
g69
(g70
g71
NtRp232
(dp233
g74
(dp234
g82
I5
ssg83
g228
sg76
(lp235
S'default'
p236
asbasbasbag69
(g85
g71
NtRp237
(dp238
g74
(dp239
sg83
g79
sg76
(lp240
g69
(g90
g71
NtRp241
(dp242
g74
(dp243
g94
g95
ssg83
g237
sg76
(lp244
S'cookies'
p245
asbag69
(g90
g71
NtRp246
(dp247
g74
(dp248
g101
g102
ssg83
g237
sg76
(lp249
S':'
asbag69
(g90
g71
NtRp250
(dp251
g74
(dp252
sg83
g237
sg76
(lp253
g69
(g70
g71
NtRp254
(dp255
g74
(dp256
g82
I5
ssg83
g250
sg76
(lp257
g69
(g78
g71
NtRp258
(dp259
g74
(dp260
g82
I4
ssg83
Nsg76
(lp261
g69
(g85
g71
NtRp262
(dp263
g74
(dp264
sg83
g258
sg76
(lp265
g69
(g90
g71
NtRp266
(dp267
g74
(dp268
g94
g95
ssg83
g262
sg76
(lp269
S'session_id_911_signin'
p270
asbag69
(g90
g71
NtRp271
(dp272
g74
(dp273
g101
g102
ssg83
g262
sg76
(lp274
S':'
asbag69
(g90
g71
NtRp275
(dp276
g74
(dp277
sg83
g262
sg76
(lp278
g69
(g70
g71
NtRp279
(dp280
g74
(dp281
g82
I4
ssg83
g275
sg76
(lp282
g69
(g78
g71
NtRp283
(dp284
g74
(dp285
g82
I3
ssg83
Nsg76
(lp286
g69
(g85
g71
NtRp287
(dp288
g74
(dp289
sg83
g283
sg76
(lp290
g69
(g90
g71
NtRp291
(dp292
g74
(dp293
g94
g95
ssg83
g287
sg76
(lp294
S'comment'
p295
asbag69
(g90
g71
NtRp296
(dp297
g74
(dp298
g101
g102
ssg83
g287
sg76
(lp299
S':'
asbag69
(g90
g71
NtRp300
(dp301
g74
(dp302
sg83
g287
sg76
(lp303
g69
(g70
g71
NtRp304
(dp305
g74
(dp306
g82
I3
ssg83
g300
sg76
(lp307
S''
asbasbasbag69
(g85
g71
NtRp308
(dp309
g74
(dp310
sg83
g283
sg76
(lp311
g69
(g90
g71
NtRp312
(dp313
g74
(dp314
g94
g95
ssg83
g308
sg76
(lp315
S'domain'
p316
asbag69
(g90
g71
NtRp317
(dp318
g74
(dp319
g101
g102
ssg83
g308
sg76
(lp320
S':'
asbag69
(g90
g71
NtRp321
(dp322
g74
(dp323
sg83
g308
sg76
(lp324
g69
(g70
g71
NtRp325
(dp326
g74
(dp327
g82
I3
ssg83
g321
sg76
(lp328
S''
asbasbasbag69
(g85
g71
NtRp329
(dp330
g74
(dp331
sg83
g283
sg76
(lp332
g69
(g90
g71
NtRp333
(dp334
g74
(dp335
g94
g95
ssg83
g329
sg76
(lp336
S'expires'
p337
asbag69
(g90
g71
NtRp338
(dp339
g74
(dp340
g101
g102
ssg83
g329
sg76
(lp341
S':'
asbag69
(g90
g71
NtRp342
(dp343
g74
(dp344
sg83
g329
sg76
(lp345
g69
(g70
g71
NtRp346
(dp347
g74
(dp348
g82
I3
ssg83
g342
sg76
(lp349
S''
asbasbasbag69
(g85
g71
NtRp350
(dp351
g74
(dp352
sg83
g283
sg76
(lp353
g69
(g90
g71
NtRp354
(dp355
g74
(dp356
g94
g95
ssg83
g350
sg76
(lp357
S'httponly'
p358
asbag69
(g90
g71
NtRp359
(dp360
g74
(dp361
g101
g102
ssg83
g350
sg76
(lp362
S':'
asbag69
(g90
g71
NtRp363
(dp364
g74
(dp365
sg83
g350
sg76
(lp366
g69
(g70
g71
NtRp367
(dp368
g74
(dp369
g82
I3
ssg83
g363
sg76
(lp370
S''
asbasbasbag69
(g85
g71
NtRp371
(dp372
g74
(dp373
sg83
g283
sg76
(lp374
g69
(g90
g71
NtRp375
(dp376
g74
(dp377
g94
g95
ssg83
g371
sg76
(lp378
S'max-age'
p379
asbag69
(g90
g71
NtRp380
(dp381
g74
(dp382
g101
g102
ssg83
g371
sg76
(lp383
S':'
asbag69
(g90
g71
NtRp384
(dp385
g74
(dp386
sg83
g371
sg76
(lp387
g69
(g70
g71
NtRp388
(dp389
g74
(dp390
g82
I3
ssg83
g384
sg76
(lp391
S''
asbasbasbag69
(g85
g71
NtRp392
(dp393
g74
(dp394
sg83
g283
sg76
(lp395
g69
(g90
g71
NtRp396
(dp397
g74
(dp398
g94
g95
ssg83
g392
sg76
(lp399
S'path'
p400
asbag69
(g90
g71
NtRp401
(dp402
g74
(dp403
g101
g102
ssg83
g392
sg76
(lp404
S':'
asbag69
(g90
g71
NtRp405
(dp406
g74
(dp407
sg83
g392
sg76
(lp408
g69
(g70
g71
NtRp409
(dp410
g74
(dp411
g82
I3
ssg83
g405
sg76
(lp412
S''
asbasbasbag69
(g85
g71
NtRp413
(dp414
g74
(dp415
sg83
g283
sg76
(lp416
g69
(g90
g71
NtRp417
(dp418
g74
(dp419
g94
g95
ssg83
g413
sg76
(lp420
S'secure'
p421
asbag69
(g90
g71
NtRp422
(dp423
g74
(dp424
g101
g102
ssg83
g413
sg76
(lp425
S':'
asbag69
(g90
g71
NtRp426
(dp427
g74
(dp428
sg83
g413
sg76
(lp429
g69
(g70
g71
NtRp430
(dp431
g74
(dp432
g82
I3
ssg83
g426
sg76
(lp433
S''
asbasbasbag69
(g85
g71
NtRp434
(dp435
g74
(dp436
sg83
g283
sg76
(lp437
g69
(g90
g71
NtRp438
(dp439
g74
(dp440
g94
g95
ssg83
g434
sg76
(lp441
S'version'
p442
asbag69
(g90
g71
NtRp443
(dp444
g74
(dp445
g101
g102
ssg83
g434
sg76
(lp446
S':'
asbag69
(g90
g71
NtRp447
(dp448
g74
(dp449
sg83
g434
sg76
(lp450
g69
(g70
g71
NtRp451
(dp452
g74
(dp453
g82
I3
ssg83
g447
sg76
(lp454
S''
asbasbasbasbasbasbasbasbasbasbasbag69
(g85
g71
NtRp455
(dp456
g74
(dp457
sg83
g79
sg76
(lp458
g69
(g90
g71
NtRp459
(dp460
g74
(dp461
g94
g95
ssg83
g455
sg76
(lp462
S'env'
p463
asbag69
(g90
g71
NtRp464
(dp465
g74
(dp466
g101
g102
ssg83
g455
sg76
(lp467
S':'
asbag69
(g90
g71
NtRp468
(dp469
g74
(dp470
sg83
g455
sg76
(lp471
g69
(g70
g71
NtRp472
(dp473
g74
(dp474
g82
I5
ssg83
g468
sg76
(lp475
g69
(g78
g71
NtRp476
(dp477
g74
(dp478
g82
I4
ssg83
Nsg76
(lp479
g69
(g85
g71
NtRp480
(dp481
g74
(dp482
sg83
g476
sg76
(lp483
g69
(g90
g71
NtRp484
(dp485
g74
(dp486
g94
g95
ssg83
g480
sg76
(lp487
S'app_folders'
p488
asbag69
(g90
g71
NtRp489
(dp490
g74
(dp491
g101
g102
ssg83
g480
sg76
(lp492
S':'
asbag69
(g90
g71
NtRp493
(dp494
g74
(dp495
sg83
g480
sg76
(lp496
g69
(g70
g71
NtRp497
(dp498
g74
(dp499
g82
I4
ssg83
g493
sg76
(lp500
S"set(['/home/enigma/web2py/applications/911_signin/'])"
p501
asbasbasbag69
(g85
g71
NtRp502
(dp503
g74
(dp504
sg83
g476
sg76
(lp505
g69
(g90
g71
NtRp506
(dp507
g74
(dp508
g94
g95
ssg83
g502
sg76
(lp509
S'applications_parent'
p510
asbag69
(g90
g71
NtRp511
(dp512
g74
(dp513
g101
g102
ssg83
g502
sg76
(lp514
S':'
asbag69
(g90
g71
NtRp515
(dp516
g74
(dp517
sg83
g502
sg76
(lp518
g69
(g70
g71
NtRp519
(dp520
g74
(dp521
g82
I4
ssg83
g515
sg76
(lp522
S'/home/enigma/web2py'
p523
asbasbasbag69
(g85
g71
NtRp524
(dp525
g74
(dp526
sg83
g476
sg76
(lp527
g69
(g90
g71
NtRp528
(dp529
g74
(dp530
g94
g95
ssg83
g524
sg76
(lp531
S'cmd_args'
p532
asbag69
(g90
g71
NtRp533
(dp534
g74
(dp535
g101
g102
ssg83
g524
sg76
(lp536
S':'
asbag69
(g90
g71
NtRp537
(dp538
g74
(dp539
sg83
g524
sg76
(lp540
g69
(g70
g71
NtRp541
(dp542
g74
(dp543
g82
I4
ssg83
g537
sg76
(lp544
g69
(g78
g71
NtRp545
(dp546
g74
(dp547
g82
I3
ssg83
Nsg76
(lp548
sbasbasbasbag69
(g85
g71
NtRp549
(dp550
g74
(dp551
sg83
g476
sg76
(lp552
g69
(g90
g71
NtRp553
(dp554
g74
(dp555
g94
g95
ssg83
g549
sg76
(lp556
S'cmd_options'
p557
asbag69
(g90
g71
NtRp558
(dp559
g74
(dp560
g101
g102
ssg83
g549
sg76
(lp561
S':'
asbag69
(g90
g71
NtRp562
(dp563
g74
(dp564
sg83
g549
sg76
(lp565
g69
(g70
g71
NtRp566
(dp567
g74
(dp568
g82
I4
ssg83
g562
sg76
(lp569
S"<Values at 0x9fdcbac: {'verbose': False, 'ip': '127.0.0.1', 'shutdown_timeout': 5, 'taskbar': False, 'nocron': False, 'pid_filename': 'httpserver.pid', 'maxthreads': None, 'softcron': False, 'server_name': 'ubuntu', 'bpython': False, 'nogui': False, 'port': 8000, 'extcron': False, 'debuglevel': 30, 'test': None, 'folder': '/home/enigma/web2py', 'config': '', 'import_models': False, 'winservice': '', 'shell': None, 'run': '', 'log_filename': 'httpserver.log', 'args': [''], 'socket_timeout': 5, 'ssl_ca_certificate': None, 'scheduler': None, 'profiler_filename': None, 'ssl_private_key': '', 'password': '<ask>', 'request_queue_size': 5, 'ssl_certificate': '', 'cronjob': False, 'numthreads': None, 'quiet': False, 'interfaces': None, 'minthreads': None, 'timeout': 10, 'plain': False, 'nobanner': False}>"
p570
asbasbasbag69
(g85
g71
NtRp571
(dp572
g74
(dp573
sg83
g476
sg76
(lp574
g69
(g90
g71
NtRp575
(dp576
g74
(dp577
g94
g95
ssg83
g571
sg76
(lp578
S'db_sessions'
p579
asbag69
(g90
g71
NtRp580
(dp581
g74
(dp582
g101
g102
ssg83
g571
sg76
(lp583
S':'
asbag69
(g90
g71
NtRp584
(dp585
g74
(dp586
sg83
g571
sg76
(lp587
g69
(g70
g71
NtRp588
(dp589
g74
(dp590
g82
I4
ssg83
g584
sg76
(lp591
S'set([])'
p592
asbasbasbag69
(g85
g71
NtRp593
(dp594
g74
(dp595
sg83
g476
sg76
(lp596
g69
(g90
g71
NtRp597
(dp598
g74
(dp599
g94
g95
ssg83
g593
sg76
(lp600
S'debugging'
p601
asbag69
(g90
g71
NtRp602
(dp603
g74
(dp604
g101
g102
ssg83
g593
sg76
(lp605
S':'
asbag69
(g90
g71
NtRp606
(dp607
g74
(dp608
sg83
g593
sg76
(lp609
g69
(g70
g71
NtRp610
(dp611
g74
(dp612
g82
I4
ssg83
g606
sg76
(lp613
g112
asbasbasbag69
(g85
g71
NtRp614
(dp615
g74
(dp616
sg83
g476
sg76
(lp617
g69
(g90
g71
NtRp618
(dp619
g74
(dp620
g94
g95
ssg83
g614
sg76
(lp621
S'gluon_parent'
p622
asbag69
(g90
g71
NtRp623
(dp624
g74
(dp625
g101
g102
ssg83
g614
sg76
(lp626
S':'
asbag69
(g90
g71
NtRp627
(dp628
g74
(dp629
sg83
g614
sg76
(lp630
g69
(g70
g71
NtRp631
(dp632
g74
(dp633
g82
I4
ssg83
g627
sg76
(lp634
S'/home/enigma/web2py'
p635
asbasbasbag69
(g85
g71
NtRp636
(dp637
g74
(dp638
sg83
g476
sg76
(lp639
g69
(g90
g71
NtRp640
(dp641
g74
(dp642
g94
g95
ssg83
g636
sg76
(lp643
S'http_accept'
p644
asbag69
(g90
g71
NtRp645
(dp646
g74
(dp647
g101
g102
ssg83
g636
sg76
(lp648
S':'
asbag69
(g90
g71
NtRp649
(dp650
g74
(dp651
sg83
g636
sg76
(lp652
g69
(g70
g71
NtRp653
(dp654
g74
(dp655
g82
I4
ssg83
g649
sg76
(lp656
S'text/html,application/xhtml+xml,application/xml;q=0.9,*/*;q=0.8'
p657
asbasbasbag69
(g85
g71
NtRp658
(dp659
g74
(dp660
sg83
g476
sg76
(lp661
g69
(g90
g71
NtRp662
(dp663
g74
(dp664
g94
g95
ssg83
g658
sg76
(lp665
S'http_accept_charset'
p666
asbag69
(g90
g71
NtRp667
(dp668
g74
(dp669
g101
g102
ssg83
g658
sg76
(lp670
S':'
asbag69
(g90
g71
NtRp671
(dp672
g74
(dp673
sg83
g658
sg76
(lp674
g69
(g70
g71
NtRp675
(dp676
g74
(dp677
g82
I4
ssg83
g671
sg76
(lp678
S'ISO-8859-1,utf-8;q=0.7,*;q=0.3'
p679
asbasbasbag69
(g85
g71
NtRp680
(dp681
g74
(dp682
sg83
g476
sg76
(lp683
g69
(g90
g71
NtRp684
(dp685
g74
(dp686
g94
g95
ssg83
g680
sg76
(lp687
S'http_accept_encoding'
p688
asbag69
(g90
g71
NtRp689
(dp690
g74
(dp691
g101
g102
ssg83
g680
sg76
(lp692
S':'
asbag69
(g90
g71
NtRp693
(dp694
g74
(dp695
sg83
g680
sg76
(lp696
g69
(g70
g71
NtRp697
(dp698
g74
(dp699
g82
I4
ssg83
g693
sg76
(lp700
S'gzip,deflate,sdch'
p701
asbasbasbag69
(g85
g71
NtRp702
(dp703
g74
(dp704
sg83
g476
sg76
(lp705
g69
(g90
g71
NtRp706
(dp707
g74
(dp708
g94
g95
ssg83
g702
sg76
(lp709
S'http_accept_language'
p710
asbag69
(g90
g71
NtRp711
(dp712
g74
(dp713
g101
g102
ssg83
g702
sg76
(lp714
S':'
asbag69
(g90
g71
NtRp715
(dp716
g74
(dp717
sg83
g702
sg76
(lp718
g69
(g70
g71
NtRp719
(dp720
g74
(dp721
g82
I4
ssg83
g715
sg76
(lp722
S'en-US,en;q=0.8'
p723
asbasbasbag69
(g85
g71
NtRp724
(dp725
g74
(dp726
sg83
g476
sg76
(lp727
g69
(g90
g71
NtRp728
(dp729
g74
(dp730
g94
g95
ssg83
g724
sg76
(lp731
S'http_cache_control'
p732
asbag69
(g90
g71
NtRp733
(dp734
g74
(dp735
g101
g102
ssg83
g724
sg76
(lp736
S':'
asbag69
(g90
g71
NtRp737
(dp738
g74
(dp739
sg83
g724
sg76
(lp740
g69
(g70
g71
NtRp741
(dp742
g74
(dp743
g82
I4
ssg83
g737
sg76
(lp744
S'max-age=0'
p745
asbasbasbag69
(g85
g71
NtRp746
(dp747
g74
(dp748
sg83
g476
sg76
(lp749
g69
(g90
g71
NtRp750
(dp751
g74
(dp752
g94
g95
ssg83
g746
sg76
(lp753
S'http_connection'
p754
asbag69
(g90
g71
NtRp755
(dp756
g74
(dp757
g101
g102
ssg83
g746
sg76
(lp758
S':'
asbag69
(g90
g71
NtRp759
(dp760
g74
(dp761
sg83
g746
sg76
(lp762
g69
(g70
g71
NtRp763
(dp764
g74
(dp765
g82
I4
ssg83
g759
sg76
(lp766
S'keep-alive'
p767
asbasbasbag69
(g85
g71
NtRp768
(dp769
g74
(dp770
sg83
g476
sg76
(lp771
g69
(g90
g71
NtRp772
(dp773
g74
(dp774
g94
g95
ssg83
g768
sg76
(lp775
S'http_cookie'
p776
asbag69
(g90
g71
NtRp777
(dp778
g74
(dp779
g101
g102
ssg83
g768
sg76
(lp780
S':'
asbag69
(g90
g71
NtRp781
(dp782
g74
(dp783
sg83
g768
sg76
(lp784
g69
(g70
g71
NtRp785
(dp786
g74
(dp787
g82
I4
ssg83
g781
sg76
(lp788
S'session_id_911_signin=127.0.0.1-2102934b-c5d9-414f-bba8-9d75c955d101'
p789
asbasbasbag69
(g85
g71
NtRp790
(dp791
g74
(dp792
sg83
g476
sg76
(lp793
g69
(g90
g71
NtRp794
(dp795
g74
(dp796
g94
g95
ssg83
g790
sg76
(lp797
S'http_host'
p798
asbag69
(g90
g71
NtRp799
(dp800
g74
(dp801
g101
g102
ssg83
g790
sg76
(lp802
S':'
asbag69
(g90
g71
NtRp803
(dp804
g74
(dp805
sg83
g790
sg76
(lp806
g69
(g70
g71
NtRp807
(dp808
g74
(dp809
g82
I4
ssg83
g803
sg76
(lp810
S'127.0.0.1:8000'
p811
asbasbasbag69
(g85
g71
NtRp812
(dp813
g74
(dp814
sg83
g476
sg76
(lp815
g69
(g90
g71
NtRp816
(dp817
g74
(dp818
g94
g95
ssg83
g812
sg76
(lp819
S'http_user_agent'
p820
asbag69
(g90
g71
NtRp821
(dp822
g74
(dp823
g101
g102
ssg83
g812
sg76
(lp824
S':'
asbag69
(g90
g71
NtRp825
(dp826
g74
(dp827
sg83
g812
sg76
(lp828
g69
(g70
g71
NtRp829
(dp830
g74
(dp831
g82
I4
ssg83
g825
sg76
(lp832
S'Mozilla/5.0 (X11; Linux i686) AppleWebKit/537.31 (KHTML, like Gecko) Chrome/26.0.1410.63 Safari/537.31'
p833
asbasbasbag69
(g85
g71
NtRp834
(dp835
g74
(dp836
sg83
g476
sg76
(lp837
g69
(g90
g71
NtRp838
(dp839
g74
(dp840
g94
g95
ssg83
g834
sg76
(lp841
S'is_jython'
p842
asbag69
(g90
g71
NtRp843
(dp844
g74
(dp845
g101
g102
ssg83
g834
sg76
(lp846
S':'
asbag69
(g90
g71
NtRp847
(dp848
g74
(dp849
sg83
g834
sg76
(lp850
g69
(g70
g71
NtRp851
(dp852
g74
(dp853
g82
I4
ssg83
g847
sg76
(lp854
g112
asbasbasbag69
(g85
g71
NtRp855
(dp856
g74
(dp857
sg83
g476
sg76
(lp858
g69
(g90
g71
NtRp859
(dp860
g74
(dp861
g94
g95
ssg83
g855
sg76
(lp862
S'is_pypy'
p863
asbag69
(g90
g71
NtRp864
(dp865
g74
(dp866
g101
g102
ssg83
g855
sg76
(lp867
S':'
asbag69
(g90
g71
NtRp868
(dp869
g74
(dp870
sg83
g855
sg76
(lp871
g69
(g70
g71
NtRp872
(dp873
g74
(dp874
g82
I4
ssg83
g868
sg76
(lp875
g112
asbasbasbag69
(g85
g71
NtRp876
(dp877
g74
(dp878
sg83
g476
sg76
(lp879
g69
(g90
g71
NtRp880
(dp881
g74
(dp882
g94
g95
ssg83
g876
sg76
(lp883
S'path_info'
p884
asbag69
(g90
g71
NtRp885
(dp886
g74
(dp887
g101
g102
ssg83
g876
sg76
(lp888
S':'
asbag69
(g90
g71
NtRp889
(dp890
g74
(dp891
sg83
g876
sg76
(lp892
g69
(g70
g71
NtRp893
(dp894
g74
(dp895
g82
I4
ssg83
g889
sg76
(lp896
S'/911_signin/default/profile/1'
p897
asbasbasbag69
(g85
g71
NtRp898
(dp899
g74
(dp900
sg83
g476
sg76
(lp901
g69
(g90
g71
NtRp902
(dp903
g74
(dp904
g94
g95
ssg83
g898
sg76
(lp905
S'query_string'
p906
asbag69
(g90
g71
NtRp907
(dp908
g74
(dp909
g101
g102
ssg83
g898
sg76
(lp910
S':'
asbag69
(g90
g71
NtRp911
(dp912
g74
(dp913
sg83
g898
sg76
(lp914
g69
(g70
g71
NtRp915
(dp916
g74
(dp917
g82
I4
ssg83
g911
sg76
(lp918
S''
asbasbasbag69
(g85
g71
NtRp919
(dp920
g74
(dp921
sg83
g476
sg76
(lp922
g69
(g90
g71
NtRp923
(dp924
g74
(dp925
g94
g95
ssg83
g919
sg76
(lp926
S'remote_addr'
p927
asbag69
(g90
g71
NtRp928
(dp929
g74
(dp930
g101
g102
ssg83
g919
sg76
(lp931
S':'
asbag69
(g90
g71
NtRp932
(dp933
g74
(dp934
sg83
g919
sg76
(lp935
g69
(g70
g71
NtRp936
(dp937
g74
(dp938
g82
I4
ssg83
g932
sg76
(lp939
g214
asbasbasbag69
(g85
g71
NtRp940
(dp941
g74
(dp942
sg83
g476
sg76
(lp943
g69
(g90
g71
NtRp944
(dp945
g74
(dp946
g94
g95
ssg83
g940
sg76
(lp947
S'remote_port'
p948
asbag69
(g90
g71
NtRp949
(dp950
g74
(dp951
g101
g102
ssg83
g940
sg76
(lp952
S':'
asbag69
(g90
g71
NtRp953
(dp954
g74
(dp955
sg83
g940
sg76
(lp956
g69
(g70
g71
NtRp957
(dp958
g74
(dp959
g82
I4
ssg83
g953
sg76
(lp960
S'33547'
p961
asbasbasbag69
(g85
g71
NtRp962
(dp963
g74
(dp964
sg83
g476
sg76
(lp965
g69
(g90
g71
NtRp966
(dp967
g74
(dp968
g94
g95
ssg83
g962
sg76
(lp969
S'request_method'
p970
asbag69
(g90
g71
NtRp971
(dp972
g74
(dp973
g101
g102
ssg83
g962
sg76
(lp974
S':'
asbag69
(g90
g71
NtRp975
(dp976
g74
(dp977
sg83
g962
sg76
(lp978
g69
(g70
g71
NtRp979
(dp980
g74
(dp981
g82
I4
ssg83
g975
sg76
(lp982
S'GET'
p983
asbasbasbag69
(g85
g71
NtRp984
(dp985
g74
(dp986
sg83
g476
sg76
(lp987
g69
(g90
g71
NtRp988
(dp989
g74
(dp990
g94
g95
ssg83
g984
sg76
(lp991
S'script_name'
p992
asbag69
(g90
g71
NtRp993
(dp994
g74
(dp995
g101
g102
ssg83
g984
sg76
(lp996
S':'
asbag69
(g90
g71
NtRp997
(dp998
g74
(dp999
sg83
g984
sg76
(lp1000
g69
(g70
g71
NtRp1001
(dp1002
g74
(dp1003
g82
I4
ssg83
g997
sg76
(lp1004
S''
asbasbasbag69
(g85
g71
NtRp1005
(dp1006
g74
(dp1007
sg83
g476
sg76
(lp1008
g69
(g90
g71
NtRp1009
(dp1010
g74
(dp1011
g94
g95
ssg83
g1005
sg76
(lp1012
S'server_name'
p1013
asbag69
(g90
g71
NtRp1014
(dp1015
g74
(dp1016
g101
g102
ssg83
g1005
sg76
(lp1017
S':'
asbag69
(g90
g71
NtRp1018
(dp1019
g74
(dp1020
sg83
g1005
sg76
(lp1021
g69
(g70
g71
NtRp1022
(dp1023
g74
(dp1024
g82
I4
ssg83
g1018
sg76
(lp1025
S'ubuntu'
p1026
asbasbasbag69
(g85
g71
NtRp1027
(dp1028
g74
(dp1029
sg83
g476
sg76
(lp1030
g69
(g90
g71
NtRp1031
(dp1032
g74
(dp1033
g94
g95
ssg83
g1027
sg76
(lp1034
S'server_port'
p1035
asbag69
(g90
g71
NtRp1036
(dp1037
g74
(dp1038
g101
g102
ssg83
g1027
sg76
(lp1039
S':'
asbag69
(g90
g71
NtRp1040
(dp1041
g74
(dp1042
sg83
g1027
sg76
(lp1043
g69
(g70
g71
NtRp1044
(dp1045
g74
(dp1046
g82
I4
ssg83
g1040
sg76
(lp1047
S'8000'
p1048
asbasbasbag69
(g85
g71
NtRp1049
(dp1050
g74
(dp1051
sg83
g476
sg76
(lp1052
g69
(g90
g71
NtRp1053
(dp1054
g74
(dp1055
g94
g95
ssg83
g1049
sg76
(lp1056
S'server_protocol'
p1057
asbag69
(g90
g71
NtRp1058
(dp1059
g74
(dp1060
g101
g102
ssg83
g1049
sg76
(lp1061
S':'
asbag69
(g90
g71
NtRp1062
(dp1063
g74
(dp1064
sg83
g1049
sg76
(lp1065
g69
(g70
g71
NtRp1066
(dp1067
g74
(dp1068
g82
I4
ssg83
g1062
sg76
(lp1069
S'HTTP/1.1'
p1070
asbasbasbag69
(g85
g71
NtRp1071
(dp1072
g74
(dp1073
sg83
g476
sg76
(lp1074
g69
(g90
g71
NtRp1075
(dp1076
g74
(dp1077
g94
g95
ssg83
g1071
sg76
(lp1078
S'server_software'
p1079
asbag69
(g90
g71
NtRp1080
(dp1081
g74
(dp1082
g101
g102
ssg83
g1071
sg76
(lp1083
S':'
asbag69
(g90
g71
NtRp1084
(dp1085
g74
(dp1086
sg83
g1071
sg76
(lp1087
g69
(g70
g71
NtRp1088
(dp1089
g74
(dp1090
g82
I4
ssg83
g1084
sg76
(lp1091
S'Rocket 1.2.4'
p1092
asbasbasbag69
(g85
g71
NtRp1093
(dp1094
g74
(dp1095
sg83
g476
sg76
(lp1096
g69
(g90
g71
NtRp1097
(dp1098
g74
(dp1099
g94
g95
ssg83
g1093
sg76
(lp1100
S'web2py_crontype'
p1101
asbag69
(g90
g71
NtRp1102
(dp1103
g74
(dp1104
g101
g102
ssg83
g1093
sg76
(lp1105
S':'
asbag69
(g90
g71
NtRp1106
(dp1107
g74
(dp1108
sg83
g1093
sg76
(lp1109
g69
(g70
g71
NtRp1110
(dp1111
g74
(dp1112
g82
I4
ssg83
g1106
sg76
(lp1113
S'hard'
p1114
asbasbasbag69
(g85
g71
NtRp1115
(dp1116
g74
(dp1117
sg83
g476
sg76
(lp1118
g69
(g90
g71
NtRp1119
(dp1120
g74
(dp1121
g94
g95
ssg83
g1115
sg76
(lp1122
S'web2py_path'
p1123
asbag69
(g90
g71
NtRp1124
(dp1125
g74
(dp1126
g101
g102
ssg83
g1115
sg76
(lp1127
S':'
asbag69
(g90
g71
NtRp1128
(dp1129
g74
(dp1130
sg83
g1115
sg76
(lp1131
g69
(g70
g71
NtRp1132
(dp1133
g74
(dp1134
g82
I4
ssg83
g1128
sg76
(lp1135
g523
asbasbasbag69
(g85
g71
NtRp1136
(dp1137
g74
(dp1138
sg83
g476
sg76
(lp1139
g69
(g90
g71
NtRp1140
(dp1141
g74
(dp1142
g94
g95
ssg83
g1136
sg76
(lp1143
S'web2py_version'
p1144
asbag69
(g90
g71
NtRp1145
(dp1146
g74
(dp1147
g101
g102
ssg83
g1136
sg76
(lp1148
S':'
asbag69
(g90
g71
NtRp1149
(dp1150
g74
(dp1151
sg83
g1136
sg76
(lp1152
g69
(g70
g71
NtRp1153
(dp1154
g74
(dp1155
g82
I4
ssg83
g1149
sg76
(lp1156
g69
(g78
g71
NtRp1157
(dp1158
g74
(dp1159
g82
I3
ssg83
Nsg76
(lp1160
g69
(g85
g71
NtRp1161
(dp1162
g74
(dp1163
sg83
g1157
sg76
(lp1164
g69
(g90
g71
NtRp1165
(dp1166
g74
(dp1167
sg83
g1161
sg76
(lp1168
g69
(g70
g71
NtRp1169
(dp1170
g74
(dp1171
g82
I3
ssg83
g1165
sg76
(lp1172
S'1'
asbasbasbag69
(g85
g71
NtRp1173
(dp1174
g74
(dp1175
sg83
g1157
sg76
(lp1176
g69
(g90
g71
NtRp1177
(dp1178
g74
(dp1179
sg83
g1173
sg76
(lp1180
g69
(g70
g71
NtRp1181
(dp1182
g74
(dp1183
g82
I3
ssg83
g1177
sg76
(lp1184
S'99'
p1185
asbasbasbag69
(g85
g71
NtRp1186
(dp1187
g74
(dp1188
sg83
g1157
sg76
(lp1189
g69
(g90
g71
NtRp1190
(dp1191
g74
(dp1192
sg83
g1186
sg76
(lp1193
g69
(g70
g71
NtRp1194
(dp1195
g74
(dp1196
g82
I3
ssg83
g1190
sg76
(lp1197
S'7'
asbasbasbag69
(g85
g71
NtRp1198
(dp1199
g74
(dp1200
sg83
g1157
sg76
(lp1201
g69
(g90
g71
NtRp1202
(dp1203
g74
(dp1204
sg83
g1198
sg76
(lp1205
g69
(g70
g71
NtRp1206
(dp1207
g74
(dp1208
g82
I3
ssg83
g1202
sg76
(lp1209
S'datetime.datetime(2012, 3, 4, 22, 12, 8)'
p1210
asbasbasbag69
(g85
g71
NtRp1211
(dp1212
g74
(dp1213
sg83
g1157
sg76
(lp1214
g69
(g90
g71
NtRp1215
(dp1216
g74
(dp1217
sg83
g1211
sg76
(lp1218
g69
(g70
g71
NtRp1219
(dp1220
g74
(dp1221
g82
I3
ssg83
g1215
sg76
(lp1222
S'stable'
p1223
asbasbasbasbasbasbasbag69
(g85
g71
NtRp1224
(dp1225
g74
(dp1226
sg83
g476
sg76
(lp1227
g69
(g90
g71
NtRp1228
(dp1229
g74
(dp1230
g94
g95
ssg83
g1224
sg76
(lp1231
S'wsgi_errors'
p1232
asbag69
(g90
g71
NtRp1233
(dp1234
g74
(dp1235
g101
g102
ssg83
g1224
sg76
(lp1236
S':'
asbag69
(g90
g71
NtRp1237
(dp1238
g74
(dp1239
sg83
g1224
sg76
(lp1240
g69
(g70
g71
NtRp1241
(dp1242
g74
(dp1243
g82
I4
ssg83
g1237
sg76
(lp1244
S"<open file '<stderr>', mode 'w' at 0xb72860d0>"
p1245
asbasbasbag69
(g85
g71
NtRp1246
(dp1247
g74
(dp1248
sg83
g476
sg76
(lp1249
g69
(g90
g71
NtRp1250
(dp1251
g74
(dp1252
g94
g95
ssg83
g1246
sg76
(lp1253
S'wsgi_file_wrapper'
p1254
asbag69
(g90
g71
NtRp1255
(dp1256
g74
(dp1257
g101
g102
ssg83
g1246
sg76
(lp1258
S':'
asbag69
(g90
g71
NtRp1259
(dp1260
g74
(dp1261
sg83
g1246
sg76
(lp1262
g69
(g70
g71
NtRp1263
(dp1264
g74
(dp1265
g82
I4
ssg83
g1259
sg76
(lp1266
S'<class wsgiref.util.FileWrapper at 0x9f1ee9c>'
p1267
asbasbasbag69
(g85
g71
NtRp1268
(dp1269
g74
(dp1270
sg83
g476
sg76
(lp1271
g69
(g90
g71
NtRp1272
(dp1273
g74
(dp1274
g94
g95
ssg83
g1268
sg76
(lp1275
S'wsgi_input'
p1276
asbag69
(g90
g71
NtRp1277
(dp1278
g74
(dp1279
g101
g102
ssg83
g1268
sg76
(lp1280
S':'
asbag69
(g90
g71
NtRp1281
(dp1282
g74
(dp1283
sg83
g1268
sg76
(lp1284
g69
(g70
g71
NtRp1285
(dp1286
g74
(dp1287
g82
I4
ssg83
g1281
sg76
(lp1288
S'<socket._fileobject object at 0xb2fec7ac>'
p1289
asbasbasbag69
(g85
g71
NtRp1290
(dp1291
g74
(dp1292
sg83
g476
sg76
(lp1293
g69
(g90
g71
NtRp1294
(dp1295
g74
(dp1296
g94
g95
ssg83
g1290
sg76
(lp1297
S'wsgi_multiprocess'
p1298
asbag69
(g90
g71
NtRp1299
(dp1300
g74
(dp1301
g101
g102
ssg83
g1290
sg76
(lp1302
S':'
asbag69
(g90
g71
NtRp1303
(dp1304
g74
(dp1305
sg83
g1290
sg76
(lp1306
g69
(g70
g71
NtRp1307
(dp1308
g74
(dp1309
g82
I4
ssg83
g1303
sg76
(lp1310
g112
asbasbasbag69
(g85
g71
NtRp1311
(dp1312
g74
(dp1313
sg83
g476
sg76
(lp1314
g69
(g90
g71
NtRp1315
(dp1316
g74
(dp1317
g94
g95
ssg83
g1311
sg76
(lp1318
S'wsgi_multithread'
p1319
asbag69
(g90
g71
NtRp1320
(dp1321
g74
(dp1322
g101
g102
ssg83
g1311
sg76
(lp1323
S':'
asbag69
(g90
g71
NtRp1324
(dp1325
g74
(dp1326
sg83
g1311
sg76
(lp1327
g69
(g70
g71
NtRp1328
(dp1329
g74
(dp1330
g82
I4
ssg83
g1324
sg76
(lp1331
S'True'
p1332
asbasbasbag69
(g85
g71
NtRp1333
(dp1334
g74
(dp1335
sg83
g476
sg76
(lp1336
g69
(g90
g71
NtRp1337
(dp1338
g74
(dp1339
g94
g95
ssg83
g1333
sg76
(lp1340
S'wsgi_run_once'
p1341
asbag69
(g90
g71
NtRp1342
(dp1343
g74
(dp1344
g101
g102
ssg83
g1333
sg76
(lp1345
S':'
asbag69
(g90
g71
NtRp1346
(dp1347
g74
(dp1348
sg83
g1333
sg76
(lp1349
g69
(g70
g71
NtRp1350
(dp1351
g74
(dp1352
g82
I4
ssg83
g1346
sg76
(lp1353
g112
asbasbasbag69
(g85
g71
NtRp1354
(dp1355
g74
(dp1356
sg83
g476
sg76
(lp1357
g69
(g90
g71
NtRp1358
(dp1359
g74
(dp1360
g94
g95
ssg83
g1354
sg76
(lp1361
S'wsgi_url_scheme'
p1362
asbag69
(g90
g71
NtRp1363
(dp1364
g74
(dp1365
g101
g102
ssg83
g1354
sg76
(lp1366
S':'
asbag69
(g90
g71
NtRp1367
(dp1368
g74
(dp1369
sg83
g1354
sg76
(lp1370
g69
(g70
g71
NtRp1371
(dp1372
g74
(dp1373
g82
I4
ssg83
g1367
sg76
(lp1374
S'http'
p1375
asbasbasbag69
(g85
g71
NtRp1376
(dp1377
g74
(dp1378
sg83
g476
sg76
(lp1379
g69
(g90
g71
NtRp1380
(dp1381
g74
(dp1382
g94
g95
ssg83
g1376
sg76
(lp1383
S'wsgi_version'
p1384
asbag69
(g90
g71
NtRp1385
(dp1386
g74
(dp1387
g101
g102
ssg83
g1376
sg76
(lp1388
S':'
asbag69
(g90
g71
NtRp1389
(dp1390
g74
(dp1391
sg83
g1376
sg76
(lp1392
g69
(g70
g71
NtRp1393
(dp1394
g74
(dp1395
g82
I4
ssg83
g1389
sg76
(lp1396
g69
(g78
g71
NtRp1397
(dp1398
g74
(dp1399
g82
I3
ssg83
Nsg76
(lp1400
g69
(g85
g71
NtRp1401
(dp1402
g74
(dp1403
sg83
g1397
sg76
(lp1404
g69
(g90
g71
NtRp1405
(dp1406
g74
(dp1407
sg83
g1401
sg76
(lp1408
g69
(g70
g71
NtRp1409
(dp1410
g74
(dp1411
g82
I3
ssg83
g1405
sg76
(lp1412
S'1'
asbasbasbag69
(g85
g71
NtRp1413
(dp1414
g74
(dp1415
sg83
g1397
sg76
(lp1416
g69
(g90
g71
NtRp1417
(dp1418
g74
(dp1419
sg83
g1413
sg76
(lp1420
g69
(g70
g71
NtRp1421
(dp1422
g74
(dp1423
g82
I3
ssg83
g1417
sg76
(lp1424
S'0'
asbasbasbasbasbasbasbasbasbasbasbag69
(g85
g71
NtRp1425
(dp1426
g74
(dp1427
sg83
g79
sg76
(lp1428
g69
(g90
g71
NtRp1429
(dp1430
g74
(dp1431
g94
g95
ssg83
g1425
sg76
(lp1432
S'extension'
p1433
asbag69
(g90
g71
NtRp1434
(dp1435
g74
(dp1436
g101
g102
ssg83
g1425
sg76
(lp1437
S':'
asbag69
(g90
g71
NtRp1438
(dp1439
g74
(dp1440
sg83
g1425
sg76
(lp1441
g69
(g70
g71
NtRp1442
(dp1443
g74
(dp1444
g82
I5
ssg83
g1438
sg76
(lp1445
S'html'
p1446
asbasbasbag69
(g85
g71
NtRp1447
(dp1448
g74
(dp1449
sg83
g79
sg76
(lp1450
g69
(g90
g71
NtRp1451
(dp1452
g74
(dp1453
g94
g95
ssg83
g1447
sg76
(lp1454
S'folder'
p1455
asbag69
(g90
g71
NtRp1456
(dp1457
g74
(dp1458
g101
g102
ssg83
g1447
sg76
(lp1459
S':'
asbag69
(g90
g71
NtRp1460
(dp1461
g74
(dp1462
sg83
g1447
sg76
(lp1463
g69
(g70
g71
NtRp1464
(dp1465
g74
(dp1466
g82
I5
ssg83
g1460
sg76
(lp1467
S'/home/enigma/web2py/applications/911_signin/'
p1468
asbasbasbag69
(g85
g71
NtRp1469
(dp1470
g74
(dp1471
sg83
g79
sg76
(lp1472
g69
(g90
g71
NtRp1473
(dp1474
g74
(dp1475
g94
g95
ssg83
g1469
sg76
(lp1476
S'function'
p1477
asbag69
(g90
g71
NtRp1478
(dp1479
g74
(dp1480
g101
g102
ssg83
g1469
sg76
(lp1481
S':'
asbag69
(g90
g71
NtRp1482
(dp1483
g74
(dp1484
sg83
g1469
sg76
(lp1485
g69
(g70
g71
NtRp1486
(dp1487
g74
(dp1488
g82
I5
ssg83
g1482
sg76
(lp1489
S'profile'
p1490
asbasbasbag69
(g85
g71
NtRp1491
(dp1492
g74
(dp1493
sg83
g79
sg76
(lp1494
g69
(g90
g71
NtRp1495
(dp1496
g74
(dp1497
g94
g95
ssg83
g1491
sg76
(lp1498
S'get_vars'
p1499
asbag69
(g90
g71
NtRp1500
(dp1501
g74
(dp1502
g101
g102
ssg83
g1491
sg76
(lp1503
S':'
asbag69
(g90
g71
NtRp1504
(dp1505
g74
(dp1506
sg83
g1491
sg76
(lp1507
g69
(g70
g71
NtRp1508
(dp1509
g74
(dp1510
g82
I5
ssg83
g1504
sg76
(lp1511
g69
(g78
g71
NtRp1512
(dp1513
g74
(dp1514
g82
I4
ssg83
Nsg76
(lp1515
sbasbasbasbag69
(g85
g71
NtRp1516
(dp1517
g74
(dp1518
sg83
g79
sg76
(lp1519
g69
(g90
g71
NtRp1520
(dp1521
g74
(dp1522
g94
g95
ssg83
g1516
sg76
(lp1523
S'global_settings'
p1524
asbag69
(g90
g71
NtRp1525
(dp1526
g74
(dp1527
g101
g102
ssg83
g1516
sg76
(lp1528
S':'
asbag69
(g90
g71
NtRp1529
(dp1530
g74
(dp1531
sg83
g1516
sg76
(lp1532
g69
(g70
g71
NtRp1533
(dp1534
g74
(dp1535
g82
I5
ssg83
g1529
sg76
(lp1536
g69
(g78
g71
NtRp1537
(dp1538
g74
(dp1539
g82
I4
ssg83
Nsg76
(lp1540
g69
(g85
g71
NtRp1541
(dp1542
g74
(dp1543
sg83
g1537
sg76
(lp1544
g69
(g90
g71
NtRp1545
(dp1546
g74
(dp1547
g94
g95
ssg83
g1541
sg76
(lp1548
g488
asbag69
(g90
g71
NtRp1549
(dp1550
g74
(dp1551
g101
g102
ssg83
g1541
sg76
(lp1552
S':'
asbag69
(g90
g71
NtRp1553
(dp1554
g74
(dp1555
sg83
g1541
sg76
(lp1556
g69
(g70
g71
NtRp1557
(dp1558
g74
(dp1559
g82
I4
ssg83
g1553
sg76
(lp1560
S"set(['/home/enigma/web2py/applications/911_signin/'])"
p1561
asbasbasbag69
(g85
g71
NtRp1562
(dp1563
g74
(dp1564
sg83
g1537
sg76
(lp1565
g69
(g90
g71
NtRp1566
(dp1567
g74
(dp1568
g94
g95
ssg83
g1562
sg76
(lp1569
g510
asbag69
(g90
g71
NtRp1570
(dp1571
g74
(dp1572
g101
g102
ssg83
g1562
sg76
(lp1573
S':'
asbag69
(g90
g71
NtRp1574
(dp1575
g74
(dp1576
sg83
g1562
sg76
(lp1577
g69
(g70
g71
NtRp1578
(dp1579
g74
(dp1580
g82
I4
ssg83
g1574
sg76
(lp1581
g523
asbasbasbag69
(g85
g71
NtRp1582
(dp1583
g74
(dp1584
sg83
g1537
sg76
(lp1585
g69
(g90
g71
NtRp1586
(dp1587
g74
(dp1588
g94
g95
ssg83
g1582
sg76
(lp1589
g532
asbag69
(g90
g71
NtRp1590
(dp1591
g74
(dp1592
g101
g102
ssg83
g1582
sg76
(lp1593
S':'
asbag69
(g90
g71
NtRp1594
(dp1595
g74
(dp1596
sg83
g1582
sg76
(lp1597
g69
(g70
g71
NtRp1598
(dp1599
g74
(dp1600
g82
I4
ssg83
g1594
sg76
(lp1601
g69
(g78
g71
NtRp1602
(dp1603
g74
(dp1604
g82
I3
ssg83
Nsg76
(lp1605
sbasbasbasbag69
(g85
g71
NtRp1606
(dp1607
g74
(dp1608
sg83
g1537
sg76
(lp1609
g69
(g90
g71
NtRp1610
(dp1611
g74
(dp1612
g94
g95
ssg83
g1606
sg76
(lp1613
g557
asbag69
(g90
g71
NtRp1614
(dp1615
g74
(dp1616
g101
g102
ssg83
g1606
sg76
(lp1617
S':'
asbag69
(g90
g71
NtRp1618
(dp1619
g74
(dp1620
sg83
g1606
sg76
(lp1621
g69
(g70
g71
NtRp1622
(dp1623
g74
(dp1624
g82
I4
ssg83
g1618
sg76
(lp1625
S"<Values at 0x9fdcbac: {'verbose': False, 'ip': '127.0.0.1', 'shutdown_timeout': 5, 'taskbar': False, 'nocron': False, 'pid_filename': 'httpserver.pid', 'maxthreads': None, 'softcron': False, 'server_name': 'ubuntu', 'bpython': False, 'nogui': False, 'port': 8000, 'extcron': False, 'debuglevel': 30, 'test': None, 'folder': '/home/enigma/web2py', 'config': '', 'import_models': False, 'winservice': '', 'shell': None, 'run': '', 'log_filename': 'httpserver.log', 'args': [''], 'socket_timeout': 5, 'ssl_ca_certificate': None, 'scheduler': None, 'profiler_filename': None, 'ssl_private_key': '', 'password': '<ask>', 'request_queue_size': 5, 'ssl_certificate': '', 'cronjob': False, 'numthreads': None, 'quiet': False, 'interfaces': None, 'minthreads': None, 'timeout': 10, 'plain': False, 'nobanner': False}>"
p1626
asbasbasbag69
(g85
g71
NtRp1627
(dp1628
g74
(dp1629
sg83
g1537
sg76
(lp1630
g69
(g90
g71
NtRp1631
(dp1632
g74
(dp1633
g94
g95
ssg83
g1627
sg76
(lp1634
g579
asbag69
(g90
g71
NtRp1635
(dp1636
g74
(dp1637
g101
g102
ssg83
g1627
sg76
(lp1638
S':'
asbag69
(g90
g71
NtRp1639
(dp1640
g74
(dp1641
sg83
g1627
sg76
(lp1642
g69
(g70
g71
NtRp1643
(dp1644
g74
(dp1645
g82
I4
ssg83
g1639
sg76
(lp1646
S'set([])'
p1647
asbasbasbag69
(g85
g71
NtRp1648
(dp1649
g74
(dp1650
sg83
g1537
sg76
(lp1651
g69
(g90
g71
NtRp1652
(dp1653
g74
(dp1654
g94
g95
ssg83
g1648
sg76
(lp1655
g601
asbag69
(g90
g71
NtRp1656
(dp1657
g74
(dp1658
g101
g102
ssg83
g1648
sg76
(lp1659
S':'
asbag69
(g90
g71
NtRp1660
(dp1661
g74
(dp1662
sg83
g1648
sg76
(lp1663
g69
(g70
g71
NtRp1664
(dp1665
g74
(dp1666
g82
I4
ssg83
g1660
sg76
(lp1667
g112
asbasbasbag69
(g85
g71
NtRp1668
(dp1669
g74
(dp1670
sg83
g1537
sg76
(lp1671
g69
(g90
g71
NtRp1672
(dp1673
g74
(dp1674
g94
g95
ssg83
g1668
sg76
(lp1675
g622
asbag69
(g90
g71
NtRp1676
(dp1677
g74
(dp1678
g101
g102
ssg83
g1668
sg76
(lp1679
S':'
asbag69
(g90
g71
NtRp1680
(dp1681
g74
(dp1682
sg83
g1668
sg76
(lp1683
g69
(g70
g71
NtRp1684
(dp1685
g74
(dp1686
g82
I4
ssg83
g1680
sg76
(lp1687
g635
asbasbasbag69
(g85
g71
NtRp1688
(dp1689
g74
(dp1690
sg83
g1537
sg76
(lp1691
g69
(g90
g71
NtRp1692
(dp1693
g74
(dp1694
g94
g95
ssg83
g1688
sg76
(lp1695
g842
asbag69
(g90
g71
NtRp1696
(dp1697
g74
(dp1698
g101
g102
ssg83
g1688
sg76
(lp1699
S':'
asbag69
(g90
g71
NtRp1700
(dp1701
g74
(dp1702
sg83
g1688
sg76
(lp1703
g69
(g70
g71
NtRp1704
(dp1705
g74
(dp1706
g82
I4
ssg83
g1700
sg76
(lp1707
g112
asbasbasbag69
(g85
g71
NtRp1708
(dp1709
g74
(dp1710
sg83
g1537
sg76
(lp1711
g69
(g90
g71
NtRp1712
(dp1713
g74
(dp1714
g94
g95
ssg83
g1708
sg76
(lp1715
g863
asbag69
(g90
g71
NtRp1716
(dp1717
g74
(dp1718
g101
g102
ssg83
g1708
sg76
(lp1719
S':'
asbag69
(g90
g71
NtRp1720
(dp1721
g74
(dp1722
sg83
g1708
sg76
(lp1723
g69
(g70
g71
NtRp1724
(dp1725
g74
(dp1726
g82
I4
ssg83
g1720
sg76
(lp1727
g112
asbasbasbag69
(g85
g71
NtRp1728
(dp1729
g74
(dp1730
sg83
g1537
sg76
(lp1731
g69
(g90
g71
NtRp1732
(dp1733
g74
(dp1734
g94
g95
ssg83
g1728
sg76
(lp1735
g1101
asbag69
(g90
g71
NtRp1736
(dp1737
g74
(dp1738
g101
g102
ssg83
g1728
sg76
(lp1739
S':'
asbag69
(g90
g71
NtRp1740
(dp1741
g74
(dp1742
sg83
g1728
sg76
(lp1743
g69
(g70
g71
NtRp1744
(dp1745
g74
(dp1746
g82
I4
ssg83
g1740
sg76
(lp1747
g1114
asbasbasbag69
(g85
g71
NtRp1748
(dp1749
g74
(dp1750
sg83
g1537
sg76
(lp1751
g69
(g90
g71
NtRp1752
(dp1753
g74
(dp1754
g94
g95
ssg83
g1748
sg76
(lp1755
g1144
asbag69
(g90
g71
NtRp1756
(dp1757
g74
(dp1758
g101
g102
ssg83
g1748
sg76
(lp1759
S':'
asbag69
(g90
g71
NtRp1760
(dp1761
g74
(dp1762
sg83
g1748
sg76
(lp1763
g69
(g70
g71
NtRp1764
(dp1765
g74
(dp1766
g82
I4
ssg83
g1760
sg76
(lp1767
g69
(g78
g71
NtRp1768
(dp1769
g74
(dp1770
g82
I3
ssg83
Nsg76
(lp1771
g69
(g85
g71
NtRp1772
(dp1773
g74
(dp1774
sg83
g1768
sg76
(lp1775
g69
(g90
g71
NtRp1776
(dp1777
g74
(dp1778
sg83
g1772
sg76
(lp1779
g69
(g70
g71
NtRp1780
(dp1781
g74
(dp1782
g82
I3
ssg83
g1776
sg76
(lp1783
S'1'
asbasbasbag69
(g85
g71
NtRp1784
(dp1785
g74
(dp1786
sg83
g1768
sg76
(lp1787
g69
(g90
g71
NtRp1788
(dp1789
g74
(dp1790
sg83
g1784
sg76
(lp1791
g69
(g70
g71
NtRp1792
(dp1793
g74
(dp1794
g82
I3
ssg83
g1788
sg76
(lp1795
S'99'
p1796
asbasbasbag69
(g85
g71
NtRp1797
(dp1798
g74
(dp1799
sg83
g1768
sg76
(lp1800
g69
(g90
g71
NtRp1801
(dp1802
g74
(dp1803
sg83
g1797
sg76
(lp1804
g69
(g70
g71
NtRp1805
(dp1806
g74
(dp1807
g82
I3
ssg83
g1801
sg76
(lp1808
S'7'
asbasbasbag69
(g85
g71
NtRp1809
(dp1810
g74
(dp1811
sg83
g1768
sg76
(lp1812
g69
(g90
g71
NtRp1813
(dp1814
g74
(dp1815
sg83
g1809
sg76
(lp1816
g69
(g70
g71
NtRp1817
(dp1818
g74
(dp1819
g82
I3
ssg83
g1813
sg76
(lp1820
S'datetime.datetime(2012, 3, 4, 22, 12, 8)'
p1821
asbasbasbag69
(g85
g71
NtRp1822
(dp1823
g74
(dp1824
sg83
g1768
sg76
(lp1825
g69
(g90
g71
NtRp1826
(dp1827
g74
(dp1828
sg83
g1822
sg76
(lp1829
g69
(g70
g71
NtRp1830
(dp1831
g74
(dp1832
g82
I3
ssg83
g1826
sg76
(lp1833
g1223
asbasbasbasbasbasbasbasbasbasbasbag69
(g85
g71
NtRp1834
(dp1835
g74
(dp1836
sg83
g79
sg76
(lp1837
g69
(g90
g71
NtRp1838
(dp1839
g74
(dp1840
g94
g95
ssg83
g1834
sg76
(lp1841
S'is_https'
p1842
asbag69
(g90
g71
NtRp1843
(dp1844
g74
(dp1845
g101
g102
ssg83
g1834
sg76
(lp1846
S':'
asbag69
(g90
g71
NtRp1847
(dp1848
g74
(dp1849
sg83
g1834
sg76
(lp1850
g69
(g70
g71
NtRp1851
(dp1852
g74
(dp1853
g82
I5
ssg83
g1847
sg76
(lp1854
g112
asbasbasbag69
(g85
g71
NtRp1855
(dp1856
g74
(dp1857
sg83
g79
sg76
(lp1858
g69
(g90
g71
NtRp1859
(dp1860
g74
(dp1861
g94
g95
ssg83
g1855
sg76
(lp1862
S'is_local'
p1863
asbag69
(g90
g71
NtRp1864
(dp1865
g74
(dp1866
g101
g102
ssg83
g1855
sg76
(lp1867
S':'
asbag69
(g90
g71
NtRp1868
(dp1869
g74
(dp1870
sg83
g1855
sg76
(lp1871
g69
(g70
g71
NtRp1872
(dp1873
g74
(dp1874
g82
I5
ssg83
g1868
sg76
(lp1875
g1332
asbasbasbag69
(g85
g71
NtRp1876
(dp1877
g74
(dp1878
sg83
g79
sg76
(lp1879
g69
(g90
g71
NtRp1880
(dp1881
g74
(dp1882
g94
g95
ssg83
g1876
sg76
(lp1883
S'is_restful'
p1884
asbag69
(g90
g71
NtRp1885
(dp1886
g74
(dp1887
g101
g102
ssg83
g1876
sg76
(lp1888
S':'
asbag69
(g90
g71
NtRp1889
(dp1890
g74
(dp1891
sg83
g1876
sg76
(lp1892
g69
(g70
g71
NtRp1893
(dp1894
g74
(dp1895
g82
I5
ssg83
g1889
sg76
(lp1896
g112
asbasbasbag69
(g85
g71
NtRp1897
(dp1898
g74
(dp1899
sg83
g79
sg76
(lp1900
g69
(g90
g71
NtRp1901
(dp1902
g74
(dp1903
g94
g95
ssg83
g1897
sg76
(lp1904
S'now'
p1905
asbag69
(g90
g71
NtRp1906
(dp1907
g74
(dp1908
g101
g102
ssg83
g1897
sg76
(lp1909
S':'
asbag69
(g90
g71
NtRp1910
(dp1911
g74
(dp1912
sg83
g1897
sg76
(lp1913
g69
(g70
g71
NtRp1914
(dp1915
g74
(dp1916
g82
I5
ssg83
g1910
sg76
(lp1917
S'datetime.datetime(2013, 6, 30, 15, 31, 12, 985935)'
p1918
asbasbasbag69
(g85
g71
NtRp1919
(dp1920
g74
(dp1921
sg83
g79
sg76
(lp1922
g69
(g90
g71
NtRp1923
(dp1924
g74
(dp1925
g94
g95
ssg83
g1919
sg76
(lp1926
S'post_vars'
p1927
asbag69
(g90
g71
NtRp1928
(dp1929
g74
(dp1930
g101
g102
ssg83
g1919
sg76
(lp1931
S':'
asbag69
(g90
g71
NtRp1932
(dp1933
g74
(dp1934
sg83
g1919
sg76
(lp1935
g69
(g70
g71
NtRp1936
(dp1937
g74
(dp1938
g82
I5
ssg83
g1932
sg76
(lp1939
g69
(g78
g71
NtRp1940
(dp1941
g74
(dp1942
g82
I4
ssg83
Nsg76
(lp1943
sbasbasbasbag69
(g85
g71
NtRp1944
(dp1945
g74
(dp1946
sg83
g79
sg76
(lp1947
g69
(g90
g71
NtRp1948
(dp1949
g74
(dp1950
g94
g95
ssg83
g1944
sg76
(lp1951
S'raw_args'
p1952
asbag69
(g90
g71
NtRp1953
(dp1954
g74
(dp1955
g101
g102
ssg83
g1944
sg76
(lp1956
S':'
asbag69
(g90
g71
NtRp1957
(dp1958
g74
(dp1959
sg83
g1944
sg76
(lp1960
g69
(g70
g71
NtRp1961
(dp1962
g74
(dp1963
g82
I5
ssg83
g1957
sg76
(lp1964
S'1'
asbasbasbag69
(g85
g71
NtRp1965
(dp1966
g74
(dp1967
sg83
g79
sg76
(lp1968
g69
(g90
g71
NtRp1969
(dp1970
g74
(dp1971
g94
g95
ssg83
g1965
sg76
(lp1972
S'url'
p1973
asbag69
(g90
g71
NtRp1974
(dp1975
g74
(dp1976
g101
g102
ssg83
g1965
sg76
(lp1977
S':'
asbag69
(g90
g71
NtRp1978
(dp1979
g74
(dp1980
sg83
g1965
sg76
(lp1981
g69
(g70
g71
NtRp1982
(dp1983
g74
(dp1984
g82
I5
ssg83
g1978
sg76
(lp1985
S'/911_signin/default/profile/1'
p1986
asbasbasbag69
(g85
g71
NtRp1987
(dp1988
g74
(dp1989
sg83
g79
sg76
(lp1990
g69
(g90
g71
NtRp1991
(dp1992
g74
(dp1993
g94
g95
ssg83
g1987
sg76
(lp1994
S'utcnow'
p1995
asbag69
(g90
g71
NtRp1996
(dp1997
g74
(dp1998
g101
g102
ssg83
g1987
sg76
(lp1999
S':'
asbag69
(g90
g71
NtRp2000
(dp2001
g74
(dp2002
sg83
g1987
sg76
(lp2003
g69
(g70
g71
NtRp2004
(dp2005
g74
(dp2006
g82
I5
ssg83
g2000
sg76
(lp2007
S'datetime.datetime(2013, 6, 30, 10, 1, 12, 985984)'
p2008
asbasbasbag69
(g85
g71
NtRp2009
(dp2010
g74
(dp2011
sg83
g79
sg76
(lp2012
g69
(g90
g71
NtRp2013
(dp2014
g74
(dp2015
g94
g95
ssg83
g2009
sg76
(lp2016
S'uuid'
p2017
asbag69
(g90
g71
NtRp2018
(dp2019
g74
(dp2020
g101
g102
ssg83
g2009
sg76
(lp2021
S':'
asbag69
(g90
g71
NtRp2022
(dp2023
g74
(dp2024
sg83
g2009
sg76
(lp2025
g69
(g70
g71
NtRp2026
(dp2027
g74
(dp2028
g82
I5
ssg83
g2022
sg76
(lp2029
S'911_signin/127.0.0.1.2013-06-30.15-31-12.da67ddc6-8486-479b-a01f-0ceef1b99ddf'
p2030
asbasbasbag69
(g85
g71
NtRp2031
(dp2032
g74
(dp2033
sg83
g79
sg76
(lp2034
g69
(g90
g71
NtRp2035
(dp2036
g74
(dp2037
g94
g95
ssg83
g2031
sg76
(lp2038
S'vars'
p2039
asbag69
(g90
g71
NtRp2040
(dp2041
g74
(dp2042
g101
g102
ssg83
g2031
sg76
(lp2043
S':'
asbag69
(g90
g71
NtRp2044
(dp2045
g74
(dp2046
sg83
g2031
sg76
(lp2047
g69
(g70
g71
NtRp2048
(dp2049
g74
(dp2050
g82
I5
ssg83
g2044
sg76
(lp2051
g69
(g78
g71
NtRp2052
(dp2053
g74
(dp2054
g82
I4
ssg83
Nsg76
(lp2055
sbasbasbasbag69
(g85
g71
NtRp2056
(dp2057
g74
(dp2058
sg83
g79
sg76
(lp2059
g69
(g90
g71
NtRp2060
(dp2061
g74
(dp2062
g94
g95
ssg83
g2056
sg76
(lp2063
S'wsgi'
p2064
asbag69
(g90
g71
NtRp2065
(dp2066
g74
(dp2067
g101
g102
ssg83
g2056
sg76
(lp2068
S':'
asbag69
(g90
g71
NtRp2069
(dp2070
g74
(dp2071
sg83
g2056
sg76
(lp2072
g69
(g70
g71
NtRp2073
(dp2074
g74
(dp2075
g82
I5
ssg83
g2069
sg76
(lp2076
g69
(g78
g71
NtRp2077
(dp2078
g74
(dp2079
g82
I4
ssg83
Nsg76
(lp2080
g69
(g85
g71
NtRp2081
(dp2082
g74
(dp2083
sg83
g2077
sg76
(lp2084
g69
(g90
g71
NtRp2085
(dp2086
g74
(dp2087
g94
g95
ssg83
g2081
sg76
(lp2088
S'environ'
p2089
asbag69
(g90
g71
NtRp2090
(dp2091
g74
(dp2092
g101
g102
ssg83
g2081
sg76
(lp2093
S':'
asbag69
(g90
g71
NtRp2094
(dp2095
g74
(dp2096
sg83
g2081
sg76
(lp2097
g69
(g70
g71
NtRp2098
(dp2099
g74
(dp2100
g82
I4
ssg83
g2094
sg76
(lp2101
g69
(g78
g71
NtRp2102
(dp2103
g74
(dp2104
g82
I3
ssg83
Nsg76
(lp2105
g69
(g85
g71
NtRp2106
(dp2107
g74
(dp2108
sg83
g2102
sg76
(lp2109
g69
(g90
g71
NtRp2110
(dp2111
g74
(dp2112
g94
g95
ssg83
g2106
sg76
(lp2113
S'HTTP_ACCEPT'
p2114
asbag69
(g90
g71
NtRp2115
(dp2116
g74
(dp2117
g101
g102
ssg83
g2106
sg76
(lp2118
S':'
asbag69
(g90
g71
NtRp2119
(dp2120
g74
(dp2121
sg83
g2106
sg76
(lp2122
g69
(g70
g71
NtRp2123
(dp2124
g74
(dp2125
g82
I3
ssg83
g2119
sg76
(lp2126
g657
asbasbasbag69
(g85
g71
NtRp2127
(dp2128
g74
(dp2129
sg83
g2102
sg76
(lp2130
g69
(g90
g71
NtRp2131
(dp2132
g74
(dp2133
g94
g95
ssg83
g2127
sg76
(lp2134
S'HTTP_ACCEPT_CHARSET'
p2135
asbag69
(g90
g71
NtRp2136
(dp2137
g74
(dp2138
g101
g102
ssg83
g2127
sg76
(lp2139
S':'
asbag69
(g90
g71
NtRp2140
(dp2141
g74
(dp2142
sg83
g2127
sg76
(lp2143
g69
(g70
g71
NtRp2144
(dp2145
g74
(dp2146
g82
I3
ssg83
g2140
sg76
(lp2147
g679
asbasbasbag69
(g85
g71
NtRp2148
(dp2149
g74
(dp2150
sg83
g2102
sg76
(lp2151
g69
(g90
g71
NtRp2152
(dp2153
g74
(dp2154
g94
g95
ssg83
g2148
sg76
(lp2155
S'HTTP_ACCEPT_ENCODING'
p2156
asbag69
(g90
g71
NtRp2157
(dp2158
g74
(dp2159
g101
g102
ssg83
g2148
sg76
(lp2160
S':'
asbag69
(g90
g71
NtRp2161
(dp2162
g74
(dp2163
sg83
g2148
sg76
(lp2164
g69
(g70
g71
NtRp2165
(dp2166
g74
(dp2167
g82
I3
ssg83
g2161
sg76
(lp2168
g701
asbasbasbag69
(g85
g71
NtRp2169
(dp2170
g74
(dp2171
sg83
g2102
sg76
(lp2172
g69
(g90
g71
NtRp2173
(dp2174
g74
(dp2175
g94
g95
ssg83
g2169
sg76
(lp2176
S'HTTP_ACCEPT_LANGUAGE'
p2177
asbag69
(g90
g71
NtRp2178
(dp2179
g74
(dp2180
g101
g102
ssg83
g2169
sg76
(lp2181
S':'
asbag69
(g90
g71
NtRp2182
(dp2183
g74
(dp2184
sg83
g2169
sg76
(lp2185
g69
(g70
g71
NtRp2186
(dp2187
g74
(dp2188
g82
I3
ssg83
g2182
sg76
(lp2189
g723
asbasbasbag69
(g85
g71
NtRp2190
(dp2191
g74
(dp2192
sg83
g2102
sg76
(lp2193
g69
(g90
g71
NtRp2194
(dp2195
g74
(dp2196
g94
g95
ssg83
g2190
sg76
(lp2197
S'HTTP_CACHE_CONTROL'
p2198
asbag69
(g90
g71
NtRp2199
(dp2200
g74
(dp2201
g101
g102
ssg83
g2190
sg76
(lp2202
S':'
asbag69
(g90
g71
NtRp2203
(dp2204
g74
(dp2205
sg83
g2190
sg76
(lp2206
g69
(g70
g71
NtRp2207
(dp2208
g74
(dp2209
g82
I3
ssg83
g2203
sg76
(lp2210
g745
asbasbasbag69
(g85
g71
NtRp2211
(dp2212
g74
(dp2213
sg83
g2102
sg76
(lp2214
g69
(g90
g71
NtRp2215
(dp2216
g74
(dp2217
g94
g95
ssg83
g2211
sg76
(lp2218
S'HTTP_CONNECTION'
p2219
asbag69
(g90
g71
NtRp2220
(dp2221
g74
(dp2222
g101
g102
ssg83
g2211
sg76
(lp2223
S':'
asbag69
(g90
g71
NtRp2224
(dp2225
g74
(dp2226
sg83
g2211
sg76
(lp2227
g69
(g70
g71
NtRp2228
(dp2229
g74
(dp2230
g82
I3
ssg83
g2224
sg76
(lp2231
g767
asbasbasbag69
(g85
g71
NtRp2232
(dp2233
g74
(dp2234
sg83
g2102
sg76
(lp2235
g69
(g90
g71
NtRp2236
(dp2237
g74
(dp2238
g94
g95
ssg83
g2232
sg76
(lp2239
S'HTTP_COOKIE'
p2240
asbag69
(g90
g71
NtRp2241
(dp2242
g74
(dp2243
g101
g102
ssg83
g2232
sg76
(lp2244
S':'
asbag69
(g90
g71
NtRp2245
(dp2246
g74
(dp2247
sg83
g2232
sg76
(lp2248
g69
(g70
g71
NtRp2249
(dp2250
g74
(dp2251
g82
I3
ssg83
g2245
sg76
(lp2252
g789
asbasbasbag69
(g85
g71
NtRp2253
(dp2254
g74
(dp2255
sg83
g2102
sg76
(lp2256
g69
(g90
g71
NtRp2257
(dp2258
g74
(dp2259
g94
g95
ssg83
g2253
sg76
(lp2260
S'HTTP_HOST'
p2261
asbag69
(g90
g71
NtRp2262
(dp2263
g74
(dp2264
g101
g102
ssg83
g2253
sg76
(lp2265
S':'
asbag69
(g90
g71
NtRp2266
(dp2267
g74
(dp2268
sg83
g2253
sg76
(lp2269
g69
(g70
g71
NtRp2270
(dp2271
g74
(dp2272
g82
I3
ssg83
g2266
sg76
(lp2273
g811
asbasbasbag69
(g85
g71
NtRp2274
(dp2275
g74
(dp2276
sg83
g2102
sg76
(lp2277
g69
(g90
g71
NtRp2278
(dp2279
g74
(dp2280
g94
g95
ssg83
g2274
sg76
(lp2281
S'HTTP_USER_AGENT'
p2282
asbag69
(g90
g71
NtRp2283
(dp2284
g74
(dp2285
g101
g102
ssg83
g2274
sg76
(lp2286
S':'
asbag69
(g90
g71
NtRp2287
(dp2288
g74
(dp2289
sg83
g2274
sg76
(lp2290
g69
(g70
g71
NtRp2291
(dp2292
g74
(dp2293
g82
I3
ssg83
g2287
sg76
(lp2294
g833
asbasbasbag69
(g85
g71
NtRp2295
(dp2296
g74
(dp2297
sg83
g2102
sg76
(lp2298
g69
(g90
g71
NtRp2299
(dp2300
g74
(dp2301
g94
g95
ssg83
g2295
sg76
(lp2302
S'PATH_INFO'
p2303
asbag69
(g90
g71
NtRp2304
(dp2305
g74
(dp2306
g101
g102
ssg83
g2295
sg76
(lp2307
S':'
asbag69
(g90
g71
NtRp2308
(dp2309
g74
(dp2310
sg83
g2295
sg76
(lp2311
g69
(g70
g71
NtRp2312
(dp2313
g74
(dp2314
g82
I3
ssg83
g2308
sg76
(lp2315
g897
asbasbasbag69
(g85
g71
NtRp2316
(dp2317
g74
(dp2318
sg83
g2102
sg76
(lp2319
g69
(g90
g71
NtRp2320
(dp2321
g74
(dp2322
g94
g95
ssg83
g2316
sg76
(lp2323
S'QUERY_STRING'
p2324
asbag69
(g90
g71
NtRp2325
(dp2326
g74
(dp2327
g101
g102
ssg83
g2316
sg76
(lp2328
S':'
asbag69
(g90
g71
NtRp2329
(dp2330
g74
(dp2331
sg83
g2316
sg76
(lp2332
g69
(g70
g71
NtRp2333
(dp2334
g74
(dp2335
g82
I3
ssg83
g2329
sg76
(lp2336
S''
asbasbasbag69
(g85
g71
NtRp2337
(dp2338
g74
(dp2339
sg83
g2102
sg76
(lp2340
g69
(g90
g71
NtRp2341
(dp2342
g74
(dp2343
g94
g95
ssg83
g2337
sg76
(lp2344
S'REMOTE_ADDR'
p2345
asbag69
(g90
g71
NtRp2346
(dp2347
g74
(dp2348
g101
g102
ssg83
g2337
sg76
(lp2349
S':'
asbag69
(g90
g71
NtRp2350
(dp2351
g74
(dp2352
sg83
g2337
sg76
(lp2353
g69
(g70
g71
NtRp2354
(dp2355
g74
(dp2356
g82
I3
ssg83
g2350
sg76
(lp2357
g214
asbasbasbag69
(g85
g71
NtRp2358
(dp2359
g74
(dp2360
sg83
g2102
sg76
(lp2361
g69
(g90
g71
NtRp2362
(dp2363
g74
(dp2364
g94
g95
ssg83
g2358
sg76
(lp2365
S'REMOTE_PORT'
p2366
asbag69
(g90
g71
NtRp2367
(dp2368
g74
(dp2369
g101
g102
ssg83
g2358
sg76
(lp2370
S':'
asbag69
(g90
g71
NtRp2371
(dp2372
g74
(dp2373
sg83
g2358
sg76
(lp2374
g69
(g70
g71
NtRp2375
(dp2376
g74
(dp2377
g82
I3
ssg83
g2371
sg76
(lp2378
g961
asbasbasbag69
(g85
g71
NtRp2379
(dp2380
g74
(dp2381
sg83
g2102
sg76
(lp2382
g69
(g90
g71
NtRp2383
(dp2384
g74
(dp2385
g94
g95
ssg83
g2379
sg76
(lp2386
S'REQUEST_METHOD'
p2387
asbag69
(g90
g71
NtRp2388
(dp2389
g74
(dp2390
g101
g102
ssg83
g2379
sg76
(lp2391
S':'
asbag69
(g90
g71
NtRp2392
(dp2393
g74
(dp2394
sg83
g2379
sg76
(lp2395
g69
(g70
g71
NtRp2396
(dp2397
g74
(dp2398
g82
I3
ssg83
g2392
sg76
(lp2399
g983
asbasbasbag69
(g85
g71
NtRp2400
(dp2401
g74
(dp2402
sg83
g2102
sg76
(lp2403
g69
(g90
g71
NtRp2404
(dp2405
g74
(dp2406
g94
g95
ssg83
g2400
sg76
(lp2407
S'SCRIPT_NAME'
p2408
asbag69
(g90
g71
NtRp2409
(dp2410
g74
(dp2411
g101
g102
ssg83
g2400
sg76
(lp2412
S':'
asbag69
(g90
g71
NtRp2413
(dp2414
g74
(dp2415
sg83
g2400
sg76
(lp2416
g69
(g70
g71
NtRp2417
(dp2418
g74
(dp2419
g82
I3
ssg83
g2413
sg76
(lp2420
S''
asbasbasbag69
(g85
g71
NtRp2421
(dp2422
g74
(dp2423
sg83
g2102
sg76
(lp2424
g69
(g90
g71
NtRp2425
(dp2426
g74
(dp2427
g94
g95
ssg83
g2421
sg76
(lp2428
S'SERVER_NAME'
p2429
asbag69
(g90
g71
NtRp2430
(dp2431
g74
(dp2432
g101
g102
ssg83
g2421
sg76
(lp2433
S':'
asbag69
(g90
g71
NtRp2434
(dp2435
g74
(dp2436
sg83
g2421
sg76
(lp2437
g69
(g70
g71
NtRp2438
(dp2439
g74
(dp2440
g82
I3
ssg83
g2434
sg76
(lp2441
g1026
asbasbasbag69
(g85
g71
NtRp2442
(dp2443
g74
(dp2444
sg83
g2102
sg76
(lp2445
g69
(g90
g71
NtRp2446
(dp2447
g74
(dp2448
g94
g95
ssg83
g2442
sg76
(lp2449
S'SERVER_PORT'
p2450
asbag69
(g90
g71
NtRp2451
(dp2452
g74
(dp2453
g101
g102
ssg83
g2442
sg76
(lp2454
S':'
asbag69
(g90
g71
NtRp2455
(dp2456
g74
(dp2457
sg83
g2442
sg76
(lp2458
g69
(g70
g71
NtRp2459
(dp2460
g74
(dp2461
g82
I3
ssg83
g2455
sg76
(lp2462
g1048
asbasbasbag69
(g85
g71
NtRp2463
(dp2464
g74
(dp2465
sg83
g2102
sg76
(lp2466
g69
(g90
g71
NtRp2467
(dp2468
g74
(dp2469
g94
g95
ssg83
g2463
sg76
(lp2470
S'SERVER_PROTOCOL'
p2471
asbag69
(g90
g71
NtRp2472
(dp2473
g74
(dp2474
g101
g102
ssg83
g2463
sg76
(lp2475
S':'
asbag69
(g90
g71
NtRp2476
(dp2477
g74
(dp2478
sg83
g2463
sg76
(lp2479
g69
(g70
g71
NtRp2480
(dp2481
g74
(dp2482
g82
I3
ssg83
g2476
sg76
(lp2483
g1070
asbasbasbag69
(g85
g71
NtRp2484
(dp2485
g74
(dp2486
sg83
g2102
sg76
(lp2487
g69
(g90
g71
NtRp2488
(dp2489
g74
(dp2490
g94
g95
ssg83
g2484
sg76
(lp2491
S'SERVER_SOFTWARE'
p2492
asbag69
(g90
g71
NtRp2493
(dp2494
g74
(dp2495
g101
g102
ssg83
g2484
sg76
(lp2496
S':'
asbag69
(g90
g71
NtRp2497
(dp2498
g74
(dp2499
sg83
g2484
sg76
(lp2500
g69
(g70
g71
NtRp2501
(dp2502
g74
(dp2503
g82
I3
ssg83
g2497
sg76
(lp2504
g1092
asbasbasbag69
(g85
g71
NtRp2505
(dp2506
g74
(dp2507
sg83
g2102
sg76
(lp2508
g69
(g90
g71
NtRp2509
(dp2510
g74
(dp2511
g94
g95
ssg83
g2505
sg76
(lp2512
S'wsgi.errors'
p2513
asbag69
(g90
g71
NtRp2514
(dp2515
g74
(dp2516
g101
g102
ssg83
g2505
sg76
(lp2517
S':'
asbag69
(g90
g71
NtRp2518
(dp2519
g74
(dp2520
sg83
g2505
sg76
(lp2521
g69
(g70
g71
NtRp2522
(dp2523
g74
(dp2524
g82
I3
ssg83
g2518
sg76
(lp2525
S"<open file '<stderr>', mode 'w' at 0xb72860d0>"
p2526
asbasbasbag69
(g85
g71
NtRp2527
(dp2528
g74
(dp2529
sg83
g2102
sg76
(lp2530
g69
(g90
g71
NtRp2531
(dp2532
g74
(dp2533
g94
g95
ssg83
g2527
sg76
(lp2534
S'wsgi.file_wrapper'
p2535
asbag69
(g90
g71
NtRp2536
(dp2537
g74
(dp2538
g101
g102
ssg83
g2527
sg76
(lp2539
S':'
asbag69
(g90
g71
NtRp2540
(dp2541
g74
(dp2542
sg83
g2527
sg76
(lp2543
g69
(g70
g71
NtRp2544
(dp2545
g74
(dp2546
g82
I3
ssg83
g2540
sg76
(lp2547
S'<class wsgiref.util.FileWrapper at 0x9f1ee9c>'
p2548
asbasbasbag69
(g85
g71
NtRp2549
(dp2550
g74
(dp2551
sg83
g2102
sg76
(lp2552
g69
(g90
g71
NtRp2553
(dp2554
g74
(dp2555
g94
g95
ssg83
g2549
sg76
(lp2556
S'wsgi.input'
p2557
asbag69
(g90
g71
NtRp2558
(dp2559
g74
(dp2560
g101
g102
ssg83
g2549
sg76
(lp2561
S':'
asbag69
(g90
g71
NtRp2562
(dp2563
g74
(dp2564
sg83
g2549
sg76
(lp2565
g69
(g70
g71
NtRp2566
(dp2567
g74
(dp2568
g82
I3
ssg83
g2562
sg76
(lp2569
S'<cStringIO.StringO object at 0xb43c7620>'
p2570
asbasbasbag69
(g85
g71
NtRp2571
(dp2572
g74
(dp2573
sg83
g2102
sg76
(lp2574
g69
(g90
g71
NtRp2575
(dp2576
g74
(dp2577
g94
g95
ssg83
g2571
sg76
(lp2578
S'wsgi.multiprocess'
p2579
asbag69
(g90
g71
NtRp2580
(dp2581
g74
(dp2582
g101
g102
ssg83
g2571
sg76
(lp2583
S':'
asbag69
(g90
g71
NtRp2584
(dp2585
g74
(dp2586
sg83
g2571
sg76
(lp2587
g69
(g70
g71
NtRp2588
(dp2589
g74
(dp2590
g82
I3
ssg83
g2584
sg76
(lp2591
g112
asbasbasbag69
(g85
g71
NtRp2592
(dp2593
g74
(dp2594
sg83
g2102
sg76
(lp2595
g69
(g90
g71
NtRp2596
(dp2597
g74
(dp2598
g94
g95
ssg83
g2592
sg76
(lp2599
S'wsgi.multithread'
p2600
asbag69
(g90
g71
NtRp2601
(dp2602
g74
(dp2603
g101
g102
ssg83
g2592
sg76
(lp2604
S':'
asbag69
(g90
g71
NtRp2605
(dp2606
g74
(dp2607
sg83
g2592
sg76
(lp2608
g69
(g70
g71
NtRp2609
(dp2610
g74
(dp2611
g82
I3
ssg83
g2605
sg76
(lp2612
g1332
asbasbasbag69
(g85
g71
NtRp2613
(dp2614
g74
(dp2615
sg83
g2102
sg76
(lp2616
g69
(g90
g71
NtRp2617
(dp2618
g74
(dp2619
g94
g95
ssg83
g2613
sg76
(lp2620
S'wsgi.run_once'
p2621
asbag69
(g90
g71
NtRp2622
(dp2623
g74
(dp2624
g101
g102
ssg83
g2613
sg76
(lp2625
S':'
asbag69
(g90
g71
NtRp2626
(dp2627
g74
(dp2628
sg83
g2613
sg76
(lp2629
g69
(g70
g71
NtRp2630
(dp2631
g74
(dp2632
g82
I3
ssg83
g2626
sg76
(lp2633
g112
asbasbasbag69
(g85
g71
NtRp2634
(dp2635
g74
(dp2636
sg83
g2102
sg76
(lp2637
g69
(g90
g71
NtRp2638
(dp2639
g74
(dp2640
g94
g95
ssg83
g2634
sg76
(lp2641
S'wsgi.url_scheme'
p2642
asbag69
(g90
g71
NtRp2643
(dp2644
g74
(dp2645
g101
g102
ssg83
g2634
sg76
(lp2646
S':'
asbag69
(g90
g71
NtRp2647
(dp2648
g74
(dp2649
sg83
g2634
sg76
(lp2650
g69
(g70
g71
NtRp2651
(dp2652
g74
(dp2653
g82
I3
ssg83
g2647
sg76
(lp2654
g1375
asbasbasbag69
(g85
g71
NtRp2655
(dp2656
g74
(dp2657
sg83
g2102
sg76
(lp2658
g69
(g90
g71
NtRp2659
(dp2660
g74
(dp2661
g94
g95
ssg83
g2655
sg76
(lp2662
S'wsgi.version'
p2663
asbag69
(g90
g71
NtRp2664
(dp2665
g74
(dp2666
g101
g102
ssg83
g2655
sg76
(lp2667
S':'
asbag69
(g90
g71
NtRp2668
(dp2669
g74
(dp2670
sg83
g2655
sg76
(lp2671
g69
(g70
g71
NtRp2672
(dp2673
g74
(dp2674
g82
I3
ssg83
g2668
sg76
(lp2675
S'1'
asbasbasbasbasbasbasbasbasbasbasbasbasbsS'frames'
p2676
(lp2677
(dp2678
S'file'
p2679
S'/home/enigma/web2py/gluon/restricted.py'
p2680
sS'dump'
p2681
(dp2682
S'code'
p2683
S'r"response.write(\'<!DOCTYPE html>\\n<!-- paulirish....ponse.write(\'\\n</body>\\n</html>\\n\', escape=False)"'
p2684
sS'layer'
p2685
S"'/home/enigma/web2py/applications/911_signin/views/default/profile.html'"
p2686
sS'global compile2'
p2687
S'<function compile2>'
p2688
sS'ccode'
p2689
S'undefined'
p2690
ssS'lnum'
p2691
I204
sS'lines'
p2692
(dp2693
I199
S"    environment['__name__'] = '__restricted__'"
p2694
sI200
S'    try:'
p2695
sI201
S'        if type(code) == types.CodeType:'
p2696
sI202
S'            ccode = code'
p2697
sI203
S'        else:'
p2698
sI204
S'            ccode = compile2(code,layer)'
p2699
sI205
S'        exec ccode in environment'
p2700
sI206
S'    except HTTP:'
p2701
sI207
S'        raise'
p2702
sI208
S'    except RestrictedError:'
p2703
ssS'call'
p2704
S'(code=r"response.write(\'<!DOCTYPE html>\\n<!-- paulirish....ponse.write(\'\\n</body>\\n</html>\\n\', escape=False)", environment={\'A\': <class \'gluon.html.A\'>, \'Auth\': <class \'gluon.tools.Auth\'>, \'B\': <class \'gluon.html.B\'>, \'BEAUTIFY\': <class \'gluon.html.BEAUTIFY\'>, \'BODY\': <class \'gluon.html.BODY\'>, \'BR\': <class \'gluon.html.BR\'>, \'BUTTON\': <class \'gluon.html.BUTTON\'>, \'CAT\': <class \'gluon.html.CAT\'>, \'CENTER\': <class \'gluon.html.CENTER\'>, \'CLEANUP\': <class \'gluon.validators.CLEANUP\'>, ...}, layer=\'/home/enigma/web2py/applications/911_signin/views/default/profile.html\')'
p2705
sS'func'
p2706
S'restricted'
p2707
sa(dp2708
g2679
S'/home/enigma/web2py/gluon/restricted.py'
p2709
sg2681
(dp2710
S'builtincompile'
p2711
S'<built-in function compile>'
p2712
sS'code'
p2713
S'r"response.write(\'<!DOCTYPE html>\\n<!-- paulirish....ponse.write(\'\\n</body>\\n</html>\\n\', escape=False)"'
p2714
sS'code.rstrip'
p2715
S'<built-in method rstrip of str object>'
p2716
sS').replace'
p2717
g2690
sS'layer'
p2718
S"'/home/enigma/web2py/applications/911_signin/views/default/profile.html'"
p2719
ssg2691
I189
sg2692
(dp2720
I192
S'    """'
p2721
sI193
S'    runs code in environment and returns the output. if an exception occurs'
p2722
sI184
S''
sI185
S'def compile2(code,layer):'
p2723
sI186
S'    """'
p2724
sI187
S"    The +'\\n' is necessary else compile fails when code ends in a comment."
p2725
sI188
S'    """'
p2726
sI189
S"    return compile(code.rstrip().replace('\\r\\n','\\n')+'\\n', layer, 'exec')"
p2727
sI190
S''
sI191
S"def restricted(code, environment=None, layer='Unknown'):"
p2728
ssg2704
S'(code=r"response.write(\'<!DOCTYPE html>\\n<!-- paulirish....ponse.write(\'\\n</body>\\n</html>\\n\', escape=False)", layer=\'/home/enigma/web2py/applications/911_signin/views/default/profile.html\')'
p2729
sg2706
S'compile2'
p2730
sasS'pyver'
p2731
S'Python 2.7.3: /usr/bin/python'
p2732
sS'session'
p2733
g69
(g70
g71
NtRp2734
(dp2735
g74
(dp2736
sg76
(lp2737
g69
(g78
g71
NtRp2738
(dp2739
g74
(dp2740
g82
I5
ssg83
Nsg76
(lp2741
g69
(g85
g71
NtRp2742
(dp2743
g74
(dp2744
sg83
g2738
sg76
(lp2745
g69
(g90
g71
NtRp2746
(dp2747
g74
(dp2748
g94
g95
ssg83
g2742
sg76
(lp2749
S'auth'
p2750
asbag69
(g90
g71
NtRp2751
(dp2752
g74
(dp2753
g101
g102
ssg83
g2742
sg76
(lp2754
S':'
asbag69
(g90
g71
NtRp2755
(dp2756
g74
(dp2757
sg83
g2742
sg76
(lp2758
g69
(g70
g71
NtRp2759
(dp2760
g74
(dp2761
g82
I5
ssg83
g2755
sg76
(lp2762
g69
(g78
g71
NtRp2763
(dp2764
g74
(dp2765
g82
I4
ssg83
Nsg76
(lp2766
g69
(g85
g71
NtRp2767
(dp2768
g74
(dp2769
sg83
g2763
sg76
(lp2770
g69
(g90
g71
NtRp2771
(dp2772
g74
(dp2773
g94
g95
ssg83
g2767
sg76
(lp2774
S'expiration'
p2775
asbag69
(g90
g71
NtRp2776
(dp2777
g74
(dp2778
g101
g102
ssg83
g2767
sg76
(lp2779
S':'
asbag69
(g90
g71
NtRp2780
(dp2781
g74
(dp2782
sg83
g2767
sg76
(lp2783
g69
(g70
g71
NtRp2784
(dp2785
g74
(dp2786
g82
I4
ssg83
g2780
sg76
(lp2787
S'2592000'
p2788
asbasbasbag69
(g85
g71
NtRp2789
(dp2790
g74
(dp2791
sg83
g2763
sg76
(lp2792
g69
(g90
g71
NtRp2793
(dp2794
g74
(dp2795
g94
g95
ssg83
g2789
sg76
(lp2796
S'hmac_key'
p2797
asbag69
(g90
g71
NtRp2798
(dp2799
g74
(dp2800
g101
g102
ssg83
g2789
sg76
(lp2801
S':'
asbag69
(g90
g71
NtRp2802
(dp2803
g74
(dp2804
sg83
g2789
sg76
(lp2805
g69
(g70
g71
NtRp2806
(dp2807
g74
(dp2808
g82
I4
ssg83
g2802
sg76
(lp2809
S'131ce3c5-3f17-4e92-b139-55ca954eaf3b'
p2810
asbasbasbag69
(g85
g71
NtRp2811
(dp2812
g74
(dp2813
sg83
g2763
sg76
(lp2814
g69
(g90
g71
NtRp2815
(dp2816
g74
(dp2817
g94
g95
ssg83
g2811
sg76
(lp2818
S'last_visit'
p2819
asbag69
(g90
g71
NtRp2820
(dp2821
g74
(dp2822
g101
g102
ssg83
g2811
sg76
(lp2823
S':'
asbag69
(g90
g71
NtRp2824
(dp2825
g74
(dp2826
sg83
g2811
sg76
(lp2827
g69
(g70
g71
NtRp2828
(dp2829
g74
(dp2830
g82
I4
ssg83
g2824
sg76
(lp2831
S'datetime.datetime(2013, 6, 29, 14, 32, 7, 730609)'
p2832
asbasbasbag69
(g85
g71
NtRp2833
(dp2834
g74
(dp2835
sg83
g2763
sg76
(lp2836
g69
(g90
g71
NtRp2837
(dp2838
g74
(dp2839
g94
g95
ssg83
g2833
sg76
(lp2840
S'remember'
p2841
asbag69
(g90
g71
NtRp2842
(dp2843
g74
(dp2844
g101
g102
ssg83
g2833
sg76
(lp2845
S':'
asbag69
(g90
g71
NtRp2846
(dp2847
g74
(dp2848
sg83
g2833
sg76
(lp2849
g69
(g70
g71
NtRp2850
(dp2851
g74
(dp2852
g82
I4
ssg83
g2846
sg76
(lp2853
g1332
asbasbasbag69
(g85
g71
NtRp2854
(dp2855
g74
(dp2856
sg83
g2763
sg76
(lp2857
g69
(g90
g71
NtRp2858
(dp2859
g74
(dp2860
g94
g95
ssg83
g2854
sg76
(lp2861
S'user'
p2862
asbag69
(g90
g71
NtRp2863
(dp2864
g74
(dp2865
g101
g102
ssg83
g2854
sg76
(lp2866
S':'
asbag69
(g90
g71
NtRp2867
(dp2868
g74
(dp2869
sg83
g2854
sg76
(lp2870
g69
(g70
g71
NtRp2871
(dp2872
g74
(dp2873
g82
I4
ssg83
g2867
sg76
(lp2874
g69
(g78
g71
NtRp2875
(dp2876
g74
(dp2877
g82
I3
ssg83
Nsg76
(lp2878
g69
(g85
g71
NtRp2879
(dp2880
g74
(dp2881
sg83
g2875
sg76
(lp2882
g69
(g90
g71
NtRp2883
(dp2884
g74
(dp2885
g94
g95
ssg83
g2879
sg76
(lp2886
S'email'
p2887
asbag69
(g90
g71
NtRp2888
(dp2889
g74
(dp2890
g101
g102
ssg83
g2879
sg76
(lp2891
S':'
asbag69
(g90
g71
NtRp2892
(dp2893
g74
(dp2894
sg83
g2879
sg76
(lp2895
g69
(g70
g71
NtRp2896
(dp2897
g74
(dp2898
g82
I3
ssg83
g2892
sg76
(lp2899
S'csshadow26@gmail.com'
p2900
asbasbasbag69
(g85
g71
NtRp2901
(dp2902
g74
(dp2903
sg83
g2875
sg76
(lp2904
g69
(g90
g71
NtRp2905
(dp2906
g74
(dp2907
g94
g95
ssg83
g2901
sg76
(lp2908
S'first_name'
p2909
asbag69
(g90
g71
NtRp2910
(dp2911
g74
(dp2912
g101
g102
ssg83
g2901
sg76
(lp2913
S':'
asbag69
(g90
g71
NtRp2914
(dp2915
g74
(dp2916
sg83
g2901
sg76
(lp2917
g69
(g70
g71
NtRp2918
(dp2919
g74
(dp2920
g82
I3
ssg83
g2914
sg76
(lp2921
S'Chandan'
p2922
asbasbasbag69
(g85
g71
NtRp2923
(dp2924
g74
(dp2925
sg83
g2875
sg76
(lp2926
g69
(g90
g71
NtRp2927
(dp2928
g74
(dp2929
g94
g95
ssg83
g2923
sg76
(lp2930
S'id'
p2931
asbag69
(g90
g71
NtRp2932
(dp2933
g74
(dp2934
g101
g102
ssg83
g2923
sg76
(lp2935
S':'
asbag69
(g90
g71
NtRp2936
(dp2937
g74
(dp2938
sg83
g2923
sg76
(lp2939
g69
(g70
g71
NtRp2940
(dp2941
g74
(dp2942
g82
I3
ssg83
g2936
sg76
(lp2943
S'12'
p2944
asbasbasbag69
(g85
g71
NtRp2945
(dp2946
g74
(dp2947
sg83
g2875
sg76
(lp2948
g69
(g90
g71
NtRp2949
(dp2950
g74
(dp2951
g94
g95
ssg83
g2945
sg76
(lp2952
S'last_name'
p2953
asbag69
(g90
g71
NtRp2954
(dp2955
g74
(dp2956
g101
g102
ssg83
g2945
sg76
(lp2957
S':'
asbag69
(g90
g71
NtRp2958
(dp2959
g74
(dp2960
sg83
g2945
sg76
(lp2961
g69
(g70
g71
NtRp2962
(dp2963
g74
(dp2964
g82
I3
ssg83
g2958
sg76
(lp2965
S'Singh'
p2966
asbasbasbag69
(g85
g71
NtRp2967
(dp2968
g74
(dp2969
sg83
g2875
sg76
(lp2970
g69
(g90
g71
NtRp2971
(dp2972
g74
(dp2973
g94
g95
ssg83
g2967
sg76
(lp2974
S'password'
p2975
asbag69
(g90
g71
NtRp2976
(dp2977
g74
(dp2978
g101
g102
ssg83
g2967
sg76
(lp2979
S':'
asbag69
(g90
g71
NtRp2980
(dp2981
g74
(dp2982
sg83
g2967
sg76
(lp2983
g69
(g70
g71
NtRp2984
(dp2985
g74
(dp2986
g82
I3
ssg83
g2980
sg76
(lp2987
S'99adc231b045331e514a516b4b7680f588e3823213abe901738bc3ad67b2f6fcb3c64efb93d18002588d3ccc1a49efbae1ce20cb43df36b38651f11fa75678e8'
p2988
asbasbasbag69
(g85
g71
NtRp2989
(dp2990
g74
(dp2991
sg83
g2875
sg76
(lp2992
g69
(g90
g71
NtRp2993
(dp2994
g74
(dp2995
g94
g95
ssg83
g2989
sg76
(lp2996
S'registration_key'
p2997
asbag69
(g90
g71
NtRp2998
(dp2999
g74
(dp3000
g101
g102
ssg83
g2989
sg76
(lp3001
S':'
asbag69
(g90
g71
NtRp3002
(dp3003
g74
(dp3004
sg83
g2989
sg76
(lp3005
g69
(g70
g71
NtRp3006
(dp3007
g74
(dp3008
g82
I3
ssg83
g3002
sg76
(lp3009
S''
asbasbasbag69
(g85
g71
NtRp3010
(dp3011
g74
(dp3012
sg83
g2875
sg76
(lp3013
g69
(g90
g71
NtRp3014
(dp3015
g74
(dp3016
g94
g95
ssg83
g3010
sg76
(lp3017
S'unread_ctr'
p3018
asbag69
(g90
g71
NtRp3019
(dp3020
g74
(dp3021
g101
g102
ssg83
g3010
sg76
(lp3022
S':'
asbag69
(g90
g71
NtRp3023
(dp3024
g74
(dp3025
sg83
g3010
sg76
(lp3026
g69
(g70
g71
NtRp3027
(dp3028
g74
(dp3029
g82
I3
ssg83
g3023
sg76
(lp3030
S'0'
asbasbasbag69
(g85
g71
NtRp3031
(dp3032
g74
(dp3033
sg83
g2875
sg76
(lp3034
g69
(g90
g71
NtRp3035
(dp3036
g74
(dp3037
g94
g95
ssg83
g3031
sg76
(lp3038
S'username'
p3039
asbag69
(g90
g71
NtRp3040
(dp3041
g74
(dp3042
g101
g102
ssg83
g3031
sg76
(lp3043
S':'
asbag69
(g90
g71
NtRp3044
(dp3045
g74
(dp3046
sg83
g3031
sg76
(lp3047
g69
(g70
g71
NtRp3048
(dp3049
g74
(dp3050
g82
I3
ssg83
g3044
sg76
(lp3051
S'admin'
p3052
asbasbasbasbasbasbasbag69
(g85
g71
NtRp3053
(dp3054
g74
(dp3055
sg83
g2763
sg76
(lp3056
g69
(g90
g71
NtRp3057
(dp3058
g74
(dp3059
g94
g95
ssg83
g3053
sg76
(lp3060
S'user_groups'
p3061
asbag69
(g90
g71
NtRp3062
(dp3063
g74
(dp3064
g101
g102
ssg83
g3053
sg76
(lp3065
S':'
asbag69
(g90
g71
NtRp3066
(dp3067
g74
(dp3068
sg83
g3053
sg76
(lp3069
g69
(g70
g71
NtRp3070
(dp3071
g74
(dp3072
g82
I4
ssg83
g3066
sg76
(lp3073
g69
(g78
g71
NtRp3074
(dp3075
g74
(dp3076
g82
I3
ssg83
Nsg76
(lp3077
g69
(g85
g71
NtRp3078
(dp3079
g74
(dp3080
sg83
g3074
sg76
(lp3081
g69
(g90
g71
NtRp3082
(dp3083
g74
(dp3084
g94
g95
ssg83
g3078
sg76
(lp3085
S'13'
p3086
asbag69
(g90
g71
NtRp3087
(dp3088
g74
(dp3089
g101
g102
ssg83
g3078
sg76
(lp3090
S':'
asbag69
(g90
g71
NtRp3091
(dp3092
g74
(dp3093
sg83
g3078
sg76
(lp3094
g69
(g70
g71
NtRp3095
(dp3096
g74
(dp3097
g82
I3
ssg83
g3091
sg76
(lp3098
S'user_12'
p3099
asbasbasbasbasbasbasbasbasbasbasbag69
(g85
g71
NtRp3100
(dp3101
g74
(dp3102
sg83
g2738
sg76
(lp3103
g69
(g90
g71
NtRp3104
(dp3105
g74
(dp3106
g94
g95
ssg83
g3100
sg76
(lp3107
S'last_query'
p3108
asbag69
(g90
g71
NtRp3109
(dp3110
g74
(dp3111
g101
g102
ssg83
g3100
sg76
(lp3112
S':'
asbag69
(g90
g71
NtRp3113
(dp3114
g74
(dp3115
sg83
g3100
sg76
(lp3116
g69
(g70
g71
NtRp3117
(dp3118
g74
(dp3119
g82
I5
ssg83
g3113
sg76
(lp3120
S'db.experience.id>0'
p3121
asbasbasbasbasbsS'etype'
p3122
S"<type 'exceptions.SyntaxError'>"
p3123
sS'date'
p3124
S'Sun Jun 30 15:31:13 2013'
p3125
sS'response'
p3126
g69
(g70
g71
NtRp3127
(dp3128
g74
(dp3129
sg76
(lp3130
g69
(g78
g71
NtRp3131
(dp3132
g74
(dp3133
g82
I5
ssg83
Nsg76
(lp3134
g69
(g85
g71
NtRp3135
(dp3136
g74
(dp3137
sg83
g3131
sg76
(lp3138
g69
(g90
g71
NtRp3139
(dp3140
g74
(dp3141
g94
g95
ssg83
g3135
sg76
(lp3142
g179
asbag69
(g90
g71
NtRp3143
(dp3144
g74
(dp3145
g101
g102
ssg83
g3135
sg76
(lp3146
S':'
asbag69
(g90
g71
NtRp3147
(dp3148
g74
(dp3149
sg83
g3135
sg76
(lp3150
g69
(g70
g71
NtRp3151
(dp3152
g74
(dp3153
g82
I5
ssg83
g3147
sg76
(lp3154
S'<cStringIO.StringO object at 0xb43c7f80>'
p3155
asbasbasbag69
(g85
g71
NtRp3156
(dp3157
g74
(dp3158
sg83
g3131
sg76
(lp3159
g69
(g90
g71
NtRp3160
(dp3161
g74
(dp3162
g94
g95
ssg83
g3156
sg76
(lp3163
g245
asbag69
(g90
g71
NtRp3164
(dp3165
g74
(dp3166
g101
g102
ssg83
g3156
sg76
(lp3167
S':'
asbag69
(g90
g71
NtRp3168
(dp3169
g74
(dp3170
sg83
g3156
sg76
(lp3171
g69
(g70
g71
NtRp3172
(dp3173
g74
(dp3174
g82
I5
ssg83
g3168
sg76
(lp3175
g69
(g78
g71
NtRp3176
(dp3177
g74
(dp3178
g82
I4
ssg83
Nsg76
(lp3179
g69
(g85
g71
NtRp3180
(dp3181
g74
(dp3182
sg83
g3176
sg76
(lp3183
g69
(g90
g71
NtRp3184
(dp3185
g74
(dp3186
g94
g95
ssg83
g3180
sg76
(lp3187
S'session_id_911_signin'
p3188
asbag69
(g90
g71
NtRp3189
(dp3190
g74
(dp3191
g101
g102
ssg83
g3180
sg76
(lp3192
S':'
asbag69
(g90
g71
NtRp3193
(dp3194
g74
(dp3195
sg83
g3180
sg76
(lp3196
g69
(g70
g71
NtRp3197
(dp3198
g74
(dp3199
g82
I4
ssg83
g3193
sg76
(lp3200
g69
(g78
g71
NtRp3201
(dp3202
g74
(dp3203
g82
I3
ssg83
Nsg76
(lp3204
g69
(g85
g71
NtRp3205
(dp3206
g74
(dp3207
sg83
g3201
sg76
(lp3208
g69
(g90
g71
NtRp3209
(dp3210
g74
(dp3211
g94
g95
ssg83
g3205
sg76
(lp3212
g295
asbag69
(g90
g71
NtRp3213
(dp3214
g74
(dp3215
g101
g102
ssg83
g3205
sg76
(lp3216
S':'
asbag69
(g90
g71
NtRp3217
(dp3218
g74
(dp3219
sg83
g3205
sg76
(lp3220
g69
(g70
g71
NtRp3221
(dp3222
g74
(dp3223
g82
I3
ssg83
g3217
sg76
(lp3224
S''
asbasbasbag69
(g85
g71
NtRp3225
(dp3226
g74
(dp3227
sg83
g3201
sg76
(lp3228
g69
(g90
g71
NtRp3229
(dp3230
g74
(dp3231
g94
g95
ssg83
g3225
sg76
(lp3232
g316
asbag69
(g90
g71
NtRp3233
(dp3234
g74
(dp3235
g101
g102
ssg83
g3225
sg76
(lp3236
S':'
asbag69
(g90
g71
NtRp3237
(dp3238
g74
(dp3239
sg83
g3225
sg76
(lp3240
g69
(g70
g71
NtRp3241
(dp3242
g74
(dp3243
g82
I3
ssg83
g3237
sg76
(lp3244
S''
asbasbasbag69
(g85
g71
NtRp3245
(dp3246
g74
(dp3247
sg83
g3201
sg76
(lp3248
g69
(g90
g71
NtRp3249
(dp3250
g74
(dp3251
g94
g95
ssg83
g3245
sg76
(lp3252
g337
asbag69
(g90
g71
NtRp3253
(dp3254
g74
(dp3255
g101
g102
ssg83
g3245
sg76
(lp3256
S':'
asbag69
(g90
g71
NtRp3257
(dp3258
g74
(dp3259
sg83
g3245
sg76
(lp3260
g69
(g70
g71
NtRp3261
(dp3262
g74
(dp3263
g82
I3
ssg83
g3257
sg76
(lp3264
S'2592000'
p3265
asbasbasbag69
(g85
g71
NtRp3266
(dp3267
g74
(dp3268
sg83
g3201
sg76
(lp3269
g69
(g90
g71
NtRp3270
(dp3271
g74
(dp3272
g94
g95
ssg83
g3266
sg76
(lp3273
g358
asbag69
(g90
g71
NtRp3274
(dp3275
g74
(dp3276
g101
g102
ssg83
g3266
sg76
(lp3277
S':'
asbag69
(g90
g71
NtRp3278
(dp3279
g74
(dp3280
sg83
g3266
sg76
(lp3281
g69
(g70
g71
NtRp3282
(dp3283
g74
(dp3284
g82
I3
ssg83
g3278
sg76
(lp3285
S''
asbasbasbag69
(g85
g71
NtRp3286
(dp3287
g74
(dp3288
sg83
g3201
sg76
(lp3289
g69
(g90
g71
NtRp3290
(dp3291
g74
(dp3292
g94
g95
ssg83
g3286
sg76
(lp3293
g379
asbag69
(g90
g71
NtRp3294
(dp3295
g74
(dp3296
g101
g102
ssg83
g3286
sg76
(lp3297
S':'
asbag69
(g90
g71
NtRp3298
(dp3299
g74
(dp3300
sg83
g3286
sg76
(lp3301
g69
(g70
g71
NtRp3302
(dp3303
g74
(dp3304
g82
I3
ssg83
g3298
sg76
(lp3305
S''
asbasbasbag69
(g85
g71
NtRp3306
(dp3307
g74
(dp3308
sg83
g3201
sg76
(lp3309
g69
(g90
g71
NtRp3310
(dp3311
g74
(dp3312
g94
g95
ssg83
g3306
sg76
(lp3313
g400
asbag69
(g90
g71
NtRp3314
(dp3315
g74
(dp3316
g101
g102
ssg83
g3306
sg76
(lp3317
S':'
asbag69
(g90
g71
NtRp3318
(dp3319
g74
(dp3320
sg83
g3306
sg76
(lp3321
g69
(g70
g71
NtRp3322
(dp3323
g74
(dp3324
g82
I3
ssg83
g3318
sg76
(lp3325
S'/'
asbasbasbag69
(g85
g71
NtRp3326
(dp3327
g74
(dp3328
sg83
g3201
sg76
(lp3329
g69
(g90
g71
NtRp3330
(dp3331
g74
(dp3332
g94
g95
ssg83
g3326
sg76
(lp3333
g421
asbag69
(g90
g71
NtRp3334
(dp3335
g74
(dp3336
g101
g102
ssg83
g3326
sg76
(lp3337
S':'
asbag69
(g90
g71
NtRp3338
(dp3339
g74
(dp3340
sg83
g3326
sg76
(lp3341
g69
(g70
g71
NtRp3342
(dp3343
g74
(dp3344
g82
I3
ssg83
g3338
sg76
(lp3345
S''
asbasbasbag69
(g85
g71
NtRp3346
(dp3347
g74
(dp3348
sg83
g3201
sg76
(lp3349
g69
(g90
g71
NtRp3350
(dp3351
g74
(dp3352
g94
g95
ssg83
g3346
sg76
(lp3353
g442
asbag69
(g90
g71
NtRp3354
(dp3355
g74
(dp3356
g101
g102
ssg83
g3346
sg76
(lp3357
S':'
asbag69
(g90
g71
NtRp3358
(dp3359
g74
(dp3360
sg83
g3346
sg76
(lp3361
g69
(g70
g71
NtRp3362
(dp3363
g74
(dp3364
g82
I3
ssg83
g3358
sg76
(lp3365
S''
asbasbasbasbasbasbasbasbasbasbasbag69
(g85
g71
NtRp3366
(dp3367
g74
(dp3368
sg83
g3131
sg76
(lp3369
g69
(g90
g71
NtRp3370
(dp3371
g74
(dp3372
g94
g95
ssg83
g3366
sg76
(lp3373
S'delimiters'
p3374
asbag69
(g90
g71
NtRp3375
(dp3376
g74
(dp3377
g101
g102
ssg83
g3366
sg76
(lp3378
S':'
asbag69
(g90
g71
NtRp3379
(dp3380
g74
(dp3381
sg83
g3366
sg76
(lp3382
g69
(g70
g71
NtRp3383
(dp3384
g74
(dp3385
g82
I5
ssg83
g3379
sg76
(lp3386
g69
(g78
g71
NtRp3387
(dp3388
g74
(dp3389
g82
I4
ssg83
Nsg76
(lp3390
g69
(g85
g71
NtRp3391
(dp3392
g74
(dp3393
sg83
g3387
sg76
(lp3394
g69
(g90
g71
NtRp3395
(dp3396
g74
(dp3397
sg83
g3391
sg76
(lp3398
g69
(g70
g71
NtRp3399
(dp3400
g74
(dp3401
g82
I4
ssg83
g3395
sg76
(lp3402
S'{{'
p3403
asbasbasbag69
(g85
g71
NtRp3404
(dp3405
g74
(dp3406
sg83
g3387
sg76
(lp3407
g69
(g90
g71
NtRp3408
(dp3409
g74
(dp3410
sg83
g3404
sg76
(lp3411
g69
(g70
g71
NtRp3412
(dp3413
g74
(dp3414
g82
I4
ssg83
g3408
sg76
(lp3415
S'}}'
p3416
asbasbasbasbasbasbasbag69
(g85
g71
NtRp3417
(dp3418
g74
(dp3419
sg83
g3131
sg76
(lp3420
g69
(g90
g71
NtRp3421
(dp3422
g74
(dp3423
g94
g95
ssg83
g3417
sg76
(lp3424
S'files'
p3425
asbag69
(g90
g71
NtRp3426
(dp3427
g74
(dp3428
g101
g102
ssg83
g3417
sg76
(lp3429
S':'
asbag69
(g90
g71
NtRp3430
(dp3431
g74
(dp3432
sg83
g3417
sg76
(lp3433
g69
(g70
g71
NtRp3434
(dp3435
g74
(dp3436
g82
I5
ssg83
g3430
sg76
(lp3437
g69
(g78
g71
NtRp3438
(dp3439
g74
(dp3440
g82
I4
ssg83
Nsg76
(lp3441
sbasbasbasbag69
(g85
g71
NtRp3442
(dp3443
g74
(dp3444
sg83
g3131
sg76
(lp3445
g69
(g90
g71
NtRp3446
(dp3447
g74
(dp3448
g94
g95
ssg83
g3442
sg76
(lp3449
S'flash'
p3450
asbag69
(g90
g71
NtRp3451
(dp3452
g74
(dp3453
g101
g102
ssg83
g3442
sg76
(lp3454
S':'
asbag69
(g90
g71
NtRp3455
(dp3456
g74
(dp3457
sg83
g3442
sg76
(lp3458
g69
(g70
g71
NtRp3459
(dp3460
g74
(dp3461
g82
I5
ssg83
g3455
sg76
(lp3462
S''
asbasbasbag69
(g85
g71
NtRp3463
(dp3464
g74
(dp3465
sg83
g3131
sg76
(lp3466
g69
(g90
g71
NtRp3467
(dp3468
g74
(dp3469
g94
g95
ssg83
g3463
sg76
(lp3470
S'generic_patterns'
p3471
asbag69
(g90
g71
NtRp3472
(dp3473
g74
(dp3474
g101
g102
ssg83
g3463
sg76
(lp3475
S':'
asbag69
(g90
g71
NtRp3476
(dp3477
g74
(dp3478
sg83
g3463
sg76
(lp3479
g69
(g70
g71
NtRp3480
(dp3481
g74
(dp3482
g82
I5
ssg83
g3476
sg76
(lp3483
g69
(g78
g71
NtRp3484
(dp3485
g74
(dp3486
g82
I4
ssg83
Nsg76
(lp3487
g69
(g85
g71
NtRp3488
(dp3489
g74
(dp3490
sg83
g3484
sg76
(lp3491
g69
(g90
g71
NtRp3492
(dp3493
g74
(dp3494
sg83
g3488
sg76
(lp3495
g69
(g70
g71
NtRp3496
(dp3497
g74
(dp3498
g82
I4
ssg83
g3492
sg76
(lp3499
S'*'
asbasbasbasbasbasbasbag69
(g85
g71
NtRp3500
(dp3501
g74
(dp3502
sg83
g3131
sg76
(lp3503
g69
(g90
g71
NtRp3504
(dp3505
g74
(dp3506
g94
g95
ssg83
g3500
sg76
(lp3507
S'headers'
p3508
asbag69
(g90
g71
NtRp3509
(dp3510
g74
(dp3511
g101
g102
ssg83
g3500
sg76
(lp3512
S':'
asbag69
(g90
g71
NtRp3513
(dp3514
g74
(dp3515
sg83
g3500
sg76
(lp3516
g69
(g70
g71
NtRp3517
(dp3518
g74
(dp3519
g82
I5
ssg83
g3513
sg76
(lp3520
g69
(g78
g71
NtRp3521
(dp3522
g74
(dp3523
g82
I4
ssg83
Nsg76
(lp3524
g69
(g85
g71
NtRp3525
(dp3526
g74
(dp3527
sg83
g3521
sg76
(lp3528
g69
(g90
g71
NtRp3529
(dp3530
g74
(dp3531
g94
g95
ssg83
g3525
sg76
(lp3532
S'Cache-Control'
p3533
asbag69
(g90
g71
NtRp3534
(dp3535
g74
(dp3536
g101
g102
ssg83
g3525
sg76
(lp3537
S':'
asbag69
(g90
g71
NtRp3538
(dp3539
g74
(dp3540
sg83
g3525
sg76
(lp3541
g69
(g70
g71
NtRp3542
(dp3543
g74
(dp3544
g82
I4
ssg83
g3538
sg76
(lp3545
S'no-store, no-cache, must-revalidate, post-check=0, pre-check=0'
p3546
asbasbasbag69
(g85
g71
NtRp3547
(dp3548
g74
(dp3549
sg83
g3521
sg76
(lp3550
g69
(g90
g71
NtRp3551
(dp3552
g74
(dp3553
g94
g95
ssg83
g3547
sg76
(lp3554
S'Content-Type'
p3555
asbag69
(g90
g71
NtRp3556
(dp3557
g74
(dp3558
g101
g102
ssg83
g3547
sg76
(lp3559
S':'
asbag69
(g90
g71
NtRp3560
(dp3561
g74
(dp3562
sg83
g3547
sg76
(lp3563
g69
(g70
g71
NtRp3564
(dp3565
g74
(dp3566
g82
I4
ssg83
g3560
sg76
(lp3567
S'text/html; charset=utf-8'
p3568
asbasbasbag69
(g85
g71
NtRp3569
(dp3570
g74
(dp3571
sg83
g3521
sg76
(lp3572
g69
(g90
g71
NtRp3573
(dp3574
g74
(dp3575
g94
g95
ssg83
g3569
sg76
(lp3576
S'Expires'
p3577
asbag69
(g90
g71
NtRp3578
(dp3579
g74
(dp3580
g101
g102
ssg83
g3569
sg76
(lp3581
S':'
asbag69
(g90
g71
NtRp3582
(dp3583
g74
(dp3584
sg83
g3569
sg76
(lp3585
g69
(g70
g71
NtRp3586
(dp3587
g74
(dp3588
g82
I4
ssg83
g3582
sg76
(lp3589
S'Sun, 30 Jun 2013 10:01:12 GMT'
p3590
asbasbasbag69
(g85
g71
NtRp3591
(dp3592
g74
(dp3593
sg83
g3521
sg76
(lp3594
g69
(g90
g71
NtRp3595
(dp3596
g74
(dp3597
g94
g95
ssg83
g3591
sg76
(lp3598
S'Pragma'
p3599
asbag69
(g90
g71
NtRp3600
(dp3601
g74
(dp3602
g101
g102
ssg83
g3591
sg76
(lp3603
S':'
asbag69
(g90
g71
NtRp3604
(dp3605
g74
(dp3606
sg83
g3591
sg76
(lp3607
g69
(g70
g71
NtRp3608
(dp3609
g74
(dp3610
g82
I4
ssg83
g3604
sg76
(lp3611
S'no-cache'
p3612
asbasbasbag69
(g85
g71
NtRp3613
(dp3614
g74
(dp3615
sg83
g3521
sg76
(lp3616
g69
(g90
g71
NtRp3617
(dp3618
g74
(dp3619
g94
g95
ssg83
g3613
sg76
(lp3620
S'X-Powered-By'
p3621
asbag69
(g90
g71
NtRp3622
(dp3623
g74
(dp3624
g101
g102
ssg83
g3613
sg76
(lp3625
S':'
asbag69
(g90
g71
NtRp3626
(dp3627
g74
(dp3628
sg83
g3613
sg76
(lp3629
g69
(g70
g71
NtRp3630
(dp3631
g74
(dp3632
g82
I4
ssg83
g3626
sg76
(lp3633
S'web2py'
p3634
asbasbasbasbasbasbasbag69
(g85
g71
NtRp3635
(dp3636
g74
(dp3637
sg83
g3131
sg76
(lp3638
g69
(g90
g71
NtRp3639
(dp3640
g74
(dp3641
g94
g95
ssg83
g3635
sg76
(lp3642
S'menu'
p3643
asbag69
(g90
g71
NtRp3644
(dp3645
g74
(dp3646
g101
g102
ssg83
g3635
sg76
(lp3647
S':'
asbag69
(g90
g71
NtRp3648
(dp3649
g74
(dp3650
sg83
g3635
sg76
(lp3651
g69
(g70
g71
NtRp3652
(dp3653
g74
(dp3654
g82
I5
ssg83
g3648
sg76
(lp3655
g69
(g78
g71
NtRp3656
(dp3657
g74
(dp3658
g82
I4
ssg83
Nsg76
(lp3659
g69
(g85
g71
NtRp3660
(dp3661
g74
(dp3662
sg83
g3656
sg76
(lp3663
g69
(g90
g71
NtRp3664
(dp3665
g74
(dp3666
sg83
g3660
sg76
(lp3667
g69
(g70
g71
NtRp3668
(dp3669
g74
(dp3670
g82
I4
ssg83
g3664
sg76
(lp3671
g69
(g78
g71
NtRp3672
(dp3673
g74
(dp3674
g82
I3
ssg83
Nsg76
(lp3675
g69
(g85
g71
NtRp3676
(dp3677
g74
(dp3678
sg83
g3672
sg76
(lp3679
g69
(g90
g71
NtRp3680
(dp3681
g74
(dp3682
sg83
g3676
sg76
(lp3683
g69
(g70
g71
NtRp3684
(dp3685
g74
(dp3686
g82
I3
ssg83
g3680
sg76
(lp3687
cgluon.languages
lazyT_unpickle
p3688
(S't\x04\x00\x00\x00Home'
tRp3689
asbasbasbag69
(g85
g71
NtRp3690
(dp3691
g74
(dp3692
sg83
g3672
sg76
(lp3693
g69
(g90
g71
NtRp3694
(dp3695
g74
(dp3696
sg83
g3690
sg76
(lp3697
g69
(g70
g71
NtRp3698
(dp3699
g74
(dp3700
g82
I3
ssg83
g3694
sg76
(lp3701
g112
asbasbasbag69
(g85
g71
NtRp3702
(dp3703
g74
(dp3704
sg83
g3672
sg76
(lp3705
g69
(g90
g71
NtRp3706
(dp3707
g74
(dp3708
sg83
g3702
sg76
(lp3709
g69
(g70
g71
NtRp3710
(dp3711
g74
(dp3712
g82
I3
ssg83
g3706
sg76
(lp3713
S'/911_signin/default/index'
p3714
asbasbasbag69
(g85
g71
NtRp3715
(dp3716
g74
(dp3717
sg83
g3672
sg76
(lp3718
g69
(g90
g71
NtRp3719
(dp3720
g74
(dp3721
sg83
g3715
sg76
(lp3722
g69
(g70
g71
NtRp3723
(dp3724
g74
(dp3725
g82
I3
ssg83
g3719
sg76
(lp3726
g69
(g78
g71
NtRp3727
(dp3728
g74
(dp3729
g82
I2
ssg83
Nsg76
(lp3730
sbasbasbasbasbasbasbasbag69
(g85
g71
NtRp3731
(dp3732
g74
(dp3733
sg83
g3656
sg76
(lp3734
g69
(g90
g71
NtRp3735
(dp3736
g74
(dp3737
sg83
g3731
sg76
(lp3738
g69
(g70
g71
NtRp3739
(dp3740
g74
(dp3741
g82
I4
ssg83
g3735
sg76
(lp3742
g69
(g78
g71
NtRp3743
(dp3744
g74
(dp3745
g82
I3
ssg83
Nsg76
(lp3746
g69
(g85
g71
NtRp3747
(dp3748
g74
(dp3749
sg83
g3743
sg76
(lp3750
g69
(g90
g71
NtRp3751
(dp3752
g74
(dp3753
sg83
g3747
sg76
(lp3754
g69
(g70
g71
NtRp3755
(dp3756
g74
(dp3757
g82
I3
ssg83
g3751
sg76
(lp3758
g69
(cgluon.html
SPAN
p3759
g71
NtRp3760
(dp3761
g74
(dp3762
g94
S'color:yellow'
p3763
ssg83
Nsg76
(lp3764
g3634
asbasbasbasbag69
(g85
g71
NtRp3765
(dp3766
g74
(dp3767
sg83
g3743
sg76
(lp3768
g69
(g90
g71
NtRp3769
(dp3770
g74
(dp3771
sg83
g3765
sg76
(lp3772
g69
(g70
g71
NtRp3773
(dp3774
g74
(dp3775
g82
I3
ssg83
g3769
sg76
(lp3776
g112
asbasbasbag69
(g85
g71
NtRp3777
(dp3778
g74
(dp3779
sg83
g3743
sg76
(lp3780
g69
(g90
g71
NtRp3781
(dp3782
g74
(dp3783
sg83
g3777
sg76
(lp3784
g69
(g70
g71
NtRp3785
(dp3786
g74
(dp3787
g82
I3
ssg83
g3781
sg76
(lp3788
S'None'
p3789
asbasbasbag69
(g85
g71
NtRp3790
(dp3791
g74
(dp3792
sg83
g3743
sg76
(lp3793
g69
(g90
g71
NtRp3794
(dp3795
g74
(dp3796
sg83
g3790
sg76
(lp3797
g69
(g70
g71
NtRp3798
(dp3799
g74
(dp3800
g82
I3
ssg83
g3794
sg76
(lp3801
g69
(g78
g71
NtRp3802
(dp3803
g74
(dp3804
g82
I2
ssg83
Nsg76
(lp3805
g69
(g85
g71
NtRp3806
(dp3807
g74
(dp3808
sg83
g3802
sg76
(lp3809
g69
(g90
g71
NtRp3810
(dp3811
g74
(dp3812
sg83
g3806
sg76
(lp3813
g69
(g70
g71
NtRp3814
(dp3815
g74
(dp3816
g82
I2
ssg83
g3810
sg76
(lp3817
g69
(g78
g71
NtRp3818
(dp3819
g74
(dp3820
g82
I1
ssg83
Nsg76
(lp3821
g69
(g85
g71
NtRp3822
(dp3823
g74
(dp3824
sg83
g3818
sg76
(lp3825
g69
(g90
g71
NtRp3826
(dp3827
g74
(dp3828
sg83
g3822
sg76
(lp3829
g69
(g70
g71
NtRp3830
(dp3831
g74
(dp3832
g82
I1
ssg83
g3826
sg76
(lp3833
g3688
(S's\x08\x00\x00\x00My Sites'
tRp3834
asbasbasbag69
(g85
g71
NtRp3835
(dp3836
g74
(dp3837
sg83
g3818
sg76
(lp3838
g69
(g90
g71
NtRp3839
(dp3840
g74
(dp3841
sg83
g3835
sg76
(lp3842
g69
(g70
g71
NtRp3843
(dp3844
g74
(dp3845
g82
I1
ssg83
g3839
sg76
(lp3846
I00
asbasbasbag69
(g85
g71
NtRp3847
(dp3848
g74
(dp3849
sg83
g3818
sg76
(lp3850
g69
(g90
g71
NtRp3851
(dp3852
g74
(dp3853
sg83
g3847
sg76
(lp3854
g69
(g70
g71
NtRp3855
(dp3856
g74
(dp3857
g82
I1
ssg83
g3851
sg76
(lp3858
S'/admin/default/site'
p3859
asbasbasbasbasbasbasbag69
(g85
g71
NtRp3860
(dp3861
g74
(dp3862
sg83
g3802
sg76
(lp3863
g69
(g90
g71
NtRp3864
(dp3865
g74
(dp3866
sg83
g3860
sg76
(lp3867
g69
(g70
g71
NtRp3868
(dp3869
g74
(dp3870
g82
I2
ssg83
g3864
sg76
(lp3871
g69
(g78
g71
NtRp3872
(dp3873
g74
(dp3874
g82
I1
ssg83
Nsg76
(lp3875
g69
(g85
g71
NtRp3876
(dp3877
g74
(dp3878
sg83
g3872
sg76
(lp3879
g69
(g90
g71
NtRp3880
(dp3881
g74
(dp3882
sg83
g3876
sg76
(lp3883
g69
(g70
g71
NtRp3884
(dp3885
g74
(dp3886
g82
I1
ssg83
g3880
sg76
(lp3887
g3688
(S's\x08\x00\x00\x00This App'
tRp3888
asbasbasbag69
(g85
g71
NtRp3889
(dp3890
g74
(dp3891
sg83
g3872
sg76
(lp3892
g69
(g90
g71
NtRp3893
(dp3894
g74
(dp3895
sg83
g3889
sg76
(lp3896
g69
(g70
g71
NtRp3897
(dp3898
g74
(dp3899
g82
I1
ssg83
g3893
sg76
(lp3900
I00
asbasbasbag69
(g85
g71
NtRp3901
(dp3902
g74
(dp3903
sg83
g3872
sg76
(lp3904
g69
(g90
g71
NtRp3905
(dp3906
g74
(dp3907
sg83
g3901
sg76
(lp3908
g69
(g70
g71
NtRp3909
(dp3910
g74
(dp3911
g82
I1
ssg83
g3905
sg76
(lp3912
S'/admin/default/design/911_signin'
p3913
asbasbasbag69
(g85
g71
NtRp3914
(dp3915
g74
(dp3916
sg83
g3872
sg76
(lp3917
g69
(g90
g71
NtRp3918
(dp3919
g74
(dp3920
sg83
g3914
sg76
(lp3921
g69
(g70
g71
NtRp3922
(dp3923
g74
(dp3924
g82
I1
ssg83
g3918
sg76
(lp3925
(lp3926
(g3688
(S't\n\x00\x00\x00Controller'
tRp3927
I00
S'/admin/default/edit/911_signin/controllers/default.py'
tp3928
a(g3688
(S't\x04\x00\x00\x00View'
tRp3929
I00
S'/admin/default/edit/911_signin/views/default/profile.html'
tp3930
a(g3688
(S't\x06\x00\x00\x00Layout'
tRp3931
I00
S'/admin/default/edit/911_signin/views/layout.html'
tp3932
a(g3688
(S't\n\x00\x00\x00Stylesheet'
tRp3933
I00
S'/admin/default/edit/911_signin/static/css/web2py.css'
tp3934
a(g3688
(S's\x08\x00\x00\x00DB Model'
tRp3935
I00
S'/admin/default/edit/911_signin/models/db.py'
tp3936
a(g3688
(S's\n\x00\x00\x00Menu Model'
tRp3937
I00
S'/admin/default/edit/911_signin/models/menu.py'
tp3938
a(g3688
(S't\x08\x00\x00\x00Database'
tRp3939
I00
S'/911_signin/appadmin/index'
tp3940
a(g3688
(S't\x06\x00\x00\x00Errors'
tRp3941
I00
S'/admin/default/errors/911_signin'
tp3942
a(g3688
(S't\x05\x00\x00\x00About'
tRp3943
I00
S'/admin/default/about/911_signin'
tp3944
aasbasbasbasbasbasbasbag69
(g85
g71
NtRp3945
(dp3946
g74
(dp3947
sg83
g3802
sg76
(lp3948
g69
(g90
g71
NtRp3949
(dp3950
g74
(dp3951
sg83
g3945
sg76
(lp3952
g69
(g70
g71
NtRp3953
(dp3954
g74
(dp3955
g82
I2
ssg83
g3949
sg76
(lp3956
g69
(g78
g71
NtRp3957
(dp3958
g74
(dp3959
g82
I1
ssg83
Nsg76
(lp3960
g69
(g85
g71
NtRp3961
(dp3962
g74
(dp3963
sg83
g3957
sg76
(lp3964
g69
(g90
g71
NtRp3965
(dp3966
g74
(dp3967
sg83
g3961
sg76
(lp3968
g69
(g70
g71
NtRp3969
(dp3970
g74
(dp3971
g82
I1
ssg83
g3965
sg76
(lp3972
S'web2py.com'
p3973
asbasbasbag69
(g85
g71
NtRp3974
(dp3975
g74
(dp3976
sg83
g3957
sg76
(lp3977
g69
(g90
g71
NtRp3978
(dp3979
g74
(dp3980
sg83
g3974
sg76
(lp3981
g69
(g70
g71
NtRp3982
(dp3983
g74
(dp3984
g82
I1
ssg83
g3978
sg76
(lp3985
I00
asbasbasbag69
(g85
g71
NtRp3986
(dp3987
g74
(dp3988
sg83
g3957
sg76
(lp3989
g69
(g90
g71
NtRp3990
(dp3991
g74
(dp3992
sg83
g3986
sg76
(lp3993
g69
(g70
g71
NtRp3994
(dp3995
g74
(dp3996
g82
I1
ssg83
g3990
sg76
(lp3997
S'http://www.web2py.com'
p3998
asbasbasbag69
(g85
g71
NtRp3999
(dp4000
g74
(dp4001
sg83
g3957
sg76
(lp4002
g69
(g90
g71
NtRp4003
(dp4004
g74
(dp4005
sg83
g3999
sg76
(lp4006
g69
(g70
g71
NtRp4007
(dp4008
g74
(dp4009
g82
I1
ssg83
g4003
sg76
(lp4010
(lp4011
(g3688
(S't\x08\x00\x00\x00Download'
tRp4012
I00
S'http://www.web2py.com/examples/default/download'
p4013
tp4014
a(g3688
(S't\x07\x00\x00\x00Support'
tRp4015
I00
S'http://www.web2py.com/examples/default/support'
p4016
tp4017
a(g3688
(S't\x04\x00\x00\x00Demo'
tRp4018
I00
S'http://web2py.com/demo_admin'
p4019
tp4020
a(g3688
(S's\x0e\x00\x00\x00Quick Examples'
tRp4021
I00
S'http://web2py.com/examples/default/examples'
p4022
tp4023
a(g3688
(S't\x03\x00\x00\x00FAQ'
tRp4024
I00
S'http://web2py.com/AlterEgo'
p4025
tp4026
a(g3688
(S't\x06\x00\x00\x00Videos'
tRp4027
I00
S'http://www.web2py.com/examples/default/videos/'
p4028
tp4029
a(g3688
(S's\x11\x00\x00\x00Free Applications'
tRp4030
I00
S'http://web2py.com/appliances'
p4031
tp4032
a(g3688
(S't\x07\x00\x00\x00Plugins'
tRp4033
I00
S'http://web2py.com/plugins'
p4034
tp4035
a(g3688
(S't\x07\x00\x00\x00Layouts'
tRp4036
I00
S'http://web2py.com/layouts'
p4037
tp4038
a(g3688
(S't\x07\x00\x00\x00Recipes'
tRp4039
I00
S'http://web2pyslices.com/'
p4040
tp4041
a(g3688
(S't\x08\x00\x00\x00Semantic'
tRp4042
I00
S'http://web2py.com/semantic'
p4043
tp4044
aasbasbasbasbasbasbasbag69
(g85
g71
NtRp4045
(dp4046
g74
(dp4047
sg83
g3802
sg76
(lp4048
g69
(g90
g71
NtRp4049
(dp4050
g74
(dp4051
sg83
g4045
sg76
(lp4052
g69
(g70
g71
NtRp4053
(dp4054
g74
(dp4055
g82
I2
ssg83
g4049
sg76
(lp4056
g69
(g78
g71
NtRp4057
(dp4058
g74
(dp4059
g82
I1
ssg83
Nsg76
(lp4060
g69
(g85
g71
NtRp4061
(dp4062
g74
(dp4063
sg83
g4057
sg76
(lp4064
g69
(g90
g71
NtRp4065
(dp4066
g74
(dp4067
sg83
g4061
sg76
(lp4068
g69
(g70
g71
NtRp4069
(dp4070
g74
(dp4071
g82
I1
ssg83
g4065
sg76
(lp4072
g3688
(S't\r\x00\x00\x00Documentation'
tRp4073
asbasbasbag69
(g85
g71
NtRp4074
(dp4075
g74
(dp4076
sg83
g4057
sg76
(lp4077
g69
(g90
g71
NtRp4078
(dp4079
g74
(dp4080
sg83
g4074
sg76
(lp4081
g69
(g70
g71
NtRp4082
(dp4083
g74
(dp4084
g82
I1
ssg83
g4078
sg76
(lp4085
I00
asbasbasbag69
(g85
g71
NtRp4086
(dp4087
g74
(dp4088
sg83
g4057
sg76
(lp4089
g69
(g90
g71
NtRp4090
(dp4091
g74
(dp4092
sg83
g4086
sg76
(lp4093
g69
(g70
g71
NtRp4094
(dp4095
g74
(dp4096
g82
I1
ssg83
g4090
sg76
(lp4097
S'http://www.web2py.com/book'
p4098
asbasbasbag69
(g85
g71
NtRp4099
(dp4100
g74
(dp4101
sg83
g4057
sg76
(lp4102
g69
(g90
g71
NtRp4103
(dp4104
g74
(dp4105
sg83
g4099
sg76
(lp4106
g69
(g70
g71
NtRp4107
(dp4108
g74
(dp4109
g82
I1
ssg83
g4103
sg76
(lp4110
(lp4111
(g3688
(S't\x07\x00\x00\x00Preface'
tRp4112
I00
S'http://www.web2py.com/book/default/chapter/00'
p4113
tp4114
a(g3688
(S't\x0c\x00\x00\x00Introduction'
tRp4115
I00
S'http://www.web2py.com/book/default/chapter/01'
p4116
tp4117
a(g3688
(S't\x06\x00\x00\x00Python'
tRp4118
I00
S'http://www.web2py.com/book/default/chapter/02'
p4119
tp4120
a(g3688
(S't\x08\x00\x00\x00Overview'
tRp4121
I00
S'http://www.web2py.com/book/default/chapter/03'
p4122
tp4123
a(g3688
(S's\x08\x00\x00\x00The Core'
tRp4124
I00
S'http://www.web2py.com/book/default/chapter/04'
p4125
tp4126
a(g3688
(S's\t\x00\x00\x00The Views'
tRp4127
I00
S'http://www.web2py.com/book/default/chapter/05'
p4128
tp4129
a(g3688
(S't\x08\x00\x00\x00Database'
tRp4130
I00
S'http://www.web2py.com/book/default/chapter/06'
p4131
tp4132
a(g3688
(S's\x14\x00\x00\x00Forms and Validators'
tRp4133
I00
S'http://www.web2py.com/book/default/chapter/07'
p4134
tp4135
a(g3688
(S's\r\x00\x00\x00Email and SMS'
tRp4136
I00
S'http://www.web2py.com/book/default/chapter/08'
p4137
tp4138
a(g3688
(S's\x0e\x00\x00\x00Access Control'
tRp4139
I00
S'http://www.web2py.com/book/default/chapter/09'
p4140
tp4141
a(g3688
(S't\x08\x00\x00\x00Services'
tRp4142
I00
S'http://www.web2py.com/book/default/chapter/10'
p4143
tp4144
a(g3688
(S's\x0c\x00\x00\x00Ajax Recipes'
tRp4145
I00
S'http://www.web2py.com/book/default/chapter/11'
p4146
tp4147
a(g3688
(S's\x16\x00\x00\x00Components and Plugins'
tRp4148
I00
S'http://www.web2py.com/book/default/chapter/12'
p4149
tp4150
a(g3688
(S's\x12\x00\x00\x00Deployment Recipes'
tRp4151
I00
S'http://www.web2py.com/book/default/chapter/13'
p4152
tp4153
a(g3688
(S's\r\x00\x00\x00Other Recipes'
tRp4154
I00
S'http://www.web2py.com/book/default/chapter/14'
p4155
tp4156
a(g3688
(S's\r\x00\x00\x00Buy this book'
tRp4157
I00
S'http://stores.lulu.com/web2py'
p4158
tp4159
aasbasbasbasbasbasbasbag69
(g85
g71
NtRp4160
(dp4161
g74
(dp4162
sg83
g3802
sg76
(lp4163
g69
(g90
g71
NtRp4164
(dp4165
g74
(dp4166
sg83
g4160
sg76
(lp4167
g69
(g70
g71
NtRp4168
(dp4169
g74
(dp4170
g82
I2
ssg83
g4164
sg76
(lp4171
g69
(g78
g71
NtRp4172
(dp4173
g74
(dp4174
g82
I1
ssg83
Nsg76
(lp4175
g69
(g85
g71
NtRp4176
(dp4177
g74
(dp4178
sg83
g4172
sg76
(lp4179
g69
(g90
g71
NtRp4180
(dp4181
g74
(dp4182
sg83
g4176
sg76
(lp4183
g69
(g70
g71
NtRp4184
(dp4185
g74
(dp4186
g82
I1
ssg83
g4180
sg76
(lp4187
g3688
(S't\t\x00\x00\x00Community'
tRp4188
asbasbasbag69
(g85
g71
NtRp4189
(dp4190
g74
(dp4191
sg83
g4172
sg76
(lp4192
g69
(g90
g71
NtRp4193
(dp4194
g74
(dp4195
sg83
g4189
sg76
(lp4196
g69
(g70
g71
NtRp4197
(dp4198
g74
(dp4199
g82
I1
ssg83
g4193
sg76
(lp4200
I00
asbasbasbag69
(g85
g71
NtRp4201
(dp4202
g74
(dp4203
sg83
g4172
sg76
(lp4204
g69
(g90
g71
NtRp4205
(dp4206
g74
(dp4207
sg83
g4201
sg76
(lp4208
g69
(g70
g71
NtRp4209
(dp4210
g74
(dp4211
g82
I1
ssg83
g4205
sg76
(lp4212
Nasbasbasbag69
(g85
g71
NtRp4213
(dp4214
g74
(dp4215
sg83
g4172
sg76
(lp4216
g69
(g90
g71
NtRp4217
(dp4218
g74
(dp4219
sg83
g4213
sg76
(lp4220
g69
(g70
g71
NtRp4221
(dp4222
g74
(dp4223
g82
I1
ssg83
g4217
sg76
(lp4224
(lp4225
(g3688
(S't\x06\x00\x00\x00Groups'
tRp4226
I00
S'http://www.web2py.com/examples/default/usergroups'
p4227
tp4228
a(g3688
(S't\x07\x00\x00\x00Twitter'
tRp4229
I00
S'http://twitter.com/web2py'
p4230
tp4231
a(g3688
(S's\t\x00\x00\x00Live Chat'
tRp4232
I00
S'http://webchat.freenode.net/?channels=web2py'
p4233
tp4234
aasbasbasbasbasbasbasbag69
(g85
g71
NtRp4235
(dp4236
g74
(dp4237
sg83
g3802
sg76
(lp4238
g69
(g90
g71
NtRp4239
(dp4240
g74
(dp4241
sg83
g4235
sg76
(lp4242
g69
(g70
g71
NtRp4243
(dp4244
g74
(dp4245
g82
I2
ssg83
g4239
sg76
(lp4246
g69
(g78
g71
NtRp4247
(dp4248
g74
(dp4249
g82
I1
ssg83
Nsg76
(lp4250
g69
(g85
g71
NtRp4251
(dp4252
g74
(dp4253
sg83
g4247
sg76
(lp4254
g69
(g90
g71
NtRp4255
(dp4256
g74
(dp4257
sg83
g4251
sg76
(lp4258
g69
(g70
g71
NtRp4259
(dp4260
g74
(dp4261
g82
I1
ssg83
g4255
sg76
(lp4262
g3688
(S't\x07\x00\x00\x00Plugins'
tRp4263
asbasbasbag69
(g85
g71
NtRp4264
(dp4265
g74
(dp4266
sg83
g4247
sg76
(lp4267
g69
(g90
g71
NtRp4268
(dp4269
g74
(dp4270
sg83
g4264
sg76
(lp4271
g69
(g70
g71
NtRp4272
(dp4273
g74
(dp4274
g82
I1
ssg83
g4268
sg76
(lp4275
I00
asbasbasbag69
(g85
g71
NtRp4276
(dp4277
g74
(dp4278
sg83
g4247
sg76
(lp4279
g69
(g90
g71
NtRp4280
(dp4281
g74
(dp4282
sg83
g4276
sg76
(lp4283
g69
(g70
g71
NtRp4284
(dp4285
g74
(dp4286
g82
I1
ssg83
g4280
sg76
(lp4287
Nasbasbasbag69
(g85
g71
NtRp4288
(dp4289
g74
(dp4290
sg83
g4247
sg76
(lp4291
g69
(g90
g71
NtRp4292
(dp4293
g74
(dp4294
sg83
g4288
sg76
(lp4295
g69
(g70
g71
NtRp4296
(dp4297
g74
(dp4298
g82
I1
ssg83
g4292
sg76
(lp4299
(lp4300
(S'plugin_wiki'
p4301
I00
S'http://web2py.com/examples/default/download'
p4302
tp4303
a(g3688
(S's\r\x00\x00\x00Other Plugins'
tRp4304
I00
g4034
tp4305
a(g3688
(S's\x0e\x00\x00\x00Layout Plugins'
tRp4306
I00
g4037
tp4307
aasbasbasbasbasbasbasbasbasbasbasbasbasbasbasbasbasbasbasbag69
(g85
g71
NtRp4308
(dp4309
g74
(dp4310
sg83
g3131
sg76
(lp4311
g69
(g90
g71
NtRp4312
(dp4313
g74
(dp4314
g94
g95
ssg83
g4308
sg76
(lp4315
S'meta'
p4316
asbag69
(g90
g71
NtRp4317
(dp4318
g74
(dp4319
g101
g102
ssg83
g4308
sg76
(lp4320
S':'
asbag69
(g90
g71
NtRp4321
(dp4322
g74
(dp4323
sg83
g4308
sg76
(lp4324
g69
(g70
g71
NtRp4325
(dp4326
g74
(dp4327
g82
I5
ssg83
g4321
sg76
(lp4328
g69
(g78
g71
NtRp4329
(dp4330
g74
(dp4331
g82
I4
ssg83
Nsg76
(lp4332
g69
(g85
g71
NtRp4333
(dp4334
g74
(dp4335
sg83
g4329
sg76
(lp4336
g69
(g90
g71
NtRp4337
(dp4338
g74
(dp4339
g94
g95
ssg83
g4333
sg76
(lp4340
S'author'
p4341
asbag69
(g90
g71
NtRp4342
(dp4343
g74
(dp4344
g101
g102
ssg83
g4333
sg76
(lp4345
S':'
asbag69
(g90
g71
NtRp4346
(dp4347
g74
(dp4348
sg83
g4333
sg76
(lp4349
g69
(g70
g71
NtRp4350
(dp4351
g74
(dp4352
g82
I4
ssg83
g4346
sg76
(lp4353
S'Your Name <you@example.com>'
p4354
asbasbasbag69
(g85
g71
NtRp4355
(dp4356
g74
(dp4357
sg83
g4329
sg76
(lp4358
g69
(g90
g71
NtRp4359
(dp4360
g74
(dp4361
g94
g95
ssg83
g4355
sg76
(lp4362
S'copyright'
p4363
asbag69
(g90
g71
NtRp4364
(dp4365
g74
(dp4366
g101
g102
ssg83
g4355
sg76
(lp4367
S':'
asbag69
(g90
g71
NtRp4368
(dp4369
g74
(dp4370
sg83
g4355
sg76
(lp4371
g69
(g70
g71
NtRp4372
(dp4373
g74
(dp4374
g82
I4
ssg83
g4368
sg76
(lp4375
S'Copyright 2011'
p4376
asbasbasbag69
(g85
g71
NtRp4377
(dp4378
g74
(dp4379
sg83
g4329
sg76
(lp4380
g69
(g90
g71
NtRp4381
(dp4382
g74
(dp4383
g94
g95
ssg83
g4377
sg76
(lp4384
S'description'
p4385
asbag69
(g90
g71
NtRp4386
(dp4387
g74
(dp4388
g101
g102
ssg83
g4377
sg76
(lp4389
S':'
asbag69
(g90
g71
NtRp4390
(dp4391
g74
(dp4392
sg83
g4377
sg76
(lp4393
g69
(g70
g71
NtRp4394
(dp4395
g74
(dp4396
g82
I4
ssg83
g4390
sg76
(lp4397
S'a cool new app'
p4398
asbasbasbag69
(g85
g71
NtRp4399
(dp4400
g74
(dp4401
sg83
g4329
sg76
(lp4402
g69
(g90
g71
NtRp4403
(dp4404
g74
(dp4405
g94
g95
ssg83
g4399
sg76
(lp4406
S'generator'
p4407
asbag69
(g90
g71
NtRp4408
(dp4409
g74
(dp4410
g101
g102
ssg83
g4399
sg76
(lp4411
S':'
asbag69
(g90
g71
NtRp4412
(dp4413
g74
(dp4414
sg83
g4399
sg76
(lp4415
g69
(g70
g71
NtRp4416
(dp4417
g74
(dp4418
g82
I4
ssg83
g4412
sg76
(lp4419
S'Web2py Web Framework'
p4420
asbasbasbag69
(g85
g71
NtRp4421
(dp4422
g74
(dp4423
sg83
g4329
sg76
(lp4424
g69
(g90
g71
NtRp4425
(dp4426
g74
(dp4427
g94
g95
ssg83
g4421
sg76
(lp4428
S'keywords'
p4429
asbag69
(g90
g71
NtRp4430
(dp4431
g74
(dp4432
g101
g102
ssg83
g4421
sg76
(lp4433
S':'
asbag69
(g90
g71
NtRp4434
(dp4435
g74
(dp4436
sg83
g4421
sg76
(lp4437
g69
(g70
g71
NtRp4438
(dp4439
g74
(dp4440
g82
I4
ssg83
g4434
sg76
(lp4441
S'web2py, python, framework'
p4442
asbasbasbasbasbasbasbag69
(g85
g71
NtRp4443
(dp4444
g74
(dp4445
sg83
g3131
sg76
(lp4446
g69
(g90
g71
NtRp4447
(dp4448
g74
(dp4449
g94
g95
ssg83
g4443
sg76
(lp4450
S'postprocessing'
p4451
asbag69
(g90
g71
NtRp4452
(dp4453
g74
(dp4454
g101
g102
ssg83
g4443
sg76
(lp4455
S':'
asbag69
(g90
g71
NtRp4456
(dp4457
g74
(dp4458
sg83
g4443
sg76
(lp4459
g69
(g70
g71
NtRp4460
(dp4461
g74
(dp4462
g82
I5
ssg83
g4456
sg76
(lp4463
g69
(g78
g71
NtRp4464
(dp4465
g74
(dp4466
g82
I4
ssg83
Nsg76
(lp4467
sbasbasbasbag69
(g85
g71
NtRp4468
(dp4469
g74
(dp4470
sg83
g3131
sg76
(lp4471
g69
(g90
g71
NtRp4472
(dp4473
g74
(dp4474
g94
g95
ssg83
g4468
sg76
(lp4475
S'session_file'
p4476
asbag69
(g90
g71
NtRp4477
(dp4478
g74
(dp4479
g101
g102
ssg83
g4468
sg76
(lp4480
S':'
asbag69
(g90
g71
NtRp4481
(dp4482
g74
(dp4483
sg83
g4468
sg76
(lp4484
g69
(g70
g71
NtRp4485
(dp4486
g74
(dp4487
g82
I5
ssg83
g4481
sg76
(lp4488
S"<open file '/home/enigma/web2py/applications/911_signin/sessions/127.0.0.1-2102934b-c5d9-414f-bba8-9d75c955d101', mode 'rb+' at 0xb2fdd5a0>"
p4489
asbasbasbag69
(g85
g71
NtRp4490
(dp4491
g74
(dp4492
sg83
g3131
sg76
(lp4493
g69
(g90
g71
NtRp4494
(dp4495
g74
(dp4496
g94
g95
ssg83
g4490
sg76
(lp4497
S'session_filename'
p4498
asbag69
(g90
g71
NtRp4499
(dp4500
g74
(dp4501
g101
g102
ssg83
g4490
sg76
(lp4502
S':'
asbag69
(g90
g71
NtRp4503
(dp4504
g74
(dp4505
sg83
g4490
sg76
(lp4506
g69
(g70
g71
NtRp4507
(dp4508
g74
(dp4509
g82
I5
ssg83
g4503
sg76
(lp4510
S'/home/enigma/web2py/applications/911_signin/sessions/127.0.0.1-2102934b-c5d9-414f-bba8-9d75c955d101'
p4511
asbasbasbag69
(g85
g71
NtRp4512
(dp4513
g74
(dp4514
sg83
g3131
sg76
(lp4515
g69
(g90
g71
NtRp4516
(dp4517
g74
(dp4518
g94
g95
ssg83
g4512
sg76
(lp4519
S'session_id'
p4520
asbag69
(g90
g71
NtRp4521
(dp4522
g74
(dp4523
g101
g102
ssg83
g4512
sg76
(lp4524
S':'
asbag69
(g90
g71
NtRp4525
(dp4526
g74
(dp4527
sg83
g4512
sg76
(lp4528
g69
(g70
g71
NtRp4529
(dp4530
g74
(dp4531
g82
I5
ssg83
g4525
sg76
(lp4532
S'127.0.0.1-2102934b-c5d9-414f-bba8-9d75c955d101'
p4533
asbasbasbag69
(g85
g71
NtRp4534
(dp4535
g74
(dp4536
sg83
g3131
sg76
(lp4537
g69
(g90
g71
NtRp4538
(dp4539
g74
(dp4540
g94
g95
ssg83
g4534
sg76
(lp4541
S'session_id_name'
p4542
asbag69
(g90
g71
NtRp4543
(dp4544
g74
(dp4545
g101
g102
ssg83
g4534
sg76
(lp4546
S':'
asbag69
(g90
g71
NtRp4547
(dp4548
g74
(dp4549
sg83
g4534
sg76
(lp4550
g69
(g70
g71
NtRp4551
(dp4552
g74
(dp4553
g82
I5
ssg83
g4547
sg76
(lp4554
g3188
asbasbasbag69
(g85
g71
NtRp4555
(dp4556
g74
(dp4557
sg83
g3131
sg76
(lp4558
g69
(g90
g71
NtRp4559
(dp4560
g74
(dp4561
g94
g95
ssg83
g4555
sg76
(lp4562
S'session_locked'
p4563
asbag69
(g90
g71
NtRp4564
(dp4565
g74
(dp4566
g101
g102
ssg83
g4555
sg76
(lp4567
S':'
asbag69
(g90
g71
NtRp4568
(dp4569
g74
(dp4570
sg83
g4555
sg76
(lp4571
g69
(g70
g71
NtRp4572
(dp4573
g74
(dp4574
g82
I5
ssg83
g4568
sg76
(lp4575
g1332
asbasbasbag69
(g85
g71
NtRp4576
(dp4577
g74
(dp4578
sg83
g3131
sg76
(lp4579
g69
(g90
g71
NtRp4580
(dp4581
g74
(dp4582
g94
g95
ssg83
g4576
sg76
(lp4583
S'session_new'
p4584
asbag69
(g90
g71
NtRp4585
(dp4586
g74
(dp4587
g101
g102
ssg83
g4576
sg76
(lp4588
S':'
asbag69
(g90
g71
NtRp4589
(dp4590
g74
(dp4591
sg83
g4576
sg76
(lp4592
g69
(g70
g71
NtRp4593
(dp4594
g74
(dp4595
g82
I5
ssg83
g4589
sg76
(lp4596
g112
asbasbasbag69
(g85
g71
NtRp4597
(dp4598
g74
(dp4599
sg83
g3131
sg76
(lp4600
g69
(g90
g71
NtRp4601
(dp4602
g74
(dp4603
g94
g95
ssg83
g4597
sg76
(lp4604
S'status'
p4605
asbag69
(g90
g71
NtRp4606
(dp4607
g74
(dp4608
g101
g102
ssg83
g4597
sg76
(lp4609
S':'
asbag69
(g90
g71
NtRp4610
(dp4611
g74
(dp4612
sg83
g4597
sg76
(lp4613
g69
(g70
g71
NtRp4614
(dp4615
g74
(dp4616
g82
I5
ssg83
g4610
sg76
(lp4617
S'200'
p4618
asbasbasbag69
(g85
g71
NtRp4619
(dp4620
g74
(dp4621
sg83
g3131
sg76
(lp4622
g69
(g90
g71
NtRp4623
(dp4624
g74
(dp4625
g94
g95
ssg83
g4619
sg76
(lp4626
S'subtitle'
p4627
asbag69
(g90
g71
NtRp4628
(dp4629
g74
(dp4630
g101
g102
ssg83
g4619
sg76
(lp4631
S':'
asbag69
(g90
g71
NtRp4632
(dp4633
g74
(dp4634
sg83
g4619
sg76
(lp4635
g69
(g70
g71
NtRp4636
(dp4637
g74
(dp4638
g82
I5
ssg83
g4632
sg76
(lp4639
g3688
(S's\r\x00\x00\x00customize me!'
tRp4640
asbasbasbag69
(g85
g71
NtRp4641
(dp4642
g74
(dp4643
sg83
g3131
sg76
(lp4644
g69
(g90
g71
NtRp4645
(dp4646
g74
(dp4647
g94
g95
ssg83
g4641
sg76
(lp4648
S'title'
p4649
asbag69
(g90
g71
NtRp4650
(dp4651
g74
(dp4652
g101
g102
ssg83
g4641
sg76
(lp4653
S':'
asbag69
(g90
g71
NtRp4654
(dp4655
g74
(dp4656
sg83
g4641
sg76
(lp4657
g69
(g70
g71
NtRp4658
(dp4659
g74
(dp4660
g82
I5
ssg83
g4654
sg76
(lp4661
S'911 Signin'
p4662
asbasbasbag69
(g85
g71
NtRp4663
(dp4664
g74
(dp4665
sg83
g3131
sg76
(lp4666
g69
(g90
g71
NtRp4667
(dp4668
g74
(dp4669
g94
g95
ssg83
g4663
sg76
(lp4670
g2017
asbag69
(g90
g71
NtRp4671
(dp4672
g74
(dp4673
g101
g102
ssg83
g4663
sg76
(lp4674
S':'
asbag69
(g90
g71
NtRp4675
(dp4676
g74
(dp4677
sg83
g4663
sg76
(lp4678
g69
(g70
g71
NtRp4679
(dp4680
g74
(dp4681
g82
I5
ssg83
g4675
sg76
(lp4682
g2030
asbasbasbag69
(g85
g71
NtRp4683
(dp4684
g74
(dp4685
sg83
g3131
sg76
(lp4686
g69
(g90
g71
NtRp4687
(dp4688
g74
(dp4689
g94
g95
ssg83
g4683
sg76
(lp4690
S'view'
p4691
asbag69
(g90
g71
NtRp4692
(dp4693
g74
(dp4694
g101
g102
ssg83
g4683
sg76
(lp4695
S':'
asbag69
(g90
g71
NtRp4696
(dp4697
g74
(dp4698
sg83
g4683
sg76
(lp4699
g69
(g70
g71
NtRp4700
(dp4701
g74
(dp4702
g82
I5
ssg83
g4696
sg76
(lp4703
S'default/profile.html'
p4704
asbasbasbasbasbsS'locals'
p4705
(dp4706
g4
S"'/home/enigma/web2py/applications/911_signin/views/default/profile.html'"
p4707
sg6
S'r"response.write(\'<!DOCTYPE html>\\n<!-- paulirish....ponse.write(\'\\n</body>\\n</html>\\n\', escape=False)"'
p4708
sssS'traceback'
p4709
S'Traceback (most recent call last):\n  File "/home/enigma/web2py/gluon/restricted.py", line 204, in restricted\n    ccode = compile2(code,layer)\n  File "/home/enigma/web2py/gluon/restricted.py", line 189, in compile2\n    return compile(code.rstrip().replace(\'\\r\\n\',\'\\n\')+\'\\n\', layer, \'exec\')\n  File "/home/enigma/web2py/applications/911_signin/views/default/profile.html", line 81\n    if request.args(0) == auth.user.username\n                                           ^\nSyntaxError: invalid syntax\n'
p4710
s.