(dp1
S'output'
p2
S"<type 'exceptions.TypeError'> unsupported operand type(s) for +: 'NoneType' and 'str'"
p3
sS'layer'
p4
S'/home/krutarth/Downloads/911india/applications/911_signin/controllers/default.py'
p5
sS'code'
p6
S'# -*- coding: utf-8 -*-\n# this file is released under public domain and you can use without limitations\n\n#########################################################################\n## This is a samples controller\n## - index is the default action of any application\n## - user is required for authentication and authorization\n## - download is for downloading files uploaded in the db (does streaming)\n## - call exposes all registered services (none by default)\n#########################################################################\n\nfrom gluon.contrib.login_methods.rpx_account import use_janrain\nfrom gluon.contrib.login_methods.extended_login_form import ExtendedLoginForm\n\n@auth.requires_login()\ndef index():\n    """\n    example action using the internationalization operator T and flash\n    rendered by views/default/index.html or views/generic.html\n    """\n    response.flash = "Welcome to web2py!"\n    return dict(message=T(\'Hello World\'))\n\n\ndef user():\n    """\n    exposes:\n    http://..../[app]/default/user/login\n    http://..../[app]/default/user/logout\n    http://..../[app]/default/user/register\n    http://..../[app]/default/user/profile\n    http://..../[app]/default/user/retrieve_password\n    http://..../[app]/default/user/change_password\n    use @auth.requires_login()\n        @auth.requires_membership(\'group name\')\n        @auth.requires_permission(\'read\',\'table name\',record_id)\n    to decorate functions that need access control\n    """\n    \n    form_janrain = use_janrain(auth,filename=\'private/janrain.key\')\n    auth.settings.login_form = ExtendedLoginForm(auth, form_janrain, signals=[\'token\'])\n    return dict(form=auth())\n\n\ndef home():\n    return dict(uid=auth.user_id)\n\n\ndef download():\n    """\n    allows downloading of uploaded files\n    http://..../[app]/default/download/[filename]\n    """\n    return response.download(request,db)\n\n\ndef call():\n    """\n    exposes services. for example:\n    http://..../[app]/default/call/jsonrpc\n    decorate with @services.jsonrpc the functions to expose\n    supports xml, json, xmlrpc, jsonrpc, amfrpc, rss, csv\n    """\n    return service()\n\n\n@auth.requires_signature()\ndef data():\n    """\n    http://..../[app]/default/data/tables\n    http://..../[app]/default/data/create/[table]\n    http://..../[app]/default/data/read/[table]/[id]\n    http://..../[app]/default/data/update/[table]/[id]\n    http://..../[app]/default/data/delete/[table]/[id]\n    http://..../[app]/default/data/select/[table]\n    http://..../[app]/default/data/search/[table]\n    but URLs must be signed, i.e. linked with\n      A(\'table\',_href=URL(\'data/tables\',user_signature=True))\n    or with the signed load operator\n      LOAD(\'default\',\'data.load\',args=\'tables\',ajax=True,user_signature=True)\n    """\n    return dict(form=crud())\n\n@auth.requires_login()\ndef myprofile():\n\ttmp_usr=db(db.basic_info.username == auth.user.username)(db.basic_info.email == auth.user.email).select().first()\n\tif tmp_usr==None:\n\t\tdb.basic_info.email.default=auth.user.email\n\t\tform=SQLFORM(db.basic_info, submit_button=\'Create Profile\')\n\t\tform.vars.first_name=auth.user.first_name\n\t\tform.vars.last_name=auth.user.last_name\n\t\tform.vars.username=auth.user.username\n\n\telse:\n\t\tform=SQLFORM(db.basic_info,tmp_usr.id,showid=False, submit_button=\'Update Profile\')\n\n\tform.vars.prefix = \'Mr.\'\n\tform.vars.email_share_with = \'Only my network\'\n\tform.vars.phone_share_with = \'Only my network\'\n\n\tdb.experience.username.default=auth.user.username\n\tdb.education.username.default=auth.user.username\n\tform2=SQLFORM(db.experience, submit_button=\'Add experience\')\n\tform3=SQLFORM(db.education, submit_button=\'Add education\')\n\n\tif form.process().accepted:\n\t\tresponse.flash=\'Profile updated\'\n\n\tif form2.process().accepted:\n\t\tresponse.flash=\'Experience added\'\n\n\tif form3.process().accepted:\n\t\tresponse.flash=\'Education added\'\n\n\texperience=db(db.experience.username == auth.user.username).select()\n\teducation=db(db.education.username == auth.user.username).select()\n\n\treturn dict(form=form, form2=form2, form3=form3, experience=experience, education=education)\n\n\n\ndef profile():\n\tuname = request.args(0)\n\tuser_obj = db(db.auth_users.username == uname).select()\n\tprofile_obj = db(db.basic_info.username == uname).select()\n\texp_obj = db(db.experience.username == uname).select()\n\tedu_obj = db(db.education.username == uname).select()\n\treturn dict(user=user_obj, profile=profile_obj, experience=exp_obj, education=edu_obj)\n\n\n@auth.requires_login()\ndef changepicture():\n\ttmp_pic=db(db.profile_pic.uname == auth.user.username).select()\n\tif tmp_pic:\n\t\tform=SQLFORM(db.profile_pic,tmp_pic.first().id,showid=False, submit_button=\'Upload Picture\')\n\telse:\n\t\tdb.profile_pic.uname.default=auth.user.username\n\t\tform=SQLFORM(db.profile_pic, submit_button=\'Upload Picture\')\n\n\tif form.process().accepted:\n\t\tresponse.flash=\'Image uploaded\'\n\t\tredirect(URL(\'myprofile\'))\n\n\treturn dict(form=form)\n\n\n@auth.requires_login()\ndef compose():\n\tform=SQLFORM(db.message)\n\tform.vars.sender=auth.user.username\n\tform.vars.read=False\n\n\tif form.process().accepted:\n\t\tresponse.flash=\'Message Sent\'\n\t\trow = db(db.auth_users.username == form.vars.reciever).select().first()\n\t\tif row:\n\t\t\tctr=row.unread_ctr+1\n\t\t\tdb.auth_users[row.id] = dict(unread_ctr=ctr)\n\treturn dict(form=form)\n\n@auth.requires_login()\ndef inbox():\n\tinbox=db(db.message.reciever == auth.user.username).select(db.message.id, db.message.sender,db.message.subject,db.message.read, orderby=~db.message.id )\n\treturn dict(inbox=inbox)\n\n@auth.requires_login()\ndef message():\n\tmail = db.message(request.args(0))\n\tif mail.read == False:\n\t\tdb.message[mail.id] = dict(read=True)\n\t\tctr = db.auth_users(auth.user.id).unread_ctr-1\n\t\tdb.auth_users[auth.user.id]\t= dict(unread_ctr=ctr)\n\treturn dict(mail=mail)\n\n@auth.requires_login()\ndef outbox():\n\toutbox=db(db.message.sender == auth.user.username).select(db.message.id, db.message.reciever,db.message.subject, db.message.read, orderby=~db.message.id )\n\treturn dict(outbox=outbox)\n\n@auth.requires_login()\ndef sent_message():\n\tmail = db.message(request.args(0))\n\treturn dict(mail=mail)\n\n@auth.requires_login()\ndef events():\n    form = SQLFORM(db.events)\n    if form.accepts(request.vars, session):\n\tresponse.flash = form.vars.Name + " thank you"\n    return dict(form=form)\n\ndef invitations():\n\treturn db(db.events.id > 0).select()\n\ndef case_studies():\n\tform=SQLFORM(db.case_studies)\n\tif form.accepts(request.vars, session):\n\t\tresponse.flash = form.vars.Name + " thank you"\n\treturn dict(form=form)\ndef case_studies_result():\n\treturn db(db.case_studies.id > 0).select()\n\n\nresponse._vars=response._caller(events)\n'
p7
sS'snapshot'
p8
(dp9
S'exception'
p10
(dp11
S'__hash__'
p12
S"<method-wrapper '__hash__' of exceptions.TypeError object>"
p13
sS'__setattr__'
p14
S"<method-wrapper '__setattr__' of exceptions.TypeError object>"
p15
sS'__reduce_ex__'
p16
S'<built-in method __reduce_ex__ of exceptions.TypeError object>'
p17
sS'__getslice__'
p18
S"<method-wrapper '__getslice__' of exceptions.TypeError object>"
p19
sS'__getitem__'
p20
S"<method-wrapper '__getitem__' of exceptions.TypeError object>"
p21
sS'__setstate__'
p22
S'<built-in method __setstate__ of exceptions.TypeError object>'
p23
sS'__reduce__'
p24
S'<built-in method __reduce__ of exceptions.TypeError object>'
p25
sS'__str__'
p26
S"<method-wrapper '__str__' of exceptions.TypeError object>"
p27
sS'__format__'
p28
S'<built-in method __format__ of exceptions.TypeError object>'
p29
sS'__getattribute__'
p30
S"<method-wrapper '__getattribute__' of exceptions.TypeError object>"
p31
sS'__class__'
p32
S"<type 'exceptions.TypeError'>"
p33
sS'__unicode__'
p34
S'<built-in method __unicode__ of exceptions.TypeError object>'
p35
sS'__delattr__'
p36
S"<method-wrapper '__delattr__' of exceptions.TypeError object>"
p37
sS'__subclasshook__'
p38
S'<built-in method __subclasshook__ of type object>'
p39
sS'__repr__'
p40
S"<method-wrapper '__repr__' of exceptions.TypeError object>"
p41
sS'args'
p42
S'("unsupported operand type(s) for +: \'NoneType\' and \'str\'",)'
p43
sS'__dict__'
p44
S'{}'
p45
sS'__sizeof__'
p46
S'<built-in method __sizeof__ of exceptions.TypeError object>'
p47
sS'__doc__'
p48
S"'Inappropriate argument type.'"
p49
sS'__init__'
p50
S"<method-wrapper '__init__' of exceptions.TypeError object>"
p51
sS'__new__'
p52
S'<built-in method __new__ of type object>'
p53
ssS'evalue'
p54
S"unsupported operand type(s) for +: 'NoneType' and 'str'"
p55
sS'request'
p56
ccopy_reg
_reconstructor
p57
(cgluon.html
BEAUTIFY
p58
c__builtin__
object
p59
NtRp60
(dp61
S'attributes'
p62
(dp63
sS'components'
p64
(lp65
g57
(cgluon.html
TABLE
p66
g59
NtRp67
(dp68
g62
(dp69
S'level'
p70
I5
ssS'parent'
p71
Nsg64
(lp72
g57
(cgluon.html
TR
p73
g59
NtRp74
(dp75
g62
(dp76
sg71
g67
sg64
(lp77
g57
(cgluon.html
TD
p78
g59
NtRp79
(dp80
g62
(dp81
S'_style'
p82
S'font-weight:bold;vertical-align:top'
p83
ssg71
g74
sg64
(lp84
S'ajax'
p85
asbag57
(g78
g59
NtRp86
(dp87
g62
(dp88
S'_valign'
p89
S'top'
p90
ssg71
g74
sg64
(lp91
S':'
asbag57
(g78
g59
NtRp92
(dp93
g62
(dp94
sg71
g74
sg64
(lp95
g57
(g58
g59
NtRp96
(dp97
g62
(dp98
g70
I5
ssg71
g92
sg64
(lp99
S'False'
p100
asbasbasbag57
(g73
g59
NtRp101
(dp102
g62
(dp103
sg71
g67
sg64
(lp104
g57
(g78
g59
NtRp105
(dp106
g62
(dp107
g82
g83
ssg71
g101
sg64
(lp108
S'application'
p109
asbag57
(g78
g59
NtRp110
(dp111
g62
(dp112
g89
g90
ssg71
g101
sg64
(lp113
S':'
asbag57
(g78
g59
NtRp114
(dp115
g62
(dp116
sg71
g101
sg64
(lp117
g57
(g58
g59
NtRp118
(dp119
g62
(dp120
g70
I5
ssg71
g114
sg64
(lp121
S'911_signin'
p122
asbasbasbag57
(g73
g59
NtRp123
(dp124
g62
(dp125
sg71
g67
sg64
(lp126
g57
(g78
g59
NtRp127
(dp128
g62
(dp129
g82
g83
ssg71
g123
sg64
(lp130
g42
asbag57
(g78
g59
NtRp131
(dp132
g62
(dp133
g89
g90
ssg71
g123
sg64
(lp134
S':'
asbag57
(g78
g59
NtRp135
(dp136
g62
(dp137
sg71
g123
sg64
(lp138
g57
(g58
g59
NtRp139
(dp140
g62
(dp141
g70
I5
ssg71
g135
sg64
(lp142
g57
(g66
g59
NtRp143
(dp144
g62
(dp145
g70
I4
ssg71
Nsg64
(lp146
sbasbasbasbag57
(g73
g59
NtRp147
(dp148
g62
(dp149
sg71
g67
sg64
(lp150
g57
(g78
g59
NtRp151
(dp152
g62
(dp153
g82
g83
ssg71
g147
sg64
(lp154
S'body'
p155
asbag57
(g78
g59
NtRp156
(dp157
g62
(dp158
g89
g90
ssg71
g147
sg64
(lp159
S':'
asbag57
(g78
g59
NtRp160
(dp161
g62
(dp162
sg71
g147
sg64
(lp163
g57
(g58
g59
NtRp164
(dp165
g62
(dp166
g70
I5
ssg71
g160
sg64
(lp167
S"<open file '<fdopen>', mode 'w+b' at 0xa09ef98>"
p168
asbasbasbag57
(g73
g59
NtRp169
(dp170
g62
(dp171
sg71
g67
sg64
(lp172
g57
(g78
g59
NtRp173
(dp174
g62
(dp175
g82
g83
ssg71
g169
sg64
(lp176
S'client'
p177
asbag57
(g78
g59
NtRp178
(dp179
g62
(dp180
g89
g90
ssg71
g169
sg64
(lp181
S':'
asbag57
(g78
g59
NtRp182
(dp183
g62
(dp184
sg71
g169
sg64
(lp185
g57
(g58
g59
NtRp186
(dp187
g62
(dp188
g70
I5
ssg71
g182
sg64
(lp189
S'127.0.0.1'
p190
asbasbasbag57
(g73
g59
NtRp191
(dp192
g62
(dp193
sg71
g67
sg64
(lp194
g57
(g78
g59
NtRp195
(dp196
g62
(dp197
g82
g83
ssg71
g191
sg64
(lp198
S'controller'
p199
asbag57
(g78
g59
NtRp200
(dp201
g62
(dp202
g89
g90
ssg71
g191
sg64
(lp203
S':'
asbag57
(g78
g59
NtRp204
(dp205
g62
(dp206
sg71
g191
sg64
(lp207
g57
(g58
g59
NtRp208
(dp209
g62
(dp210
g70
I5
ssg71
g204
sg64
(lp211
S'default'
p212
asbasbasbag57
(g73
g59
NtRp213
(dp214
g62
(dp215
sg71
g67
sg64
(lp216
g57
(g78
g59
NtRp217
(dp218
g62
(dp219
g82
g83
ssg71
g213
sg64
(lp220
S'cookies'
p221
asbag57
(g78
g59
NtRp222
(dp223
g62
(dp224
g89
g90
ssg71
g213
sg64
(lp225
S':'
asbag57
(g78
g59
NtRp226
(dp227
g62
(dp228
sg71
g213
sg64
(lp229
g57
(g58
g59
NtRp230
(dp231
g62
(dp232
g70
I5
ssg71
g226
sg64
(lp233
g57
(g66
g59
NtRp234
(dp235
g62
(dp236
g70
I4
ssg71
Nsg64
(lp237
g57
(g73
g59
NtRp238
(dp239
g62
(dp240
sg71
g234
sg64
(lp241
g57
(g78
g59
NtRp242
(dp243
g62
(dp244
g82
g83
ssg71
g238
sg64
(lp245
S'session_id_911_signin'
p246
asbag57
(g78
g59
NtRp247
(dp248
g62
(dp249
g89
g90
ssg71
g238
sg64
(lp250
S':'
asbag57
(g78
g59
NtRp251
(dp252
g62
(dp253
sg71
g238
sg64
(lp254
g57
(g58
g59
NtRp255
(dp256
g62
(dp257
g70
I4
ssg71
g251
sg64
(lp258
g57
(g66
g59
NtRp259
(dp260
g62
(dp261
g70
I3
ssg71
Nsg64
(lp262
g57
(g73
g59
NtRp263
(dp264
g62
(dp265
sg71
g259
sg64
(lp266
g57
(g78
g59
NtRp267
(dp268
g62
(dp269
g82
g83
ssg71
g263
sg64
(lp270
S'comment'
p271
asbag57
(g78
g59
NtRp272
(dp273
g62
(dp274
g89
g90
ssg71
g263
sg64
(lp275
S':'
asbag57
(g78
g59
NtRp276
(dp277
g62
(dp278
sg71
g263
sg64
(lp279
g57
(g58
g59
NtRp280
(dp281
g62
(dp282
g70
I3
ssg71
g276
sg64
(lp283
S''
asbasbasbag57
(g73
g59
NtRp284
(dp285
g62
(dp286
sg71
g259
sg64
(lp287
g57
(g78
g59
NtRp288
(dp289
g62
(dp290
g82
g83
ssg71
g284
sg64
(lp291
S'domain'
p292
asbag57
(g78
g59
NtRp293
(dp294
g62
(dp295
g89
g90
ssg71
g284
sg64
(lp296
S':'
asbag57
(g78
g59
NtRp297
(dp298
g62
(dp299
sg71
g284
sg64
(lp300
g57
(g58
g59
NtRp301
(dp302
g62
(dp303
g70
I3
ssg71
g297
sg64
(lp304
S''
asbasbasbag57
(g73
g59
NtRp305
(dp306
g62
(dp307
sg71
g259
sg64
(lp308
g57
(g78
g59
NtRp309
(dp310
g62
(dp311
g82
g83
ssg71
g305
sg64
(lp312
S'expires'
p313
asbag57
(g78
g59
NtRp314
(dp315
g62
(dp316
g89
g90
ssg71
g305
sg64
(lp317
S':'
asbag57
(g78
g59
NtRp318
(dp319
g62
(dp320
sg71
g305
sg64
(lp321
g57
(g58
g59
NtRp322
(dp323
g62
(dp324
g70
I3
ssg71
g318
sg64
(lp325
S''
asbasbasbag57
(g73
g59
NtRp326
(dp327
g62
(dp328
sg71
g259
sg64
(lp329
g57
(g78
g59
NtRp330
(dp331
g62
(dp332
g82
g83
ssg71
g326
sg64
(lp333
S'httponly'
p334
asbag57
(g78
g59
NtRp335
(dp336
g62
(dp337
g89
g90
ssg71
g326
sg64
(lp338
S':'
asbag57
(g78
g59
NtRp339
(dp340
g62
(dp341
sg71
g326
sg64
(lp342
g57
(g58
g59
NtRp343
(dp344
g62
(dp345
g70
I3
ssg71
g339
sg64
(lp346
S''
asbasbasbag57
(g73
g59
NtRp347
(dp348
g62
(dp349
sg71
g259
sg64
(lp350
g57
(g78
g59
NtRp351
(dp352
g62
(dp353
g82
g83
ssg71
g347
sg64
(lp354
S'max-age'
p355
asbag57
(g78
g59
NtRp356
(dp357
g62
(dp358
g89
g90
ssg71
g347
sg64
(lp359
S':'
asbag57
(g78
g59
NtRp360
(dp361
g62
(dp362
sg71
g347
sg64
(lp363
g57
(g58
g59
NtRp364
(dp365
g62
(dp366
g70
I3
ssg71
g360
sg64
(lp367
S''
asbasbasbag57
(g73
g59
NtRp368
(dp369
g62
(dp370
sg71
g259
sg64
(lp371
g57
(g78
g59
NtRp372
(dp373
g62
(dp374
g82
g83
ssg71
g368
sg64
(lp375
S'path'
p376
asbag57
(g78
g59
NtRp377
(dp378
g62
(dp379
g89
g90
ssg71
g368
sg64
(lp380
S':'
asbag57
(g78
g59
NtRp381
(dp382
g62
(dp383
sg71
g368
sg64
(lp384
g57
(g58
g59
NtRp385
(dp386
g62
(dp387
g70
I3
ssg71
g381
sg64
(lp388
S''
asbasbasbag57
(g73
g59
NtRp389
(dp390
g62
(dp391
sg71
g259
sg64
(lp392
g57
(g78
g59
NtRp393
(dp394
g62
(dp395
g82
g83
ssg71
g389
sg64
(lp396
S'secure'
p397
asbag57
(g78
g59
NtRp398
(dp399
g62
(dp400
g89
g90
ssg71
g389
sg64
(lp401
S':'
asbag57
(g78
g59
NtRp402
(dp403
g62
(dp404
sg71
g389
sg64
(lp405
g57
(g58
g59
NtRp406
(dp407
g62
(dp408
g70
I3
ssg71
g402
sg64
(lp409
S''
asbasbasbag57
(g73
g59
NtRp410
(dp411
g62
(dp412
sg71
g259
sg64
(lp413
g57
(g78
g59
NtRp414
(dp415
g62
(dp416
g82
g83
ssg71
g410
sg64
(lp417
S'version'
p418
asbag57
(g78
g59
NtRp419
(dp420
g62
(dp421
g89
g90
ssg71
g410
sg64
(lp422
S':'
asbag57
(g78
g59
NtRp423
(dp424
g62
(dp425
sg71
g410
sg64
(lp426
g57
(g58
g59
NtRp427
(dp428
g62
(dp429
g70
I3
ssg71
g423
sg64
(lp430
S''
asbasbasbasbasbasbasbag57
(g73
g59
NtRp431
(dp432
g62
(dp433
sg71
g234
sg64
(lp434
g57
(g78
g59
NtRp435
(dp436
g62
(dp437
g82
g83
ssg71
g431
sg64
(lp438
S'session_id_admin'
p439
asbag57
(g78
g59
NtRp440
(dp441
g62
(dp442
g89
g90
ssg71
g431
sg64
(lp443
S':'
asbag57
(g78
g59
NtRp444
(dp445
g62
(dp446
sg71
g431
sg64
(lp447
g57
(g58
g59
NtRp448
(dp449
g62
(dp450
g70
I4
ssg71
g444
sg64
(lp451
g57
(g66
g59
NtRp452
(dp453
g62
(dp454
g70
I3
ssg71
Nsg64
(lp455
g57
(g73
g59
NtRp456
(dp457
g62
(dp458
sg71
g452
sg64
(lp459
g57
(g78
g59
NtRp460
(dp461
g62
(dp462
g82
g83
ssg71
g456
sg64
(lp463
g271
asbag57
(g78
g59
NtRp464
(dp465
g62
(dp466
g89
g90
ssg71
g456
sg64
(lp467
S':'
asbag57
(g78
g59
NtRp468
(dp469
g62
(dp470
sg71
g456
sg64
(lp471
g57
(g58
g59
NtRp472
(dp473
g62
(dp474
g70
I3
ssg71
g468
sg64
(lp475
S''
asbasbasbag57
(g73
g59
NtRp476
(dp477
g62
(dp478
sg71
g452
sg64
(lp479
g57
(g78
g59
NtRp480
(dp481
g62
(dp482
g82
g83
ssg71
g476
sg64
(lp483
g292
asbag57
(g78
g59
NtRp484
(dp485
g62
(dp486
g89
g90
ssg71
g476
sg64
(lp487
S':'
asbag57
(g78
g59
NtRp488
(dp489
g62
(dp490
sg71
g476
sg64
(lp491
g57
(g58
g59
NtRp492
(dp493
g62
(dp494
g70
I3
ssg71
g488
sg64
(lp495
S''
asbasbasbag57
(g73
g59
NtRp496
(dp497
g62
(dp498
sg71
g452
sg64
(lp499
g57
(g78
g59
NtRp500
(dp501
g62
(dp502
g82
g83
ssg71
g496
sg64
(lp503
g313
asbag57
(g78
g59
NtRp504
(dp505
g62
(dp506
g89
g90
ssg71
g496
sg64
(lp507
S':'
asbag57
(g78
g59
NtRp508
(dp509
g62
(dp510
sg71
g496
sg64
(lp511
g57
(g58
g59
NtRp512
(dp513
g62
(dp514
g70
I3
ssg71
g508
sg64
(lp515
S''
asbasbasbag57
(g73
g59
NtRp516
(dp517
g62
(dp518
sg71
g452
sg64
(lp519
g57
(g78
g59
NtRp520
(dp521
g62
(dp522
g82
g83
ssg71
g516
sg64
(lp523
g334
asbag57
(g78
g59
NtRp524
(dp525
g62
(dp526
g89
g90
ssg71
g516
sg64
(lp527
S':'
asbag57
(g78
g59
NtRp528
(dp529
g62
(dp530
sg71
g516
sg64
(lp531
g57
(g58
g59
NtRp532
(dp533
g62
(dp534
g70
I3
ssg71
g528
sg64
(lp535
S''
asbasbasbag57
(g73
g59
NtRp536
(dp537
g62
(dp538
sg71
g452
sg64
(lp539
g57
(g78
g59
NtRp540
(dp541
g62
(dp542
g82
g83
ssg71
g536
sg64
(lp543
g355
asbag57
(g78
g59
NtRp544
(dp545
g62
(dp546
g89
g90
ssg71
g536
sg64
(lp547
S':'
asbag57
(g78
g59
NtRp548
(dp549
g62
(dp550
sg71
g536
sg64
(lp551
g57
(g58
g59
NtRp552
(dp553
g62
(dp554
g70
I3
ssg71
g548
sg64
(lp555
S''
asbasbasbag57
(g73
g59
NtRp556
(dp557
g62
(dp558
sg71
g452
sg64
(lp559
g57
(g78
g59
NtRp560
(dp561
g62
(dp562
g82
g83
ssg71
g556
sg64
(lp563
g376
asbag57
(g78
g59
NtRp564
(dp565
g62
(dp566
g89
g90
ssg71
g556
sg64
(lp567
S':'
asbag57
(g78
g59
NtRp568
(dp569
g62
(dp570
sg71
g556
sg64
(lp571
g57
(g58
g59
NtRp572
(dp573
g62
(dp574
g70
I3
ssg71
g568
sg64
(lp575
S''
asbasbasbag57
(g73
g59
NtRp576
(dp577
g62
(dp578
sg71
g452
sg64
(lp579
g57
(g78
g59
NtRp580
(dp581
g62
(dp582
g82
g83
ssg71
g576
sg64
(lp583
g397
asbag57
(g78
g59
NtRp584
(dp585
g62
(dp586
g89
g90
ssg71
g576
sg64
(lp587
S':'
asbag57
(g78
g59
NtRp588
(dp589
g62
(dp590
sg71
g576
sg64
(lp591
g57
(g58
g59
NtRp592
(dp593
g62
(dp594
g70
I3
ssg71
g588
sg64
(lp595
S''
asbasbasbag57
(g73
g59
NtRp596
(dp597
g62
(dp598
sg71
g452
sg64
(lp599
g57
(g78
g59
NtRp600
(dp601
g62
(dp602
g82
g83
ssg71
g596
sg64
(lp603
g418
asbag57
(g78
g59
NtRp604
(dp605
g62
(dp606
g89
g90
ssg71
g596
sg64
(lp607
S':'
asbag57
(g78
g59
NtRp608
(dp609
g62
(dp610
sg71
g596
sg64
(lp611
g57
(g58
g59
NtRp612
(dp613
g62
(dp614
g70
I3
ssg71
g608
sg64
(lp615
S''
asbasbasbasbasbasbasbag57
(g73
g59
NtRp616
(dp617
g62
(dp618
sg71
g234
sg64
(lp619
g57
(g78
g59
NtRp620
(dp621
g62
(dp622
g82
g83
ssg71
g616
sg64
(lp623
S'session_id_welcome'
p624
asbag57
(g78
g59
NtRp625
(dp626
g62
(dp627
g89
g90
ssg71
g616
sg64
(lp628
S':'
asbag57
(g78
g59
NtRp629
(dp630
g62
(dp631
sg71
g616
sg64
(lp632
g57
(g58
g59
NtRp633
(dp634
g62
(dp635
g70
I4
ssg71
g629
sg64
(lp636
g57
(g66
g59
NtRp637
(dp638
g62
(dp639
g70
I3
ssg71
Nsg64
(lp640
g57
(g73
g59
NtRp641
(dp642
g62
(dp643
sg71
g637
sg64
(lp644
g57
(g78
g59
NtRp645
(dp646
g62
(dp647
g82
g83
ssg71
g641
sg64
(lp648
g271
asbag57
(g78
g59
NtRp649
(dp650
g62
(dp651
g89
g90
ssg71
g641
sg64
(lp652
S':'
asbag57
(g78
g59
NtRp653
(dp654
g62
(dp655
sg71
g641
sg64
(lp656
g57
(g58
g59
NtRp657
(dp658
g62
(dp659
g70
I3
ssg71
g653
sg64
(lp660
S''
asbasbasbag57
(g73
g59
NtRp661
(dp662
g62
(dp663
sg71
g637
sg64
(lp664
g57
(g78
g59
NtRp665
(dp666
g62
(dp667
g82
g83
ssg71
g661
sg64
(lp668
g292
asbag57
(g78
g59
NtRp669
(dp670
g62
(dp671
g89
g90
ssg71
g661
sg64
(lp672
S':'
asbag57
(g78
g59
NtRp673
(dp674
g62
(dp675
sg71
g661
sg64
(lp676
g57
(g58
g59
NtRp677
(dp678
g62
(dp679
g70
I3
ssg71
g673
sg64
(lp680
S''
asbasbasbag57
(g73
g59
NtRp681
(dp682
g62
(dp683
sg71
g637
sg64
(lp684
g57
(g78
g59
NtRp685
(dp686
g62
(dp687
g82
g83
ssg71
g681
sg64
(lp688
g313
asbag57
(g78
g59
NtRp689
(dp690
g62
(dp691
g89
g90
ssg71
g681
sg64
(lp692
S':'
asbag57
(g78
g59
NtRp693
(dp694
g62
(dp695
sg71
g681
sg64
(lp696
g57
(g58
g59
NtRp697
(dp698
g62
(dp699
g70
I3
ssg71
g693
sg64
(lp700
S''
asbasbasbag57
(g73
g59
NtRp701
(dp702
g62
(dp703
sg71
g637
sg64
(lp704
g57
(g78
g59
NtRp705
(dp706
g62
(dp707
g82
g83
ssg71
g701
sg64
(lp708
g334
asbag57
(g78
g59
NtRp709
(dp710
g62
(dp711
g89
g90
ssg71
g701
sg64
(lp712
S':'
asbag57
(g78
g59
NtRp713
(dp714
g62
(dp715
sg71
g701
sg64
(lp716
g57
(g58
g59
NtRp717
(dp718
g62
(dp719
g70
I3
ssg71
g713
sg64
(lp720
S''
asbasbasbag57
(g73
g59
NtRp721
(dp722
g62
(dp723
sg71
g637
sg64
(lp724
g57
(g78
g59
NtRp725
(dp726
g62
(dp727
g82
g83
ssg71
g721
sg64
(lp728
g355
asbag57
(g78
g59
NtRp729
(dp730
g62
(dp731
g89
g90
ssg71
g721
sg64
(lp732
S':'
asbag57
(g78
g59
NtRp733
(dp734
g62
(dp735
sg71
g721
sg64
(lp736
g57
(g58
g59
NtRp737
(dp738
g62
(dp739
g70
I3
ssg71
g733
sg64
(lp740
S''
asbasbasbag57
(g73
g59
NtRp741
(dp742
g62
(dp743
sg71
g637
sg64
(lp744
g57
(g78
g59
NtRp745
(dp746
g62
(dp747
g82
g83
ssg71
g741
sg64
(lp748
g376
asbag57
(g78
g59
NtRp749
(dp750
g62
(dp751
g89
g90
ssg71
g741
sg64
(lp752
S':'
asbag57
(g78
g59
NtRp753
(dp754
g62
(dp755
sg71
g741
sg64
(lp756
g57
(g58
g59
NtRp757
(dp758
g62
(dp759
g70
I3
ssg71
g753
sg64
(lp760
S''
asbasbasbag57
(g73
g59
NtRp761
(dp762
g62
(dp763
sg71
g637
sg64
(lp764
g57
(g78
g59
NtRp765
(dp766
g62
(dp767
g82
g83
ssg71
g761
sg64
(lp768
g397
asbag57
(g78
g59
NtRp769
(dp770
g62
(dp771
g89
g90
ssg71
g761
sg64
(lp772
S':'
asbag57
(g78
g59
NtRp773
(dp774
g62
(dp775
sg71
g761
sg64
(lp776
g57
(g58
g59
NtRp777
(dp778
g62
(dp779
g70
I3
ssg71
g773
sg64
(lp780
S''
asbasbasbag57
(g73
g59
NtRp781
(dp782
g62
(dp783
sg71
g637
sg64
(lp784
g57
(g78
g59
NtRp785
(dp786
g62
(dp787
g82
g83
ssg71
g781
sg64
(lp788
g418
asbag57
(g78
g59
NtRp789
(dp790
g62
(dp791
g89
g90
ssg71
g781
sg64
(lp792
S':'
asbag57
(g78
g59
NtRp793
(dp794
g62
(dp795
sg71
g781
sg64
(lp796
g57
(g58
g59
NtRp797
(dp798
g62
(dp799
g70
I3
ssg71
g793
sg64
(lp800
S''
asbasbasbasbasbasbasbasbasbasbasbag57
(g73
g59
NtRp801
(dp802
g62
(dp803
sg71
g67
sg64
(lp804
g57
(g78
g59
NtRp805
(dp806
g62
(dp807
g82
g83
ssg71
g801
sg64
(lp808
S'env'
p809
asbag57
(g78
g59
NtRp810
(dp811
g62
(dp812
g89
g90
ssg71
g801
sg64
(lp813
S':'
asbag57
(g78
g59
NtRp814
(dp815
g62
(dp816
sg71
g801
sg64
(lp817
g57
(g58
g59
NtRp818
(dp819
g62
(dp820
g70
I5
ssg71
g814
sg64
(lp821
g57
(g66
g59
NtRp822
(dp823
g62
(dp824
g70
I4
ssg71
Nsg64
(lp825
g57
(g73
g59
NtRp826
(dp827
g62
(dp828
sg71
g822
sg64
(lp829
g57
(g78
g59
NtRp830
(dp831
g62
(dp832
g82
g83
ssg71
g826
sg64
(lp833
S'app_folders'
p834
asbag57
(g78
g59
NtRp835
(dp836
g62
(dp837
g89
g90
ssg71
g826
sg64
(lp838
S':'
asbag57
(g78
g59
NtRp839
(dp840
g62
(dp841
sg71
g826
sg64
(lp842
g57
(g58
g59
NtRp843
(dp844
g62
(dp845
g70
I4
ssg71
g839
sg64
(lp846
S"set(['/home/krutarth/Downloads/911india/applications/welcome/', '/home/krutarth/Downloads/911india/applications/911_signin/', '/home/krutarth/Downloads/911india/applications/admin/'])"
p847
asbasbasbag57
(g73
g59
NtRp848
(dp849
g62
(dp850
sg71
g822
sg64
(lp851
g57
(g78
g59
NtRp852
(dp853
g62
(dp854
g82
g83
ssg71
g848
sg64
(lp855
S'applications_parent'
p856
asbag57
(g78
g59
NtRp857
(dp858
g62
(dp859
g89
g90
ssg71
g848
sg64
(lp860
S':'
asbag57
(g78
g59
NtRp861
(dp862
g62
(dp863
sg71
g848
sg64
(lp864
g57
(g58
g59
NtRp865
(dp866
g62
(dp867
g70
I4
ssg71
g861
sg64
(lp868
S'/home/krutarth/Downloads/911india'
p869
asbasbasbag57
(g73
g59
NtRp870
(dp871
g62
(dp872
sg71
g822
sg64
(lp873
g57
(g78
g59
NtRp874
(dp875
g62
(dp876
g82
g83
ssg71
g870
sg64
(lp877
S'cmd_args'
p878
asbag57
(g78
g59
NtRp879
(dp880
g62
(dp881
g89
g90
ssg71
g870
sg64
(lp882
S':'
asbag57
(g78
g59
NtRp883
(dp884
g62
(dp885
sg71
g870
sg64
(lp886
g57
(g58
g59
NtRp887
(dp888
g62
(dp889
g70
I4
ssg71
g883
sg64
(lp890
g57
(g66
g59
NtRp891
(dp892
g62
(dp893
g70
I3
ssg71
Nsg64
(lp894
sbasbasbasbag57
(g73
g59
NtRp895
(dp896
g62
(dp897
sg71
g822
sg64
(lp898
g57
(g78
g59
NtRp899
(dp900
g62
(dp901
g82
g83
ssg71
g895
sg64
(lp902
S'cmd_options'
p903
asbag57
(g78
g59
NtRp904
(dp905
g62
(dp906
g89
g90
ssg71
g895
sg64
(lp907
S':'
asbag57
(g78
g59
NtRp908
(dp909
g62
(dp910
sg71
g895
sg64
(lp911
g57
(g58
g59
NtRp912
(dp913
g62
(dp914
g70
I4
ssg71
g908
sg64
(lp915
S"<Values at 0xa27baec: {'verbose': False, 'ip': '127.0.0.1', 'shutdown_timeout': 5, 'taskbar': False, 'nocron': False, 'pid_filename': 'httpserver.pid', 'maxthreads': None, 'softcron': False, 'server_name': 'krutarth-Compaq-610', 'bpython': False, 'nogui': False, 'port': 8000, 'extcron': False, 'debuglevel': 30, 'test': None, 'folder': '/home/krutarth/Downloads/911india', 'config': '', 'import_models': False, 'winservice': '', 'shell': None, 'run': '', 'log_filename': 'httpserver.log', 'args': [''], 'socket_timeout': 5, 'ssl_ca_certificate': None, 'scheduler': None, 'profiler_filename': None, 'ssl_private_key': '', 'password': '<ask>', 'request_queue_size': 5, 'ssl_certificate': '', 'cronjob': False, 'numthreads': None, 'quiet': False, 'interfaces': None, 'minthreads': None, 'timeout': 10, 'plain': False, 'nobanner': False}>"
p916
asbasbasbag57
(g73
g59
NtRp917
(dp918
g62
(dp919
sg71
g822
sg64
(lp920
g57
(g78
g59
NtRp921
(dp922
g62
(dp923
g82
g83
ssg71
g917
sg64
(lp924
S'content_length'
p925
asbag57
(g78
g59
NtRp926
(dp927
g62
(dp928
g89
g90
ssg71
g917
sg64
(lp929
S':'
asbag57
(g78
g59
NtRp930
(dp931
g62
(dp932
sg71
g917
sg64
(lp933
g57
(g58
g59
NtRp934
(dp935
g62
(dp936
g70
I4
ssg71
g930
sg64
(lp937
S'1336'
p938
asbasbasbag57
(g73
g59
NtRp939
(dp940
g62
(dp941
sg71
g822
sg64
(lp942
g57
(g78
g59
NtRp943
(dp944
g62
(dp945
g82
g83
ssg71
g939
sg64
(lp946
S'content_type'
p947
asbag57
(g78
g59
NtRp948
(dp949
g62
(dp950
g89
g90
ssg71
g939
sg64
(lp951
S':'
asbag57
(g78
g59
NtRp952
(dp953
g62
(dp954
sg71
g939
sg64
(lp955
g57
(g58
g59
NtRp956
(dp957
g62
(dp958
g70
I4
ssg71
g952
sg64
(lp959
S'multipart/form-data; boundary=----WebKitFormBoundary1htpaghkRKNtfxH6'
p960
asbasbasbag57
(g73
g59
NtRp961
(dp962
g62
(dp963
sg71
g822
sg64
(lp964
g57
(g78
g59
NtRp965
(dp966
g62
(dp967
g82
g83
ssg71
g961
sg64
(lp968
S'db_sessions'
p969
asbag57
(g78
g59
NtRp970
(dp971
g62
(dp972
g89
g90
ssg71
g961
sg64
(lp973
S':'
asbag57
(g78
g59
NtRp974
(dp975
g62
(dp976
sg71
g961
sg64
(lp977
g57
(g58
g59
NtRp978
(dp979
g62
(dp980
g70
I4
ssg71
g974
sg64
(lp981
S'set([])'
p982
asbasbasbag57
(g73
g59
NtRp983
(dp984
g62
(dp985
sg71
g822
sg64
(lp986
g57
(g78
g59
NtRp987
(dp988
g62
(dp989
g82
g83
ssg71
g983
sg64
(lp990
S'debugging'
p991
asbag57
(g78
g59
NtRp992
(dp993
g62
(dp994
g89
g90
ssg71
g983
sg64
(lp995
S':'
asbag57
(g78
g59
NtRp996
(dp997
g62
(dp998
sg71
g983
sg64
(lp999
g57
(g58
g59
NtRp1000
(dp1001
g62
(dp1002
g70
I4
ssg71
g996
sg64
(lp1003
g100
asbasbasbag57
(g73
g59
NtRp1004
(dp1005
g62
(dp1006
sg71
g822
sg64
(lp1007
g57
(g78
g59
NtRp1008
(dp1009
g62
(dp1010
g82
g83
ssg71
g1004
sg64
(lp1011
S'gluon_parent'
p1012
asbag57
(g78
g59
NtRp1013
(dp1014
g62
(dp1015
g89
g90
ssg71
g1004
sg64
(lp1016
S':'
asbag57
(g78
g59
NtRp1017
(dp1018
g62
(dp1019
sg71
g1004
sg64
(lp1020
g57
(g58
g59
NtRp1021
(dp1022
g62
(dp1023
g70
I4
ssg71
g1017
sg64
(lp1024
S'/home/krutarth/Downloads/911india'
p1025
asbasbasbag57
(g73
g59
NtRp1026
(dp1027
g62
(dp1028
sg71
g822
sg64
(lp1029
g57
(g78
g59
NtRp1030
(dp1031
g62
(dp1032
g82
g83
ssg71
g1026
sg64
(lp1033
S'http_accept'
p1034
asbag57
(g78
g59
NtRp1035
(dp1036
g62
(dp1037
g89
g90
ssg71
g1026
sg64
(lp1038
S':'
asbag57
(g78
g59
NtRp1039
(dp1040
g62
(dp1041
sg71
g1026
sg64
(lp1042
g57
(g58
g59
NtRp1043
(dp1044
g62
(dp1045
g70
I4
ssg71
g1039
sg64
(lp1046
S'text/html,application/xhtml+xml,application/xml;q=0.9,*/*;q=0.8'
p1047
asbasbasbag57
(g73
g59
NtRp1048
(dp1049
g62
(dp1050
sg71
g822
sg64
(lp1051
g57
(g78
g59
NtRp1052
(dp1053
g62
(dp1054
g82
g83
ssg71
g1048
sg64
(lp1055
S'http_accept_encoding'
p1056
asbag57
(g78
g59
NtRp1057
(dp1058
g62
(dp1059
g89
g90
ssg71
g1048
sg64
(lp1060
S':'
asbag57
(g78
g59
NtRp1061
(dp1062
g62
(dp1063
sg71
g1048
sg64
(lp1064
g57
(g58
g59
NtRp1065
(dp1066
g62
(dp1067
g70
I4
ssg71
g1061
sg64
(lp1068
S'gzip,deflate,sdch'
p1069
asbasbasbag57
(g73
g59
NtRp1070
(dp1071
g62
(dp1072
sg71
g822
sg64
(lp1073
g57
(g78
g59
NtRp1074
(dp1075
g62
(dp1076
g82
g83
ssg71
g1070
sg64
(lp1077
S'http_accept_language'
p1078
asbag57
(g78
g59
NtRp1079
(dp1080
g62
(dp1081
g89
g90
ssg71
g1070
sg64
(lp1082
S':'
asbag57
(g78
g59
NtRp1083
(dp1084
g62
(dp1085
sg71
g1070
sg64
(lp1086
g57
(g58
g59
NtRp1087
(dp1088
g62
(dp1089
g70
I4
ssg71
g1083
sg64
(lp1090
S'en-US,en;q=0.8'
p1091
asbasbasbag57
(g73
g59
NtRp1092
(dp1093
g62
(dp1094
sg71
g822
sg64
(lp1095
g57
(g78
g59
NtRp1096
(dp1097
g62
(dp1098
g82
g83
ssg71
g1092
sg64
(lp1099
S'http_cache_control'
p1100
asbag57
(g78
g59
NtRp1101
(dp1102
g62
(dp1103
g89
g90
ssg71
g1092
sg64
(lp1104
S':'
asbag57
(g78
g59
NtRp1105
(dp1106
g62
(dp1107
sg71
g1092
sg64
(lp1108
g57
(g58
g59
NtRp1109
(dp1110
g62
(dp1111
g70
I4
ssg71
g1105
sg64
(lp1112
S'max-age=0'
p1113
asbasbasbag57
(g73
g59
NtRp1114
(dp1115
g62
(dp1116
sg71
g822
sg64
(lp1117
g57
(g78
g59
NtRp1118
(dp1119
g62
(dp1120
g82
g83
ssg71
g1114
sg64
(lp1121
S'http_connection'
p1122
asbag57
(g78
g59
NtRp1123
(dp1124
g62
(dp1125
g89
g90
ssg71
g1114
sg64
(lp1126
S':'
asbag57
(g78
g59
NtRp1127
(dp1128
g62
(dp1129
sg71
g1114
sg64
(lp1130
g57
(g58
g59
NtRp1131
(dp1132
g62
(dp1133
g70
I4
ssg71
g1127
sg64
(lp1134
S'keep-alive'
p1135
asbasbasbag57
(g73
g59
NtRp1136
(dp1137
g62
(dp1138
sg71
g822
sg64
(lp1139
g57
(g78
g59
NtRp1140
(dp1141
g62
(dp1142
g82
g83
ssg71
g1136
sg64
(lp1143
S'http_content_length'
p1144
asbag57
(g78
g59
NtRp1145
(dp1146
g62
(dp1147
g89
g90
ssg71
g1136
sg64
(lp1148
S':'
asbag57
(g78
g59
NtRp1149
(dp1150
g62
(dp1151
sg71
g1136
sg64
(lp1152
g57
(g58
g59
NtRp1153
(dp1154
g62
(dp1155
g70
I4
ssg71
g1149
sg64
(lp1156
g938
asbasbasbag57
(g73
g59
NtRp1157
(dp1158
g62
(dp1159
sg71
g822
sg64
(lp1160
g57
(g78
g59
NtRp1161
(dp1162
g62
(dp1163
g82
g83
ssg71
g1157
sg64
(lp1164
S'http_content_type'
p1165
asbag57
(g78
g59
NtRp1166
(dp1167
g62
(dp1168
g89
g90
ssg71
g1157
sg64
(lp1169
S':'
asbag57
(g78
g59
NtRp1170
(dp1171
g62
(dp1172
sg71
g1157
sg64
(lp1173
g57
(g58
g59
NtRp1174
(dp1175
g62
(dp1176
g70
I4
ssg71
g1170
sg64
(lp1177
g960
asbasbasbag57
(g73
g59
NtRp1178
(dp1179
g62
(dp1180
sg71
g822
sg64
(lp1181
g57
(g78
g59
NtRp1182
(dp1183
g62
(dp1184
g82
g83
ssg71
g1178
sg64
(lp1185
S'http_cookie'
p1186
asbag57
(g78
g59
NtRp1187
(dp1188
g62
(dp1189
g89
g90
ssg71
g1178
sg64
(lp1190
S':'
asbag57
(g78
g59
NtRp1191
(dp1192
g62
(dp1193
sg71
g1178
sg64
(lp1194
g57
(g58
g59
NtRp1195
(dp1196
g62
(dp1197
g70
I4
ssg71
g1191
sg64
(lp1198
S'session_id_welcome=127.0.0.1-954bfc28-5a5b-4d74-8522-23718dfa44bc; session_id_admin=127.0.0.1-2534207f-3c9e-4570-a9b3-b7eb75598e47; session_id_911_signin=127.0.0.1-9b51abe2-5e72-414c-93b7-202a0533e3f8'
p1199
asbasbasbag57
(g73
g59
NtRp1200
(dp1201
g62
(dp1202
sg71
g822
sg64
(lp1203
g57
(g78
g59
NtRp1204
(dp1205
g62
(dp1206
g82
g83
ssg71
g1200
sg64
(lp1207
S'http_dnt'
p1208
asbag57
(g78
g59
NtRp1209
(dp1210
g62
(dp1211
g89
g90
ssg71
g1200
sg64
(lp1212
S':'
asbag57
(g78
g59
NtRp1213
(dp1214
g62
(dp1215
sg71
g1200
sg64
(lp1216
g57
(g58
g59
NtRp1217
(dp1218
g62
(dp1219
g70
I4
ssg71
g1213
sg64
(lp1220
S'1'
asbasbasbag57
(g73
g59
NtRp1221
(dp1222
g62
(dp1223
sg71
g822
sg64
(lp1224
g57
(g78
g59
NtRp1225
(dp1226
g62
(dp1227
g82
g83
ssg71
g1221
sg64
(lp1228
S'http_host'
p1229
asbag57
(g78
g59
NtRp1230
(dp1231
g62
(dp1232
g89
g90
ssg71
g1221
sg64
(lp1233
S':'
asbag57
(g78
g59
NtRp1234
(dp1235
g62
(dp1236
sg71
g1221
sg64
(lp1237
g57
(g58
g59
NtRp1238
(dp1239
g62
(dp1240
g70
I4
ssg71
g1234
sg64
(lp1241
S'127.0.0.1:8000'
p1242
asbasbasbag57
(g73
g59
NtRp1243
(dp1244
g62
(dp1245
sg71
g822
sg64
(lp1246
g57
(g78
g59
NtRp1247
(dp1248
g62
(dp1249
g82
g83
ssg71
g1243
sg64
(lp1250
S'http_origin'
p1251
asbag57
(g78
g59
NtRp1252
(dp1253
g62
(dp1254
g89
g90
ssg71
g1243
sg64
(lp1255
S':'
asbag57
(g78
g59
NtRp1256
(dp1257
g62
(dp1258
sg71
g1243
sg64
(lp1259
g57
(g58
g59
NtRp1260
(dp1261
g62
(dp1262
g70
I4
ssg71
g1256
sg64
(lp1263
S'http://127.0.0.1:8000'
p1264
asbasbasbag57
(g73
g59
NtRp1265
(dp1266
g62
(dp1267
sg71
g822
sg64
(lp1268
g57
(g78
g59
NtRp1269
(dp1270
g62
(dp1271
g82
g83
ssg71
g1265
sg64
(lp1272
S'http_referer'
p1273
asbag57
(g78
g59
NtRp1274
(dp1275
g62
(dp1276
g89
g90
ssg71
g1265
sg64
(lp1277
S':'
asbag57
(g78
g59
NtRp1278
(dp1279
g62
(dp1280
sg71
g1265
sg64
(lp1281
g57
(g58
g59
NtRp1282
(dp1283
g62
(dp1284
g70
I4
ssg71
g1278
sg64
(lp1285
S'http://127.0.0.1:8000/911_signin/default/events'
p1286
asbasbasbag57
(g73
g59
NtRp1287
(dp1288
g62
(dp1289
sg71
g822
sg64
(lp1290
g57
(g78
g59
NtRp1291
(dp1292
g62
(dp1293
g82
g83
ssg71
g1287
sg64
(lp1294
S'http_user_agent'
p1295
asbag57
(g78
g59
NtRp1296
(dp1297
g62
(dp1298
g89
g90
ssg71
g1287
sg64
(lp1299
S':'
asbag57
(g78
g59
NtRp1300
(dp1301
g62
(dp1302
sg71
g1287
sg64
(lp1303
g57
(g58
g59
NtRp1304
(dp1305
g62
(dp1306
g70
I4
ssg71
g1300
sg64
(lp1307
S'Mozilla/5.0 (X11; Linux i686) AppleWebKit/537.36 (KHTML, like Gecko) Chrome/28.0.1500.70 Safari/537.36'
p1308
asbasbasbag57
(g73
g59
NtRp1309
(dp1310
g62
(dp1311
sg71
g822
sg64
(lp1312
g57
(g78
g59
NtRp1313
(dp1314
g62
(dp1315
g82
g83
ssg71
g1309
sg64
(lp1316
S'is_jython'
p1317
asbag57
(g78
g59
NtRp1318
(dp1319
g62
(dp1320
g89
g90
ssg71
g1309
sg64
(lp1321
S':'
asbag57
(g78
g59
NtRp1322
(dp1323
g62
(dp1324
sg71
g1309
sg64
(lp1325
g57
(g58
g59
NtRp1326
(dp1327
g62
(dp1328
g70
I4
ssg71
g1322
sg64
(lp1329
g100
asbasbasbag57
(g73
g59
NtRp1330
(dp1331
g62
(dp1332
sg71
g822
sg64
(lp1333
g57
(g78
g59
NtRp1334
(dp1335
g62
(dp1336
g82
g83
ssg71
g1330
sg64
(lp1337
S'is_pypy'
p1338
asbag57
(g78
g59
NtRp1339
(dp1340
g62
(dp1341
g89
g90
ssg71
g1330
sg64
(lp1342
S':'
asbag57
(g78
g59
NtRp1343
(dp1344
g62
(dp1345
sg71
g1330
sg64
(lp1346
g57
(g58
g59
NtRp1347
(dp1348
g62
(dp1349
g70
I4
ssg71
g1343
sg64
(lp1350
g100
asbasbasbag57
(g73
g59
NtRp1351
(dp1352
g62
(dp1353
sg71
g822
sg64
(lp1354
g57
(g78
g59
NtRp1355
(dp1356
g62
(dp1357
g82
g83
ssg71
g1351
sg64
(lp1358
S'path_info'
p1359
asbag57
(g78
g59
NtRp1360
(dp1361
g62
(dp1362
g89
g90
ssg71
g1351
sg64
(lp1363
S':'
asbag57
(g78
g59
NtRp1364
(dp1365
g62
(dp1366
sg71
g1351
sg64
(lp1367
g57
(g58
g59
NtRp1368
(dp1369
g62
(dp1370
g70
I4
ssg71
g1364
sg64
(lp1371
S'/911_signin/default/events'
p1372
asbasbasbag57
(g73
g59
NtRp1373
(dp1374
g62
(dp1375
sg71
g822
sg64
(lp1376
g57
(g78
g59
NtRp1377
(dp1378
g62
(dp1379
g82
g83
ssg71
g1373
sg64
(lp1380
S'query_string'
p1381
asbag57
(g78
g59
NtRp1382
(dp1383
g62
(dp1384
g89
g90
ssg71
g1373
sg64
(lp1385
S':'
asbag57
(g78
g59
NtRp1386
(dp1387
g62
(dp1388
sg71
g1373
sg64
(lp1389
g57
(g58
g59
NtRp1390
(dp1391
g62
(dp1392
g70
I4
ssg71
g1386
sg64
(lp1393
S''
asbasbasbag57
(g73
g59
NtRp1394
(dp1395
g62
(dp1396
sg71
g822
sg64
(lp1397
g57
(g78
g59
NtRp1398
(dp1399
g62
(dp1400
g82
g83
ssg71
g1394
sg64
(lp1401
S'remote_addr'
p1402
asbag57
(g78
g59
NtRp1403
(dp1404
g62
(dp1405
g89
g90
ssg71
g1394
sg64
(lp1406
S':'
asbag57
(g78
g59
NtRp1407
(dp1408
g62
(dp1409
sg71
g1394
sg64
(lp1410
g57
(g58
g59
NtRp1411
(dp1412
g62
(dp1413
g70
I4
ssg71
g1407
sg64
(lp1414
g190
asbasbasbag57
(g73
g59
NtRp1415
(dp1416
g62
(dp1417
sg71
g822
sg64
(lp1418
g57
(g78
g59
NtRp1419
(dp1420
g62
(dp1421
g82
g83
ssg71
g1415
sg64
(lp1422
S'remote_port'
p1423
asbag57
(g78
g59
NtRp1424
(dp1425
g62
(dp1426
g89
g90
ssg71
g1415
sg64
(lp1427
S':'
asbag57
(g78
g59
NtRp1428
(dp1429
g62
(dp1430
sg71
g1415
sg64
(lp1431
g57
(g58
g59
NtRp1432
(dp1433
g62
(dp1434
g70
I4
ssg71
g1428
sg64
(lp1435
S'53920'
p1436
asbasbasbag57
(g73
g59
NtRp1437
(dp1438
g62
(dp1439
sg71
g822
sg64
(lp1440
g57
(g78
g59
NtRp1441
(dp1442
g62
(dp1443
g82
g83
ssg71
g1437
sg64
(lp1444
S'request_method'
p1445
asbag57
(g78
g59
NtRp1446
(dp1447
g62
(dp1448
g89
g90
ssg71
g1437
sg64
(lp1449
S':'
asbag57
(g78
g59
NtRp1450
(dp1451
g62
(dp1452
sg71
g1437
sg64
(lp1453
g57
(g58
g59
NtRp1454
(dp1455
g62
(dp1456
g70
I4
ssg71
g1450
sg64
(lp1457
S'POST'
p1458
asbasbasbag57
(g73
g59
NtRp1459
(dp1460
g62
(dp1461
sg71
g822
sg64
(lp1462
g57
(g78
g59
NtRp1463
(dp1464
g62
(dp1465
g82
g83
ssg71
g1459
sg64
(lp1466
S'script_name'
p1467
asbag57
(g78
g59
NtRp1468
(dp1469
g62
(dp1470
g89
g90
ssg71
g1459
sg64
(lp1471
S':'
asbag57
(g78
g59
NtRp1472
(dp1473
g62
(dp1474
sg71
g1459
sg64
(lp1475
g57
(g58
g59
NtRp1476
(dp1477
g62
(dp1478
g70
I4
ssg71
g1472
sg64
(lp1479
S''
asbasbasbag57
(g73
g59
NtRp1480
(dp1481
g62
(dp1482
sg71
g822
sg64
(lp1483
g57
(g78
g59
NtRp1484
(dp1485
g62
(dp1486
g82
g83
ssg71
g1480
sg64
(lp1487
S'server_name'
p1488
asbag57
(g78
g59
NtRp1489
(dp1490
g62
(dp1491
g89
g90
ssg71
g1480
sg64
(lp1492
S':'
asbag57
(g78
g59
NtRp1493
(dp1494
g62
(dp1495
sg71
g1480
sg64
(lp1496
g57
(g58
g59
NtRp1497
(dp1498
g62
(dp1499
g70
I4
ssg71
g1493
sg64
(lp1500
S'krutarth-Compaq-610'
p1501
asbasbasbag57
(g73
g59
NtRp1502
(dp1503
g62
(dp1504
sg71
g822
sg64
(lp1505
g57
(g78
g59
NtRp1506
(dp1507
g62
(dp1508
g82
g83
ssg71
g1502
sg64
(lp1509
S'server_port'
p1510
asbag57
(g78
g59
NtRp1511
(dp1512
g62
(dp1513
g89
g90
ssg71
g1502
sg64
(lp1514
S':'
asbag57
(g78
g59
NtRp1515
(dp1516
g62
(dp1517
sg71
g1502
sg64
(lp1518
g57
(g58
g59
NtRp1519
(dp1520
g62
(dp1521
g70
I4
ssg71
g1515
sg64
(lp1522
S'8000'
p1523
asbasbasbag57
(g73
g59
NtRp1524
(dp1525
g62
(dp1526
sg71
g822
sg64
(lp1527
g57
(g78
g59
NtRp1528
(dp1529
g62
(dp1530
g82
g83
ssg71
g1524
sg64
(lp1531
S'server_protocol'
p1532
asbag57
(g78
g59
NtRp1533
(dp1534
g62
(dp1535
g89
g90
ssg71
g1524
sg64
(lp1536
S':'
asbag57
(g78
g59
NtRp1537
(dp1538
g62
(dp1539
sg71
g1524
sg64
(lp1540
g57
(g58
g59
NtRp1541
(dp1542
g62
(dp1543
g70
I4
ssg71
g1537
sg64
(lp1544
S'HTTP/1.1'
p1545
asbasbasbag57
(g73
g59
NtRp1546
(dp1547
g62
(dp1548
sg71
g822
sg64
(lp1549
g57
(g78
g59
NtRp1550
(dp1551
g62
(dp1552
g82
g83
ssg71
g1546
sg64
(lp1553
S'server_software'
p1554
asbag57
(g78
g59
NtRp1555
(dp1556
g62
(dp1557
g89
g90
ssg71
g1546
sg64
(lp1558
S':'
asbag57
(g78
g59
NtRp1559
(dp1560
g62
(dp1561
sg71
g1546
sg64
(lp1562
g57
(g58
g59
NtRp1563
(dp1564
g62
(dp1565
g70
I4
ssg71
g1559
sg64
(lp1566
S'Rocket 1.2.4'
p1567
asbasbasbag57
(g73
g59
NtRp1568
(dp1569
g62
(dp1570
sg71
g822
sg64
(lp1571
g57
(g78
g59
NtRp1572
(dp1573
g62
(dp1574
g82
g83
ssg71
g1568
sg64
(lp1575
S'web2py_crontype'
p1576
asbag57
(g78
g59
NtRp1577
(dp1578
g62
(dp1579
g89
g90
ssg71
g1568
sg64
(lp1580
S':'
asbag57
(g78
g59
NtRp1581
(dp1582
g62
(dp1583
sg71
g1568
sg64
(lp1584
g57
(g58
g59
NtRp1585
(dp1586
g62
(dp1587
g70
I4
ssg71
g1581
sg64
(lp1588
S'hard'
p1589
asbasbasbag57
(g73
g59
NtRp1590
(dp1591
g62
(dp1592
sg71
g822
sg64
(lp1593
g57
(g78
g59
NtRp1594
(dp1595
g62
(dp1596
g82
g83
ssg71
g1590
sg64
(lp1597
S'web2py_path'
p1598
asbag57
(g78
g59
NtRp1599
(dp1600
g62
(dp1601
g89
g90
ssg71
g1590
sg64
(lp1602
S':'
asbag57
(g78
g59
NtRp1603
(dp1604
g62
(dp1605
sg71
g1590
sg64
(lp1606
g57
(g58
g59
NtRp1607
(dp1608
g62
(dp1609
g70
I4
ssg71
g1603
sg64
(lp1610
g869
asbasbasbag57
(g73
g59
NtRp1611
(dp1612
g62
(dp1613
sg71
g822
sg64
(lp1614
g57
(g78
g59
NtRp1615
(dp1616
g62
(dp1617
g82
g83
ssg71
g1611
sg64
(lp1618
S'web2py_version'
p1619
asbag57
(g78
g59
NtRp1620
(dp1621
g62
(dp1622
g89
g90
ssg71
g1611
sg64
(lp1623
S':'
asbag57
(g78
g59
NtRp1624
(dp1625
g62
(dp1626
sg71
g1611
sg64
(lp1627
g57
(g58
g59
NtRp1628
(dp1629
g62
(dp1630
g70
I4
ssg71
g1624
sg64
(lp1631
g57
(g66
g59
NtRp1632
(dp1633
g62
(dp1634
g70
I3
ssg71
Nsg64
(lp1635
g57
(g73
g59
NtRp1636
(dp1637
g62
(dp1638
sg71
g1632
sg64
(lp1639
g57
(g78
g59
NtRp1640
(dp1641
g62
(dp1642
sg71
g1636
sg64
(lp1643
g57
(g58
g59
NtRp1644
(dp1645
g62
(dp1646
g70
I3
ssg71
g1640
sg64
(lp1647
S'1'
asbasbasbag57
(g73
g59
NtRp1648
(dp1649
g62
(dp1650
sg71
g1632
sg64
(lp1651
g57
(g78
g59
NtRp1652
(dp1653
g62
(dp1654
sg71
g1648
sg64
(lp1655
g57
(g58
g59
NtRp1656
(dp1657
g62
(dp1658
g70
I3
ssg71
g1652
sg64
(lp1659
S'99'
p1660
asbasbasbag57
(g73
g59
NtRp1661
(dp1662
g62
(dp1663
sg71
g1632
sg64
(lp1664
g57
(g78
g59
NtRp1665
(dp1666
g62
(dp1667
sg71
g1661
sg64
(lp1668
g57
(g58
g59
NtRp1669
(dp1670
g62
(dp1671
g70
I3
ssg71
g1665
sg64
(lp1672
S'7'
asbasbasbag57
(g73
g59
NtRp1673
(dp1674
g62
(dp1675
sg71
g1632
sg64
(lp1676
g57
(g78
g59
NtRp1677
(dp1678
g62
(dp1679
sg71
g1673
sg64
(lp1680
g57
(g58
g59
NtRp1681
(dp1682
g62
(dp1683
g70
I3
ssg71
g1677
sg64
(lp1684
S'datetime.datetime(2012, 3, 4, 22, 12, 8)'
p1685
asbasbasbag57
(g73
g59
NtRp1686
(dp1687
g62
(dp1688
sg71
g1632
sg64
(lp1689
g57
(g78
g59
NtRp1690
(dp1691
g62
(dp1692
sg71
g1686
sg64
(lp1693
g57
(g58
g59
NtRp1694
(dp1695
g62
(dp1696
g70
I3
ssg71
g1690
sg64
(lp1697
S'stable'
p1698
asbasbasbasbasbasbasbag57
(g73
g59
NtRp1699
(dp1700
g62
(dp1701
sg71
g822
sg64
(lp1702
g57
(g78
g59
NtRp1703
(dp1704
g62
(dp1705
g82
g83
ssg71
g1699
sg64
(lp1706
S'wsgi_errors'
p1707
asbag57
(g78
g59
NtRp1708
(dp1709
g62
(dp1710
g89
g90
ssg71
g1699
sg64
(lp1711
S':'
asbag57
(g78
g59
NtRp1712
(dp1713
g62
(dp1714
sg71
g1699
sg64
(lp1715
g57
(g58
g59
NtRp1716
(dp1717
g62
(dp1718
g70
I4
ssg71
g1712
sg64
(lp1719
S"<open file '<stderr>', mode 'w' at 0xb74b10d0>"
p1720
asbasbasbag57
(g73
g59
NtRp1721
(dp1722
g62
(dp1723
sg71
g822
sg64
(lp1724
g57
(g78
g59
NtRp1725
(dp1726
g62
(dp1727
g82
g83
ssg71
g1721
sg64
(lp1728
S'wsgi_file_wrapper'
p1729
asbag57
(g78
g59
NtRp1730
(dp1731
g62
(dp1732
g89
g90
ssg71
g1721
sg64
(lp1733
S':'
asbag57
(g78
g59
NtRp1734
(dp1735
g62
(dp1736
sg71
g1721
sg64
(lp1737
g57
(g58
g59
NtRp1738
(dp1739
g62
(dp1740
g70
I4
ssg71
g1734
sg64
(lp1741
S'<class wsgiref.util.FileWrapper at 0xb69e720c>'
p1742
asbasbasbag57
(g73
g59
NtRp1743
(dp1744
g62
(dp1745
sg71
g822
sg64
(lp1746
g57
(g78
g59
NtRp1747
(dp1748
g62
(dp1749
g82
g83
ssg71
g1743
sg64
(lp1750
S'wsgi_input'
p1751
asbag57
(g78
g59
NtRp1752
(dp1753
g62
(dp1754
g89
g90
ssg71
g1743
sg64
(lp1755
S':'
asbag57
(g78
g59
NtRp1756
(dp1757
g62
(dp1758
sg71
g1743
sg64
(lp1759
g57
(g58
g59
NtRp1760
(dp1761
g62
(dp1762
g70
I4
ssg71
g1756
sg64
(lp1763
S'<socket._fileobject object at 0xa08b22c>'
p1764
asbasbasbag57
(g73
g59
NtRp1765
(dp1766
g62
(dp1767
sg71
g822
sg64
(lp1768
g57
(g78
g59
NtRp1769
(dp1770
g62
(dp1771
g82
g83
ssg71
g1765
sg64
(lp1772
S'wsgi_multiprocess'
p1773
asbag57
(g78
g59
NtRp1774
(dp1775
g62
(dp1776
g89
g90
ssg71
g1765
sg64
(lp1777
S':'
asbag57
(g78
g59
NtRp1778
(dp1779
g62
(dp1780
sg71
g1765
sg64
(lp1781
g57
(g58
g59
NtRp1782
(dp1783
g62
(dp1784
g70
I4
ssg71
g1778
sg64
(lp1785
g100
asbasbasbag57
(g73
g59
NtRp1786
(dp1787
g62
(dp1788
sg71
g822
sg64
(lp1789
g57
(g78
g59
NtRp1790
(dp1791
g62
(dp1792
g82
g83
ssg71
g1786
sg64
(lp1793
S'wsgi_multithread'
p1794
asbag57
(g78
g59
NtRp1795
(dp1796
g62
(dp1797
g89
g90
ssg71
g1786
sg64
(lp1798
S':'
asbag57
(g78
g59
NtRp1799
(dp1800
g62
(dp1801
sg71
g1786
sg64
(lp1802
g57
(g58
g59
NtRp1803
(dp1804
g62
(dp1805
g70
I4
ssg71
g1799
sg64
(lp1806
S'True'
p1807
asbasbasbag57
(g73
g59
NtRp1808
(dp1809
g62
(dp1810
sg71
g822
sg64
(lp1811
g57
(g78
g59
NtRp1812
(dp1813
g62
(dp1814
g82
g83
ssg71
g1808
sg64
(lp1815
S'wsgi_run_once'
p1816
asbag57
(g78
g59
NtRp1817
(dp1818
g62
(dp1819
g89
g90
ssg71
g1808
sg64
(lp1820
S':'
asbag57
(g78
g59
NtRp1821
(dp1822
g62
(dp1823
sg71
g1808
sg64
(lp1824
g57
(g58
g59
NtRp1825
(dp1826
g62
(dp1827
g70
I4
ssg71
g1821
sg64
(lp1828
g100
asbasbasbag57
(g73
g59
NtRp1829
(dp1830
g62
(dp1831
sg71
g822
sg64
(lp1832
g57
(g78
g59
NtRp1833
(dp1834
g62
(dp1835
g82
g83
ssg71
g1829
sg64
(lp1836
S'wsgi_url_scheme'
p1837
asbag57
(g78
g59
NtRp1838
(dp1839
g62
(dp1840
g89
g90
ssg71
g1829
sg64
(lp1841
S':'
asbag57
(g78
g59
NtRp1842
(dp1843
g62
(dp1844
sg71
g1829
sg64
(lp1845
g57
(g58
g59
NtRp1846
(dp1847
g62
(dp1848
g70
I4
ssg71
g1842
sg64
(lp1849
S'http'
p1850
asbasbasbag57
(g73
g59
NtRp1851
(dp1852
g62
(dp1853
sg71
g822
sg64
(lp1854
g57
(g78
g59
NtRp1855
(dp1856
g62
(dp1857
g82
g83
ssg71
g1851
sg64
(lp1858
S'wsgi_version'
p1859
asbag57
(g78
g59
NtRp1860
(dp1861
g62
(dp1862
g89
g90
ssg71
g1851
sg64
(lp1863
S':'
asbag57
(g78
g59
NtRp1864
(dp1865
g62
(dp1866
sg71
g1851
sg64
(lp1867
g57
(g58
g59
NtRp1868
(dp1869
g62
(dp1870
g70
I4
ssg71
g1864
sg64
(lp1871
g57
(g66
g59
NtRp1872
(dp1873
g62
(dp1874
g70
I3
ssg71
Nsg64
(lp1875
g57
(g73
g59
NtRp1876
(dp1877
g62
(dp1878
sg71
g1872
sg64
(lp1879
g57
(g78
g59
NtRp1880
(dp1881
g62
(dp1882
sg71
g1876
sg64
(lp1883
g57
(g58
g59
NtRp1884
(dp1885
g62
(dp1886
g70
I3
ssg71
g1880
sg64
(lp1887
S'1'
asbasbasbag57
(g73
g59
NtRp1888
(dp1889
g62
(dp1890
sg71
g1872
sg64
(lp1891
g57
(g78
g59
NtRp1892
(dp1893
g62
(dp1894
sg71
g1888
sg64
(lp1895
g57
(g58
g59
NtRp1896
(dp1897
g62
(dp1898
g70
I3
ssg71
g1892
sg64
(lp1899
S'0'
asbasbasbasbasbasbasbasbasbasbasbag57
(g73
g59
NtRp1900
(dp1901
g62
(dp1902
sg71
g67
sg64
(lp1903
g57
(g78
g59
NtRp1904
(dp1905
g62
(dp1906
g82
g83
ssg71
g1900
sg64
(lp1907
S'extension'
p1908
asbag57
(g78
g59
NtRp1909
(dp1910
g62
(dp1911
g89
g90
ssg71
g1900
sg64
(lp1912
S':'
asbag57
(g78
g59
NtRp1913
(dp1914
g62
(dp1915
sg71
g1900
sg64
(lp1916
g57
(g58
g59
NtRp1917
(dp1918
g62
(dp1919
g70
I5
ssg71
g1913
sg64
(lp1920
S'html'
p1921
asbasbasbag57
(g73
g59
NtRp1922
(dp1923
g62
(dp1924
sg71
g67
sg64
(lp1925
g57
(g78
g59
NtRp1926
(dp1927
g62
(dp1928
g82
g83
ssg71
g1922
sg64
(lp1929
S'folder'
p1930
asbag57
(g78
g59
NtRp1931
(dp1932
g62
(dp1933
g89
g90
ssg71
g1922
sg64
(lp1934
S':'
asbag57
(g78
g59
NtRp1935
(dp1936
g62
(dp1937
sg71
g1922
sg64
(lp1938
g57
(g58
g59
NtRp1939
(dp1940
g62
(dp1941
g70
I5
ssg71
g1935
sg64
(lp1942
S'/home/krutarth/Downloads/911india/applications/911_signin/'
p1943
asbasbasbag57
(g73
g59
NtRp1944
(dp1945
g62
(dp1946
sg71
g67
sg64
(lp1947
g57
(g78
g59
NtRp1948
(dp1949
g62
(dp1950
g82
g83
ssg71
g1944
sg64
(lp1951
S'function'
p1952
asbag57
(g78
g59
NtRp1953
(dp1954
g62
(dp1955
g89
g90
ssg71
g1944
sg64
(lp1956
S':'
asbag57
(g78
g59
NtRp1957
(dp1958
g62
(dp1959
sg71
g1944
sg64
(lp1960
g57
(g58
g59
NtRp1961
(dp1962
g62
(dp1963
g70
I5
ssg71
g1957
sg64
(lp1964
S'events'
p1965
asbasbasbag57
(g73
g59
NtRp1966
(dp1967
g62
(dp1968
sg71
g67
sg64
(lp1969
g57
(g78
g59
NtRp1970
(dp1971
g62
(dp1972
g82
g83
ssg71
g1966
sg64
(lp1973
S'get_vars'
p1974
asbag57
(g78
g59
NtRp1975
(dp1976
g62
(dp1977
g89
g90
ssg71
g1966
sg64
(lp1978
S':'
asbag57
(g78
g59
NtRp1979
(dp1980
g62
(dp1981
sg71
g1966
sg64
(lp1982
g57
(g58
g59
NtRp1983
(dp1984
g62
(dp1985
g70
I5
ssg71
g1979
sg64
(lp1986
g57
(g66
g59
NtRp1987
(dp1988
g62
(dp1989
g70
I4
ssg71
Nsg64
(lp1990
sbasbasbasbag57
(g73
g59
NtRp1991
(dp1992
g62
(dp1993
sg71
g67
sg64
(lp1994
g57
(g78
g59
NtRp1995
(dp1996
g62
(dp1997
g82
g83
ssg71
g1991
sg64
(lp1998
S'global_settings'
p1999
asbag57
(g78
g59
NtRp2000
(dp2001
g62
(dp2002
g89
g90
ssg71
g1991
sg64
(lp2003
S':'
asbag57
(g78
g59
NtRp2004
(dp2005
g62
(dp2006
sg71
g1991
sg64
(lp2007
g57
(g58
g59
NtRp2008
(dp2009
g62
(dp2010
g70
I5
ssg71
g2004
sg64
(lp2011
g57
(g66
g59
NtRp2012
(dp2013
g62
(dp2014
g70
I4
ssg71
Nsg64
(lp2015
g57
(g73
g59
NtRp2016
(dp2017
g62
(dp2018
sg71
g2012
sg64
(lp2019
g57
(g78
g59
NtRp2020
(dp2021
g62
(dp2022
g82
g83
ssg71
g2016
sg64
(lp2023
g834
asbag57
(g78
g59
NtRp2024
(dp2025
g62
(dp2026
g89
g90
ssg71
g2016
sg64
(lp2027
S':'
asbag57
(g78
g59
NtRp2028
(dp2029
g62
(dp2030
sg71
g2016
sg64
(lp2031
g57
(g58
g59
NtRp2032
(dp2033
g62
(dp2034
g70
I4
ssg71
g2028
sg64
(lp2035
S"set(['/home/krutarth/Downloads/911india/applications/welcome/', '/home/krutarth/Downloads/911india/applications/911_signin/', '/home/krutarth/Downloads/911india/applications/admin/'])"
p2036
asbasbasbag57
(g73
g59
NtRp2037
(dp2038
g62
(dp2039
sg71
g2012
sg64
(lp2040
g57
(g78
g59
NtRp2041
(dp2042
g62
(dp2043
g82
g83
ssg71
g2037
sg64
(lp2044
g856
asbag57
(g78
g59
NtRp2045
(dp2046
g62
(dp2047
g89
g90
ssg71
g2037
sg64
(lp2048
S':'
asbag57
(g78
g59
NtRp2049
(dp2050
g62
(dp2051
sg71
g2037
sg64
(lp2052
g57
(g58
g59
NtRp2053
(dp2054
g62
(dp2055
g70
I4
ssg71
g2049
sg64
(lp2056
g869
asbasbasbag57
(g73
g59
NtRp2057
(dp2058
g62
(dp2059
sg71
g2012
sg64
(lp2060
g57
(g78
g59
NtRp2061
(dp2062
g62
(dp2063
g82
g83
ssg71
g2057
sg64
(lp2064
g878
asbag57
(g78
g59
NtRp2065
(dp2066
g62
(dp2067
g89
g90
ssg71
g2057
sg64
(lp2068
S':'
asbag57
(g78
g59
NtRp2069
(dp2070
g62
(dp2071
sg71
g2057
sg64
(lp2072
g57
(g58
g59
NtRp2073
(dp2074
g62
(dp2075
g70
I4
ssg71
g2069
sg64
(lp2076
g57
(g66
g59
NtRp2077
(dp2078
g62
(dp2079
g70
I3
ssg71
Nsg64
(lp2080
sbasbasbasbag57
(g73
g59
NtRp2081
(dp2082
g62
(dp2083
sg71
g2012
sg64
(lp2084
g57
(g78
g59
NtRp2085
(dp2086
g62
(dp2087
g82
g83
ssg71
g2081
sg64
(lp2088
g903
asbag57
(g78
g59
NtRp2089
(dp2090
g62
(dp2091
g89
g90
ssg71
g2081
sg64
(lp2092
S':'
asbag57
(g78
g59
NtRp2093
(dp2094
g62
(dp2095
sg71
g2081
sg64
(lp2096
g57
(g58
g59
NtRp2097
(dp2098
g62
(dp2099
g70
I4
ssg71
g2093
sg64
(lp2100
S"<Values at 0xa27baec: {'verbose': False, 'ip': '127.0.0.1', 'shutdown_timeout': 5, 'taskbar': False, 'nocron': False, 'pid_filename': 'httpserver.pid', 'maxthreads': None, 'softcron': False, 'server_name': 'krutarth-Compaq-610', 'bpython': False, 'nogui': False, 'port': 8000, 'extcron': False, 'debuglevel': 30, 'test': None, 'folder': '/home/krutarth/Downloads/911india', 'config': '', 'import_models': False, 'winservice': '', 'shell': None, 'run': '', 'log_filename': 'httpserver.log', 'args': [''], 'socket_timeout': 5, 'ssl_ca_certificate': None, 'scheduler': None, 'profiler_filename': None, 'ssl_private_key': '', 'password': '<ask>', 'request_queue_size': 5, 'ssl_certificate': '', 'cronjob': False, 'numthreads': None, 'quiet': False, 'interfaces': None, 'minthreads': None, 'timeout': 10, 'plain': False, 'nobanner': False}>"
p2101
asbasbasbag57
(g73
g59
NtRp2102
(dp2103
g62
(dp2104
sg71
g2012
sg64
(lp2105
g57
(g78
g59
NtRp2106
(dp2107
g62
(dp2108
g82
g83
ssg71
g2102
sg64
(lp2109
g969
asbag57
(g78
g59
NtRp2110
(dp2111
g62
(dp2112
g89
g90
ssg71
g2102
sg64
(lp2113
S':'
asbag57
(g78
g59
NtRp2114
(dp2115
g62
(dp2116
sg71
g2102
sg64
(lp2117
g57
(g58
g59
NtRp2118
(dp2119
g62
(dp2120
g70
I4
ssg71
g2114
sg64
(lp2121
S'set([])'
p2122
asbasbasbag57
(g73
g59
NtRp2123
(dp2124
g62
(dp2125
sg71
g2012
sg64
(lp2126
g57
(g78
g59
NtRp2127
(dp2128
g62
(dp2129
g82
g83
ssg71
g2123
sg64
(lp2130
g991
asbag57
(g78
g59
NtRp2131
(dp2132
g62
(dp2133
g89
g90
ssg71
g2123
sg64
(lp2134
S':'
asbag57
(g78
g59
NtRp2135
(dp2136
g62
(dp2137
sg71
g2123
sg64
(lp2138
g57
(g58
g59
NtRp2139
(dp2140
g62
(dp2141
g70
I4
ssg71
g2135
sg64
(lp2142
g100
asbasbasbag57
(g73
g59
NtRp2143
(dp2144
g62
(dp2145
sg71
g2012
sg64
(lp2146
g57
(g78
g59
NtRp2147
(dp2148
g62
(dp2149
g82
g83
ssg71
g2143
sg64
(lp2150
g1012
asbag57
(g78
g59
NtRp2151
(dp2152
g62
(dp2153
g89
g90
ssg71
g2143
sg64
(lp2154
S':'
asbag57
(g78
g59
NtRp2155
(dp2156
g62
(dp2157
sg71
g2143
sg64
(lp2158
g57
(g58
g59
NtRp2159
(dp2160
g62
(dp2161
g70
I4
ssg71
g2155
sg64
(lp2162
g1025
asbasbasbag57
(g73
g59
NtRp2163
(dp2164
g62
(dp2165
sg71
g2012
sg64
(lp2166
g57
(g78
g59
NtRp2167
(dp2168
g62
(dp2169
g82
g83
ssg71
g2163
sg64
(lp2170
g1317
asbag57
(g78
g59
NtRp2171
(dp2172
g62
(dp2173
g89
g90
ssg71
g2163
sg64
(lp2174
S':'
asbag57
(g78
g59
NtRp2175
(dp2176
g62
(dp2177
sg71
g2163
sg64
(lp2178
g57
(g58
g59
NtRp2179
(dp2180
g62
(dp2181
g70
I4
ssg71
g2175
sg64
(lp2182
g100
asbasbasbag57
(g73
g59
NtRp2183
(dp2184
g62
(dp2185
sg71
g2012
sg64
(lp2186
g57
(g78
g59
NtRp2187
(dp2188
g62
(dp2189
g82
g83
ssg71
g2183
sg64
(lp2190
g1338
asbag57
(g78
g59
NtRp2191
(dp2192
g62
(dp2193
g89
g90
ssg71
g2183
sg64
(lp2194
S':'
asbag57
(g78
g59
NtRp2195
(dp2196
g62
(dp2197
sg71
g2183
sg64
(lp2198
g57
(g58
g59
NtRp2199
(dp2200
g62
(dp2201
g70
I4
ssg71
g2195
sg64
(lp2202
g100
asbasbasbag57
(g73
g59
NtRp2203
(dp2204
g62
(dp2205
sg71
g2012
sg64
(lp2206
g57
(g78
g59
NtRp2207
(dp2208
g62
(dp2209
g82
g83
ssg71
g2203
sg64
(lp2210
g1576
asbag57
(g78
g59
NtRp2211
(dp2212
g62
(dp2213
g89
g90
ssg71
g2203
sg64
(lp2214
S':'
asbag57
(g78
g59
NtRp2215
(dp2216
g62
(dp2217
sg71
g2203
sg64
(lp2218
g57
(g58
g59
NtRp2219
(dp2220
g62
(dp2221
g70
I4
ssg71
g2215
sg64
(lp2222
g1589
asbasbasbag57
(g73
g59
NtRp2223
(dp2224
g62
(dp2225
sg71
g2012
sg64
(lp2226
g57
(g78
g59
NtRp2227
(dp2228
g62
(dp2229
g82
g83
ssg71
g2223
sg64
(lp2230
g1619
asbag57
(g78
g59
NtRp2231
(dp2232
g62
(dp2233
g89
g90
ssg71
g2223
sg64
(lp2234
S':'
asbag57
(g78
g59
NtRp2235
(dp2236
g62
(dp2237
sg71
g2223
sg64
(lp2238
g57
(g58
g59
NtRp2239
(dp2240
g62
(dp2241
g70
I4
ssg71
g2235
sg64
(lp2242
g57
(g66
g59
NtRp2243
(dp2244
g62
(dp2245
g70
I3
ssg71
Nsg64
(lp2246
g57
(g73
g59
NtRp2247
(dp2248
g62
(dp2249
sg71
g2243
sg64
(lp2250
g57
(g78
g59
NtRp2251
(dp2252
g62
(dp2253
sg71
g2247
sg64
(lp2254
g57
(g58
g59
NtRp2255
(dp2256
g62
(dp2257
g70
I3
ssg71
g2251
sg64
(lp2258
S'1'
asbasbasbag57
(g73
g59
NtRp2259
(dp2260
g62
(dp2261
sg71
g2243
sg64
(lp2262
g57
(g78
g59
NtRp2263
(dp2264
g62
(dp2265
sg71
g2259
sg64
(lp2266
g57
(g58
g59
NtRp2267
(dp2268
g62
(dp2269
g70
I3
ssg71
g2263
sg64
(lp2270
S'99'
p2271
asbasbasbag57
(g73
g59
NtRp2272
(dp2273
g62
(dp2274
sg71
g2243
sg64
(lp2275
g57
(g78
g59
NtRp2276
(dp2277
g62
(dp2278
sg71
g2272
sg64
(lp2279
g57
(g58
g59
NtRp2280
(dp2281
g62
(dp2282
g70
I3
ssg71
g2276
sg64
(lp2283
S'7'
asbasbasbag57
(g73
g59
NtRp2284
(dp2285
g62
(dp2286
sg71
g2243
sg64
(lp2287
g57
(g78
g59
NtRp2288
(dp2289
g62
(dp2290
sg71
g2284
sg64
(lp2291
g57
(g58
g59
NtRp2292
(dp2293
g62
(dp2294
g70
I3
ssg71
g2288
sg64
(lp2295
S'datetime.datetime(2012, 3, 4, 22, 12, 8)'
p2296
asbasbasbag57
(g73
g59
NtRp2297
(dp2298
g62
(dp2299
sg71
g2243
sg64
(lp2300
g57
(g78
g59
NtRp2301
(dp2302
g62
(dp2303
sg71
g2297
sg64
(lp2304
g57
(g58
g59
NtRp2305
(dp2306
g62
(dp2307
g70
I3
ssg71
g2301
sg64
(lp2308
g1698
asbasbasbasbasbasbasbasbasbasbasbag57
(g73
g59
NtRp2309
(dp2310
g62
(dp2311
sg71
g67
sg64
(lp2312
g57
(g78
g59
NtRp2313
(dp2314
g62
(dp2315
g82
g83
ssg71
g2309
sg64
(lp2316
S'is_https'
p2317
asbag57
(g78
g59
NtRp2318
(dp2319
g62
(dp2320
g89
g90
ssg71
g2309
sg64
(lp2321
S':'
asbag57
(g78
g59
NtRp2322
(dp2323
g62
(dp2324
sg71
g2309
sg64
(lp2325
g57
(g58
g59
NtRp2326
(dp2327
g62
(dp2328
g70
I5
ssg71
g2322
sg64
(lp2329
g100
asbasbasbag57
(g73
g59
NtRp2330
(dp2331
g62
(dp2332
sg71
g67
sg64
(lp2333
g57
(g78
g59
NtRp2334
(dp2335
g62
(dp2336
g82
g83
ssg71
g2330
sg64
(lp2337
S'is_local'
p2338
asbag57
(g78
g59
NtRp2339
(dp2340
g62
(dp2341
g89
g90
ssg71
g2330
sg64
(lp2342
S':'
asbag57
(g78
g59
NtRp2343
(dp2344
g62
(dp2345
sg71
g2330
sg64
(lp2346
g57
(g58
g59
NtRp2347
(dp2348
g62
(dp2349
g70
I5
ssg71
g2343
sg64
(lp2350
g1807
asbasbasbag57
(g73
g59
NtRp2351
(dp2352
g62
(dp2353
sg71
g67
sg64
(lp2354
g57
(g78
g59
NtRp2355
(dp2356
g62
(dp2357
g82
g83
ssg71
g2351
sg64
(lp2358
S'is_restful'
p2359
asbag57
(g78
g59
NtRp2360
(dp2361
g62
(dp2362
g89
g90
ssg71
g2351
sg64
(lp2363
S':'
asbag57
(g78
g59
NtRp2364
(dp2365
g62
(dp2366
sg71
g2351
sg64
(lp2367
g57
(g58
g59
NtRp2368
(dp2369
g62
(dp2370
g70
I5
ssg71
g2364
sg64
(lp2371
g100
asbasbasbag57
(g73
g59
NtRp2372
(dp2373
g62
(dp2374
sg71
g67
sg64
(lp2375
g57
(g78
g59
NtRp2376
(dp2377
g62
(dp2378
g82
g83
ssg71
g2372
sg64
(lp2379
S'now'
p2380
asbag57
(g78
g59
NtRp2381
(dp2382
g62
(dp2383
g89
g90
ssg71
g2372
sg64
(lp2384
S':'
asbag57
(g78
g59
NtRp2385
(dp2386
g62
(dp2387
sg71
g2372
sg64
(lp2388
g57
(g58
g59
NtRp2389
(dp2390
g62
(dp2391
g70
I5
ssg71
g2385
sg64
(lp2392
S'datetime.datetime(2013, 7, 4, 22, 32, 55, 820366)'
p2393
asbasbasbag57
(g73
g59
NtRp2394
(dp2395
g62
(dp2396
sg71
g67
sg64
(lp2397
g57
(g78
g59
NtRp2398
(dp2399
g62
(dp2400
g82
g83
ssg71
g2394
sg64
(lp2401
S'post_vars'
p2402
asbag57
(g78
g59
NtRp2403
(dp2404
g62
(dp2405
g89
g90
ssg71
g2394
sg64
(lp2406
S':'
asbag57
(g78
g59
NtRp2407
(dp2408
g62
(dp2409
sg71
g2394
sg64
(lp2410
g57
(g58
g59
NtRp2411
(dp2412
g62
(dp2413
g70
I5
ssg71
g2407
sg64
(lp2414
g57
(g66
g59
NtRp2415
(dp2416
g62
(dp2417
g70
I4
ssg71
Nsg64
(lp2418
g57
(g73
g59
NtRp2419
(dp2420
g62
(dp2421
sg71
g2415
sg64
(lp2422
g57
(g78
g59
NtRp2423
(dp2424
g62
(dp2425
g82
g83
ssg71
g2419
sg64
(lp2426
S'Category'
p2427
asbag57
(g78
g59
NtRp2428
(dp2429
g62
(dp2430
g89
g90
ssg71
g2419
sg64
(lp2431
S':'
asbag57
(g78
g59
NtRp2432
(dp2433
g62
(dp2434
sg71
g2419
sg64
(lp2435
g57
(g58
g59
NtRp2436
(dp2437
g62
(dp2438
g70
I4
ssg71
g2432
sg64
(lp2439
S'Urology'
p2440
asbasbasbag57
(g73
g59
NtRp2441
(dp2442
g62
(dp2443
sg71
g2415
sg64
(lp2444
g57
(g78
g59
NtRp2445
(dp2446
g62
(dp2447
g82
g83
ssg71
g2441
sg64
(lp2448
S'City'
p2449
asbag57
(g78
g59
NtRp2450
(dp2451
g62
(dp2452
g89
g90
ssg71
g2441
sg64
(lp2453
S':'
asbag57
(g78
g59
NtRp2454
(dp2455
g62
(dp2456
sg71
g2441
sg64
(lp2457
g57
(g58
g59
NtRp2458
(dp2459
g62
(dp2460
g70
I4
ssg71
g2454
sg64
(lp2461
S'Hyderabad'
p2462
asbasbasbag57
(g73
g59
NtRp2463
(dp2464
g62
(dp2465
sg71
g2415
sg64
(lp2466
g57
(g78
g59
NtRp2467
(dp2468
g62
(dp2469
g82
g83
ssg71
g2463
sg64
(lp2470
S'Country'
p2471
asbag57
(g78
g59
NtRp2472
(dp2473
g62
(dp2474
g89
g90
ssg71
g2463
sg64
(lp2475
S':'
asbag57
(g78
g59
NtRp2476
(dp2477
g62
(dp2478
sg71
g2463
sg64
(lp2479
g57
(g58
g59
NtRp2480
(dp2481
g62
(dp2482
g70
I4
ssg71
g2476
sg64
(lp2483
S'India'
p2484
asbasbasbag57
(g73
g59
NtRp2485
(dp2486
g62
(dp2487
sg71
g2415
sg64
(lp2488
g57
(g78
g59
NtRp2489
(dp2490
g62
(dp2491
g82
g83
ssg71
g2485
sg64
(lp2492
S'Discount'
p2493
asbag57
(g78
g59
NtRp2494
(dp2495
g62
(dp2496
g89
g90
ssg71
g2485
sg64
(lp2497
S':'
asbag57
(g78
g59
NtRp2498
(dp2499
g62
(dp2500
sg71
g2485
sg64
(lp2501
g57
(g58
g59
NtRp2502
(dp2503
g62
(dp2504
g70
I4
ssg71
g2498
sg64
(lp2505
S'Yes'
p2506
asbasbasbag57
(g73
g59
NtRp2507
(dp2508
g62
(dp2509
sg71
g2415
sg64
(lp2510
g57
(g78
g59
NtRp2511
(dp2512
g62
(dp2513
g82
g83
ssg71
g2507
sg64
(lp2514
S'Email'
p2515
asbag57
(g78
g59
NtRp2516
(dp2517
g62
(dp2518
g89
g90
ssg71
g2507
sg64
(lp2519
S':'
asbag57
(g78
g59
NtRp2520
(dp2521
g62
(dp2522
sg71
g2507
sg64
(lp2523
g57
(g58
g59
NtRp2524
(dp2525
g62
(dp2526
g70
I4
ssg71
g2520
sg64
(lp2527
S'krutarthkp800@gmail.com'
p2528
asbasbasbag57
(g73
g59
NtRp2529
(dp2530
g62
(dp2531
sg71
g2415
sg64
(lp2532
g57
(g78
g59
NtRp2533
(dp2534
g62
(dp2535
g82
g83
ssg71
g2529
sg64
(lp2536
S'EndsAt'
p2537
asbag57
(g78
g59
NtRp2538
(dp2539
g62
(dp2540
g89
g90
ssg71
g2529
sg64
(lp2541
S':'
asbag57
(g78
g59
NtRp2542
(dp2543
g62
(dp2544
sg71
g2529
sg64
(lp2545
g57
(g58
g59
NtRp2546
(dp2547
g62
(dp2548
g70
I4
ssg71
g2542
sg64
(lp2549
S'2013-07-09 22:30:09'
p2550
asbasbasbag57
(g73
g59
NtRp2551
(dp2552
g62
(dp2553
sg71
g2415
sg64
(lp2554
g57
(g78
g59
NtRp2555
(dp2556
g62
(dp2557
g82
g83
ssg71
g2551
sg64
(lp2558
S'EventType'
p2559
asbag57
(g78
g59
NtRp2560
(dp2561
g62
(dp2562
g89
g90
ssg71
g2551
sg64
(lp2563
S':'
asbag57
(g78
g59
NtRp2564
(dp2565
g62
(dp2566
sg71
g2551
sg64
(lp2567
g57
(g58
g59
NtRp2568
(dp2569
g62
(dp2570
g70
I4
ssg71
g2564
sg64
(lp2571
S'Workshop'
p2572
asbasbasbag57
(g73
g59
NtRp2573
(dp2574
g62
(dp2575
sg71
g2415
sg64
(lp2576
g57
(g78
g59
NtRp2577
(dp2578
g62
(dp2579
g82
g83
ssg71
g2573
sg64
(lp2580
S'EventURL'
p2581
asbag57
(g78
g59
NtRp2582
(dp2583
g62
(dp2584
g89
g90
ssg71
g2573
sg64
(lp2585
S':'
asbag57
(g78
g59
NtRp2586
(dp2587
g62
(dp2588
sg71
g2573
sg64
(lp2589
g57
(g58
g59
NtRp2590
(dp2591
g62
(dp2592
g70
I4
ssg71
g2586
sg64
(lp2593
S'http://events.com'
p2594
asbasbasbag57
(g73
g59
NtRp2595
(dp2596
g62
(dp2597
sg71
g2415
sg64
(lp2598
g57
(g78
g59
NtRp2599
(dp2600
g62
(dp2601
g82
g83
ssg71
g2595
sg64
(lp2602
S'StartsAt'
p2603
asbag57
(g78
g59
NtRp2604
(dp2605
g62
(dp2606
g89
g90
ssg71
g2595
sg64
(lp2607
S':'
asbag57
(g78
g59
NtRp2608
(dp2609
g62
(dp2610
sg71
g2595
sg64
(lp2611
g57
(g58
g59
NtRp2612
(dp2613
g62
(dp2614
g70
I4
ssg71
g2608
sg64
(lp2615
S'2013-07-24 22:30:06'
p2616
asbasbasbag57
(g73
g59
NtRp2617
(dp2618
g62
(dp2619
sg71
g2415
sg64
(lp2620
g57
(g78
g59
NtRp2621
(dp2622
g62
(dp2623
g82
g83
ssg71
g2617
sg64
(lp2624
S'Title'
p2625
asbag57
(g78
g59
NtRp2626
(dp2627
g62
(dp2628
g89
g90
ssg71
g2617
sg64
(lp2629
S':'
asbag57
(g78
g59
NtRp2630
(dp2631
g62
(dp2632
sg71
g2617
sg64
(lp2633
g57
(g58
g59
NtRp2634
(dp2635
g62
(dp2636
g70
I4
ssg71
g2630
sg64
(lp2637
S'test'
p2638
asbasbasbasbasbasbasbag57
(g73
g59
NtRp2639
(dp2640
g62
(dp2641
sg71
g67
sg64
(lp2642
g57
(g78
g59
NtRp2643
(dp2644
g62
(dp2645
g82
g83
ssg71
g2639
sg64
(lp2646
S'url'
p2647
asbag57
(g78
g59
NtRp2648
(dp2649
g62
(dp2650
g89
g90
ssg71
g2639
sg64
(lp2651
S':'
asbag57
(g78
g59
NtRp2652
(dp2653
g62
(dp2654
sg71
g2639
sg64
(lp2655
g57
(g58
g59
NtRp2656
(dp2657
g62
(dp2658
g70
I5
ssg71
g2652
sg64
(lp2659
S'/911_signin/default/events'
p2660
asbasbasbag57
(g73
g59
NtRp2661
(dp2662
g62
(dp2663
sg71
g67
sg64
(lp2664
g57
(g78
g59
NtRp2665
(dp2666
g62
(dp2667
g82
g83
ssg71
g2661
sg64
(lp2668
S'utcnow'
p2669
asbag57
(g78
g59
NtRp2670
(dp2671
g62
(dp2672
g89
g90
ssg71
g2661
sg64
(lp2673
S':'
asbag57
(g78
g59
NtRp2674
(dp2675
g62
(dp2676
sg71
g2661
sg64
(lp2677
g57
(g58
g59
NtRp2678
(dp2679
g62
(dp2680
g70
I5
ssg71
g2674
sg64
(lp2681
S'datetime.datetime(2013, 7, 4, 17, 2, 55, 820422)'
p2682
asbasbasbag57
(g73
g59
NtRp2683
(dp2684
g62
(dp2685
sg71
g67
sg64
(lp2686
g57
(g78
g59
NtRp2687
(dp2688
g62
(dp2689
g82
g83
ssg71
g2683
sg64
(lp2690
S'uuid'
p2691
asbag57
(g78
g59
NtRp2692
(dp2693
g62
(dp2694
g89
g90
ssg71
g2683
sg64
(lp2695
S':'
asbag57
(g78
g59
NtRp2696
(dp2697
g62
(dp2698
sg71
g2683
sg64
(lp2699
g57
(g58
g59
NtRp2700
(dp2701
g62
(dp2702
g70
I5
ssg71
g2696
sg64
(lp2703
S'911_signin/127.0.0.1.2013-07-04.22-32-55.9040a5f1-1e44-45c5-9371-d8792e5358db'
p2704
asbasbasbag57
(g73
g59
NtRp2705
(dp2706
g62
(dp2707
sg71
g67
sg64
(lp2708
g57
(g78
g59
NtRp2709
(dp2710
g62
(dp2711
g82
g83
ssg71
g2705
sg64
(lp2712
S'vars'
p2713
asbag57
(g78
g59
NtRp2714
(dp2715
g62
(dp2716
g89
g90
ssg71
g2705
sg64
(lp2717
S':'
asbag57
(g78
g59
NtRp2718
(dp2719
g62
(dp2720
sg71
g2705
sg64
(lp2721
g57
(g58
g59
NtRp2722
(dp2723
g62
(dp2724
g70
I5
ssg71
g2718
sg64
(lp2725
g57
(g66
g59
NtRp2726
(dp2727
g62
(dp2728
g70
I4
ssg71
Nsg64
(lp2729
g57
(g73
g59
NtRp2730
(dp2731
g62
(dp2732
sg71
g2726
sg64
(lp2733
g57
(g78
g59
NtRp2734
(dp2735
g62
(dp2736
g82
g83
ssg71
g2730
sg64
(lp2737
g2427
asbag57
(g78
g59
NtRp2738
(dp2739
g62
(dp2740
g89
g90
ssg71
g2730
sg64
(lp2741
S':'
asbag57
(g78
g59
NtRp2742
(dp2743
g62
(dp2744
sg71
g2730
sg64
(lp2745
g57
(g58
g59
NtRp2746
(dp2747
g62
(dp2748
g70
I4
ssg71
g2742
sg64
(lp2749
g2440
asbasbasbag57
(g73
g59
NtRp2750
(dp2751
g62
(dp2752
sg71
g2726
sg64
(lp2753
g57
(g78
g59
NtRp2754
(dp2755
g62
(dp2756
g82
g83
ssg71
g2750
sg64
(lp2757
g2449
asbag57
(g78
g59
NtRp2758
(dp2759
g62
(dp2760
g89
g90
ssg71
g2750
sg64
(lp2761
S':'
asbag57
(g78
g59
NtRp2762
(dp2763
g62
(dp2764
sg71
g2750
sg64
(lp2765
g57
(g58
g59
NtRp2766
(dp2767
g62
(dp2768
g70
I4
ssg71
g2762
sg64
(lp2769
g2462
asbasbasbag57
(g73
g59
NtRp2770
(dp2771
g62
(dp2772
sg71
g2726
sg64
(lp2773
g57
(g78
g59
NtRp2774
(dp2775
g62
(dp2776
g82
g83
ssg71
g2770
sg64
(lp2777
g2471
asbag57
(g78
g59
NtRp2778
(dp2779
g62
(dp2780
g89
g90
ssg71
g2770
sg64
(lp2781
S':'
asbag57
(g78
g59
NtRp2782
(dp2783
g62
(dp2784
sg71
g2770
sg64
(lp2785
g57
(g58
g59
NtRp2786
(dp2787
g62
(dp2788
g70
I4
ssg71
g2782
sg64
(lp2789
g2484
asbasbasbag57
(g73
g59
NtRp2790
(dp2791
g62
(dp2792
sg71
g2726
sg64
(lp2793
g57
(g78
g59
NtRp2794
(dp2795
g62
(dp2796
g82
g83
ssg71
g2790
sg64
(lp2797
g2493
asbag57
(g78
g59
NtRp2798
(dp2799
g62
(dp2800
g89
g90
ssg71
g2790
sg64
(lp2801
S':'
asbag57
(g78
g59
NtRp2802
(dp2803
g62
(dp2804
sg71
g2790
sg64
(lp2805
g57
(g58
g59
NtRp2806
(dp2807
g62
(dp2808
g70
I4
ssg71
g2802
sg64
(lp2809
g2506
asbasbasbag57
(g73
g59
NtRp2810
(dp2811
g62
(dp2812
sg71
g2726
sg64
(lp2813
g57
(g78
g59
NtRp2814
(dp2815
g62
(dp2816
g82
g83
ssg71
g2810
sg64
(lp2817
g2515
asbag57
(g78
g59
NtRp2818
(dp2819
g62
(dp2820
g89
g90
ssg71
g2810
sg64
(lp2821
S':'
asbag57
(g78
g59
NtRp2822
(dp2823
g62
(dp2824
sg71
g2810
sg64
(lp2825
g57
(g58
g59
NtRp2826
(dp2827
g62
(dp2828
g70
I4
ssg71
g2822
sg64
(lp2829
g2528
asbasbasbag57
(g73
g59
NtRp2830
(dp2831
g62
(dp2832
sg71
g2726
sg64
(lp2833
g57
(g78
g59
NtRp2834
(dp2835
g62
(dp2836
g82
g83
ssg71
g2830
sg64
(lp2837
g2537
asbag57
(g78
g59
NtRp2838
(dp2839
g62
(dp2840
g89
g90
ssg71
g2830
sg64
(lp2841
S':'
asbag57
(g78
g59
NtRp2842
(dp2843
g62
(dp2844
sg71
g2830
sg64
(lp2845
g57
(g58
g59
NtRp2846
(dp2847
g62
(dp2848
g70
I4
ssg71
g2842
sg64
(lp2849
g2550
asbasbasbag57
(g73
g59
NtRp2850
(dp2851
g62
(dp2852
sg71
g2726
sg64
(lp2853
g57
(g78
g59
NtRp2854
(dp2855
g62
(dp2856
g82
g83
ssg71
g2850
sg64
(lp2857
g2559
asbag57
(g78
g59
NtRp2858
(dp2859
g62
(dp2860
g89
g90
ssg71
g2850
sg64
(lp2861
S':'
asbag57
(g78
g59
NtRp2862
(dp2863
g62
(dp2864
sg71
g2850
sg64
(lp2865
g57
(g58
g59
NtRp2866
(dp2867
g62
(dp2868
g70
I4
ssg71
g2862
sg64
(lp2869
g2572
asbasbasbag57
(g73
g59
NtRp2870
(dp2871
g62
(dp2872
sg71
g2726
sg64
(lp2873
g57
(g78
g59
NtRp2874
(dp2875
g62
(dp2876
g82
g83
ssg71
g2870
sg64
(lp2877
g2581
asbag57
(g78
g59
NtRp2878
(dp2879
g62
(dp2880
g89
g90
ssg71
g2870
sg64
(lp2881
S':'
asbag57
(g78
g59
NtRp2882
(dp2883
g62
(dp2884
sg71
g2870
sg64
(lp2885
g57
(g58
g59
NtRp2886
(dp2887
g62
(dp2888
g70
I4
ssg71
g2882
sg64
(lp2889
g2594
asbasbasbag57
(g73
g59
NtRp2890
(dp2891
g62
(dp2892
sg71
g2726
sg64
(lp2893
g57
(g78
g59
NtRp2894
(dp2895
g62
(dp2896
g82
g83
ssg71
g2890
sg64
(lp2897
g2603
asbag57
(g78
g59
NtRp2898
(dp2899
g62
(dp2900
g89
g90
ssg71
g2890
sg64
(lp2901
S':'
asbag57
(g78
g59
NtRp2902
(dp2903
g62
(dp2904
sg71
g2890
sg64
(lp2905
g57
(g58
g59
NtRp2906
(dp2907
g62
(dp2908
g70
I4
ssg71
g2902
sg64
(lp2909
g2616
asbasbasbag57
(g73
g59
NtRp2910
(dp2911
g62
(dp2912
sg71
g2726
sg64
(lp2913
g57
(g78
g59
NtRp2914
(dp2915
g62
(dp2916
g82
g83
ssg71
g2910
sg64
(lp2917
g2625
asbag57
(g78
g59
NtRp2918
(dp2919
g62
(dp2920
g89
g90
ssg71
g2910
sg64
(lp2921
S':'
asbag57
(g78
g59
NtRp2922
(dp2923
g62
(dp2924
sg71
g2910
sg64
(lp2925
g57
(g58
g59
NtRp2926
(dp2927
g62
(dp2928
g70
I4
ssg71
g2922
sg64
(lp2929
g2638
asbasbasbasbasbasbasbag57
(g73
g59
NtRp2930
(dp2931
g62
(dp2932
sg71
g67
sg64
(lp2933
g57
(g78
g59
NtRp2934
(dp2935
g62
(dp2936
g82
g83
ssg71
g2930
sg64
(lp2937
S'wsgi'
p2938
asbag57
(g78
g59
NtRp2939
(dp2940
g62
(dp2941
g89
g90
ssg71
g2930
sg64
(lp2942
S':'
asbag57
(g78
g59
NtRp2943
(dp2944
g62
(dp2945
sg71
g2930
sg64
(lp2946
g57
(g58
g59
NtRp2947
(dp2948
g62
(dp2949
g70
I5
ssg71
g2943
sg64
(lp2950
g57
(g66
g59
NtRp2951
(dp2952
g62
(dp2953
g70
I4
ssg71
Nsg64
(lp2954
g57
(g73
g59
NtRp2955
(dp2956
g62
(dp2957
sg71
g2951
sg64
(lp2958
g57
(g78
g59
NtRp2959
(dp2960
g62
(dp2961
g82
g83
ssg71
g2955
sg64
(lp2962
S'environ'
p2963
asbag57
(g78
g59
NtRp2964
(dp2965
g62
(dp2966
g89
g90
ssg71
g2955
sg64
(lp2967
S':'
asbag57
(g78
g59
NtRp2968
(dp2969
g62
(dp2970
sg71
g2955
sg64
(lp2971
g57
(g58
g59
NtRp2972
(dp2973
g62
(dp2974
g70
I4
ssg71
g2968
sg64
(lp2975
g57
(g66
g59
NtRp2976
(dp2977
g62
(dp2978
g70
I3
ssg71
Nsg64
(lp2979
g57
(g73
g59
NtRp2980
(dp2981
g62
(dp2982
sg71
g2976
sg64
(lp2983
g57
(g78
g59
NtRp2984
(dp2985
g62
(dp2986
g82
g83
ssg71
g2980
sg64
(lp2987
S'CONTENT_LENGTH'
p2988
asbag57
(g78
g59
NtRp2989
(dp2990
g62
(dp2991
g89
g90
ssg71
g2980
sg64
(lp2992
S':'
asbag57
(g78
g59
NtRp2993
(dp2994
g62
(dp2995
sg71
g2980
sg64
(lp2996
g57
(g58
g59
NtRp2997
(dp2998
g62
(dp2999
g70
I3
ssg71
g2993
sg64
(lp3000
g938
asbasbasbag57
(g73
g59
NtRp3001
(dp3002
g62
(dp3003
sg71
g2976
sg64
(lp3004
g57
(g78
g59
NtRp3005
(dp3006
g62
(dp3007
g82
g83
ssg71
g3001
sg64
(lp3008
S'CONTENT_TYPE'
p3009
asbag57
(g78
g59
NtRp3010
(dp3011
g62
(dp3012
g89
g90
ssg71
g3001
sg64
(lp3013
S':'
asbag57
(g78
g59
NtRp3014
(dp3015
g62
(dp3016
sg71
g3001
sg64
(lp3017
g57
(g58
g59
NtRp3018
(dp3019
g62
(dp3020
g70
I3
ssg71
g3014
sg64
(lp3021
g960
asbasbasbag57
(g73
g59
NtRp3022
(dp3023
g62
(dp3024
sg71
g2976
sg64
(lp3025
g57
(g78
g59
NtRp3026
(dp3027
g62
(dp3028
g82
g83
ssg71
g3022
sg64
(lp3029
S'HTTP_ACCEPT'
p3030
asbag57
(g78
g59
NtRp3031
(dp3032
g62
(dp3033
g89
g90
ssg71
g3022
sg64
(lp3034
S':'
asbag57
(g78
g59
NtRp3035
(dp3036
g62
(dp3037
sg71
g3022
sg64
(lp3038
g57
(g58
g59
NtRp3039
(dp3040
g62
(dp3041
g70
I3
ssg71
g3035
sg64
(lp3042
g1047
asbasbasbag57
(g73
g59
NtRp3043
(dp3044
g62
(dp3045
sg71
g2976
sg64
(lp3046
g57
(g78
g59
NtRp3047
(dp3048
g62
(dp3049
g82
g83
ssg71
g3043
sg64
(lp3050
S'HTTP_ACCEPT_ENCODING'
p3051
asbag57
(g78
g59
NtRp3052
(dp3053
g62
(dp3054
g89
g90
ssg71
g3043
sg64
(lp3055
S':'
asbag57
(g78
g59
NtRp3056
(dp3057
g62
(dp3058
sg71
g3043
sg64
(lp3059
g57
(g58
g59
NtRp3060
(dp3061
g62
(dp3062
g70
I3
ssg71
g3056
sg64
(lp3063
g1069
asbasbasbag57
(g73
g59
NtRp3064
(dp3065
g62
(dp3066
sg71
g2976
sg64
(lp3067
g57
(g78
g59
NtRp3068
(dp3069
g62
(dp3070
g82
g83
ssg71
g3064
sg64
(lp3071
S'HTTP_ACCEPT_LANGUAGE'
p3072
asbag57
(g78
g59
NtRp3073
(dp3074
g62
(dp3075
g89
g90
ssg71
g3064
sg64
(lp3076
S':'
asbag57
(g78
g59
NtRp3077
(dp3078
g62
(dp3079
sg71
g3064
sg64
(lp3080
g57
(g58
g59
NtRp3081
(dp3082
g62
(dp3083
g70
I3
ssg71
g3077
sg64
(lp3084
g1091
asbasbasbag57
(g73
g59
NtRp3085
(dp3086
g62
(dp3087
sg71
g2976
sg64
(lp3088
g57
(g78
g59
NtRp3089
(dp3090
g62
(dp3091
g82
g83
ssg71
g3085
sg64
(lp3092
S'HTTP_CACHE_CONTROL'
p3093
asbag57
(g78
g59
NtRp3094
(dp3095
g62
(dp3096
g89
g90
ssg71
g3085
sg64
(lp3097
S':'
asbag57
(g78
g59
NtRp3098
(dp3099
g62
(dp3100
sg71
g3085
sg64
(lp3101
g57
(g58
g59
NtRp3102
(dp3103
g62
(dp3104
g70
I3
ssg71
g3098
sg64
(lp3105
g1113
asbasbasbag57
(g73
g59
NtRp3106
(dp3107
g62
(dp3108
sg71
g2976
sg64
(lp3109
g57
(g78
g59
NtRp3110
(dp3111
g62
(dp3112
g82
g83
ssg71
g3106
sg64
(lp3113
S'HTTP_CONNECTION'
p3114
asbag57
(g78
g59
NtRp3115
(dp3116
g62
(dp3117
g89
g90
ssg71
g3106
sg64
(lp3118
S':'
asbag57
(g78
g59
NtRp3119
(dp3120
g62
(dp3121
sg71
g3106
sg64
(lp3122
g57
(g58
g59
NtRp3123
(dp3124
g62
(dp3125
g70
I3
ssg71
g3119
sg64
(lp3126
g1135
asbasbasbag57
(g73
g59
NtRp3127
(dp3128
g62
(dp3129
sg71
g2976
sg64
(lp3130
g57
(g78
g59
NtRp3131
(dp3132
g62
(dp3133
g82
g83
ssg71
g3127
sg64
(lp3134
S'HTTP_CONTENT_LENGTH'
p3135
asbag57
(g78
g59
NtRp3136
(dp3137
g62
(dp3138
g89
g90
ssg71
g3127
sg64
(lp3139
S':'
asbag57
(g78
g59
NtRp3140
(dp3141
g62
(dp3142
sg71
g3127
sg64
(lp3143
g57
(g58
g59
NtRp3144
(dp3145
g62
(dp3146
g70
I3
ssg71
g3140
sg64
(lp3147
g938
asbasbasbag57
(g73
g59
NtRp3148
(dp3149
g62
(dp3150
sg71
g2976
sg64
(lp3151
g57
(g78
g59
NtRp3152
(dp3153
g62
(dp3154
g82
g83
ssg71
g3148
sg64
(lp3155
S'HTTP_CONTENT_TYPE'
p3156
asbag57
(g78
g59
NtRp3157
(dp3158
g62
(dp3159
g89
g90
ssg71
g3148
sg64
(lp3160
S':'
asbag57
(g78
g59
NtRp3161
(dp3162
g62
(dp3163
sg71
g3148
sg64
(lp3164
g57
(g58
g59
NtRp3165
(dp3166
g62
(dp3167
g70
I3
ssg71
g3161
sg64
(lp3168
g960
asbasbasbag57
(g73
g59
NtRp3169
(dp3170
g62
(dp3171
sg71
g2976
sg64
(lp3172
g57
(g78
g59
NtRp3173
(dp3174
g62
(dp3175
g82
g83
ssg71
g3169
sg64
(lp3176
S'HTTP_COOKIE'
p3177
asbag57
(g78
g59
NtRp3178
(dp3179
g62
(dp3180
g89
g90
ssg71
g3169
sg64
(lp3181
S':'
asbag57
(g78
g59
NtRp3182
(dp3183
g62
(dp3184
sg71
g3169
sg64
(lp3185
g57
(g58
g59
NtRp3186
(dp3187
g62
(dp3188
g70
I3
ssg71
g3182
sg64
(lp3189
g1199
asbasbasbag57
(g73
g59
NtRp3190
(dp3191
g62
(dp3192
sg71
g2976
sg64
(lp3193
g57
(g78
g59
NtRp3194
(dp3195
g62
(dp3196
g82
g83
ssg71
g3190
sg64
(lp3197
S'HTTP_DNT'
p3198
asbag57
(g78
g59
NtRp3199
(dp3200
g62
(dp3201
g89
g90
ssg71
g3190
sg64
(lp3202
S':'
asbag57
(g78
g59
NtRp3203
(dp3204
g62
(dp3205
sg71
g3190
sg64
(lp3206
g57
(g58
g59
NtRp3207
(dp3208
g62
(dp3209
g70
I3
ssg71
g3203
sg64
(lp3210
S'1'
asbasbasbag57
(g73
g59
NtRp3211
(dp3212
g62
(dp3213
sg71
g2976
sg64
(lp3214
g57
(g78
g59
NtRp3215
(dp3216
g62
(dp3217
g82
g83
ssg71
g3211
sg64
(lp3218
S'HTTP_HOST'
p3219
asbag57
(g78
g59
NtRp3220
(dp3221
g62
(dp3222
g89
g90
ssg71
g3211
sg64
(lp3223
S':'
asbag57
(g78
g59
NtRp3224
(dp3225
g62
(dp3226
sg71
g3211
sg64
(lp3227
g57
(g58
g59
NtRp3228
(dp3229
g62
(dp3230
g70
I3
ssg71
g3224
sg64
(lp3231
g1242
asbasbasbag57
(g73
g59
NtRp3232
(dp3233
g62
(dp3234
sg71
g2976
sg64
(lp3235
g57
(g78
g59
NtRp3236
(dp3237
g62
(dp3238
g82
g83
ssg71
g3232
sg64
(lp3239
S'HTTP_ORIGIN'
p3240
asbag57
(g78
g59
NtRp3241
(dp3242
g62
(dp3243
g89
g90
ssg71
g3232
sg64
(lp3244
S':'
asbag57
(g78
g59
NtRp3245
(dp3246
g62
(dp3247
sg71
g3232
sg64
(lp3248
g57
(g58
g59
NtRp3249
(dp3250
g62
(dp3251
g70
I3
ssg71
g3245
sg64
(lp3252
g1264
asbasbasbag57
(g73
g59
NtRp3253
(dp3254
g62
(dp3255
sg71
g2976
sg64
(lp3256
g57
(g78
g59
NtRp3257
(dp3258
g62
(dp3259
g82
g83
ssg71
g3253
sg64
(lp3260
S'HTTP_REFERER'
p3261
asbag57
(g78
g59
NtRp3262
(dp3263
g62
(dp3264
g89
g90
ssg71
g3253
sg64
(lp3265
S':'
asbag57
(g78
g59
NtRp3266
(dp3267
g62
(dp3268
sg71
g3253
sg64
(lp3269
g57
(g58
g59
NtRp3270
(dp3271
g62
(dp3272
g70
I3
ssg71
g3266
sg64
(lp3273
g1286
asbasbasbag57
(g73
g59
NtRp3274
(dp3275
g62
(dp3276
sg71
g2976
sg64
(lp3277
g57
(g78
g59
NtRp3278
(dp3279
g62
(dp3280
g82
g83
ssg71
g3274
sg64
(lp3281
S'HTTP_USER_AGENT'
p3282
asbag57
(g78
g59
NtRp3283
(dp3284
g62
(dp3285
g89
g90
ssg71
g3274
sg64
(lp3286
S':'
asbag57
(g78
g59
NtRp3287
(dp3288
g62
(dp3289
sg71
g3274
sg64
(lp3290
g57
(g58
g59
NtRp3291
(dp3292
g62
(dp3293
g70
I3
ssg71
g3287
sg64
(lp3294
g1308
asbasbasbag57
(g73
g59
NtRp3295
(dp3296
g62
(dp3297
sg71
g2976
sg64
(lp3298
g57
(g78
g59
NtRp3299
(dp3300
g62
(dp3301
g82
g83
ssg71
g3295
sg64
(lp3302
S'PATH_INFO'
p3303
asbag57
(g78
g59
NtRp3304
(dp3305
g62
(dp3306
g89
g90
ssg71
g3295
sg64
(lp3307
S':'
asbag57
(g78
g59
NtRp3308
(dp3309
g62
(dp3310
sg71
g3295
sg64
(lp3311
g57
(g58
g59
NtRp3312
(dp3313
g62
(dp3314
g70
I3
ssg71
g3308
sg64
(lp3315
g1372
asbasbasbag57
(g73
g59
NtRp3316
(dp3317
g62
(dp3318
sg71
g2976
sg64
(lp3319
g57
(g78
g59
NtRp3320
(dp3321
g62
(dp3322
g82
g83
ssg71
g3316
sg64
(lp3323
S'QUERY_STRING'
p3324
asbag57
(g78
g59
NtRp3325
(dp3326
g62
(dp3327
g89
g90
ssg71
g3316
sg64
(lp3328
S':'
asbag57
(g78
g59
NtRp3329
(dp3330
g62
(dp3331
sg71
g3316
sg64
(lp3332
g57
(g58
g59
NtRp3333
(dp3334
g62
(dp3335
g70
I3
ssg71
g3329
sg64
(lp3336
S''
asbasbasbag57
(g73
g59
NtRp3337
(dp3338
g62
(dp3339
sg71
g2976
sg64
(lp3340
g57
(g78
g59
NtRp3341
(dp3342
g62
(dp3343
g82
g83
ssg71
g3337
sg64
(lp3344
S'REMOTE_ADDR'
p3345
asbag57
(g78
g59
NtRp3346
(dp3347
g62
(dp3348
g89
g90
ssg71
g3337
sg64
(lp3349
S':'
asbag57
(g78
g59
NtRp3350
(dp3351
g62
(dp3352
sg71
g3337
sg64
(lp3353
g57
(g58
g59
NtRp3354
(dp3355
g62
(dp3356
g70
I3
ssg71
g3350
sg64
(lp3357
g190
asbasbasbag57
(g73
g59
NtRp3358
(dp3359
g62
(dp3360
sg71
g2976
sg64
(lp3361
g57
(g78
g59
NtRp3362
(dp3363
g62
(dp3364
g82
g83
ssg71
g3358
sg64
(lp3365
S'REMOTE_PORT'
p3366
asbag57
(g78
g59
NtRp3367
(dp3368
g62
(dp3369
g89
g90
ssg71
g3358
sg64
(lp3370
S':'
asbag57
(g78
g59
NtRp3371
(dp3372
g62
(dp3373
sg71
g3358
sg64
(lp3374
g57
(g58
g59
NtRp3375
(dp3376
g62
(dp3377
g70
I3
ssg71
g3371
sg64
(lp3378
g1436
asbasbasbag57
(g73
g59
NtRp3379
(dp3380
g62
(dp3381
sg71
g2976
sg64
(lp3382
g57
(g78
g59
NtRp3383
(dp3384
g62
(dp3385
g82
g83
ssg71
g3379
sg64
(lp3386
S'REQUEST_METHOD'
p3387
asbag57
(g78
g59
NtRp3388
(dp3389
g62
(dp3390
g89
g90
ssg71
g3379
sg64
(lp3391
S':'
asbag57
(g78
g59
NtRp3392
(dp3393
g62
(dp3394
sg71
g3379
sg64
(lp3395
g57
(g58
g59
NtRp3396
(dp3397
g62
(dp3398
g70
I3
ssg71
g3392
sg64
(lp3399
g1458
asbasbasbag57
(g73
g59
NtRp3400
(dp3401
g62
(dp3402
sg71
g2976
sg64
(lp3403
g57
(g78
g59
NtRp3404
(dp3405
g62
(dp3406
g82
g83
ssg71
g3400
sg64
(lp3407
S'SCRIPT_NAME'
p3408
asbag57
(g78
g59
NtRp3409
(dp3410
g62
(dp3411
g89
g90
ssg71
g3400
sg64
(lp3412
S':'
asbag57
(g78
g59
NtRp3413
(dp3414
g62
(dp3415
sg71
g3400
sg64
(lp3416
g57
(g58
g59
NtRp3417
(dp3418
g62
(dp3419
g70
I3
ssg71
g3413
sg64
(lp3420
S''
asbasbasbag57
(g73
g59
NtRp3421
(dp3422
g62
(dp3423
sg71
g2976
sg64
(lp3424
g57
(g78
g59
NtRp3425
(dp3426
g62
(dp3427
g82
g83
ssg71
g3421
sg64
(lp3428
S'SERVER_NAME'
p3429
asbag57
(g78
g59
NtRp3430
(dp3431
g62
(dp3432
g89
g90
ssg71
g3421
sg64
(lp3433
S':'
asbag57
(g78
g59
NtRp3434
(dp3435
g62
(dp3436
sg71
g3421
sg64
(lp3437
g57
(g58
g59
NtRp3438
(dp3439
g62
(dp3440
g70
I3
ssg71
g3434
sg64
(lp3441
g1501
asbasbasbag57
(g73
g59
NtRp3442
(dp3443
g62
(dp3444
sg71
g2976
sg64
(lp3445
g57
(g78
g59
NtRp3446
(dp3447
g62
(dp3448
g82
g83
ssg71
g3442
sg64
(lp3449
S'SERVER_PORT'
p3450
asbag57
(g78
g59
NtRp3451
(dp3452
g62
(dp3453
g89
g90
ssg71
g3442
sg64
(lp3454
S':'
asbag57
(g78
g59
NtRp3455
(dp3456
g62
(dp3457
sg71
g3442
sg64
(lp3458
g57
(g58
g59
NtRp3459
(dp3460
g62
(dp3461
g70
I3
ssg71
g3455
sg64
(lp3462
g1523
asbasbasbag57
(g73
g59
NtRp3463
(dp3464
g62
(dp3465
sg71
g2976
sg64
(lp3466
g57
(g78
g59
NtRp3467
(dp3468
g62
(dp3469
g82
g83
ssg71
g3463
sg64
(lp3470
S'SERVER_PROTOCOL'
p3471
asbag57
(g78
g59
NtRp3472
(dp3473
g62
(dp3474
g89
g90
ssg71
g3463
sg64
(lp3475
S':'
asbag57
(g78
g59
NtRp3476
(dp3477
g62
(dp3478
sg71
g3463
sg64
(lp3479
g57
(g58
g59
NtRp3480
(dp3481
g62
(dp3482
g70
I3
ssg71
g3476
sg64
(lp3483
g1545
asbasbasbag57
(g73
g59
NtRp3484
(dp3485
g62
(dp3486
sg71
g2976
sg64
(lp3487
g57
(g78
g59
NtRp3488
(dp3489
g62
(dp3490
g82
g83
ssg71
g3484
sg64
(lp3491
S'SERVER_SOFTWARE'
p3492
asbag57
(g78
g59
NtRp3493
(dp3494
g62
(dp3495
g89
g90
ssg71
g3484
sg64
(lp3496
S':'
asbag57
(g78
g59
NtRp3497
(dp3498
g62
(dp3499
sg71
g3484
sg64
(lp3500
g57
(g58
g59
NtRp3501
(dp3502
g62
(dp3503
g70
I3
ssg71
g3497
sg64
(lp3504
g1567
asbasbasbag57
(g73
g59
NtRp3505
(dp3506
g62
(dp3507
sg71
g2976
sg64
(lp3508
g57
(g78
g59
NtRp3509
(dp3510
g62
(dp3511
g82
g83
ssg71
g3505
sg64
(lp3512
S'wsgi.errors'
p3513
asbag57
(g78
g59
NtRp3514
(dp3515
g62
(dp3516
g89
g90
ssg71
g3505
sg64
(lp3517
S':'
asbag57
(g78
g59
NtRp3518
(dp3519
g62
(dp3520
sg71
g3505
sg64
(lp3521
g57
(g58
g59
NtRp3522
(dp3523
g62
(dp3524
g70
I3
ssg71
g3518
sg64
(lp3525
S"<open file '<stderr>', mode 'w' at 0xb74b10d0>"
p3526
asbasbasbag57
(g73
g59
NtRp3527
(dp3528
g62
(dp3529
sg71
g2976
sg64
(lp3530
g57
(g78
g59
NtRp3531
(dp3532
g62
(dp3533
g82
g83
ssg71
g3527
sg64
(lp3534
S'wsgi.file_wrapper'
p3535
asbag57
(g78
g59
NtRp3536
(dp3537
g62
(dp3538
g89
g90
ssg71
g3527
sg64
(lp3539
S':'
asbag57
(g78
g59
NtRp3540
(dp3541
g62
(dp3542
sg71
g3527
sg64
(lp3543
g57
(g58
g59
NtRp3544
(dp3545
g62
(dp3546
g70
I3
ssg71
g3540
sg64
(lp3547
S'<class wsgiref.util.FileWrapper at 0xb69e720c>'
p3548
asbasbasbag57
(g73
g59
NtRp3549
(dp3550
g62
(dp3551
sg71
g2976
sg64
(lp3552
g57
(g78
g59
NtRp3553
(dp3554
g62
(dp3555
g82
g83
ssg71
g3549
sg64
(lp3556
S'wsgi.input'
p3557
asbag57
(g78
g59
NtRp3558
(dp3559
g62
(dp3560
g89
g90
ssg71
g3549
sg64
(lp3561
S':'
asbag57
(g78
g59
NtRp3562
(dp3563
g62
(dp3564
sg71
g3549
sg64
(lp3565
g57
(g58
g59
NtRp3566
(dp3567
g62
(dp3568
g70
I3
ssg71
g3562
sg64
(lp3569
S"<open file '<fdopen>', mode 'w+b' at 0xa09ef98>"
p3570
asbasbasbag57
(g73
g59
NtRp3571
(dp3572
g62
(dp3573
sg71
g2976
sg64
(lp3574
g57
(g78
g59
NtRp3575
(dp3576
g62
(dp3577
g82
g83
ssg71
g3571
sg64
(lp3578
S'wsgi.multiprocess'
p3579
asbag57
(g78
g59
NtRp3580
(dp3581
g62
(dp3582
g89
g90
ssg71
g3571
sg64
(lp3583
S':'
asbag57
(g78
g59
NtRp3584
(dp3585
g62
(dp3586
sg71
g3571
sg64
(lp3587
g57
(g58
g59
NtRp3588
(dp3589
g62
(dp3590
g70
I3
ssg71
g3584
sg64
(lp3591
g100
asbasbasbag57
(g73
g59
NtRp3592
(dp3593
g62
(dp3594
sg71
g2976
sg64
(lp3595
g57
(g78
g59
NtRp3596
(dp3597
g62
(dp3598
g82
g83
ssg71
g3592
sg64
(lp3599
S'wsgi.multithread'
p3600
asbag57
(g78
g59
NtRp3601
(dp3602
g62
(dp3603
g89
g90
ssg71
g3592
sg64
(lp3604
S':'
asbag57
(g78
g59
NtRp3605
(dp3606
g62
(dp3607
sg71
g3592
sg64
(lp3608
g57
(g58
g59
NtRp3609
(dp3610
g62
(dp3611
g70
I3
ssg71
g3605
sg64
(lp3612
g1807
asbasbasbag57
(g73
g59
NtRp3613
(dp3614
g62
(dp3615
sg71
g2976
sg64
(lp3616
g57
(g78
g59
NtRp3617
(dp3618
g62
(dp3619
g82
g83
ssg71
g3613
sg64
(lp3620
S'wsgi.run_once'
p3621
asbag57
(g78
g59
NtRp3622
(dp3623
g62
(dp3624
g89
g90
ssg71
g3613
sg64
(lp3625
S':'
asbag57
(g78
g59
NtRp3626
(dp3627
g62
(dp3628
sg71
g3613
sg64
(lp3629
g57
(g58
g59
NtRp3630
(dp3631
g62
(dp3632
g70
I3
ssg71
g3626
sg64
(lp3633
g100
asbasbasbag57
(g73
g59
NtRp3634
(dp3635
g62
(dp3636
sg71
g2976
sg64
(lp3637
g57
(g78
g59
NtRp3638
(dp3639
g62
(dp3640
g82
g83
ssg71
g3634
sg64
(lp3641
S'wsgi.url_scheme'
p3642
asbag57
(g78
g59
NtRp3643
(dp3644
g62
(dp3645
g89
g90
ssg71
g3634
sg64
(lp3646
S':'
asbag57
(g78
g59
NtRp3647
(dp3648
g62
(dp3649
sg71
g3634
sg64
(lp3650
g57
(g58
g59
NtRp3651
(dp3652
g62
(dp3653
g70
I3
ssg71
g3647
sg64
(lp3654
g1850
asbasbasbag57
(g73
g59
NtRp3655
(dp3656
g62
(dp3657
sg71
g2976
sg64
(lp3658
g57
(g78
g59
NtRp3659
(dp3660
g62
(dp3661
g82
g83
ssg71
g3655
sg64
(lp3662
S'wsgi.version'
p3663
asbag57
(g78
g59
NtRp3664
(dp3665
g62
(dp3666
g89
g90
ssg71
g3655
sg64
(lp3667
S':'
asbag57
(g78
g59
NtRp3668
(dp3669
g62
(dp3670
sg71
g3655
sg64
(lp3671
g57
(g58
g59
NtRp3672
(dp3673
g62
(dp3674
g70
I3
ssg71
g3668
sg64
(lp3675
S'1'
asbasbasbasbasbasbasbasbasbasbasbasbasbsS'frames'
p3676
(lp3677
(dp3678
S'file'
p3679
S'/home/krutarth/Downloads/911india/gluon/restricted.py'
p3680
sS'dump'
p3681
(dp3682
S'environment'
p3683
S"{'A': <class 'gluon.html.A'>, 'Auth': <class 'gluon.tools.Auth'>, 'B': <class 'gluon.html.B'>, 'BEAUTIFY': <class 'gluon.html.BEAUTIFY'>, 'BODY': <class 'gluon.html.BODY'>, 'BR': <class 'gluon.html.BR'>, 'BUTTON': <class 'gluon.html.BUTTON'>, 'CAT': <class 'gluon.html.CAT'>, 'CENTER': <class 'gluon.html.CENTER'>, 'CLEANUP': <class 'gluon.validators.CLEANUP'>, ...}"
p3684
sS'ccode'
p3685
S'<code object <module> at 0xad30cb18, file "/home...ions/911_signin/controllers/default.py", line 12>'
p3686
ssS'lnum'
p3687
I205
sS'lines'
p3688
(dp3689
I200
S'    try:'
p3690
sI201
S'        if type(code) == types.CodeType:'
p3691
sI202
S'            ccode = code'
p3692
sI203
S'        else:'
p3693
sI204
S'            ccode = compile2(code,layer)'
p3694
sI205
S'        exec ccode in environment'
p3695
sI206
S'    except HTTP:'
p3696
sI207
S'        raise'
p3697
sI208
S'    except RestrictedError:'
p3698
sI209
S'        # do not encapsulate (obfuscate) the original RestrictedError'
p3699
ssS'call'
p3700
S"(code='# -*- coding: utf-8 -*-\\n# this file is released ...lect()\\n\\n\\nresponse._vars=response._caller(events)\\n', environment={'A': <class 'gluon.html.A'>, 'Auth': <class 'gluon.tools.Auth'>, 'B': <class 'gluon.html.B'>, 'BEAUTIFY': <class 'gluon.html.BEAUTIFY'>, 'BODY': <class 'gluon.html.BODY'>, 'BR': <class 'gluon.html.BR'>, 'BUTTON': <class 'gluon.html.BUTTON'>, 'CAT': <class 'gluon.html.CAT'>, 'CENTER': <class 'gluon.html.CENTER'>, 'CLEANUP': <class 'gluon.validators.CLEANUP'>, ...}, layer='/home/krutarth/Downloads/911india/applications/911_signin/controllers/default.py')"
p3701
sS'func'
p3702
S'restricted'
p3703
sa(dp3704
g3679
S'/home/krutarth/Downloads/911india/applications/911_signin/controllers/default.py'
p3705
sg3681
(dp3706
sg3687
I204
sg3688
(dp3707
I193
S'\treturn db(db.events.id > 0).select()'
p3708
sI194
S''
sI195
S'def case_studies():'
p3709
sI196
S'\tform=SQLFORM(db.case_studies)'
p3710
sI197
S'\tif form.accepts(request.vars, session):'
p3711
sI198
S'\t\tresponse.flash = form.vars.Name + " thank you"'
p3712
sI199
S'\treturn dict(form=form)'
p3713
sI200
S'def case_studies_result():'
p3714
sI201
S'\treturn db(db.case_studies.id > 0).select()'
p3715
sI202
S''
ssg3700
S'()'
p3716
sg3702
S'<module>'
p3717
sa(dp3718
g3679
S'/home/krutarth/Downloads/911india/gluon/globals.py'
p3719
sg3681
(dp3720
S'self'
p3721
S'undefined'
p3722
sS'f'
S'<function events>'
p3723
ssg3687
I173
sg3688
(dp3724
I168
S'        self.menu = []             # used by the default view layout'
p3725
sI169
S'        self.files = []            # used by web2py_ajax.html'
p3726
sI170
S'        self.generic_patterns = [] # patterns to allow generic views'
p3727
sI171
S"        self.delimiters = ('{{','}}')"
p3728
sI172
S'        self._vars = None'
p3729
sI173
S'        self._caller = lambda f: f()'
p3730
sI174
S'        self._view_environment = None'
p3731
sI175
S'        self._custom_commit = None'
p3732
sI176
S'        self._custom_rollback = None'
p3733
sI177
S''
ssg3700
S'(f=<function events>)'
p3734
sg3702
S'<lambda>'
p3735
sa(dp3736
g3679
S'/home/krutarth/Downloads/911india/gluon/tools.py'
p3737
sg3681
(dp3738
S'action'
p3739
S'<function events>'
p3740
sS'a'
S'()'
p3741
sS'b'
g45
ssg3687
I2580
sg3688
(dp3742
I2575
S'                    flag = condition'
p3743
sI2576
S'                if not flag:'
p3744
sI2577
S'                    current.session.flash = self.messages.access_denied'
p3745
sI2578
S'                    return call_or_redirect('
p3746
sI2579
S'                        self.settings.on_failed_authorization)'
p3747
sI2580
S'                return action(*a, **b)'
p3748
sI2581
S'            f.__doc__ = action.__doc__'
p3749
sI2582
S'            f.__name__ = action.__name__'
p3750
sI2583
S'            f.__dict__.update(action.__dict__)'
p3751
sI2584
S'            return f'
p3752
ssg3700
S'(*a=(), **b={})'
p3753
sg3702
S'f'
sa(dp3754
g3679
S'/home/krutarth/Downloads/911india/applications/911_signin/controllers/default.py'
p3755
sg3681
(dp3756
S'form.vars.Name'
p3757
S'None'
p3758
sS'form.vars'
p3759
S"<Storage {'Category': 'Urology', 'City': 'Hydera... 22, 30, 6), 'Email': 'krutarthkp800@gmail.com'}>"
p3760
sS'global response'
p3761
S"<Storage {'body': <cStringIO.StringO object at 0...> at 0xad20a0d4>, 'view': 'default/events.html'}>"
p3762
sS'form'
p3763
S'<gluon.sqlhtml.SQLFORM object>'
p3764
sS'response.flash'
p3765
S"''"
p3766
ssg3687
I189
sg3688
(dp3767
I192
S'def invitations():'
p3768
sI193
S'\treturn db(db.events.id > 0).select()'
p3769
sI184
S''
sI185
S'@auth.requires_login()'
p3770
sI186
S'def events():'
p3771
sI187
S'    form = SQLFORM(db.events)'
p3772
sI188
S'    if form.accepts(request.vars, session):'
p3773
sI189
S'\tresponse.flash = form.vars.Name + " thank you"'
p3774
sI190
S'    return dict(form=form)'
p3775
sI191
S''
ssg3700
S'()'
p3776
sg3702
S'events'
p3777
sasS'pyver'
p3778
S'Python 2.7.4: /usr/bin/python'
p3779
sS'session'
p3780
g57
(g58
g59
NtRp3781
(dp3782
g62
(dp3783
sg64
(lp3784
g57
(g66
g59
NtRp3785
(dp3786
g62
(dp3787
g70
I5
ssg71
Nsg64
(lp3788
g57
(g73
g59
NtRp3789
(dp3790
g62
(dp3791
sg71
g3785
sg64
(lp3792
g57
(g78
g59
NtRp3793
(dp3794
g62
(dp3795
g82
g83
ssg71
g3789
sg64
(lp3796
S'auth'
p3797
asbag57
(g78
g59
NtRp3798
(dp3799
g62
(dp3800
g89
g90
ssg71
g3789
sg64
(lp3801
S':'
asbag57
(g78
g59
NtRp3802
(dp3803
g62
(dp3804
sg71
g3789
sg64
(lp3805
g57
(g58
g59
NtRp3806
(dp3807
g62
(dp3808
g70
I5
ssg71
g3802
sg64
(lp3809
g57
(g66
g59
NtRp3810
(dp3811
g62
(dp3812
g70
I4
ssg71
Nsg64
(lp3813
g57
(g73
g59
NtRp3814
(dp3815
g62
(dp3816
sg71
g3810
sg64
(lp3817
g57
(g78
g59
NtRp3818
(dp3819
g62
(dp3820
g82
g83
ssg71
g3814
sg64
(lp3821
S'expiration'
p3822
asbag57
(g78
g59
NtRp3823
(dp3824
g62
(dp3825
g89
g90
ssg71
g3814
sg64
(lp3826
S':'
asbag57
(g78
g59
NtRp3827
(dp3828
g62
(dp3829
sg71
g3814
sg64
(lp3830
g57
(g58
g59
NtRp3831
(dp3832
g62
(dp3833
g70
I4
ssg71
g3827
sg64
(lp3834
S'3600'
p3835
asbasbasbag57
(g73
g59
NtRp3836
(dp3837
g62
(dp3838
sg71
g3810
sg64
(lp3839
g57
(g78
g59
NtRp3840
(dp3841
g62
(dp3842
g82
g83
ssg71
g3836
sg64
(lp3843
S'hmac_key'
p3844
asbag57
(g78
g59
NtRp3845
(dp3846
g62
(dp3847
g89
g90
ssg71
g3836
sg64
(lp3848
S':'
asbag57
(g78
g59
NtRp3849
(dp3850
g62
(dp3851
sg71
g3836
sg64
(lp3852
g57
(g58
g59
NtRp3853
(dp3854
g62
(dp3855
g70
I4
ssg71
g3849
sg64
(lp3856
S'b52b807d-b87f-47e6-9717-9b507b1a63c7'
p3857
asbasbasbag57
(g73
g59
NtRp3858
(dp3859
g62
(dp3860
sg71
g3810
sg64
(lp3861
g57
(g78
g59
NtRp3862
(dp3863
g62
(dp3864
g82
g83
ssg71
g3858
sg64
(lp3865
S'last_visit'
p3866
asbag57
(g78
g59
NtRp3867
(dp3868
g62
(dp3869
g89
g90
ssg71
g3858
sg64
(lp3870
S':'
asbag57
(g78
g59
NtRp3871
(dp3872
g62
(dp3873
sg71
g3858
sg64
(lp3874
g57
(g58
g59
NtRp3875
(dp3876
g62
(dp3877
g70
I4
ssg71
g3871
sg64
(lp3878
S'datetime.datetime(2013, 7, 4, 22, 32, 55, 820366)'
p3879
asbasbasbag57
(g73
g59
NtRp3880
(dp3881
g62
(dp3882
sg71
g3810
sg64
(lp3883
g57
(g78
g59
NtRp3884
(dp3885
g62
(dp3886
g82
g83
ssg71
g3880
sg64
(lp3887
S'user'
p3888
asbag57
(g78
g59
NtRp3889
(dp3890
g62
(dp3891
g89
g90
ssg71
g3880
sg64
(lp3892
S':'
asbag57
(g78
g59
NtRp3893
(dp3894
g62
(dp3895
sg71
g3880
sg64
(lp3896
g57
(g58
g59
NtRp3897
(dp3898
g62
(dp3899
g70
I4
ssg71
g3893
sg64
(lp3900
g57
(g66
g59
NtRp3901
(dp3902
g62
(dp3903
g70
I3
ssg71
Nsg64
(lp3904
g57
(g73
g59
NtRp3905
(dp3906
g62
(dp3907
sg71
g3901
sg64
(lp3908
g57
(g78
g59
NtRp3909
(dp3910
g62
(dp3911
g82
g83
ssg71
g3905
sg64
(lp3912
S'email'
p3913
asbag57
(g78
g59
NtRp3914
(dp3915
g62
(dp3916
g89
g90
ssg71
g3905
sg64
(lp3917
S':'
asbag57
(g78
g59
NtRp3918
(dp3919
g62
(dp3920
sg71
g3905
sg64
(lp3921
g57
(g58
g59
NtRp3922
(dp3923
g62
(dp3924
g70
I3
ssg71
g3918
sg64
(lp3925
S'krutarthkp800@gmail.com'
p3926
asbasbasbag57
(g73
g59
NtRp3927
(dp3928
g62
(dp3929
sg71
g3901
sg64
(lp3930
g57
(g78
g59
NtRp3931
(dp3932
g62
(dp3933
g82
g83
ssg71
g3927
sg64
(lp3934
S'first_name'
p3935
asbag57
(g78
g59
NtRp3936
(dp3937
g62
(dp3938
g89
g90
ssg71
g3927
sg64
(lp3939
S':'
asbag57
(g78
g59
NtRp3940
(dp3941
g62
(dp3942
sg71
g3927
sg64
(lp3943
g57
(g58
g59
NtRp3944
(dp3945
g62
(dp3946
g70
I3
ssg71
g3940
sg64
(lp3947
S'Krutarth'
p3948
asbasbasbag57
(g73
g59
NtRp3949
(dp3950
g62
(dp3951
sg71
g3901
sg64
(lp3952
g57
(g78
g59
NtRp3953
(dp3954
g62
(dp3955
g82
g83
ssg71
g3949
sg64
(lp3956
S'id'
p3957
asbag57
(g78
g59
NtRp3958
(dp3959
g62
(dp3960
g89
g90
ssg71
g3949
sg64
(lp3961
S':'
asbag57
(g78
g59
NtRp3962
(dp3963
g62
(dp3964
sg71
g3949
sg64
(lp3965
g57
(g58
g59
NtRp3966
(dp3967
g62
(dp3968
g70
I3
ssg71
g3962
sg64
(lp3969
S'15'
p3970
asbasbasbag57
(g73
g59
NtRp3971
(dp3972
g62
(dp3973
sg71
g3901
sg64
(lp3974
g57
(g78
g59
NtRp3975
(dp3976
g62
(dp3977
g82
g83
ssg71
g3971
sg64
(lp3978
S'last_name'
p3979
asbag57
(g78
g59
NtRp3980
(dp3981
g62
(dp3982
g89
g90
ssg71
g3971
sg64
(lp3983
S':'
asbag57
(g78
g59
NtRp3984
(dp3985
g62
(dp3986
sg71
g3971
sg64
(lp3987
g57
(g58
g59
NtRp3988
(dp3989
g62
(dp3990
g70
I3
ssg71
g3984
sg64
(lp3991
S'Patel'
p3992
asbasbasbag57
(g73
g59
NtRp3993
(dp3994
g62
(dp3995
sg71
g3901
sg64
(lp3996
g57
(g78
g59
NtRp3997
(dp3998
g62
(dp3999
g82
g83
ssg71
g3993
sg64
(lp4000
S'password'
p4001
asbag57
(g78
g59
NtRp4002
(dp4003
g62
(dp4004
g89
g90
ssg71
g3993
sg64
(lp4005
S':'
asbag57
(g78
g59
NtRp4006
(dp4007
g62
(dp4008
sg71
g3993
sg64
(lp4009
g57
(g58
g59
NtRp4010
(dp4011
g62
(dp4012
g70
I3
ssg71
g4006
sg64
(lp4013
S'009310309c51c03cf474b4fac65521e3b03b5bbdf643e606d54a1b6644c0cee69bed84e134408efa1dc8562b96303a8eeecf11cc0621efd5d1388afff98252ac'
p4014
asbasbasbag57
(g73
g59
NtRp4015
(dp4016
g62
(dp4017
sg71
g3901
sg64
(lp4018
g57
(g78
g59
NtRp4019
(dp4020
g62
(dp4021
g82
g83
ssg71
g4015
sg64
(lp4022
S'registration_key'
p4023
asbag57
(g78
g59
NtRp4024
(dp4025
g62
(dp4026
g89
g90
ssg71
g4015
sg64
(lp4027
S':'
asbag57
(g78
g59
NtRp4028
(dp4029
g62
(dp4030
sg71
g4015
sg64
(lp4031
g57
(g58
g59
NtRp4032
(dp4033
g62
(dp4034
g70
I3
ssg71
g4028
sg64
(lp4035
S''
asbasbasbag57
(g73
g59
NtRp4036
(dp4037
g62
(dp4038
sg71
g3901
sg64
(lp4039
g57
(g78
g59
NtRp4040
(dp4041
g62
(dp4042
g82
g83
ssg71
g4036
sg64
(lp4043
S'unread_ctr'
p4044
asbag57
(g78
g59
NtRp4045
(dp4046
g62
(dp4047
g89
g90
ssg71
g4036
sg64
(lp4048
S':'
asbag57
(g78
g59
NtRp4049
(dp4050
g62
(dp4051
sg71
g4036
sg64
(lp4052
g57
(g58
g59
NtRp4053
(dp4054
g62
(dp4055
g70
I3
ssg71
g4049
sg64
(lp4056
S'0'
asbasbasbag57
(g73
g59
NtRp4057
(dp4058
g62
(dp4059
sg71
g3901
sg64
(lp4060
g57
(g78
g59
NtRp4061
(dp4062
g62
(dp4063
g82
g83
ssg71
g4057
sg64
(lp4064
S'username'
p4065
asbag57
(g78
g59
NtRp4066
(dp4067
g62
(dp4068
g89
g90
ssg71
g4057
sg64
(lp4069
S':'
asbag57
(g78
g59
NtRp4070
(dp4071
g62
(dp4072
sg71
g4057
sg64
(lp4073
g57
(g58
g59
NtRp4074
(dp4075
g62
(dp4076
g70
I3
ssg71
g4070
sg64
(lp4077
S'krutarth_iiit'
p4078
asbasbasbasbasbasbasbag57
(g73
g59
NtRp4079
(dp4080
g62
(dp4081
sg71
g3810
sg64
(lp4082
g57
(g78
g59
NtRp4083
(dp4084
g62
(dp4085
g82
g83
ssg71
g4079
sg64
(lp4086
S'user_groups'
p4087
asbag57
(g78
g59
NtRp4088
(dp4089
g62
(dp4090
g89
g90
ssg71
g4079
sg64
(lp4091
S':'
asbag57
(g78
g59
NtRp4092
(dp4093
g62
(dp4094
sg71
g4079
sg64
(lp4095
g57
(g58
g59
NtRp4096
(dp4097
g62
(dp4098
g70
I4
ssg71
g4092
sg64
(lp4099
g57
(g66
g59
NtRp4100
(dp4101
g62
(dp4102
g70
I3
ssg71
Nsg64
(lp4103
g57
(g73
g59
NtRp4104
(dp4105
g62
(dp4106
sg71
g4100
sg64
(lp4107
g57
(g78
g59
NtRp4108
(dp4109
g62
(dp4110
g82
g83
ssg71
g4104
sg64
(lp4111
S'16'
p4112
asbag57
(g78
g59
NtRp4113
(dp4114
g62
(dp4115
g89
g90
ssg71
g4104
sg64
(lp4116
S':'
asbag57
(g78
g59
NtRp4117
(dp4118
g62
(dp4119
sg71
g4104
sg64
(lp4120
g57
(g58
g59
NtRp4121
(dp4122
g62
(dp4123
g70
I3
ssg71
g4117
sg64
(lp4124
S'user_15'
p4125
asbasbasbasbasbasbasbasbasbasbasbasbasbsS'etype'
p4126
S"<type 'exceptions.TypeError'>"
p4127
sS'date'
p4128
S'Thu Jul  4 22:32:55 2013'
p4129
sS'response'
p4130
g57
(g58
g59
NtRp4131
(dp4132
g62
(dp4133
sg64
(lp4134
g57
(g66
g59
NtRp4135
(dp4136
g62
(dp4137
g70
I5
ssg71
Nsg64
(lp4138
g57
(g73
g59
NtRp4139
(dp4140
g62
(dp4141
sg71
g4135
sg64
(lp4142
g57
(g78
g59
NtRp4143
(dp4144
g62
(dp4145
g82
g83
ssg71
g4139
sg64
(lp4146
g155
asbag57
(g78
g59
NtRp4147
(dp4148
g62
(dp4149
g89
g90
ssg71
g4139
sg64
(lp4150
S':'
asbag57
(g78
g59
NtRp4151
(dp4152
g62
(dp4153
sg71
g4139
sg64
(lp4154
g57
(g58
g59
NtRp4155
(dp4156
g62
(dp4157
g70
I5
ssg71
g4151
sg64
(lp4158
S'<cStringIO.StringO object at 0xad59ae00>'
p4159
asbasbasbag57
(g73
g59
NtRp4160
(dp4161
g62
(dp4162
sg71
g4135
sg64
(lp4163
g57
(g78
g59
NtRp4164
(dp4165
g62
(dp4166
g82
g83
ssg71
g4160
sg64
(lp4167
g221
asbag57
(g78
g59
NtRp4168
(dp4169
g62
(dp4170
g89
g90
ssg71
g4160
sg64
(lp4171
S':'
asbag57
(g78
g59
NtRp4172
(dp4173
g62
(dp4174
sg71
g4160
sg64
(lp4175
g57
(g58
g59
NtRp4176
(dp4177
g62
(dp4178
g70
I5
ssg71
g4172
sg64
(lp4179
g57
(g66
g59
NtRp4180
(dp4181
g62
(dp4182
g70
I4
ssg71
Nsg64
(lp4183
g57
(g73
g59
NtRp4184
(dp4185
g62
(dp4186
sg71
g4180
sg64
(lp4187
g57
(g78
g59
NtRp4188
(dp4189
g62
(dp4190
g82
g83
ssg71
g4184
sg64
(lp4191
S'session_id_911_signin'
p4192
asbag57
(g78
g59
NtRp4193
(dp4194
g62
(dp4195
g89
g90
ssg71
g4184
sg64
(lp4196
S':'
asbag57
(g78
g59
NtRp4197
(dp4198
g62
(dp4199
sg71
g4184
sg64
(lp4200
g57
(g58
g59
NtRp4201
(dp4202
g62
(dp4203
g70
I4
ssg71
g4197
sg64
(lp4204
g57
(g66
g59
NtRp4205
(dp4206
g62
(dp4207
g70
I3
ssg71
Nsg64
(lp4208
g57
(g73
g59
NtRp4209
(dp4210
g62
(dp4211
sg71
g4205
sg64
(lp4212
g57
(g78
g59
NtRp4213
(dp4214
g62
(dp4215
g82
g83
ssg71
g4209
sg64
(lp4216
g271
asbag57
(g78
g59
NtRp4217
(dp4218
g62
(dp4219
g89
g90
ssg71
g4209
sg64
(lp4220
S':'
asbag57
(g78
g59
NtRp4221
(dp4222
g62
(dp4223
sg71
g4209
sg64
(lp4224
g57
(g58
g59
NtRp4225
(dp4226
g62
(dp4227
g70
I3
ssg71
g4221
sg64
(lp4228
S''
asbasbasbag57
(g73
g59
NtRp4229
(dp4230
g62
(dp4231
sg71
g4205
sg64
(lp4232
g57
(g78
g59
NtRp4233
(dp4234
g62
(dp4235
g82
g83
ssg71
g4229
sg64
(lp4236
g292
asbag57
(g78
g59
NtRp4237
(dp4238
g62
(dp4239
g89
g90
ssg71
g4229
sg64
(lp4240
S':'
asbag57
(g78
g59
NtRp4241
(dp4242
g62
(dp4243
sg71
g4229
sg64
(lp4244
g57
(g58
g59
NtRp4245
(dp4246
g62
(dp4247
g70
I3
ssg71
g4241
sg64
(lp4248
S''
asbasbasbag57
(g73
g59
NtRp4249
(dp4250
g62
(dp4251
sg71
g4205
sg64
(lp4252
g57
(g78
g59
NtRp4253
(dp4254
g62
(dp4255
g82
g83
ssg71
g4249
sg64
(lp4256
g313
asbag57
(g78
g59
NtRp4257
(dp4258
g62
(dp4259
g89
g90
ssg71
g4249
sg64
(lp4260
S':'
asbag57
(g78
g59
NtRp4261
(dp4262
g62
(dp4263
sg71
g4249
sg64
(lp4264
g57
(g58
g59
NtRp4265
(dp4266
g62
(dp4267
g70
I3
ssg71
g4261
sg64
(lp4268
S''
asbasbasbag57
(g73
g59
NtRp4269
(dp4270
g62
(dp4271
sg71
g4205
sg64
(lp4272
g57
(g78
g59
NtRp4273
(dp4274
g62
(dp4275
g82
g83
ssg71
g4269
sg64
(lp4276
g334
asbag57
(g78
g59
NtRp4277
(dp4278
g62
(dp4279
g89
g90
ssg71
g4269
sg64
(lp4280
S':'
asbag57
(g78
g59
NtRp4281
(dp4282
g62
(dp4283
sg71
g4269
sg64
(lp4284
g57
(g58
g59
NtRp4285
(dp4286
g62
(dp4287
g70
I3
ssg71
g4281
sg64
(lp4288
S''
asbasbasbag57
(g73
g59
NtRp4289
(dp4290
g62
(dp4291
sg71
g4205
sg64
(lp4292
g57
(g78
g59
NtRp4293
(dp4294
g62
(dp4295
g82
g83
ssg71
g4289
sg64
(lp4296
g355
asbag57
(g78
g59
NtRp4297
(dp4298
g62
(dp4299
g89
g90
ssg71
g4289
sg64
(lp4300
S':'
asbag57
(g78
g59
NtRp4301
(dp4302
g62
(dp4303
sg71
g4289
sg64
(lp4304
g57
(g58
g59
NtRp4305
(dp4306
g62
(dp4307
g70
I3
ssg71
g4301
sg64
(lp4308
S''
asbasbasbag57
(g73
g59
NtRp4309
(dp4310
g62
(dp4311
sg71
g4205
sg64
(lp4312
g57
(g78
g59
NtRp4313
(dp4314
g62
(dp4315
g82
g83
ssg71
g4309
sg64
(lp4316
g376
asbag57
(g78
g59
NtRp4317
(dp4318
g62
(dp4319
g89
g90
ssg71
g4309
sg64
(lp4320
S':'
asbag57
(g78
g59
NtRp4321
(dp4322
g62
(dp4323
sg71
g4309
sg64
(lp4324
g57
(g58
g59
NtRp4325
(dp4326
g62
(dp4327
g70
I3
ssg71
g4321
sg64
(lp4328
S'/'
asbasbasbag57
(g73
g59
NtRp4329
(dp4330
g62
(dp4331
sg71
g4205
sg64
(lp4332
g57
(g78
g59
NtRp4333
(dp4334
g62
(dp4335
g82
g83
ssg71
g4329
sg64
(lp4336
g397
asbag57
(g78
g59
NtRp4337
(dp4338
g62
(dp4339
g89
g90
ssg71
g4329
sg64
(lp4340
S':'
asbag57
(g78
g59
NtRp4341
(dp4342
g62
(dp4343
sg71
g4329
sg64
(lp4344
g57
(g58
g59
NtRp4345
(dp4346
g62
(dp4347
g70
I3
ssg71
g4341
sg64
(lp4348
S''
asbasbasbag57
(g73
g59
NtRp4349
(dp4350
g62
(dp4351
sg71
g4205
sg64
(lp4352
g57
(g78
g59
NtRp4353
(dp4354
g62
(dp4355
g82
g83
ssg71
g4349
sg64
(lp4356
g418
asbag57
(g78
g59
NtRp4357
(dp4358
g62
(dp4359
g89
g90
ssg71
g4349
sg64
(lp4360
S':'
asbag57
(g78
g59
NtRp4361
(dp4362
g62
(dp4363
sg71
g4349
sg64
(lp4364
g57
(g58
g59
NtRp4365
(dp4366
g62
(dp4367
g70
I3
ssg71
g4361
sg64
(lp4368
S''
asbasbasbasbasbasbasbasbasbasbasbag57
(g73
g59
NtRp4369
(dp4370
g62
(dp4371
sg71
g4135
sg64
(lp4372
g57
(g78
g59
NtRp4373
(dp4374
g62
(dp4375
g82
g83
ssg71
g4369
sg64
(lp4376
S'delimiters'
p4377
asbag57
(g78
g59
NtRp4378
(dp4379
g62
(dp4380
g89
g90
ssg71
g4369
sg64
(lp4381
S':'
asbag57
(g78
g59
NtRp4382
(dp4383
g62
(dp4384
sg71
g4369
sg64
(lp4385
g57
(g58
g59
NtRp4386
(dp4387
g62
(dp4388
g70
I5
ssg71
g4382
sg64
(lp4389
g57
(g66
g59
NtRp4390
(dp4391
g62
(dp4392
g70
I4
ssg71
Nsg64
(lp4393
g57
(g73
g59
NtRp4394
(dp4395
g62
(dp4396
sg71
g4390
sg64
(lp4397
g57
(g78
g59
NtRp4398
(dp4399
g62
(dp4400
sg71
g4394
sg64
(lp4401
g57
(g58
g59
NtRp4402
(dp4403
g62
(dp4404
g70
I4
ssg71
g4398
sg64
(lp4405
S'{{'
p4406
asbasbasbag57
(g73
g59
NtRp4407
(dp4408
g62
(dp4409
sg71
g4390
sg64
(lp4410
g57
(g78
g59
NtRp4411
(dp4412
g62
(dp4413
sg71
g4407
sg64
(lp4414
g57
(g58
g59
NtRp4415
(dp4416
g62
(dp4417
g70
I4
ssg71
g4411
sg64
(lp4418
S'}}'
p4419
asbasbasbasbasbasbasbag57
(g73
g59
NtRp4420
(dp4421
g62
(dp4422
sg71
g4135
sg64
(lp4423
g57
(g78
g59
NtRp4424
(dp4425
g62
(dp4426
g82
g83
ssg71
g4420
sg64
(lp4427
S'files'
p4428
asbag57
(g78
g59
NtRp4429
(dp4430
g62
(dp4431
g89
g90
ssg71
g4420
sg64
(lp4432
S':'
asbag57
(g78
g59
NtRp4433
(dp4434
g62
(dp4435
sg71
g4420
sg64
(lp4436
g57
(g58
g59
NtRp4437
(dp4438
g62
(dp4439
g70
I5
ssg71
g4433
sg64
(lp4440
g57
(g66
g59
NtRp4441
(dp4442
g62
(dp4443
g70
I4
ssg71
Nsg64
(lp4444
sbasbasbasbag57
(g73
g59
NtRp4445
(dp4446
g62
(dp4447
sg71
g4135
sg64
(lp4448
g57
(g78
g59
NtRp4449
(dp4450
g62
(dp4451
g82
g83
ssg71
g4445
sg64
(lp4452
S'flash'
p4453
asbag57
(g78
g59
NtRp4454
(dp4455
g62
(dp4456
g89
g90
ssg71
g4445
sg64
(lp4457
S':'
asbag57
(g78
g59
NtRp4458
(dp4459
g62
(dp4460
sg71
g4445
sg64
(lp4461
g57
(g58
g59
NtRp4462
(dp4463
g62
(dp4464
g70
I5
ssg71
g4458
sg64
(lp4465
S''
asbasbasbag57
(g73
g59
NtRp4466
(dp4467
g62
(dp4468
sg71
g4135
sg64
(lp4469
g57
(g78
g59
NtRp4470
(dp4471
g62
(dp4472
g82
g83
ssg71
g4466
sg64
(lp4473
S'generic_patterns'
p4474
asbag57
(g78
g59
NtRp4475
(dp4476
g62
(dp4477
g89
g90
ssg71
g4466
sg64
(lp4478
S':'
asbag57
(g78
g59
NtRp4479
(dp4480
g62
(dp4481
sg71
g4466
sg64
(lp4482
g57
(g58
g59
NtRp4483
(dp4484
g62
(dp4485
g70
I5
ssg71
g4479
sg64
(lp4486
g57
(g66
g59
NtRp4487
(dp4488
g62
(dp4489
g70
I4
ssg71
Nsg64
(lp4490
g57
(g73
g59
NtRp4491
(dp4492
g62
(dp4493
sg71
g4487
sg64
(lp4494
g57
(g78
g59
NtRp4495
(dp4496
g62
(dp4497
sg71
g4491
sg64
(lp4498
g57
(g58
g59
NtRp4499
(dp4500
g62
(dp4501
g70
I4
ssg71
g4495
sg64
(lp4502
S'*'
asbasbasbasbasbasbasbag57
(g73
g59
NtRp4503
(dp4504
g62
(dp4505
sg71
g4135
sg64
(lp4506
g57
(g78
g59
NtRp4507
(dp4508
g62
(dp4509
g82
g83
ssg71
g4503
sg64
(lp4510
S'headers'
p4511
asbag57
(g78
g59
NtRp4512
(dp4513
g62
(dp4514
g89
g90
ssg71
g4503
sg64
(lp4515
S':'
asbag57
(g78
g59
NtRp4516
(dp4517
g62
(dp4518
sg71
g4503
sg64
(lp4519
g57
(g58
g59
NtRp4520
(dp4521
g62
(dp4522
g70
I5
ssg71
g4516
sg64
(lp4523
g57
(g66
g59
NtRp4524
(dp4525
g62
(dp4526
g70
I4
ssg71
Nsg64
(lp4527
g57
(g73
g59
NtRp4528
(dp4529
g62
(dp4530
sg71
g4524
sg64
(lp4531
g57
(g78
g59
NtRp4532
(dp4533
g62
(dp4534
g82
g83
ssg71
g4528
sg64
(lp4535
S'Cache-Control'
p4536
asbag57
(g78
g59
NtRp4537
(dp4538
g62
(dp4539
g89
g90
ssg71
g4528
sg64
(lp4540
S':'
asbag57
(g78
g59
NtRp4541
(dp4542
g62
(dp4543
sg71
g4528
sg64
(lp4544
g57
(g58
g59
NtRp4545
(dp4546
g62
(dp4547
g70
I4
ssg71
g4541
sg64
(lp4548
S'no-store, no-cache, must-revalidate, post-check=0, pre-check=0'
p4549
asbasbasbag57
(g73
g59
NtRp4550
(dp4551
g62
(dp4552
sg71
g4524
sg64
(lp4553
g57
(g78
g59
NtRp4554
(dp4555
g62
(dp4556
g82
g83
ssg71
g4550
sg64
(lp4557
S'Content-Type'
p4558
asbag57
(g78
g59
NtRp4559
(dp4560
g62
(dp4561
g89
g90
ssg71
g4550
sg64
(lp4562
S':'
asbag57
(g78
g59
NtRp4563
(dp4564
g62
(dp4565
sg71
g4550
sg64
(lp4566
g57
(g58
g59
NtRp4567
(dp4568
g62
(dp4569
g70
I4
ssg71
g4563
sg64
(lp4570
S'text/html; charset=utf-8'
p4571
asbasbasbag57
(g73
g59
NtRp4572
(dp4573
g62
(dp4574
sg71
g4524
sg64
(lp4575
g57
(g78
g59
NtRp4576
(dp4577
g62
(dp4578
g82
g83
ssg71
g4572
sg64
(lp4579
S'Expires'
p4580
asbag57
(g78
g59
NtRp4581
(dp4582
g62
(dp4583
g89
g90
ssg71
g4572
sg64
(lp4584
S':'
asbag57
(g78
g59
NtRp4585
(dp4586
g62
(dp4587
sg71
g4572
sg64
(lp4588
g57
(g58
g59
NtRp4589
(dp4590
g62
(dp4591
g70
I4
ssg71
g4585
sg64
(lp4592
S'Thu, 04 Jul 2013 17:02:55 GMT'
p4593
asbasbasbag57
(g73
g59
NtRp4594
(dp4595
g62
(dp4596
sg71
g4524
sg64
(lp4597
g57
(g78
g59
NtRp4598
(dp4599
g62
(dp4600
g82
g83
ssg71
g4594
sg64
(lp4601
S'Pragma'
p4602
asbag57
(g78
g59
NtRp4603
(dp4604
g62
(dp4605
g89
g90
ssg71
g4594
sg64
(lp4606
S':'
asbag57
(g78
g59
NtRp4607
(dp4608
g62
(dp4609
sg71
g4594
sg64
(lp4610
g57
(g58
g59
NtRp4611
(dp4612
g62
(dp4613
g70
I4
ssg71
g4607
sg64
(lp4614
S'no-cache'
p4615
asbasbasbag57
(g73
g59
NtRp4616
(dp4617
g62
(dp4618
sg71
g4524
sg64
(lp4619
g57
(g78
g59
NtRp4620
(dp4621
g62
(dp4622
g82
g83
ssg71
g4616
sg64
(lp4623
S'X-Powered-By'
p4624
asbag57
(g78
g59
NtRp4625
(dp4626
g62
(dp4627
g89
g90
ssg71
g4616
sg64
(lp4628
S':'
asbag57
(g78
g59
NtRp4629
(dp4630
g62
(dp4631
sg71
g4616
sg64
(lp4632
g57
(g58
g59
NtRp4633
(dp4634
g62
(dp4635
g70
I4
ssg71
g4629
sg64
(lp4636
S'web2py'
p4637
asbasbasbasbasbasbasbag57
(g73
g59
NtRp4638
(dp4639
g62
(dp4640
sg71
g4135
sg64
(lp4641
g57
(g78
g59
NtRp4642
(dp4643
g62
(dp4644
g82
g83
ssg71
g4638
sg64
(lp4645
S'menu'
p4646
asbag57
(g78
g59
NtRp4647
(dp4648
g62
(dp4649
g89
g90
ssg71
g4638
sg64
(lp4650
S':'
asbag57
(g78
g59
NtRp4651
(dp4652
g62
(dp4653
sg71
g4638
sg64
(lp4654
g57
(g58
g59
NtRp4655
(dp4656
g62
(dp4657
g70
I5
ssg71
g4651
sg64
(lp4658
g57
(g66
g59
NtRp4659
(dp4660
g62
(dp4661
g70
I4
ssg71
Nsg64
(lp4662
g57
(g73
g59
NtRp4663
(dp4664
g62
(dp4665
sg71
g4659
sg64
(lp4666
g57
(g78
g59
NtRp4667
(dp4668
g62
(dp4669
sg71
g4663
sg64
(lp4670
g57
(g58
g59
NtRp4671
(dp4672
g62
(dp4673
g70
I4
ssg71
g4667
sg64
(lp4674
g57
(g66
g59
NtRp4675
(dp4676
g62
(dp4677
g70
I3
ssg71
Nsg64
(lp4678
g57
(g73
g59
NtRp4679
(dp4680
g62
(dp4681
sg71
g4675
sg64
(lp4682
g57
(g78
g59
NtRp4683
(dp4684
g62
(dp4685
sg71
g4679
sg64
(lp4686
g57
(g58
g59
NtRp4687
(dp4688
g62
(dp4689
g70
I3
ssg71
g4683
sg64
(lp4690
cgluon.languages
lazyT_unpickle
p4691
(S't\x04\x00\x00\x00Home'
tRp4692
asbasbasbag57
(g73
g59
NtRp4693
(dp4694
g62
(dp4695
sg71
g4675
sg64
(lp4696
g57
(g78
g59
NtRp4697
(dp4698
g62
(dp4699
sg71
g4693
sg64
(lp4700
g57
(g58
g59
NtRp4701
(dp4702
g62
(dp4703
g70
I3
ssg71
g4697
sg64
(lp4704
g100
asbasbasbag57
(g73
g59
NtRp4705
(dp4706
g62
(dp4707
sg71
g4675
sg64
(lp4708
g57
(g78
g59
NtRp4709
(dp4710
g62
(dp4711
sg71
g4705
sg64
(lp4712
g57
(g58
g59
NtRp4713
(dp4714
g62
(dp4715
g70
I3
ssg71
g4709
sg64
(lp4716
S'/911_signin/default/index'
p4717
asbasbasbag57
(g73
g59
NtRp4718
(dp4719
g62
(dp4720
sg71
g4675
sg64
(lp4721
g57
(g78
g59
NtRp4722
(dp4723
g62
(dp4724
sg71
g4718
sg64
(lp4725
g57
(g58
g59
NtRp4726
(dp4727
g62
(dp4728
g70
I3
ssg71
g4722
sg64
(lp4729
g57
(g66
g59
NtRp4730
(dp4731
g62
(dp4732
g70
I2
ssg71
Nsg64
(lp4733
sbasbasbasbasbasbasbasbag57
(g73
g59
NtRp4734
(dp4735
g62
(dp4736
sg71
g4659
sg64
(lp4737
g57
(g78
g59
NtRp4738
(dp4739
g62
(dp4740
sg71
g4734
sg64
(lp4741
g57
(g58
g59
NtRp4742
(dp4743
g62
(dp4744
g70
I4
ssg71
g4738
sg64
(lp4745
g57
(g66
g59
NtRp4746
(dp4747
g62
(dp4748
g70
I3
ssg71
Nsg64
(lp4749
g57
(g73
g59
NtRp4750
(dp4751
g62
(dp4752
sg71
g4746
sg64
(lp4753
g57
(g78
g59
NtRp4754
(dp4755
g62
(dp4756
sg71
g4750
sg64
(lp4757
g57
(g58
g59
NtRp4758
(dp4759
g62
(dp4760
g70
I3
ssg71
g4754
sg64
(lp4761
g57
(cgluon.html
SPAN
p4762
g59
NtRp4763
(dp4764
g62
(dp4765
g82
S'color:yellow'
p4766
ssg71
Nsg64
(lp4767
g4637
asbasbasbasbag57
(g73
g59
NtRp4768
(dp4769
g62
(dp4770
sg71
g4746
sg64
(lp4771
g57
(g78
g59
NtRp4772
(dp4773
g62
(dp4774
sg71
g4768
sg64
(lp4775
g57
(g58
g59
NtRp4776
(dp4777
g62
(dp4778
g70
I3
ssg71
g4772
sg64
(lp4779
g100
asbasbasbag57
(g73
g59
NtRp4780
(dp4781
g62
(dp4782
sg71
g4746
sg64
(lp4783
g57
(g78
g59
NtRp4784
(dp4785
g62
(dp4786
sg71
g4780
sg64
(lp4787
g57
(g58
g59
NtRp4788
(dp4789
g62
(dp4790
g70
I3
ssg71
g4784
sg64
(lp4791
S'None'
p4792
asbasbasbag57
(g73
g59
NtRp4793
(dp4794
g62
(dp4795
sg71
g4746
sg64
(lp4796
g57
(g78
g59
NtRp4797
(dp4798
g62
(dp4799
sg71
g4793
sg64
(lp4800
g57
(g58
g59
NtRp4801
(dp4802
g62
(dp4803
g70
I3
ssg71
g4797
sg64
(lp4804
g57
(g66
g59
NtRp4805
(dp4806
g62
(dp4807
g70
I2
ssg71
Nsg64
(lp4808
g57
(g73
g59
NtRp4809
(dp4810
g62
(dp4811
sg71
g4805
sg64
(lp4812
g57
(g78
g59
NtRp4813
(dp4814
g62
(dp4815
sg71
g4809
sg64
(lp4816
g57
(g58
g59
NtRp4817
(dp4818
g62
(dp4819
g70
I2
ssg71
g4813
sg64
(lp4820
g57
(g66
g59
NtRp4821
(dp4822
g62
(dp4823
g70
I1
ssg71
Nsg64
(lp4824
g57
(g73
g59
NtRp4825
(dp4826
g62
(dp4827
sg71
g4821
sg64
(lp4828
g57
(g78
g59
NtRp4829
(dp4830
g62
(dp4831
sg71
g4825
sg64
(lp4832
g57
(g58
g59
NtRp4833
(dp4834
g62
(dp4835
g70
I1
ssg71
g4829
sg64
(lp4836
g4691
(S's\x08\x00\x00\x00My Sites'
tRp4837
asbasbasbag57
(g73
g59
NtRp4838
(dp4839
g62
(dp4840
sg71
g4821
sg64
(lp4841
g57
(g78
g59
NtRp4842
(dp4843
g62
(dp4844
sg71
g4838
sg64
(lp4845
g57
(g58
g59
NtRp4846
(dp4847
g62
(dp4848
g70
I1
ssg71
g4842
sg64
(lp4849
I00
asbasbasbag57
(g73
g59
NtRp4850
(dp4851
g62
(dp4852
sg71
g4821
sg64
(lp4853
g57
(g78
g59
NtRp4854
(dp4855
g62
(dp4856
sg71
g4850
sg64
(lp4857
g57
(g58
g59
NtRp4858
(dp4859
g62
(dp4860
g70
I1
ssg71
g4854
sg64
(lp4861
S'/admin/default/site'
p4862
asbasbasbasbasbasbasbag57
(g73
g59
NtRp4863
(dp4864
g62
(dp4865
sg71
g4805
sg64
(lp4866
g57
(g78
g59
NtRp4867
(dp4868
g62
(dp4869
sg71
g4863
sg64
(lp4870
g57
(g58
g59
NtRp4871
(dp4872
g62
(dp4873
g70
I2
ssg71
g4867
sg64
(lp4874
g57
(g66
g59
NtRp4875
(dp4876
g62
(dp4877
g70
I1
ssg71
Nsg64
(lp4878
g57
(g73
g59
NtRp4879
(dp4880
g62
(dp4881
sg71
g4875
sg64
(lp4882
g57
(g78
g59
NtRp4883
(dp4884
g62
(dp4885
sg71
g4879
sg64
(lp4886
g57
(g58
g59
NtRp4887
(dp4888
g62
(dp4889
g70
I1
ssg71
g4883
sg64
(lp4890
g4691
(S's\x08\x00\x00\x00This App'
tRp4891
asbasbasbag57
(g73
g59
NtRp4892
(dp4893
g62
(dp4894
sg71
g4875
sg64
(lp4895
g57
(g78
g59
NtRp4896
(dp4897
g62
(dp4898
sg71
g4892
sg64
(lp4899
g57
(g58
g59
NtRp4900
(dp4901
g62
(dp4902
g70
I1
ssg71
g4896
sg64
(lp4903
I00
asbasbasbag57
(g73
g59
NtRp4904
(dp4905
g62
(dp4906
sg71
g4875
sg64
(lp4907
g57
(g78
g59
NtRp4908
(dp4909
g62
(dp4910
sg71
g4904
sg64
(lp4911
g57
(g58
g59
NtRp4912
(dp4913
g62
(dp4914
g70
I1
ssg71
g4908
sg64
(lp4915
S'/admin/default/design/911_signin'
p4916
asbasbasbag57
(g73
g59
NtRp4917
(dp4918
g62
(dp4919
sg71
g4875
sg64
(lp4920
g57
(g78
g59
NtRp4921
(dp4922
g62
(dp4923
sg71
g4917
sg64
(lp4924
g57
(g58
g59
NtRp4925
(dp4926
g62
(dp4927
g70
I1
ssg71
g4921
sg64
(lp4928
(lp4929
(g4691
(S't\n\x00\x00\x00Controller'
tRp4930
I00
S'/admin/default/edit/911_signin/controllers/default.py'
tp4931
a(g4691
(S't\x04\x00\x00\x00View'
tRp4932
I00
S'/admin/default/edit/911_signin/views/default/events.html'
tp4933
a(g4691
(S't\x06\x00\x00\x00Layout'
tRp4934
I00
S'/admin/default/edit/911_signin/views/layout.html'
tp4935
a(g4691
(S't\n\x00\x00\x00Stylesheet'
tRp4936
I00
S'/admin/default/edit/911_signin/static/css/web2py.css'
tp4937
a(g4691
(S's\x08\x00\x00\x00DB Model'
tRp4938
I00
S'/admin/default/edit/911_signin/models/db.py'
tp4939
a(g4691
(S's\n\x00\x00\x00Menu Model'
tRp4940
I00
S'/admin/default/edit/911_signin/models/menu.py'
tp4941
a(g4691
(S't\x08\x00\x00\x00Database'
tRp4942
I00
S'/911_signin/appadmin/index'
tp4943
a(g4691
(S't\x06\x00\x00\x00Errors'
tRp4944
I00
S'/admin/default/errors/911_signin'
tp4945
a(g4691
(S't\x05\x00\x00\x00About'
tRp4946
I00
S'/admin/default/about/911_signin'
tp4947
aasbasbasbasbasbasbasbag57
(g73
g59
NtRp4948
(dp4949
g62
(dp4950
sg71
g4805
sg64
(lp4951
g57
(g78
g59
NtRp4952
(dp4953
g62
(dp4954
sg71
g4948
sg64
(lp4955
g57
(g58
g59
NtRp4956
(dp4957
g62
(dp4958
g70
I2
ssg71
g4952
sg64
(lp4959
g57
(g66
g59
NtRp4960
(dp4961
g62
(dp4962
g70
I1
ssg71
Nsg64
(lp4963
g57
(g73
g59
NtRp4964
(dp4965
g62
(dp4966
sg71
g4960
sg64
(lp4967
g57
(g78
g59
NtRp4968
(dp4969
g62
(dp4970
sg71
g4964
sg64
(lp4971
g57
(g58
g59
NtRp4972
(dp4973
g62
(dp4974
g70
I1
ssg71
g4968
sg64
(lp4975
S'web2py.com'
p4976
asbasbasbag57
(g73
g59
NtRp4977
(dp4978
g62
(dp4979
sg71
g4960
sg64
(lp4980
g57
(g78
g59
NtRp4981
(dp4982
g62
(dp4983
sg71
g4977
sg64
(lp4984
g57
(g58
g59
NtRp4985
(dp4986
g62
(dp4987
g70
I1
ssg71
g4981
sg64
(lp4988
I00
asbasbasbag57
(g73
g59
NtRp4989
(dp4990
g62
(dp4991
sg71
g4960
sg64
(lp4992
g57
(g78
g59
NtRp4993
(dp4994
g62
(dp4995
sg71
g4989
sg64
(lp4996
g57
(g58
g59
NtRp4997
(dp4998
g62
(dp4999
g70
I1
ssg71
g4993
sg64
(lp5000
S'http://www.web2py.com'
p5001
asbasbasbag57
(g73
g59
NtRp5002
(dp5003
g62
(dp5004
sg71
g4960
sg64
(lp5005
g57
(g78
g59
NtRp5006
(dp5007
g62
(dp5008
sg71
g5002
sg64
(lp5009
g57
(g58
g59
NtRp5010
(dp5011
g62
(dp5012
g70
I1
ssg71
g5006
sg64
(lp5013
(lp5014
(g4691
(S't\x08\x00\x00\x00Download'
tRp5015
I00
S'http://www.web2py.com/examples/default/download'
p5016
tp5017
a(g4691
(S't\x07\x00\x00\x00Support'
tRp5018
I00
S'http://www.web2py.com/examples/default/support'
p5019
tp5020
a(g4691
(S't\x04\x00\x00\x00Demo'
tRp5021
I00
S'http://web2py.com/demo_admin'
p5022
tp5023
a(g4691
(S's\x0e\x00\x00\x00Quick Examples'
tRp5024
I00
S'http://web2py.com/examples/default/examples'
p5025
tp5026
a(g4691
(S't\x03\x00\x00\x00FAQ'
tRp5027
I00
S'http://web2py.com/AlterEgo'
p5028
tp5029
a(g4691
(S't\x06\x00\x00\x00Videos'
tRp5030
I00
S'http://www.web2py.com/examples/default/videos/'
p5031
tp5032
a(g4691
(S's\x11\x00\x00\x00Free Applications'
tRp5033
I00
S'http://web2py.com/appliances'
p5034
tp5035
a(g4691
(S't\x07\x00\x00\x00Plugins'
tRp5036
I00
S'http://web2py.com/plugins'
p5037
tp5038
a(g4691
(S't\x07\x00\x00\x00Layouts'
tRp5039
I00
S'http://web2py.com/layouts'
p5040
tp5041
a(g4691
(S't\x07\x00\x00\x00Recipes'
tRp5042
I00
S'http://web2pyslices.com/'
p5043
tp5044
a(g4691
(S't\x08\x00\x00\x00Semantic'
tRp5045
I00
S'http://web2py.com/semantic'
p5046
tp5047
aasbasbasbasbasbasbasbag57
(g73
g59
NtRp5048
(dp5049
g62
(dp5050
sg71
g4805
sg64
(lp5051
g57
(g78
g59
NtRp5052
(dp5053
g62
(dp5054
sg71
g5048
sg64
(lp5055
g57
(g58
g59
NtRp5056
(dp5057
g62
(dp5058
g70
I2
ssg71
g5052
sg64
(lp5059
g57
(g66
g59
NtRp5060
(dp5061
g62
(dp5062
g70
I1
ssg71
Nsg64
(lp5063
g57
(g73
g59
NtRp5064
(dp5065
g62
(dp5066
sg71
g5060
sg64
(lp5067
g57
(g78
g59
NtRp5068
(dp5069
g62
(dp5070
sg71
g5064
sg64
(lp5071
g57
(g58
g59
NtRp5072
(dp5073
g62
(dp5074
g70
I1
ssg71
g5068
sg64
(lp5075
g4691
(S't\r\x00\x00\x00Documentation'
tRp5076
asbasbasbag57
(g73
g59
NtRp5077
(dp5078
g62
(dp5079
sg71
g5060
sg64
(lp5080
g57
(g78
g59
NtRp5081
(dp5082
g62
(dp5083
sg71
g5077
sg64
(lp5084
g57
(g58
g59
NtRp5085
(dp5086
g62
(dp5087
g70
I1
ssg71
g5081
sg64
(lp5088
I00
asbasbasbag57
(g73
g59
NtRp5089
(dp5090
g62
(dp5091
sg71
g5060
sg64
(lp5092
g57
(g78
g59
NtRp5093
(dp5094
g62
(dp5095
sg71
g5089
sg64
(lp5096
g57
(g58
g59
NtRp5097
(dp5098
g62
(dp5099
g70
I1
ssg71
g5093
sg64
(lp5100
S'http://www.web2py.com/book'
p5101
asbasbasbag57
(g73
g59
NtRp5102
(dp5103
g62
(dp5104
sg71
g5060
sg64
(lp5105
g57
(g78
g59
NtRp5106
(dp5107
g62
(dp5108
sg71
g5102
sg64
(lp5109
g57
(g58
g59
NtRp5110
(dp5111
g62
(dp5112
g70
I1
ssg71
g5106
sg64
(lp5113
(lp5114
(g4691
(S't\x07\x00\x00\x00Preface'
tRp5115
I00
S'http://www.web2py.com/book/default/chapter/00'
p5116
tp5117
a(g4691
(S't\x0c\x00\x00\x00Introduction'
tRp5118
I00
S'http://www.web2py.com/book/default/chapter/01'
p5119
tp5120
a(g4691
(S't\x06\x00\x00\x00Python'
tRp5121
I00
S'http://www.web2py.com/book/default/chapter/02'
p5122
tp5123
a(g4691
(S't\x08\x00\x00\x00Overview'
tRp5124
I00
S'http://www.web2py.com/book/default/chapter/03'
p5125
tp5126
a(g4691
(S's\x08\x00\x00\x00The Core'
tRp5127
I00
S'http://www.web2py.com/book/default/chapter/04'
p5128
tp5129
a(g4691
(S's\t\x00\x00\x00The Views'
tRp5130
I00
S'http://www.web2py.com/book/default/chapter/05'
p5131
tp5132
a(g4691
(S't\x08\x00\x00\x00Database'
tRp5133
I00
S'http://www.web2py.com/book/default/chapter/06'
p5134
tp5135
a(g4691
(S's\x14\x00\x00\x00Forms and Validators'
tRp5136
I00
S'http://www.web2py.com/book/default/chapter/07'
p5137
tp5138
a(g4691
(S's\r\x00\x00\x00Email and SMS'
tRp5139
I00
S'http://www.web2py.com/book/default/chapter/08'
p5140
tp5141
a(g4691
(S's\x0e\x00\x00\x00Access Control'
tRp5142
I00
S'http://www.web2py.com/book/default/chapter/09'
p5143
tp5144
a(g4691
(S't\x08\x00\x00\x00Services'
tRp5145
I00
S'http://www.web2py.com/book/default/chapter/10'
p5146
tp5147
a(g4691
(S's\x0c\x00\x00\x00Ajax Recipes'
tRp5148
I00
S'http://www.web2py.com/book/default/chapter/11'
p5149
tp5150
a(g4691
(S's\x16\x00\x00\x00Components and Plugins'
tRp5151
I00
S'http://www.web2py.com/book/default/chapter/12'
p5152
tp5153
a(g4691
(S's\x12\x00\x00\x00Deployment Recipes'
tRp5154
I00
S'http://www.web2py.com/book/default/chapter/13'
p5155
tp5156
a(g4691
(S's\r\x00\x00\x00Other Recipes'
tRp5157
I00
S'http://www.web2py.com/book/default/chapter/14'
p5158
tp5159
a(g4691
(S's\r\x00\x00\x00Buy this book'
tRp5160
I00
S'http://stores.lulu.com/web2py'
p5161
tp5162
aasbasbasbasbasbasbasbag57
(g73
g59
NtRp5163
(dp5164
g62
(dp5165
sg71
g4805
sg64
(lp5166
g57
(g78
g59
NtRp5167
(dp5168
g62
(dp5169
sg71
g5163
sg64
(lp5170
g57
(g58
g59
NtRp5171
(dp5172
g62
(dp5173
g70
I2
ssg71
g5167
sg64
(lp5174
g57
(g66
g59
NtRp5175
(dp5176
g62
(dp5177
g70
I1
ssg71
Nsg64
(lp5178
g57
(g73
g59
NtRp5179
(dp5180
g62
(dp5181
sg71
g5175
sg64
(lp5182
g57
(g78
g59
NtRp5183
(dp5184
g62
(dp5185
sg71
g5179
sg64
(lp5186
g57
(g58
g59
NtRp5187
(dp5188
g62
(dp5189
g70
I1
ssg71
g5183
sg64
(lp5190
g4691
(S't\t\x00\x00\x00Community'
tRp5191
asbasbasbag57
(g73
g59
NtRp5192
(dp5193
g62
(dp5194
sg71
g5175
sg64
(lp5195
g57
(g78
g59
NtRp5196
(dp5197
g62
(dp5198
sg71
g5192
sg64
(lp5199
g57
(g58
g59
NtRp5200
(dp5201
g62
(dp5202
g70
I1
ssg71
g5196
sg64
(lp5203
I00
asbasbasbag57
(g73
g59
NtRp5204
(dp5205
g62
(dp5206
sg71
g5175
sg64
(lp5207
g57
(g78
g59
NtRp5208
(dp5209
g62
(dp5210
sg71
g5204
sg64
(lp5211
g57
(g58
g59
NtRp5212
(dp5213
g62
(dp5214
g70
I1
ssg71
g5208
sg64
(lp5215
Nasbasbasbag57
(g73
g59
NtRp5216
(dp5217
g62
(dp5218
sg71
g5175
sg64
(lp5219
g57
(g78
g59
NtRp5220
(dp5221
g62
(dp5222
sg71
g5216
sg64
(lp5223
g57
(g58
g59
NtRp5224
(dp5225
g62
(dp5226
g70
I1
ssg71
g5220
sg64
(lp5227
(lp5228
(g4691
(S't\x06\x00\x00\x00Groups'
tRp5229
I00
S'http://www.web2py.com/examples/default/usergroups'
p5230
tp5231
a(g4691
(S't\x07\x00\x00\x00Twitter'
tRp5232
I00
S'http://twitter.com/web2py'
p5233
tp5234
a(g4691
(S's\t\x00\x00\x00Live Chat'
tRp5235
I00
S'http://webchat.freenode.net/?channels=web2py'
p5236
tp5237
aasbasbasbasbasbasbasbag57
(g73
g59
NtRp5238
(dp5239
g62
(dp5240
sg71
g4805
sg64
(lp5241
g57
(g78
g59
NtRp5242
(dp5243
g62
(dp5244
sg71
g5238
sg64
(lp5245
g57
(g58
g59
NtRp5246
(dp5247
g62
(dp5248
g70
I2
ssg71
g5242
sg64
(lp5249
g57
(g66
g59
NtRp5250
(dp5251
g62
(dp5252
g70
I1
ssg71
Nsg64
(lp5253
g57
(g73
g59
NtRp5254
(dp5255
g62
(dp5256
sg71
g5250
sg64
(lp5257
g57
(g78
g59
NtRp5258
(dp5259
g62
(dp5260
sg71
g5254
sg64
(lp5261
g57
(g58
g59
NtRp5262
(dp5263
g62
(dp5264
g70
I1
ssg71
g5258
sg64
(lp5265
g4691
(S't\x07\x00\x00\x00Plugins'
tRp5266
asbasbasbag57
(g73
g59
NtRp5267
(dp5268
g62
(dp5269
sg71
g5250
sg64
(lp5270
g57
(g78
g59
NtRp5271
(dp5272
g62
(dp5273
sg71
g5267
sg64
(lp5274
g57
(g58
g59
NtRp5275
(dp5276
g62
(dp5277
g70
I1
ssg71
g5271
sg64
(lp5278
I00
asbasbasbag57
(g73
g59
NtRp5279
(dp5280
g62
(dp5281
sg71
g5250
sg64
(lp5282
g57
(g78
g59
NtRp5283
(dp5284
g62
(dp5285
sg71
g5279
sg64
(lp5286
g57
(g58
g59
NtRp5287
(dp5288
g62
(dp5289
g70
I1
ssg71
g5283
sg64
(lp5290
Nasbasbasbag57
(g73
g59
NtRp5291
(dp5292
g62
(dp5293
sg71
g5250
sg64
(lp5294
g57
(g78
g59
NtRp5295
(dp5296
g62
(dp5297
sg71
g5291
sg64
(lp5298
g57
(g58
g59
NtRp5299
(dp5300
g62
(dp5301
g70
I1
ssg71
g5295
sg64
(lp5302
(lp5303
(S'plugin_wiki'
p5304
I00
S'http://web2py.com/examples/default/download'
p5305
tp5306
a(g4691
(S's\r\x00\x00\x00Other Plugins'
tRp5307
I00
g5037
tp5308
a(g4691
(S's\x0e\x00\x00\x00Layout Plugins'
tRp5309
I00
g5040
tp5310
aasbasbasbasbasbasbasbasbasbasbasbasbasbasbasbasbasbasbasbag57
(g73
g59
NtRp5311
(dp5312
g62
(dp5313
sg71
g4135
sg64
(lp5314
g57
(g78
g59
NtRp5315
(dp5316
g62
(dp5317
g82
g83
ssg71
g5311
sg64
(lp5318
S'meta'
p5319
asbag57
(g78
g59
NtRp5320
(dp5321
g62
(dp5322
g89
g90
ssg71
g5311
sg64
(lp5323
S':'
asbag57
(g78
g59
NtRp5324
(dp5325
g62
(dp5326
sg71
g5311
sg64
(lp5327
g57
(g58
g59
NtRp5328
(dp5329
g62
(dp5330
g70
I5
ssg71
g5324
sg64
(lp5331
g57
(g66
g59
NtRp5332
(dp5333
g62
(dp5334
g70
I4
ssg71
Nsg64
(lp5335
g57
(g73
g59
NtRp5336
(dp5337
g62
(dp5338
sg71
g5332
sg64
(lp5339
g57
(g78
g59
NtRp5340
(dp5341
g62
(dp5342
g82
g83
ssg71
g5336
sg64
(lp5343
S'author'
p5344
asbag57
(g78
g59
NtRp5345
(dp5346
g62
(dp5347
g89
g90
ssg71
g5336
sg64
(lp5348
S':'
asbag57
(g78
g59
NtRp5349
(dp5350
g62
(dp5351
sg71
g5336
sg64
(lp5352
g57
(g58
g59
NtRp5353
(dp5354
g62
(dp5355
g70
I4
ssg71
g5349
sg64
(lp5356
S'Your Name <you@example.com>'
p5357
asbasbasbag57
(g73
g59
NtRp5358
(dp5359
g62
(dp5360
sg71
g5332
sg64
(lp5361
g57
(g78
g59
NtRp5362
(dp5363
g62
(dp5364
g82
g83
ssg71
g5358
sg64
(lp5365
S'copyright'
p5366
asbag57
(g78
g59
NtRp5367
(dp5368
g62
(dp5369
g89
g90
ssg71
g5358
sg64
(lp5370
S':'
asbag57
(g78
g59
NtRp5371
(dp5372
g62
(dp5373
sg71
g5358
sg64
(lp5374
g57
(g58
g59
NtRp5375
(dp5376
g62
(dp5377
g70
I4
ssg71
g5371
sg64
(lp5378
S'Copyright 2011'
p5379
asbasbasbag57
(g73
g59
NtRp5380
(dp5381
g62
(dp5382
sg71
g5332
sg64
(lp5383
g57
(g78
g59
NtRp5384
(dp5385
g62
(dp5386
g82
g83
ssg71
g5380
sg64
(lp5387
S'description'
p5388
asbag57
(g78
g59
NtRp5389
(dp5390
g62
(dp5391
g89
g90
ssg71
g5380
sg64
(lp5392
S':'
asbag57
(g78
g59
NtRp5393
(dp5394
g62
(dp5395
sg71
g5380
sg64
(lp5396
g57
(g58
g59
NtRp5397
(dp5398
g62
(dp5399
g70
I4
ssg71
g5393
sg64
(lp5400
S'a cool new app'
p5401
asbasbasbag57
(g73
g59
NtRp5402
(dp5403
g62
(dp5404
sg71
g5332
sg64
(lp5405
g57
(g78
g59
NtRp5406
(dp5407
g62
(dp5408
g82
g83
ssg71
g5402
sg64
(lp5409
S'generator'
p5410
asbag57
(g78
g59
NtRp5411
(dp5412
g62
(dp5413
g89
g90
ssg71
g5402
sg64
(lp5414
S':'
asbag57
(g78
g59
NtRp5415
(dp5416
g62
(dp5417
sg71
g5402
sg64
(lp5418
g57
(g58
g59
NtRp5419
(dp5420
g62
(dp5421
g70
I4
ssg71
g5415
sg64
(lp5422
S'Web2py Web Framework'
p5423
asbasbasbag57
(g73
g59
NtRp5424
(dp5425
g62
(dp5426
sg71
g5332
sg64
(lp5427
g57
(g78
g59
NtRp5428
(dp5429
g62
(dp5430
g82
g83
ssg71
g5424
sg64
(lp5431
S'keywords'
p5432
asbag57
(g78
g59
NtRp5433
(dp5434
g62
(dp5435
g89
g90
ssg71
g5424
sg64
(lp5436
S':'
asbag57
(g78
g59
NtRp5437
(dp5438
g62
(dp5439
sg71
g5424
sg64
(lp5440
g57
(g58
g59
NtRp5441
(dp5442
g62
(dp5443
g70
I4
ssg71
g5437
sg64
(lp5444
S'web2py, python, framework'
p5445
asbasbasbasbasbasbasbag57
(g73
g59
NtRp5446
(dp5447
g62
(dp5448
sg71
g4135
sg64
(lp5449
g57
(g78
g59
NtRp5450
(dp5451
g62
(dp5452
g82
g83
ssg71
g5446
sg64
(lp5453
S'postprocessing'
p5454
asbag57
(g78
g59
NtRp5455
(dp5456
g62
(dp5457
g89
g90
ssg71
g5446
sg64
(lp5458
S':'
asbag57
(g78
g59
NtRp5459
(dp5460
g62
(dp5461
sg71
g5446
sg64
(lp5462
g57
(g58
g59
NtRp5463
(dp5464
g62
(dp5465
g70
I5
ssg71
g5459
sg64
(lp5466
g57
(g66
g59
NtRp5467
(dp5468
g62
(dp5469
g70
I4
ssg71
Nsg64
(lp5470
sbasbasbasbag57
(g73
g59
NtRp5471
(dp5472
g62
(dp5473
sg71
g4135
sg64
(lp5474
g57
(g78
g59
NtRp5475
(dp5476
g62
(dp5477
g82
g83
ssg71
g5471
sg64
(lp5478
S'session_file'
p5479
asbag57
(g78
g59
NtRp5480
(dp5481
g62
(dp5482
g89
g90
ssg71
g5471
sg64
(lp5483
S':'
asbag57
(g78
g59
NtRp5484
(dp5485
g62
(dp5486
sg71
g5471
sg64
(lp5487
g57
(g58
g59
NtRp5488
(dp5489
g62
(dp5490
g70
I5
ssg71
g5484
sg64
(lp5491
S"<open file '/home/krutarth/Downloads/911india/applications/911_signin/sessions/127.0.0.1-9b51abe2-5e72-414c-93b7-202a0533e3f8', mode 'rb+' at 0xa09e020>"
p5492
asbasbasbag57
(g73
g59
NtRp5493
(dp5494
g62
(dp5495
sg71
g4135
sg64
(lp5496
g57
(g78
g59
NtRp5497
(dp5498
g62
(dp5499
g82
g83
ssg71
g5493
sg64
(lp5500
S'session_filename'
p5501
asbag57
(g78
g59
NtRp5502
(dp5503
g62
(dp5504
g89
g90
ssg71
g5493
sg64
(lp5505
S':'
asbag57
(g78
g59
NtRp5506
(dp5507
g62
(dp5508
sg71
g5493
sg64
(lp5509
g57
(g58
g59
NtRp5510
(dp5511
g62
(dp5512
g70
I5
ssg71
g5506
sg64
(lp5513
S'/home/krutarth/Downloads/911india/applications/911_signin/sessions/127.0.0.1-9b51abe2-5e72-414c-93b7-202a0533e3f8'
p5514
asbasbasbag57
(g73
g59
NtRp5515
(dp5516
g62
(dp5517
sg71
g4135
sg64
(lp5518
g57
(g78
g59
NtRp5519
(dp5520
g62
(dp5521
g82
g83
ssg71
g5515
sg64
(lp5522
S'session_id'
p5523
asbag57
(g78
g59
NtRp5524
(dp5525
g62
(dp5526
g89
g90
ssg71
g5515
sg64
(lp5527
S':'
asbag57
(g78
g59
NtRp5528
(dp5529
g62
(dp5530
sg71
g5515
sg64
(lp5531
g57
(g58
g59
NtRp5532
(dp5533
g62
(dp5534
g70
I5
ssg71
g5528
sg64
(lp5535
S'127.0.0.1-9b51abe2-5e72-414c-93b7-202a0533e3f8'
p5536
asbasbasbag57
(g73
g59
NtRp5537
(dp5538
g62
(dp5539
sg71
g4135
sg64
(lp5540
g57
(g78
g59
NtRp5541
(dp5542
g62
(dp5543
g82
g83
ssg71
g5537
sg64
(lp5544
S'session_id_name'
p5545
asbag57
(g78
g59
NtRp5546
(dp5547
g62
(dp5548
g89
g90
ssg71
g5537
sg64
(lp5549
S':'
asbag57
(g78
g59
NtRp5550
(dp5551
g62
(dp5552
sg71
g5537
sg64
(lp5553
g57
(g58
g59
NtRp5554
(dp5555
g62
(dp5556
g70
I5
ssg71
g5550
sg64
(lp5557
g4192
asbasbasbag57
(g73
g59
NtRp5558
(dp5559
g62
(dp5560
sg71
g4135
sg64
(lp5561
g57
(g78
g59
NtRp5562
(dp5563
g62
(dp5564
g82
g83
ssg71
g5558
sg64
(lp5565
S'session_locked'
p5566
asbag57
(g78
g59
NtRp5567
(dp5568
g62
(dp5569
g89
g90
ssg71
g5558
sg64
(lp5570
S':'
asbag57
(g78
g59
NtRp5571
(dp5572
g62
(dp5573
sg71
g5558
sg64
(lp5574
g57
(g58
g59
NtRp5575
(dp5576
g62
(dp5577
g70
I5
ssg71
g5571
sg64
(lp5578
g1807
asbasbasbag57
(g73
g59
NtRp5579
(dp5580
g62
(dp5581
sg71
g4135
sg64
(lp5582
g57
(g78
g59
NtRp5583
(dp5584
g62
(dp5585
g82
g83
ssg71
g5579
sg64
(lp5586
S'session_new'
p5587
asbag57
(g78
g59
NtRp5588
(dp5589
g62
(dp5590
g89
g90
ssg71
g5579
sg64
(lp5591
S':'
asbag57
(g78
g59
NtRp5592
(dp5593
g62
(dp5594
sg71
g5579
sg64
(lp5595
g57
(g58
g59
NtRp5596
(dp5597
g62
(dp5598
g70
I5
ssg71
g5592
sg64
(lp5599
g100
asbasbasbag57
(g73
g59
NtRp5600
(dp5601
g62
(dp5602
sg71
g4135
sg64
(lp5603
g57
(g78
g59
NtRp5604
(dp5605
g62
(dp5606
g82
g83
ssg71
g5600
sg64
(lp5607
S'status'
p5608
asbag57
(g78
g59
NtRp5609
(dp5610
g62
(dp5611
g89
g90
ssg71
g5600
sg64
(lp5612
S':'
asbag57
(g78
g59
NtRp5613
(dp5614
g62
(dp5615
sg71
g5600
sg64
(lp5616
g57
(g58
g59
NtRp5617
(dp5618
g62
(dp5619
g70
I5
ssg71
g5613
sg64
(lp5620
S'200'
p5621
asbasbasbag57
(g73
g59
NtRp5622
(dp5623
g62
(dp5624
sg71
g4135
sg64
(lp5625
g57
(g78
g59
NtRp5626
(dp5627
g62
(dp5628
g82
g83
ssg71
g5622
sg64
(lp5629
S'subtitle'
p5630
asbag57
(g78
g59
NtRp5631
(dp5632
g62
(dp5633
g89
g90
ssg71
g5622
sg64
(lp5634
S':'
asbag57
(g78
g59
NtRp5635
(dp5636
g62
(dp5637
sg71
g5622
sg64
(lp5638
g57
(g58
g59
NtRp5639
(dp5640
g62
(dp5641
g70
I5
ssg71
g5635
sg64
(lp5642
g4691
(S's\r\x00\x00\x00customize me!'
tRp5643
asbasbasbag57
(g73
g59
NtRp5644
(dp5645
g62
(dp5646
sg71
g4135
sg64
(lp5647
g57
(g78
g59
NtRp5648
(dp5649
g62
(dp5650
g82
g83
ssg71
g5644
sg64
(lp5651
S'title'
p5652
asbag57
(g78
g59
NtRp5653
(dp5654
g62
(dp5655
g89
g90
ssg71
g5644
sg64
(lp5656
S':'
asbag57
(g78
g59
NtRp5657
(dp5658
g62
(dp5659
sg71
g5644
sg64
(lp5660
g57
(g58
g59
NtRp5661
(dp5662
g62
(dp5663
g70
I5
ssg71
g5657
sg64
(lp5664
S'911 Signin'
p5665
asbasbasbag57
(g73
g59
NtRp5666
(dp5667
g62
(dp5668
sg71
g4135
sg64
(lp5669
g57
(g78
g59
NtRp5670
(dp5671
g62
(dp5672
g82
g83
ssg71
g5666
sg64
(lp5673
g2691
asbag57
(g78
g59
NtRp5674
(dp5675
g62
(dp5676
g89
g90
ssg71
g5666
sg64
(lp5677
S':'
asbag57
(g78
g59
NtRp5678
(dp5679
g62
(dp5680
sg71
g5666
sg64
(lp5681
g57
(g58
g59
NtRp5682
(dp5683
g62
(dp5684
g70
I5
ssg71
g5678
sg64
(lp5685
g2704
asbasbasbag57
(g73
g59
NtRp5686
(dp5687
g62
(dp5688
sg71
g4135
sg64
(lp5689
g57
(g78
g59
NtRp5690
(dp5691
g62
(dp5692
g82
g83
ssg71
g5686
sg64
(lp5693
S'view'
p5694
asbag57
(g78
g59
NtRp5695
(dp5696
g62
(dp5697
g89
g90
ssg71
g5686
sg64
(lp5698
S':'
asbag57
(g78
g59
NtRp5699
(dp5700
g62
(dp5701
sg71
g5686
sg64
(lp5702
g57
(g58
g59
NtRp5703
(dp5704
g62
(dp5705
g70
I5
ssg71
g5699
sg64
(lp5706
S'default/events.html'
p5707
asbasbasbasbasbsS'locals'
p5708
(dp5709
S'form'
p5710
S'<gluon.sqlhtml.SQLFORM object>'
p5711
sssS'traceback'
p5712
S'Traceback (most recent call last):\n  File "/home/krutarth/Downloads/911india/gluon/restricted.py", line 205, in restricted\n    exec ccode in environment\n  File "/home/krutarth/Downloads/911india/applications/911_signin/controllers/default.py", line 204, in <module>\n  File "/home/krutarth/Downloads/911india/gluon/globals.py", line 173, in <lambda>\n    self._caller = lambda f: f()\n  File "/home/krutarth/Downloads/911india/gluon/tools.py", line 2580, in f\n    return action(*a, **b)\n  File "/home/krutarth/Downloads/911india/applications/911_signin/controllers/default.py", line 189, in events\n    response.flash = form.vars.Name + " thank you"\nTypeError: unsupported operand type(s) for +: \'NoneType\' and \'str\'\n'
p5713
s.