(dp1
S'output'
p2
S"<type 'exceptions.IndentationError'> expected an indented block (default.py, line 204)"
p3
sS'layer'
p4
S'/home/krutarth/Downloads/911india/applications/911_signin/controllers/default.py'
p5
sS'code'
p6
S'import datetime\n# -*- coding: utf-8 -*-\n# this file is released under public domain and you can use without limitations\n\n#########################################################################\n## This is a samples controller\n## - index is the default action of any application\n## - user is required for authentication and authorization\n## - download is for downloading files uploaded in the db (does streaming)\n## - call exposes all registered services (none by default)\n#########################################################################\n\nfrom gluon.contrib.login_methods.rpx_account import use_janrain\nfrom gluon.contrib.login_methods.extended_login_form import ExtendedLoginForm\n\n@auth.requires_login()\ndef index():\n    """\n    example action using the internationalization operator T and flash\n    rendered by views/default/index.html or views/generic.html\n    """\n    response.flash = "Welcome to web2py!"\n    return dict(message=T(\'Hello World\'))\n\n\ndef user():\n    """\n    exposes:\n    http://..../[app]/default/user/login\n    http://..../[app]/default/user/logout\n    http://..../[app]/default/user/register\n    http://..../[app]/default/user/profile\n    http://..../[app]/default/user/retrieve_password\n    http://..../[app]/default/user/change_password\n    use @auth.requires_login()\n        @auth.requires_membership(\'group name\')\n        @auth.requires_permission(\'read\',\'table name\',record_id)\n    to decorate functions that need access control\n    """\n    \n    form_janrain = use_janrain(auth,filename=\'private/janrain.key\')\n    auth.settings.login_form = ExtendedLoginForm(auth, form_janrain, signals=[\'token\'])\n    return dict(form=auth())\n\n\ndef home():\n    return dict(uid=auth.user_id)\n\n\ndef download():\n    """\n    allows downloading of uploaded files\n    http://..../[app]/default/download/[filename]\n    """\n    return response.download(request,db)\n\n\ndef call():\n    """\n    exposes services. for example:\n    http://..../[app]/default/call/jsonrpc\n    decorate with @services.jsonrpc the functions to expose\n    supports xml, json, xmlrpc, jsonrpc, amfrpc, rss, csv\n    """\n    return service()\n\n\n@auth.requires_signature()\ndef data():\n    """\n    http://..../[app]/default/data/tables\n    http://..../[app]/default/data/create/[table]\n    http://..../[app]/default/data/read/[table]/[id]\n    http://..../[app]/default/data/update/[table]/[id]\n    http://..../[app]/default/data/delete/[table]/[id]\n    http://..../[app]/default/data/select/[table]\n    http://..../[app]/default/data/search/[table]\n    but URLs must be signed, i.e. linked with\n      A(\'table\',_href=URL(\'data/tables\',user_signature=True))\n    or with the signed load operator\n      LOAD(\'default\',\'data.load\',args=\'tables\',ajax=True,user_signature=True)\n    """\n    return dict(form=crud())\n\n@auth.requires_login()\ndef myprofile():\n\ttmp_usr=db(db.basic_info.username == auth.user.username)(db.basic_info.email == auth.user.email).select().first()\n\tif tmp_usr==None:\n\t\tdb.basic_info.email.default=auth.user.email\n\t\tform=SQLFORM(db.basic_info, submit_button=\'Create Profile\')\n\t\tform.vars.first_name=auth.user.first_name\n\t\tform.vars.last_name=auth.user.last_name\n\t\tform.vars.username=auth.user.username\n\n\telse:\n\t\tform=SQLFORM(db.basic_info,tmp_usr.id,showid=False, submit_button=\'Update Profile\')\n\n\tform.vars.prefix = \'Mr.\'\n\tform.vars.email_share_with = \'Only my network\'\n\tform.vars.phone_share_with = \'Only my network\'\n\n\tdb.experience.username.default=auth.user.username\n\tdb.education.username.default=auth.user.username\n\tform2=SQLFORM(db.experience, submit_button=\'Add experience\')\n\tform3=SQLFORM(db.education, submit_button=\'Add education\')\n\n\tif form.process().accepted:\n\t\tresponse.flash=\'Profile updated\'\n\n\tif form2.process().accepted:\n\t\tresponse.flash=\'Experience added\'\n\n\tif form3.process().accepted:\n\t\tresponse.flash=\'Education added\'\n\n\texperience=db(db.experience.username == auth.user.username).select()\n\teducation=db(db.education.username == auth.user.username).select()\n\n\treturn dict(form=form, form2=form2, form3=form3, experience=experience, education=education)\n\n\n\ndef profile():\n\tuname = request.args(0)\n\tuser_obj = db(db.auth_users.username == uname).select()\n\tprofile_obj = db(db.basic_info.username == uname).select()\n\texp_obj = db(db.experience.username == uname).select()\n\tedu_obj = db(db.education.username == uname).select()\n\treturn dict(user=user_obj, profile=profile_obj, experience=exp_obj, education=edu_obj)\n\n\n@auth.requires_login()\ndef changepicture():\n\ttmp_pic=db(db.profile_pic.uname == auth.user.username).select()\n\tif tmp_pic:\n\t\tform=SQLFORM(db.profile_pic,tmp_pic.first().id,showid=False, submit_button=\'Upload Picture\')\n\telse:\n\t\tdb.profile_pic.uname.default=auth.user.username\n\t\tform=SQLFORM(db.profile_pic, submit_button=\'Upload Picture\')\n\n\tif form.process().accepted:\n\t\tresponse.flash=\'Image uploaded\'\n\t\tredirect(URL(\'myprofile\'))\n\n\treturn dict(form=form)\n\n\n@auth.requires_login()\ndef compose():\n\tform=SQLFORM(db.message)\n\tform.vars.sender=auth.user.username\n\tform.vars.read=False\n\n\tif form.process().accepted:\n\t\tresponse.flash=\'Message Sent\'\n\t\trow = db(db.auth_users.username == form.vars.reciever).select().first()\n\t\tif row:\n\t\t\tctr=row.unread_ctr+1\n\t\t\tdb.auth_users[row.id] = dict(unread_ctr=ctr)\n\treturn dict(form=form)\n\n@auth.requires_login()\ndef inbox():\n\tinbox=db(db.message.reciever == auth.user.username).select(db.message.id, db.message.sender,db.message.subject,db.message.read, orderby=~db.message.id )\n\treturn dict(inbox=inbox)\n\n@auth.requires_login()\ndef message():\n\tmail = db.message(request.args(0))\n\tif mail.read == False:\n\t\tdb.message[mail.id] = dict(read=True)\n\t\tctr = db.auth_users(auth.user.id).unread_ctr-1\n\t\tdb.auth_users[auth.user.id]\t= dict(unread_ctr=ctr)\n\treturn dict(mail=mail)\n\n@auth.requires_login()\ndef outbox():\n\toutbox=db(db.message.sender == auth.user.username).select(db.message.id, db.message.reciever,db.message.subject, db.message.read, orderby=~db.message.id )\n\treturn dict(outbox=outbox)\n\n@auth.requires_login()\ndef sent_message():\n\tmail = db.message(request.args(0))\n\treturn dict(mail=mail)\n\n@auth.requires_login()\ndef events():\n    \tform = SQLFORM(db.events)\n    \tif form.accepts(request.vars, session):\n\t\tresponse.flash = "Event created on " + request.now \n\t\trow = db(db.auth_users.username).select().first()\n   \treturn dict(form=form)\n\ndef invitations():\n\trow = db(db.auth_users.username == form.vars.reciever).select().first()\n\tif row:\n\t\tctr=row.unread_ctr+1\n\t\tdb.auth_users[row.id] = dict(unread_ctr=ctr)\n\treturn db(db.events.id > 0).select()\n\ndef case_studies():\n\tform=SQLFORM(db.case_studies)\n\tif form.accepts(request.vars, session):\n\treturn dict(form=form)\ndef case_studies_result():\n\treturn db(db.case_studies.id > 0).select()\n\nresponse._vars=response._caller(events)\n'
p7
sS'snapshot'
p8
(dp9
S'exception'
p10
(dp11
S'__getslice__'
p12
S"<method-wrapper '__getslice__' of exceptions.IndentationError object>"
p13
sS'text'
p14
S"'\\treturn dict(form=form)\\n'"
p15
sS'__str__'
p16
S"<method-wrapper '__str__' of exceptions.IndentationError object>"
p17
sS'__reduce__'
p18
S'<built-in method __reduce__ of exceptions.IndentationError object>'
p19
sS'__dict__'
p20
S'{}'
p21
sS'__sizeof__'
p22
S'<built-in method __sizeof__ of exceptions.IndentationError object>'
p23
sS'__init__'
p24
S"<method-wrapper '__init__' of exceptions.IndentationError object>"
p25
sS'__setattr__'
p26
S"<method-wrapper '__setattr__' of exceptions.IndentationError object>"
p27
sS'__reduce_ex__'
p28
S'<built-in method __reduce_ex__ of exceptions.IndentationError object>'
p29
sS'__new__'
p30
S'<built-in method __new__ of type object>'
p31
sS'__format__'
p32
S'<built-in method __format__ of exceptions.IndentationError object>'
p33
sS'__class__'
p34
S"<type 'exceptions.IndentationError'>"
p35
sS'filename'
p36
S"'/home/krutarth/Downloads/911india/applications/911_signin/controllers/default.py'"
p37
sS'lineno'
p38
S'204'
p39
sS'msg'
p40
S"'expected an indented block'"
p41
sS'__doc__'
p42
S"'Improper indentation.'"
p43
sS'__getitem__'
p44
S"<method-wrapper '__getitem__' of exceptions.IndentationError object>"
p45
sS'__setstate__'
p46
S'<built-in method __setstate__ of exceptions.IndentationError object>'
p47
sS'__getattribute__'
p48
S"<method-wrapper '__getattribute__' of exceptions.IndentationError object>"
p49
sS'print_file_and_line'
p50
S'None'
p51
sS'args'
p52
S"('expected an indented block', ('/home/krutarth/Downloads/911india/applications/911_signin/controllers/default.py', 204, 7, '\\treturn dict(form=form)\\n'))"
p53
sS'__subclasshook__'
p54
S'<built-in method __subclasshook__ of type object>'
p55
sS'offset'
p56
S'7'
sS'__unicode__'
p57
S'<built-in method __unicode__ of exceptions.IndentationError object>'
p58
sS'__delattr__'
p59
S"<method-wrapper '__delattr__' of exceptions.IndentationError object>"
p60
sS'__repr__'
p61
S"<method-wrapper '__repr__' of exceptions.IndentationError object>"
p62
sS'__hash__'
p63
S"<method-wrapper '__hash__' of exceptions.IndentationError object>"
p64
ssS'evalue'
p65
S'expected an indented block (default.py, line 204)'
p66
sS'request'
p67
ccopy_reg
_reconstructor
p68
(cgluon.html
BEAUTIFY
p69
c__builtin__
object
p70
NtRp71
(dp72
S'attributes'
p73
(dp74
sS'components'
p75
(lp76
g68
(cgluon.html
TABLE
p77
g70
NtRp78
(dp79
g73
(dp80
S'level'
p81
I5
ssS'parent'
p82
Nsg75
(lp83
g68
(cgluon.html
TR
p84
g70
NtRp85
(dp86
g73
(dp87
sg82
g78
sg75
(lp88
g68
(cgluon.html
TD
p89
g70
NtRp90
(dp91
g73
(dp92
S'_style'
p93
S'font-weight:bold;vertical-align:top'
p94
ssg82
g85
sg75
(lp95
S'ajax'
p96
asbag68
(g89
g70
NtRp97
(dp98
g73
(dp99
S'_valign'
p100
S'top'
p101
ssg82
g85
sg75
(lp102
S':'
asbag68
(g89
g70
NtRp103
(dp104
g73
(dp105
sg82
g85
sg75
(lp106
g68
(g69
g70
NtRp107
(dp108
g73
(dp109
g81
I5
ssg82
g103
sg75
(lp110
S'False'
p111
asbasbasbag68
(g84
g70
NtRp112
(dp113
g73
(dp114
sg82
g78
sg75
(lp115
g68
(g89
g70
NtRp116
(dp117
g73
(dp118
g93
g94
ssg82
g112
sg75
(lp119
S'application'
p120
asbag68
(g89
g70
NtRp121
(dp122
g73
(dp123
g100
g101
ssg82
g112
sg75
(lp124
S':'
asbag68
(g89
g70
NtRp125
(dp126
g73
(dp127
sg82
g112
sg75
(lp128
g68
(g69
g70
NtRp129
(dp130
g73
(dp131
g81
I5
ssg82
g125
sg75
(lp132
S'911_signin'
p133
asbasbasbag68
(g84
g70
NtRp134
(dp135
g73
(dp136
sg82
g78
sg75
(lp137
g68
(g89
g70
NtRp138
(dp139
g73
(dp140
g93
g94
ssg82
g134
sg75
(lp141
g52
asbag68
(g89
g70
NtRp142
(dp143
g73
(dp144
g100
g101
ssg82
g134
sg75
(lp145
S':'
asbag68
(g89
g70
NtRp146
(dp147
g73
(dp148
sg82
g134
sg75
(lp149
g68
(g69
g70
NtRp150
(dp151
g73
(dp152
g81
I5
ssg82
g146
sg75
(lp153
g68
(g77
g70
NtRp154
(dp155
g73
(dp156
g81
I4
ssg82
Nsg75
(lp157
sbasbasbasbag68
(g84
g70
NtRp158
(dp159
g73
(dp160
sg82
g78
sg75
(lp161
g68
(g89
g70
NtRp162
(dp163
g73
(dp164
g93
g94
ssg82
g158
sg75
(lp165
S'body'
p166
asbag68
(g89
g70
NtRp167
(dp168
g73
(dp169
g100
g101
ssg82
g158
sg75
(lp170
S':'
asbag68
(g89
g70
NtRp171
(dp172
g73
(dp173
sg82
g158
sg75
(lp174
g68
(g69
g70
NtRp175
(dp176
g73
(dp177
g81
I5
ssg82
g171
sg75
(lp178
S'<cStringIO.StringO object at 0xad738b20>'
p179
asbasbasbag68
(g84
g70
NtRp180
(dp181
g73
(dp182
sg82
g78
sg75
(lp183
g68
(g89
g70
NtRp184
(dp185
g73
(dp186
g93
g94
ssg82
g180
sg75
(lp187
S'client'
p188
asbag68
(g89
g70
NtRp189
(dp190
g73
(dp191
g100
g101
ssg82
g180
sg75
(lp192
S':'
asbag68
(g89
g70
NtRp193
(dp194
g73
(dp195
sg82
g180
sg75
(lp196
g68
(g69
g70
NtRp197
(dp198
g73
(dp199
g81
I5
ssg82
g193
sg75
(lp200
S'127.0.0.1'
p201
asbasbasbag68
(g84
g70
NtRp202
(dp203
g73
(dp204
sg82
g78
sg75
(lp205
g68
(g89
g70
NtRp206
(dp207
g73
(dp208
g93
g94
ssg82
g202
sg75
(lp209
S'controller'
p210
asbag68
(g89
g70
NtRp211
(dp212
g73
(dp213
g100
g101
ssg82
g202
sg75
(lp214
S':'
asbag68
(g89
g70
NtRp215
(dp216
g73
(dp217
sg82
g202
sg75
(lp218
g68
(g69
g70
NtRp219
(dp220
g73
(dp221
g81
I5
ssg82
g215
sg75
(lp222
S'default'
p223
asbasbasbag68
(g84
g70
NtRp224
(dp225
g73
(dp226
sg82
g78
sg75
(lp227
g68
(g89
g70
NtRp228
(dp229
g73
(dp230
g93
g94
ssg82
g224
sg75
(lp231
S'cookies'
p232
asbag68
(g89
g70
NtRp233
(dp234
g73
(dp235
g100
g101
ssg82
g224
sg75
(lp236
S':'
asbag68
(g89
g70
NtRp237
(dp238
g73
(dp239
sg82
g224
sg75
(lp240
g68
(g69
g70
NtRp241
(dp242
g73
(dp243
g81
I5
ssg82
g237
sg75
(lp244
g68
(g77
g70
NtRp245
(dp246
g73
(dp247
g81
I4
ssg82
Nsg75
(lp248
g68
(g84
g70
NtRp249
(dp250
g73
(dp251
sg82
g245
sg75
(lp252
g68
(g89
g70
NtRp253
(dp254
g73
(dp255
g93
g94
ssg82
g249
sg75
(lp256
S'session_id_911_signin'
p257
asbag68
(g89
g70
NtRp258
(dp259
g73
(dp260
g100
g101
ssg82
g249
sg75
(lp261
S':'
asbag68
(g89
g70
NtRp262
(dp263
g73
(dp264
sg82
g249
sg75
(lp265
g68
(g69
g70
NtRp266
(dp267
g73
(dp268
g81
I4
ssg82
g262
sg75
(lp269
g68
(g77
g70
NtRp270
(dp271
g73
(dp272
g81
I3
ssg82
Nsg75
(lp273
g68
(g84
g70
NtRp274
(dp275
g73
(dp276
sg82
g270
sg75
(lp277
g68
(g89
g70
NtRp278
(dp279
g73
(dp280
g93
g94
ssg82
g274
sg75
(lp281
S'comment'
p282
asbag68
(g89
g70
NtRp283
(dp284
g73
(dp285
g100
g101
ssg82
g274
sg75
(lp286
S':'
asbag68
(g89
g70
NtRp287
(dp288
g73
(dp289
sg82
g274
sg75
(lp290
g68
(g69
g70
NtRp291
(dp292
g73
(dp293
g81
I3
ssg82
g287
sg75
(lp294
S''
asbasbasbag68
(g84
g70
NtRp295
(dp296
g73
(dp297
sg82
g270
sg75
(lp298
g68
(g89
g70
NtRp299
(dp300
g73
(dp301
g93
g94
ssg82
g295
sg75
(lp302
S'domain'
p303
asbag68
(g89
g70
NtRp304
(dp305
g73
(dp306
g100
g101
ssg82
g295
sg75
(lp307
S':'
asbag68
(g89
g70
NtRp308
(dp309
g73
(dp310
sg82
g295
sg75
(lp311
g68
(g69
g70
NtRp312
(dp313
g73
(dp314
g81
I3
ssg82
g308
sg75
(lp315
S''
asbasbasbag68
(g84
g70
NtRp316
(dp317
g73
(dp318
sg82
g270
sg75
(lp319
g68
(g89
g70
NtRp320
(dp321
g73
(dp322
g93
g94
ssg82
g316
sg75
(lp323
S'expires'
p324
asbag68
(g89
g70
NtRp325
(dp326
g73
(dp327
g100
g101
ssg82
g316
sg75
(lp328
S':'
asbag68
(g89
g70
NtRp329
(dp330
g73
(dp331
sg82
g316
sg75
(lp332
g68
(g69
g70
NtRp333
(dp334
g73
(dp335
g81
I3
ssg82
g329
sg75
(lp336
S''
asbasbasbag68
(g84
g70
NtRp337
(dp338
g73
(dp339
sg82
g270
sg75
(lp340
g68
(g89
g70
NtRp341
(dp342
g73
(dp343
g93
g94
ssg82
g337
sg75
(lp344
S'httponly'
p345
asbag68
(g89
g70
NtRp346
(dp347
g73
(dp348
g100
g101
ssg82
g337
sg75
(lp349
S':'
asbag68
(g89
g70
NtRp350
(dp351
g73
(dp352
sg82
g337
sg75
(lp353
g68
(g69
g70
NtRp354
(dp355
g73
(dp356
g81
I3
ssg82
g350
sg75
(lp357
S''
asbasbasbag68
(g84
g70
NtRp358
(dp359
g73
(dp360
sg82
g270
sg75
(lp361
g68
(g89
g70
NtRp362
(dp363
g73
(dp364
g93
g94
ssg82
g358
sg75
(lp365
S'max-age'
p366
asbag68
(g89
g70
NtRp367
(dp368
g73
(dp369
g100
g101
ssg82
g358
sg75
(lp370
S':'
asbag68
(g89
g70
NtRp371
(dp372
g73
(dp373
sg82
g358
sg75
(lp374
g68
(g69
g70
NtRp375
(dp376
g73
(dp377
g81
I3
ssg82
g371
sg75
(lp378
S''
asbasbasbag68
(g84
g70
NtRp379
(dp380
g73
(dp381
sg82
g270
sg75
(lp382
g68
(g89
g70
NtRp383
(dp384
g73
(dp385
g93
g94
ssg82
g379
sg75
(lp386
S'path'
p387
asbag68
(g89
g70
NtRp388
(dp389
g73
(dp390
g100
g101
ssg82
g379
sg75
(lp391
S':'
asbag68
(g89
g70
NtRp392
(dp393
g73
(dp394
sg82
g379
sg75
(lp395
g68
(g69
g70
NtRp396
(dp397
g73
(dp398
g81
I3
ssg82
g392
sg75
(lp399
S''
asbasbasbag68
(g84
g70
NtRp400
(dp401
g73
(dp402
sg82
g270
sg75
(lp403
g68
(g89
g70
NtRp404
(dp405
g73
(dp406
g93
g94
ssg82
g400
sg75
(lp407
S'secure'
p408
asbag68
(g89
g70
NtRp409
(dp410
g73
(dp411
g100
g101
ssg82
g400
sg75
(lp412
S':'
asbag68
(g89
g70
NtRp413
(dp414
g73
(dp415
sg82
g400
sg75
(lp416
g68
(g69
g70
NtRp417
(dp418
g73
(dp419
g81
I3
ssg82
g413
sg75
(lp420
S''
asbasbasbag68
(g84
g70
NtRp421
(dp422
g73
(dp423
sg82
g270
sg75
(lp424
g68
(g89
g70
NtRp425
(dp426
g73
(dp427
g93
g94
ssg82
g421
sg75
(lp428
S'version'
p429
asbag68
(g89
g70
NtRp430
(dp431
g73
(dp432
g100
g101
ssg82
g421
sg75
(lp433
S':'
asbag68
(g89
g70
NtRp434
(dp435
g73
(dp436
sg82
g421
sg75
(lp437
g68
(g69
g70
NtRp438
(dp439
g73
(dp440
g81
I3
ssg82
g434
sg75
(lp441
S''
asbasbasbasbasbasbasbag68
(g84
g70
NtRp442
(dp443
g73
(dp444
sg82
g245
sg75
(lp445
g68
(g89
g70
NtRp446
(dp447
g73
(dp448
g93
g94
ssg82
g442
sg75
(lp449
S'session_id_admin'
p450
asbag68
(g89
g70
NtRp451
(dp452
g73
(dp453
g100
g101
ssg82
g442
sg75
(lp454
S':'
asbag68
(g89
g70
NtRp455
(dp456
g73
(dp457
sg82
g442
sg75
(lp458
g68
(g69
g70
NtRp459
(dp460
g73
(dp461
g81
I4
ssg82
g455
sg75
(lp462
g68
(g77
g70
NtRp463
(dp464
g73
(dp465
g81
I3
ssg82
Nsg75
(lp466
g68
(g84
g70
NtRp467
(dp468
g73
(dp469
sg82
g463
sg75
(lp470
g68
(g89
g70
NtRp471
(dp472
g73
(dp473
g93
g94
ssg82
g467
sg75
(lp474
g282
asbag68
(g89
g70
NtRp475
(dp476
g73
(dp477
g100
g101
ssg82
g467
sg75
(lp478
S':'
asbag68
(g89
g70
NtRp479
(dp480
g73
(dp481
sg82
g467
sg75
(lp482
g68
(g69
g70
NtRp483
(dp484
g73
(dp485
g81
I3
ssg82
g479
sg75
(lp486
S''
asbasbasbag68
(g84
g70
NtRp487
(dp488
g73
(dp489
sg82
g463
sg75
(lp490
g68
(g89
g70
NtRp491
(dp492
g73
(dp493
g93
g94
ssg82
g487
sg75
(lp494
g303
asbag68
(g89
g70
NtRp495
(dp496
g73
(dp497
g100
g101
ssg82
g487
sg75
(lp498
S':'
asbag68
(g89
g70
NtRp499
(dp500
g73
(dp501
sg82
g487
sg75
(lp502
g68
(g69
g70
NtRp503
(dp504
g73
(dp505
g81
I3
ssg82
g499
sg75
(lp506
S''
asbasbasbag68
(g84
g70
NtRp507
(dp508
g73
(dp509
sg82
g463
sg75
(lp510
g68
(g89
g70
NtRp511
(dp512
g73
(dp513
g93
g94
ssg82
g507
sg75
(lp514
g324
asbag68
(g89
g70
NtRp515
(dp516
g73
(dp517
g100
g101
ssg82
g507
sg75
(lp518
S':'
asbag68
(g89
g70
NtRp519
(dp520
g73
(dp521
sg82
g507
sg75
(lp522
g68
(g69
g70
NtRp523
(dp524
g73
(dp525
g81
I3
ssg82
g519
sg75
(lp526
S''
asbasbasbag68
(g84
g70
NtRp527
(dp528
g73
(dp529
sg82
g463
sg75
(lp530
g68
(g89
g70
NtRp531
(dp532
g73
(dp533
g93
g94
ssg82
g527
sg75
(lp534
g345
asbag68
(g89
g70
NtRp535
(dp536
g73
(dp537
g100
g101
ssg82
g527
sg75
(lp538
S':'
asbag68
(g89
g70
NtRp539
(dp540
g73
(dp541
sg82
g527
sg75
(lp542
g68
(g69
g70
NtRp543
(dp544
g73
(dp545
g81
I3
ssg82
g539
sg75
(lp546
S''
asbasbasbag68
(g84
g70
NtRp547
(dp548
g73
(dp549
sg82
g463
sg75
(lp550
g68
(g89
g70
NtRp551
(dp552
g73
(dp553
g93
g94
ssg82
g547
sg75
(lp554
g366
asbag68
(g89
g70
NtRp555
(dp556
g73
(dp557
g100
g101
ssg82
g547
sg75
(lp558
S':'
asbag68
(g89
g70
NtRp559
(dp560
g73
(dp561
sg82
g547
sg75
(lp562
g68
(g69
g70
NtRp563
(dp564
g73
(dp565
g81
I3
ssg82
g559
sg75
(lp566
S''
asbasbasbag68
(g84
g70
NtRp567
(dp568
g73
(dp569
sg82
g463
sg75
(lp570
g68
(g89
g70
NtRp571
(dp572
g73
(dp573
g93
g94
ssg82
g567
sg75
(lp574
g387
asbag68
(g89
g70
NtRp575
(dp576
g73
(dp577
g100
g101
ssg82
g567
sg75
(lp578
S':'
asbag68
(g89
g70
NtRp579
(dp580
g73
(dp581
sg82
g567
sg75
(lp582
g68
(g69
g70
NtRp583
(dp584
g73
(dp585
g81
I3
ssg82
g579
sg75
(lp586
S''
asbasbasbag68
(g84
g70
NtRp587
(dp588
g73
(dp589
sg82
g463
sg75
(lp590
g68
(g89
g70
NtRp591
(dp592
g73
(dp593
g93
g94
ssg82
g587
sg75
(lp594
g408
asbag68
(g89
g70
NtRp595
(dp596
g73
(dp597
g100
g101
ssg82
g587
sg75
(lp598
S':'
asbag68
(g89
g70
NtRp599
(dp600
g73
(dp601
sg82
g587
sg75
(lp602
g68
(g69
g70
NtRp603
(dp604
g73
(dp605
g81
I3
ssg82
g599
sg75
(lp606
S''
asbasbasbag68
(g84
g70
NtRp607
(dp608
g73
(dp609
sg82
g463
sg75
(lp610
g68
(g89
g70
NtRp611
(dp612
g73
(dp613
g93
g94
ssg82
g607
sg75
(lp614
g429
asbag68
(g89
g70
NtRp615
(dp616
g73
(dp617
g100
g101
ssg82
g607
sg75
(lp618
S':'
asbag68
(g89
g70
NtRp619
(dp620
g73
(dp621
sg82
g607
sg75
(lp622
g68
(g69
g70
NtRp623
(dp624
g73
(dp625
g81
I3
ssg82
g619
sg75
(lp626
S''
asbasbasbasbasbasbasbag68
(g84
g70
NtRp627
(dp628
g73
(dp629
sg82
g245
sg75
(lp630
g68
(g89
g70
NtRp631
(dp632
g73
(dp633
g93
g94
ssg82
g627
sg75
(lp634
S'session_id_welcome'
p635
asbag68
(g89
g70
NtRp636
(dp637
g73
(dp638
g100
g101
ssg82
g627
sg75
(lp639
S':'
asbag68
(g89
g70
NtRp640
(dp641
g73
(dp642
sg82
g627
sg75
(lp643
g68
(g69
g70
NtRp644
(dp645
g73
(dp646
g81
I4
ssg82
g640
sg75
(lp647
g68
(g77
g70
NtRp648
(dp649
g73
(dp650
g81
I3
ssg82
Nsg75
(lp651
g68
(g84
g70
NtRp652
(dp653
g73
(dp654
sg82
g648
sg75
(lp655
g68
(g89
g70
NtRp656
(dp657
g73
(dp658
g93
g94
ssg82
g652
sg75
(lp659
g282
asbag68
(g89
g70
NtRp660
(dp661
g73
(dp662
g100
g101
ssg82
g652
sg75
(lp663
S':'
asbag68
(g89
g70
NtRp664
(dp665
g73
(dp666
sg82
g652
sg75
(lp667
g68
(g69
g70
NtRp668
(dp669
g73
(dp670
g81
I3
ssg82
g664
sg75
(lp671
S''
asbasbasbag68
(g84
g70
NtRp672
(dp673
g73
(dp674
sg82
g648
sg75
(lp675
g68
(g89
g70
NtRp676
(dp677
g73
(dp678
g93
g94
ssg82
g672
sg75
(lp679
g303
asbag68
(g89
g70
NtRp680
(dp681
g73
(dp682
g100
g101
ssg82
g672
sg75
(lp683
S':'
asbag68
(g89
g70
NtRp684
(dp685
g73
(dp686
sg82
g672
sg75
(lp687
g68
(g69
g70
NtRp688
(dp689
g73
(dp690
g81
I3
ssg82
g684
sg75
(lp691
S''
asbasbasbag68
(g84
g70
NtRp692
(dp693
g73
(dp694
sg82
g648
sg75
(lp695
g68
(g89
g70
NtRp696
(dp697
g73
(dp698
g93
g94
ssg82
g692
sg75
(lp699
g324
asbag68
(g89
g70
NtRp700
(dp701
g73
(dp702
g100
g101
ssg82
g692
sg75
(lp703
S':'
asbag68
(g89
g70
NtRp704
(dp705
g73
(dp706
sg82
g692
sg75
(lp707
g68
(g69
g70
NtRp708
(dp709
g73
(dp710
g81
I3
ssg82
g704
sg75
(lp711
S''
asbasbasbag68
(g84
g70
NtRp712
(dp713
g73
(dp714
sg82
g648
sg75
(lp715
g68
(g89
g70
NtRp716
(dp717
g73
(dp718
g93
g94
ssg82
g712
sg75
(lp719
g345
asbag68
(g89
g70
NtRp720
(dp721
g73
(dp722
g100
g101
ssg82
g712
sg75
(lp723
S':'
asbag68
(g89
g70
NtRp724
(dp725
g73
(dp726
sg82
g712
sg75
(lp727
g68
(g69
g70
NtRp728
(dp729
g73
(dp730
g81
I3
ssg82
g724
sg75
(lp731
S''
asbasbasbag68
(g84
g70
NtRp732
(dp733
g73
(dp734
sg82
g648
sg75
(lp735
g68
(g89
g70
NtRp736
(dp737
g73
(dp738
g93
g94
ssg82
g732
sg75
(lp739
g366
asbag68
(g89
g70
NtRp740
(dp741
g73
(dp742
g100
g101
ssg82
g732
sg75
(lp743
S':'
asbag68
(g89
g70
NtRp744
(dp745
g73
(dp746
sg82
g732
sg75
(lp747
g68
(g69
g70
NtRp748
(dp749
g73
(dp750
g81
I3
ssg82
g744
sg75
(lp751
S''
asbasbasbag68
(g84
g70
NtRp752
(dp753
g73
(dp754
sg82
g648
sg75
(lp755
g68
(g89
g70
NtRp756
(dp757
g73
(dp758
g93
g94
ssg82
g752
sg75
(lp759
g387
asbag68
(g89
g70
NtRp760
(dp761
g73
(dp762
g100
g101
ssg82
g752
sg75
(lp763
S':'
asbag68
(g89
g70
NtRp764
(dp765
g73
(dp766
sg82
g752
sg75
(lp767
g68
(g69
g70
NtRp768
(dp769
g73
(dp770
g81
I3
ssg82
g764
sg75
(lp771
S''
asbasbasbag68
(g84
g70
NtRp772
(dp773
g73
(dp774
sg82
g648
sg75
(lp775
g68
(g89
g70
NtRp776
(dp777
g73
(dp778
g93
g94
ssg82
g772
sg75
(lp779
g408
asbag68
(g89
g70
NtRp780
(dp781
g73
(dp782
g100
g101
ssg82
g772
sg75
(lp783
S':'
asbag68
(g89
g70
NtRp784
(dp785
g73
(dp786
sg82
g772
sg75
(lp787
g68
(g69
g70
NtRp788
(dp789
g73
(dp790
g81
I3
ssg82
g784
sg75
(lp791
S''
asbasbasbag68
(g84
g70
NtRp792
(dp793
g73
(dp794
sg82
g648
sg75
(lp795
g68
(g89
g70
NtRp796
(dp797
g73
(dp798
g93
g94
ssg82
g792
sg75
(lp799
g429
asbag68
(g89
g70
NtRp800
(dp801
g73
(dp802
g100
g101
ssg82
g792
sg75
(lp803
S':'
asbag68
(g89
g70
NtRp804
(dp805
g73
(dp806
sg82
g792
sg75
(lp807
g68
(g69
g70
NtRp808
(dp809
g73
(dp810
g81
I3
ssg82
g804
sg75
(lp811
S''
asbasbasbasbasbasbasbasbasbasbasbag68
(g84
g70
NtRp812
(dp813
g73
(dp814
sg82
g78
sg75
(lp815
g68
(g89
g70
NtRp816
(dp817
g73
(dp818
g93
g94
ssg82
g812
sg75
(lp819
S'env'
p820
asbag68
(g89
g70
NtRp821
(dp822
g73
(dp823
g100
g101
ssg82
g812
sg75
(lp824
S':'
asbag68
(g89
g70
NtRp825
(dp826
g73
(dp827
sg82
g812
sg75
(lp828
g68
(g69
g70
NtRp829
(dp830
g73
(dp831
g81
I5
ssg82
g825
sg75
(lp832
g68
(g77
g70
NtRp833
(dp834
g73
(dp835
g81
I4
ssg82
Nsg75
(lp836
g68
(g84
g70
NtRp837
(dp838
g73
(dp839
sg82
g833
sg75
(lp840
g68
(g89
g70
NtRp841
(dp842
g73
(dp843
g93
g94
ssg82
g837
sg75
(lp844
S'app_folders'
p845
asbag68
(g89
g70
NtRp846
(dp847
g73
(dp848
g100
g101
ssg82
g837
sg75
(lp849
S':'
asbag68
(g89
g70
NtRp850
(dp851
g73
(dp852
sg82
g837
sg75
(lp853
g68
(g69
g70
NtRp854
(dp855
g73
(dp856
g81
I4
ssg82
g850
sg75
(lp857
S"set(['/home/krutarth/Downloads/911india/applications/welcome/', '/home/krutarth/Downloads/911india/applications/911_signin/', '/home/krutarth/Downloads/911india/applications/admin/'])"
p858
asbasbasbag68
(g84
g70
NtRp859
(dp860
g73
(dp861
sg82
g833
sg75
(lp862
g68
(g89
g70
NtRp863
(dp864
g73
(dp865
g93
g94
ssg82
g859
sg75
(lp866
S'applications_parent'
p867
asbag68
(g89
g70
NtRp868
(dp869
g73
(dp870
g100
g101
ssg82
g859
sg75
(lp871
S':'
asbag68
(g89
g70
NtRp872
(dp873
g73
(dp874
sg82
g859
sg75
(lp875
g68
(g69
g70
NtRp876
(dp877
g73
(dp878
g81
I4
ssg82
g872
sg75
(lp879
S'/home/krutarth/Downloads/911india'
p880
asbasbasbag68
(g84
g70
NtRp881
(dp882
g73
(dp883
sg82
g833
sg75
(lp884
g68
(g89
g70
NtRp885
(dp886
g73
(dp887
g93
g94
ssg82
g881
sg75
(lp888
S'cmd_args'
p889
asbag68
(g89
g70
NtRp890
(dp891
g73
(dp892
g100
g101
ssg82
g881
sg75
(lp893
S':'
asbag68
(g89
g70
NtRp894
(dp895
g73
(dp896
sg82
g881
sg75
(lp897
g68
(g69
g70
NtRp898
(dp899
g73
(dp900
g81
I4
ssg82
g894
sg75
(lp901
g68
(g77
g70
NtRp902
(dp903
g73
(dp904
g81
I3
ssg82
Nsg75
(lp905
sbasbasbasbag68
(g84
g70
NtRp906
(dp907
g73
(dp908
sg82
g833
sg75
(lp909
g68
(g89
g70
NtRp910
(dp911
g73
(dp912
g93
g94
ssg82
g906
sg75
(lp913
S'cmd_options'
p914
asbag68
(g89
g70
NtRp915
(dp916
g73
(dp917
g100
g101
ssg82
g906
sg75
(lp918
S':'
asbag68
(g89
g70
NtRp919
(dp920
g73
(dp921
sg82
g906
sg75
(lp922
g68
(g69
g70
NtRp923
(dp924
g73
(dp925
g81
I4
ssg82
g919
sg75
(lp926
S"<Values at 0xa854aec: {'verbose': False, 'ip': '127.0.0.1', 'shutdown_timeout': 5, 'taskbar': False, 'nocron': False, 'pid_filename': 'httpserver.pid', 'maxthreads': None, 'softcron': False, 'server_name': 'krutarth-Compaq-610', 'bpython': False, 'nogui': False, 'port': 8000, 'extcron': False, 'debuglevel': 30, 'test': None, 'folder': '/home/krutarth/Downloads/911india', 'config': '', 'import_models': False, 'winservice': '', 'shell': None, 'run': '', 'log_filename': 'httpserver.log', 'args': [''], 'socket_timeout': 5, 'ssl_ca_certificate': None, 'scheduler': None, 'profiler_filename': None, 'ssl_private_key': '', 'password': '<ask>', 'request_queue_size': 5, 'ssl_certificate': '', 'cronjob': False, 'numthreads': None, 'quiet': False, 'interfaces': None, 'minthreads': None, 'timeout': 10, 'plain': False, 'nobanner': False}>"
p927
asbasbasbag68
(g84
g70
NtRp928
(dp929
g73
(dp930
sg82
g833
sg75
(lp931
g68
(g89
g70
NtRp932
(dp933
g73
(dp934
g93
g94
ssg82
g928
sg75
(lp935
S'db_sessions'
p936
asbag68
(g89
g70
NtRp937
(dp938
g73
(dp939
g100
g101
ssg82
g928
sg75
(lp940
S':'
asbag68
(g89
g70
NtRp941
(dp942
g73
(dp943
sg82
g928
sg75
(lp944
g68
(g69
g70
NtRp945
(dp946
g73
(dp947
g81
I4
ssg82
g941
sg75
(lp948
S'set([])'
p949
asbasbasbag68
(g84
g70
NtRp950
(dp951
g73
(dp952
sg82
g833
sg75
(lp953
g68
(g89
g70
NtRp954
(dp955
g73
(dp956
g93
g94
ssg82
g950
sg75
(lp957
S'debugging'
p958
asbag68
(g89
g70
NtRp959
(dp960
g73
(dp961
g100
g101
ssg82
g950
sg75
(lp962
S':'
asbag68
(g89
g70
NtRp963
(dp964
g73
(dp965
sg82
g950
sg75
(lp966
g68
(g69
g70
NtRp967
(dp968
g73
(dp969
g81
I4
ssg82
g963
sg75
(lp970
g111
asbasbasbag68
(g84
g70
NtRp971
(dp972
g73
(dp973
sg82
g833
sg75
(lp974
g68
(g89
g70
NtRp975
(dp976
g73
(dp977
g93
g94
ssg82
g971
sg75
(lp978
S'gluon_parent'
p979
asbag68
(g89
g70
NtRp980
(dp981
g73
(dp982
g100
g101
ssg82
g971
sg75
(lp983
S':'
asbag68
(g89
g70
NtRp984
(dp985
g73
(dp986
sg82
g971
sg75
(lp987
g68
(g69
g70
NtRp988
(dp989
g73
(dp990
g81
I4
ssg82
g984
sg75
(lp991
S'/home/krutarth/Downloads/911india'
p992
asbasbasbag68
(g84
g70
NtRp993
(dp994
g73
(dp995
sg82
g833
sg75
(lp996
g68
(g89
g70
NtRp997
(dp998
g73
(dp999
g93
g94
ssg82
g993
sg75
(lp1000
S'http_accept'
p1001
asbag68
(g89
g70
NtRp1002
(dp1003
g73
(dp1004
g100
g101
ssg82
g993
sg75
(lp1005
S':'
asbag68
(g89
g70
NtRp1006
(dp1007
g73
(dp1008
sg82
g993
sg75
(lp1009
g68
(g69
g70
NtRp1010
(dp1011
g73
(dp1012
g81
I4
ssg82
g1006
sg75
(lp1013
S'text/html,application/xhtml+xml,application/xml;q=0.9,*/*;q=0.8'
p1014
asbasbasbag68
(g84
g70
NtRp1015
(dp1016
g73
(dp1017
sg82
g833
sg75
(lp1018
g68
(g89
g70
NtRp1019
(dp1020
g73
(dp1021
g93
g94
ssg82
g1015
sg75
(lp1022
S'http_accept_encoding'
p1023
asbag68
(g89
g70
NtRp1024
(dp1025
g73
(dp1026
g100
g101
ssg82
g1015
sg75
(lp1027
S':'
asbag68
(g89
g70
NtRp1028
(dp1029
g73
(dp1030
sg82
g1015
sg75
(lp1031
g68
(g69
g70
NtRp1032
(dp1033
g73
(dp1034
g81
I4
ssg82
g1028
sg75
(lp1035
S'gzip,deflate,sdch'
p1036
asbasbasbag68
(g84
g70
NtRp1037
(dp1038
g73
(dp1039
sg82
g833
sg75
(lp1040
g68
(g89
g70
NtRp1041
(dp1042
g73
(dp1043
g93
g94
ssg82
g1037
sg75
(lp1044
S'http_accept_language'
p1045
asbag68
(g89
g70
NtRp1046
(dp1047
g73
(dp1048
g100
g101
ssg82
g1037
sg75
(lp1049
S':'
asbag68
(g89
g70
NtRp1050
(dp1051
g73
(dp1052
sg82
g1037
sg75
(lp1053
g68
(g69
g70
NtRp1054
(dp1055
g73
(dp1056
g81
I4
ssg82
g1050
sg75
(lp1057
S'en-US,en;q=0.8'
p1058
asbasbasbag68
(g84
g70
NtRp1059
(dp1060
g73
(dp1061
sg82
g833
sg75
(lp1062
g68
(g89
g70
NtRp1063
(dp1064
g73
(dp1065
g93
g94
ssg82
g1059
sg75
(lp1066
S'http_cache_control'
p1067
asbag68
(g89
g70
NtRp1068
(dp1069
g73
(dp1070
g100
g101
ssg82
g1059
sg75
(lp1071
S':'
asbag68
(g89
g70
NtRp1072
(dp1073
g73
(dp1074
sg82
g1059
sg75
(lp1075
g68
(g69
g70
NtRp1076
(dp1077
g73
(dp1078
g81
I4
ssg82
g1072
sg75
(lp1079
S'max-age=0'
p1080
asbasbasbag68
(g84
g70
NtRp1081
(dp1082
g73
(dp1083
sg82
g833
sg75
(lp1084
g68
(g89
g70
NtRp1085
(dp1086
g73
(dp1087
g93
g94
ssg82
g1081
sg75
(lp1088
S'http_connection'
p1089
asbag68
(g89
g70
NtRp1090
(dp1091
g73
(dp1092
g100
g101
ssg82
g1081
sg75
(lp1093
S':'
asbag68
(g89
g70
NtRp1094
(dp1095
g73
(dp1096
sg82
g1081
sg75
(lp1097
g68
(g69
g70
NtRp1098
(dp1099
g73
(dp1100
g81
I4
ssg82
g1094
sg75
(lp1101
S'keep-alive'
p1102
asbasbasbag68
(g84
g70
NtRp1103
(dp1104
g73
(dp1105
sg82
g833
sg75
(lp1106
g68
(g89
g70
NtRp1107
(dp1108
g73
(dp1109
g93
g94
ssg82
g1103
sg75
(lp1110
S'http_cookie'
p1111
asbag68
(g89
g70
NtRp1112
(dp1113
g73
(dp1114
g100
g101
ssg82
g1103
sg75
(lp1115
S':'
asbag68
(g89
g70
NtRp1116
(dp1117
g73
(dp1118
sg82
g1103
sg75
(lp1119
g68
(g69
g70
NtRp1120
(dp1121
g73
(dp1122
g81
I4
ssg82
g1116
sg75
(lp1123
S'session_id_welcome=127.0.0.1-a73fe0b0-571b-4b9c-8cb3-356110c25864; session_id_911_signin=127.0.0.1-6572663b-59b7-4eae-8a04-69e22de716cf; session_id_admin=127.0.0.1-6ea7c853-7f54-451d-bd03-783d5c8e214a'
p1124
asbasbasbag68
(g84
g70
NtRp1125
(dp1126
g73
(dp1127
sg82
g833
sg75
(lp1128
g68
(g89
g70
NtRp1129
(dp1130
g73
(dp1131
g93
g94
ssg82
g1125
sg75
(lp1132
S'http_dnt'
p1133
asbag68
(g89
g70
NtRp1134
(dp1135
g73
(dp1136
g100
g101
ssg82
g1125
sg75
(lp1137
S':'
asbag68
(g89
g70
NtRp1138
(dp1139
g73
(dp1140
sg82
g1125
sg75
(lp1141
g68
(g69
g70
NtRp1142
(dp1143
g73
(dp1144
g81
I4
ssg82
g1138
sg75
(lp1145
S'1'
asbasbasbag68
(g84
g70
NtRp1146
(dp1147
g73
(dp1148
sg82
g833
sg75
(lp1149
g68
(g89
g70
NtRp1150
(dp1151
g73
(dp1152
g93
g94
ssg82
g1146
sg75
(lp1153
S'http_host'
p1154
asbag68
(g89
g70
NtRp1155
(dp1156
g73
(dp1157
g100
g101
ssg82
g1146
sg75
(lp1158
S':'
asbag68
(g89
g70
NtRp1159
(dp1160
g73
(dp1161
sg82
g1146
sg75
(lp1162
g68
(g69
g70
NtRp1163
(dp1164
g73
(dp1165
g81
I4
ssg82
g1159
sg75
(lp1166
S'127.0.0.1:8000'
p1167
asbasbasbag68
(g84
g70
NtRp1168
(dp1169
g73
(dp1170
sg82
g833
sg75
(lp1171
g68
(g89
g70
NtRp1172
(dp1173
g73
(dp1174
g93
g94
ssg82
g1168
sg75
(lp1175
S'http_referer'
p1176
asbag68
(g89
g70
NtRp1177
(dp1178
g73
(dp1179
g100
g101
ssg82
g1168
sg75
(lp1180
S':'
asbag68
(g89
g70
NtRp1181
(dp1182
g73
(dp1183
sg82
g1168
sg75
(lp1184
g68
(g69
g70
NtRp1185
(dp1186
g73
(dp1187
g81
I4
ssg82
g1181
sg75
(lp1188
S'http://127.0.0.1:8000/911_signin/default/index'
p1189
asbasbasbag68
(g84
g70
NtRp1190
(dp1191
g73
(dp1192
sg82
g833
sg75
(lp1193
g68
(g89
g70
NtRp1194
(dp1195
g73
(dp1196
g93
g94
ssg82
g1190
sg75
(lp1197
S'http_user_agent'
p1198
asbag68
(g89
g70
NtRp1199
(dp1200
g73
(dp1201
g100
g101
ssg82
g1190
sg75
(lp1202
S':'
asbag68
(g89
g70
NtRp1203
(dp1204
g73
(dp1205
sg82
g1190
sg75
(lp1206
g68
(g69
g70
NtRp1207
(dp1208
g73
(dp1209
g81
I4
ssg82
g1203
sg75
(lp1210
S'Mozilla/5.0 (X11; Linux i686) AppleWebKit/537.36 (KHTML, like Gecko) Chrome/28.0.1500.70 Safari/537.36'
p1211
asbasbasbag68
(g84
g70
NtRp1212
(dp1213
g73
(dp1214
sg82
g833
sg75
(lp1215
g68
(g89
g70
NtRp1216
(dp1217
g73
(dp1218
g93
g94
ssg82
g1212
sg75
(lp1219
S'is_jython'
p1220
asbag68
(g89
g70
NtRp1221
(dp1222
g73
(dp1223
g100
g101
ssg82
g1212
sg75
(lp1224
S':'
asbag68
(g89
g70
NtRp1225
(dp1226
g73
(dp1227
sg82
g1212
sg75
(lp1228
g68
(g69
g70
NtRp1229
(dp1230
g73
(dp1231
g81
I4
ssg82
g1225
sg75
(lp1232
g111
asbasbasbag68
(g84
g70
NtRp1233
(dp1234
g73
(dp1235
sg82
g833
sg75
(lp1236
g68
(g89
g70
NtRp1237
(dp1238
g73
(dp1239
g93
g94
ssg82
g1233
sg75
(lp1240
S'is_pypy'
p1241
asbag68
(g89
g70
NtRp1242
(dp1243
g73
(dp1244
g100
g101
ssg82
g1233
sg75
(lp1245
S':'
asbag68
(g89
g70
NtRp1246
(dp1247
g73
(dp1248
sg82
g1233
sg75
(lp1249
g68
(g69
g70
NtRp1250
(dp1251
g73
(dp1252
g81
I4
ssg82
g1246
sg75
(lp1253
g111
asbasbasbag68
(g84
g70
NtRp1254
(dp1255
g73
(dp1256
sg82
g833
sg75
(lp1257
g68
(g89
g70
NtRp1258
(dp1259
g73
(dp1260
g93
g94
ssg82
g1254
sg75
(lp1261
S'path_info'
p1262
asbag68
(g89
g70
NtRp1263
(dp1264
g73
(dp1265
g100
g101
ssg82
g1254
sg75
(lp1266
S':'
asbag68
(g89
g70
NtRp1267
(dp1268
g73
(dp1269
sg82
g1254
sg75
(lp1270
g68
(g69
g70
NtRp1271
(dp1272
g73
(dp1273
g81
I4
ssg82
g1267
sg75
(lp1274
S'/911_signin/default/events'
p1275
asbasbasbag68
(g84
g70
NtRp1276
(dp1277
g73
(dp1278
sg82
g833
sg75
(lp1279
g68
(g89
g70
NtRp1280
(dp1281
g73
(dp1282
g93
g94
ssg82
g1276
sg75
(lp1283
S'query_string'
p1284
asbag68
(g89
g70
NtRp1285
(dp1286
g73
(dp1287
g100
g101
ssg82
g1276
sg75
(lp1288
S':'
asbag68
(g89
g70
NtRp1289
(dp1290
g73
(dp1291
sg82
g1276
sg75
(lp1292
g68
(g69
g70
NtRp1293
(dp1294
g73
(dp1295
g81
I4
ssg82
g1289
sg75
(lp1296
S''
asbasbasbag68
(g84
g70
NtRp1297
(dp1298
g73
(dp1299
sg82
g833
sg75
(lp1300
g68
(g89
g70
NtRp1301
(dp1302
g73
(dp1303
g93
g94
ssg82
g1297
sg75
(lp1304
S'remote_addr'
p1305
asbag68
(g89
g70
NtRp1306
(dp1307
g73
(dp1308
g100
g101
ssg82
g1297
sg75
(lp1309
S':'
asbag68
(g89
g70
NtRp1310
(dp1311
g73
(dp1312
sg82
g1297
sg75
(lp1313
g68
(g69
g70
NtRp1314
(dp1315
g73
(dp1316
g81
I4
ssg82
g1310
sg75
(lp1317
g201
asbasbasbag68
(g84
g70
NtRp1318
(dp1319
g73
(dp1320
sg82
g833
sg75
(lp1321
g68
(g89
g70
NtRp1322
(dp1323
g73
(dp1324
g93
g94
ssg82
g1318
sg75
(lp1325
S'remote_port'
p1326
asbag68
(g89
g70
NtRp1327
(dp1328
g73
(dp1329
g100
g101
ssg82
g1318
sg75
(lp1330
S':'
asbag68
(g89
g70
NtRp1331
(dp1332
g73
(dp1333
sg82
g1318
sg75
(lp1334
g68
(g69
g70
NtRp1335
(dp1336
g73
(dp1337
g81
I4
ssg82
g1331
sg75
(lp1338
S'39181'
p1339
asbasbasbag68
(g84
g70
NtRp1340
(dp1341
g73
(dp1342
sg82
g833
sg75
(lp1343
g68
(g89
g70
NtRp1344
(dp1345
g73
(dp1346
g93
g94
ssg82
g1340
sg75
(lp1347
S'request_method'
p1348
asbag68
(g89
g70
NtRp1349
(dp1350
g73
(dp1351
g100
g101
ssg82
g1340
sg75
(lp1352
S':'
asbag68
(g89
g70
NtRp1353
(dp1354
g73
(dp1355
sg82
g1340
sg75
(lp1356
g68
(g69
g70
NtRp1357
(dp1358
g73
(dp1359
g81
I4
ssg82
g1353
sg75
(lp1360
S'GET'
p1361
asbasbasbag68
(g84
g70
NtRp1362
(dp1363
g73
(dp1364
sg82
g833
sg75
(lp1365
g68
(g89
g70
NtRp1366
(dp1367
g73
(dp1368
g93
g94
ssg82
g1362
sg75
(lp1369
S'script_name'
p1370
asbag68
(g89
g70
NtRp1371
(dp1372
g73
(dp1373
g100
g101
ssg82
g1362
sg75
(lp1374
S':'
asbag68
(g89
g70
NtRp1375
(dp1376
g73
(dp1377
sg82
g1362
sg75
(lp1378
g68
(g69
g70
NtRp1379
(dp1380
g73
(dp1381
g81
I4
ssg82
g1375
sg75
(lp1382
S''
asbasbasbag68
(g84
g70
NtRp1383
(dp1384
g73
(dp1385
sg82
g833
sg75
(lp1386
g68
(g89
g70
NtRp1387
(dp1388
g73
(dp1389
g93
g94
ssg82
g1383
sg75
(lp1390
S'server_name'
p1391
asbag68
(g89
g70
NtRp1392
(dp1393
g73
(dp1394
g100
g101
ssg82
g1383
sg75
(lp1395
S':'
asbag68
(g89
g70
NtRp1396
(dp1397
g73
(dp1398
sg82
g1383
sg75
(lp1399
g68
(g69
g70
NtRp1400
(dp1401
g73
(dp1402
g81
I4
ssg82
g1396
sg75
(lp1403
S'krutarth-Compaq-610'
p1404
asbasbasbag68
(g84
g70
NtRp1405
(dp1406
g73
(dp1407
sg82
g833
sg75
(lp1408
g68
(g89
g70
NtRp1409
(dp1410
g73
(dp1411
g93
g94
ssg82
g1405
sg75
(lp1412
S'server_port'
p1413
asbag68
(g89
g70
NtRp1414
(dp1415
g73
(dp1416
g100
g101
ssg82
g1405
sg75
(lp1417
S':'
asbag68
(g89
g70
NtRp1418
(dp1419
g73
(dp1420
sg82
g1405
sg75
(lp1421
g68
(g69
g70
NtRp1422
(dp1423
g73
(dp1424
g81
I4
ssg82
g1418
sg75
(lp1425
S'8000'
p1426
asbasbasbag68
(g84
g70
NtRp1427
(dp1428
g73
(dp1429
sg82
g833
sg75
(lp1430
g68
(g89
g70
NtRp1431
(dp1432
g73
(dp1433
g93
g94
ssg82
g1427
sg75
(lp1434
S'server_protocol'
p1435
asbag68
(g89
g70
NtRp1436
(dp1437
g73
(dp1438
g100
g101
ssg82
g1427
sg75
(lp1439
S':'
asbag68
(g89
g70
NtRp1440
(dp1441
g73
(dp1442
sg82
g1427
sg75
(lp1443
g68
(g69
g70
NtRp1444
(dp1445
g73
(dp1446
g81
I4
ssg82
g1440
sg75
(lp1447
S'HTTP/1.1'
p1448
asbasbasbag68
(g84
g70
NtRp1449
(dp1450
g73
(dp1451
sg82
g833
sg75
(lp1452
g68
(g89
g70
NtRp1453
(dp1454
g73
(dp1455
g93
g94
ssg82
g1449
sg75
(lp1456
S'server_software'
p1457
asbag68
(g89
g70
NtRp1458
(dp1459
g73
(dp1460
g100
g101
ssg82
g1449
sg75
(lp1461
S':'
asbag68
(g89
g70
NtRp1462
(dp1463
g73
(dp1464
sg82
g1449
sg75
(lp1465
g68
(g69
g70
NtRp1466
(dp1467
g73
(dp1468
g81
I4
ssg82
g1462
sg75
(lp1469
S'Rocket 1.2.4'
p1470
asbasbasbag68
(g84
g70
NtRp1471
(dp1472
g73
(dp1473
sg82
g833
sg75
(lp1474
g68
(g89
g70
NtRp1475
(dp1476
g73
(dp1477
g93
g94
ssg82
g1471
sg75
(lp1478
S'web2py_crontype'
p1479
asbag68
(g89
g70
NtRp1480
(dp1481
g73
(dp1482
g100
g101
ssg82
g1471
sg75
(lp1483
S':'
asbag68
(g89
g70
NtRp1484
(dp1485
g73
(dp1486
sg82
g1471
sg75
(lp1487
g68
(g69
g70
NtRp1488
(dp1489
g73
(dp1490
g81
I4
ssg82
g1484
sg75
(lp1491
S'hard'
p1492
asbasbasbag68
(g84
g70
NtRp1493
(dp1494
g73
(dp1495
sg82
g833
sg75
(lp1496
g68
(g89
g70
NtRp1497
(dp1498
g73
(dp1499
g93
g94
ssg82
g1493
sg75
(lp1500
S'web2py_path'
p1501
asbag68
(g89
g70
NtRp1502
(dp1503
g73
(dp1504
g100
g101
ssg82
g1493
sg75
(lp1505
S':'
asbag68
(g89
g70
NtRp1506
(dp1507
g73
(dp1508
sg82
g1493
sg75
(lp1509
g68
(g69
g70
NtRp1510
(dp1511
g73
(dp1512
g81
I4
ssg82
g1506
sg75
(lp1513
g880
asbasbasbag68
(g84
g70
NtRp1514
(dp1515
g73
(dp1516
sg82
g833
sg75
(lp1517
g68
(g89
g70
NtRp1518
(dp1519
g73
(dp1520
g93
g94
ssg82
g1514
sg75
(lp1521
S'web2py_version'
p1522
asbag68
(g89
g70
NtRp1523
(dp1524
g73
(dp1525
g100
g101
ssg82
g1514
sg75
(lp1526
S':'
asbag68
(g89
g70
NtRp1527
(dp1528
g73
(dp1529
sg82
g1514
sg75
(lp1530
g68
(g69
g70
NtRp1531
(dp1532
g73
(dp1533
g81
I4
ssg82
g1527
sg75
(lp1534
g68
(g77
g70
NtRp1535
(dp1536
g73
(dp1537
g81
I3
ssg82
Nsg75
(lp1538
g68
(g84
g70
NtRp1539
(dp1540
g73
(dp1541
sg82
g1535
sg75
(lp1542
g68
(g89
g70
NtRp1543
(dp1544
g73
(dp1545
sg82
g1539
sg75
(lp1546
g68
(g69
g70
NtRp1547
(dp1548
g73
(dp1549
g81
I3
ssg82
g1543
sg75
(lp1550
S'1'
asbasbasbag68
(g84
g70
NtRp1551
(dp1552
g73
(dp1553
sg82
g1535
sg75
(lp1554
g68
(g89
g70
NtRp1555
(dp1556
g73
(dp1557
sg82
g1551
sg75
(lp1558
g68
(g69
g70
NtRp1559
(dp1560
g73
(dp1561
g81
I3
ssg82
g1555
sg75
(lp1562
S'99'
p1563
asbasbasbag68
(g84
g70
NtRp1564
(dp1565
g73
(dp1566
sg82
g1535
sg75
(lp1567
g68
(g89
g70
NtRp1568
(dp1569
g73
(dp1570
sg82
g1564
sg75
(lp1571
g68
(g69
g70
NtRp1572
(dp1573
g73
(dp1574
g81
I3
ssg82
g1568
sg75
(lp1575
S'7'
asbasbasbag68
(g84
g70
NtRp1576
(dp1577
g73
(dp1578
sg82
g1535
sg75
(lp1579
g68
(g89
g70
NtRp1580
(dp1581
g73
(dp1582
sg82
g1576
sg75
(lp1583
g68
(g69
g70
NtRp1584
(dp1585
g73
(dp1586
g81
I3
ssg82
g1580
sg75
(lp1587
S'datetime.datetime(2012, 3, 4, 22, 12, 8)'
p1588
asbasbasbag68
(g84
g70
NtRp1589
(dp1590
g73
(dp1591
sg82
g1535
sg75
(lp1592
g68
(g89
g70
NtRp1593
(dp1594
g73
(dp1595
sg82
g1589
sg75
(lp1596
g68
(g69
g70
NtRp1597
(dp1598
g73
(dp1599
g81
I3
ssg82
g1593
sg75
(lp1600
S'stable'
p1601
asbasbasbasbasbasbasbag68
(g84
g70
NtRp1602
(dp1603
g73
(dp1604
sg82
g833
sg75
(lp1605
g68
(g89
g70
NtRp1606
(dp1607
g73
(dp1608
g93
g94
ssg82
g1602
sg75
(lp1609
S'wsgi_errors'
p1610
asbag68
(g89
g70
NtRp1611
(dp1612
g73
(dp1613
g100
g101
ssg82
g1602
sg75
(lp1614
S':'
asbag68
(g89
g70
NtRp1615
(dp1616
g73
(dp1617
sg82
g1602
sg75
(lp1618
g68
(g69
g70
NtRp1619
(dp1620
g73
(dp1621
g81
I4
ssg82
g1615
sg75
(lp1622
S"<open file '<stderr>', mode 'w' at 0xb75190d0>"
p1623
asbasbasbag68
(g84
g70
NtRp1624
(dp1625
g73
(dp1626
sg82
g833
sg75
(lp1627
g68
(g89
g70
NtRp1628
(dp1629
g73
(dp1630
g93
g94
ssg82
g1624
sg75
(lp1631
S'wsgi_file_wrapper'
p1632
asbag68
(g89
g70
NtRp1633
(dp1634
g73
(dp1635
g100
g101
ssg82
g1624
sg75
(lp1636
S':'
asbag68
(g89
g70
NtRp1637
(dp1638
g73
(dp1639
sg82
g1624
sg75
(lp1640
g68
(g69
g70
NtRp1641
(dp1642
g73
(dp1643
g81
I4
ssg82
g1637
sg75
(lp1644
S'<class wsgiref.util.FileWrapper at 0xb6a4f1dc>'
p1645
asbasbasbag68
(g84
g70
NtRp1646
(dp1647
g73
(dp1648
sg82
g833
sg75
(lp1649
g68
(g89
g70
NtRp1650
(dp1651
g73
(dp1652
g93
g94
ssg82
g1646
sg75
(lp1653
S'wsgi_input'
p1654
asbag68
(g89
g70
NtRp1655
(dp1656
g73
(dp1657
g100
g101
ssg82
g1646
sg75
(lp1658
S':'
asbag68
(g89
g70
NtRp1659
(dp1660
g73
(dp1661
sg82
g1646
sg75
(lp1662
g68
(g69
g70
NtRp1663
(dp1664
g73
(dp1665
g81
I4
ssg82
g1659
sg75
(lp1666
S'<socket._fileobject object at 0xa69712c>'
p1667
asbasbasbag68
(g84
g70
NtRp1668
(dp1669
g73
(dp1670
sg82
g833
sg75
(lp1671
g68
(g89
g70
NtRp1672
(dp1673
g73
(dp1674
g93
g94
ssg82
g1668
sg75
(lp1675
S'wsgi_multiprocess'
p1676
asbag68
(g89
g70
NtRp1677
(dp1678
g73
(dp1679
g100
g101
ssg82
g1668
sg75
(lp1680
S':'
asbag68
(g89
g70
NtRp1681
(dp1682
g73
(dp1683
sg82
g1668
sg75
(lp1684
g68
(g69
g70
NtRp1685
(dp1686
g73
(dp1687
g81
I4
ssg82
g1681
sg75
(lp1688
g111
asbasbasbag68
(g84
g70
NtRp1689
(dp1690
g73
(dp1691
sg82
g833
sg75
(lp1692
g68
(g89
g70
NtRp1693
(dp1694
g73
(dp1695
g93
g94
ssg82
g1689
sg75
(lp1696
S'wsgi_multithread'
p1697
asbag68
(g89
g70
NtRp1698
(dp1699
g73
(dp1700
g100
g101
ssg82
g1689
sg75
(lp1701
S':'
asbag68
(g89
g70
NtRp1702
(dp1703
g73
(dp1704
sg82
g1689
sg75
(lp1705
g68
(g69
g70
NtRp1706
(dp1707
g73
(dp1708
g81
I4
ssg82
g1702
sg75
(lp1709
S'True'
p1710
asbasbasbag68
(g84
g70
NtRp1711
(dp1712
g73
(dp1713
sg82
g833
sg75
(lp1714
g68
(g89
g70
NtRp1715
(dp1716
g73
(dp1717
g93
g94
ssg82
g1711
sg75
(lp1718
S'wsgi_run_once'
p1719
asbag68
(g89
g70
NtRp1720
(dp1721
g73
(dp1722
g100
g101
ssg82
g1711
sg75
(lp1723
S':'
asbag68
(g89
g70
NtRp1724
(dp1725
g73
(dp1726
sg82
g1711
sg75
(lp1727
g68
(g69
g70
NtRp1728
(dp1729
g73
(dp1730
g81
I4
ssg82
g1724
sg75
(lp1731
g111
asbasbasbag68
(g84
g70
NtRp1732
(dp1733
g73
(dp1734
sg82
g833
sg75
(lp1735
g68
(g89
g70
NtRp1736
(dp1737
g73
(dp1738
g93
g94
ssg82
g1732
sg75
(lp1739
S'wsgi_url_scheme'
p1740
asbag68
(g89
g70
NtRp1741
(dp1742
g73
(dp1743
g100
g101
ssg82
g1732
sg75
(lp1744
S':'
asbag68
(g89
g70
NtRp1745
(dp1746
g73
(dp1747
sg82
g1732
sg75
(lp1748
g68
(g69
g70
NtRp1749
(dp1750
g73
(dp1751
g81
I4
ssg82
g1745
sg75
(lp1752
S'http'
p1753
asbasbasbag68
(g84
g70
NtRp1754
(dp1755
g73
(dp1756
sg82
g833
sg75
(lp1757
g68
(g89
g70
NtRp1758
(dp1759
g73
(dp1760
g93
g94
ssg82
g1754
sg75
(lp1761
S'wsgi_version'
p1762
asbag68
(g89
g70
NtRp1763
(dp1764
g73
(dp1765
g100
g101
ssg82
g1754
sg75
(lp1766
S':'
asbag68
(g89
g70
NtRp1767
(dp1768
g73
(dp1769
sg82
g1754
sg75
(lp1770
g68
(g69
g70
NtRp1771
(dp1772
g73
(dp1773
g81
I4
ssg82
g1767
sg75
(lp1774
g68
(g77
g70
NtRp1775
(dp1776
g73
(dp1777
g81
I3
ssg82
Nsg75
(lp1778
g68
(g84
g70
NtRp1779
(dp1780
g73
(dp1781
sg82
g1775
sg75
(lp1782
g68
(g89
g70
NtRp1783
(dp1784
g73
(dp1785
sg82
g1779
sg75
(lp1786
g68
(g69
g70
NtRp1787
(dp1788
g73
(dp1789
g81
I3
ssg82
g1783
sg75
(lp1790
S'1'
asbasbasbag68
(g84
g70
NtRp1791
(dp1792
g73
(dp1793
sg82
g1775
sg75
(lp1794
g68
(g89
g70
NtRp1795
(dp1796
g73
(dp1797
sg82
g1791
sg75
(lp1798
g68
(g69
g70
NtRp1799
(dp1800
g73
(dp1801
g81
I3
ssg82
g1795
sg75
(lp1802
S'0'
asbasbasbasbasbasbasbasbasbasbasbag68
(g84
g70
NtRp1803
(dp1804
g73
(dp1805
sg82
g78
sg75
(lp1806
g68
(g89
g70
NtRp1807
(dp1808
g73
(dp1809
g93
g94
ssg82
g1803
sg75
(lp1810
S'extension'
p1811
asbag68
(g89
g70
NtRp1812
(dp1813
g73
(dp1814
g100
g101
ssg82
g1803
sg75
(lp1815
S':'
asbag68
(g89
g70
NtRp1816
(dp1817
g73
(dp1818
sg82
g1803
sg75
(lp1819
g68
(g69
g70
NtRp1820
(dp1821
g73
(dp1822
g81
I5
ssg82
g1816
sg75
(lp1823
S'html'
p1824
asbasbasbag68
(g84
g70
NtRp1825
(dp1826
g73
(dp1827
sg82
g78
sg75
(lp1828
g68
(g89
g70
NtRp1829
(dp1830
g73
(dp1831
g93
g94
ssg82
g1825
sg75
(lp1832
S'folder'
p1833
asbag68
(g89
g70
NtRp1834
(dp1835
g73
(dp1836
g100
g101
ssg82
g1825
sg75
(lp1837
S':'
asbag68
(g89
g70
NtRp1838
(dp1839
g73
(dp1840
sg82
g1825
sg75
(lp1841
g68
(g69
g70
NtRp1842
(dp1843
g73
(dp1844
g81
I5
ssg82
g1838
sg75
(lp1845
S'/home/krutarth/Downloads/911india/applications/911_signin/'
p1846
asbasbasbag68
(g84
g70
NtRp1847
(dp1848
g73
(dp1849
sg82
g78
sg75
(lp1850
g68
(g89
g70
NtRp1851
(dp1852
g73
(dp1853
g93
g94
ssg82
g1847
sg75
(lp1854
S'function'
p1855
asbag68
(g89
g70
NtRp1856
(dp1857
g73
(dp1858
g100
g101
ssg82
g1847
sg75
(lp1859
S':'
asbag68
(g89
g70
NtRp1860
(dp1861
g73
(dp1862
sg82
g1847
sg75
(lp1863
g68
(g69
g70
NtRp1864
(dp1865
g73
(dp1866
g81
I5
ssg82
g1860
sg75
(lp1867
S'events'
p1868
asbasbasbag68
(g84
g70
NtRp1869
(dp1870
g73
(dp1871
sg82
g78
sg75
(lp1872
g68
(g89
g70
NtRp1873
(dp1874
g73
(dp1875
g93
g94
ssg82
g1869
sg75
(lp1876
S'get_vars'
p1877
asbag68
(g89
g70
NtRp1878
(dp1879
g73
(dp1880
g100
g101
ssg82
g1869
sg75
(lp1881
S':'
asbag68
(g89
g70
NtRp1882
(dp1883
g73
(dp1884
sg82
g1869
sg75
(lp1885
g68
(g69
g70
NtRp1886
(dp1887
g73
(dp1888
g81
I5
ssg82
g1882
sg75
(lp1889
g68
(g77
g70
NtRp1890
(dp1891
g73
(dp1892
g81
I4
ssg82
Nsg75
(lp1893
sbasbasbasbag68
(g84
g70
NtRp1894
(dp1895
g73
(dp1896
sg82
g78
sg75
(lp1897
g68
(g89
g70
NtRp1898
(dp1899
g73
(dp1900
g93
g94
ssg82
g1894
sg75
(lp1901
S'global_settings'
p1902
asbag68
(g89
g70
NtRp1903
(dp1904
g73
(dp1905
g100
g101
ssg82
g1894
sg75
(lp1906
S':'
asbag68
(g89
g70
NtRp1907
(dp1908
g73
(dp1909
sg82
g1894
sg75
(lp1910
g68
(g69
g70
NtRp1911
(dp1912
g73
(dp1913
g81
I5
ssg82
g1907
sg75
(lp1914
g68
(g77
g70
NtRp1915
(dp1916
g73
(dp1917
g81
I4
ssg82
Nsg75
(lp1918
g68
(g84
g70
NtRp1919
(dp1920
g73
(dp1921
sg82
g1915
sg75
(lp1922
g68
(g89
g70
NtRp1923
(dp1924
g73
(dp1925
g93
g94
ssg82
g1919
sg75
(lp1926
g845
asbag68
(g89
g70
NtRp1927
(dp1928
g73
(dp1929
g100
g101
ssg82
g1919
sg75
(lp1930
S':'
asbag68
(g89
g70
NtRp1931
(dp1932
g73
(dp1933
sg82
g1919
sg75
(lp1934
g68
(g69
g70
NtRp1935
(dp1936
g73
(dp1937
g81
I4
ssg82
g1931
sg75
(lp1938
S"set(['/home/krutarth/Downloads/911india/applications/welcome/', '/home/krutarth/Downloads/911india/applications/911_signin/', '/home/krutarth/Downloads/911india/applications/admin/'])"
p1939
asbasbasbag68
(g84
g70
NtRp1940
(dp1941
g73
(dp1942
sg82
g1915
sg75
(lp1943
g68
(g89
g70
NtRp1944
(dp1945
g73
(dp1946
g93
g94
ssg82
g1940
sg75
(lp1947
g867
asbag68
(g89
g70
NtRp1948
(dp1949
g73
(dp1950
g100
g101
ssg82
g1940
sg75
(lp1951
S':'
asbag68
(g89
g70
NtRp1952
(dp1953
g73
(dp1954
sg82
g1940
sg75
(lp1955
g68
(g69
g70
NtRp1956
(dp1957
g73
(dp1958
g81
I4
ssg82
g1952
sg75
(lp1959
g880
asbasbasbag68
(g84
g70
NtRp1960
(dp1961
g73
(dp1962
sg82
g1915
sg75
(lp1963
g68
(g89
g70
NtRp1964
(dp1965
g73
(dp1966
g93
g94
ssg82
g1960
sg75
(lp1967
g889
asbag68
(g89
g70
NtRp1968
(dp1969
g73
(dp1970
g100
g101
ssg82
g1960
sg75
(lp1971
S':'
asbag68
(g89
g70
NtRp1972
(dp1973
g73
(dp1974
sg82
g1960
sg75
(lp1975
g68
(g69
g70
NtRp1976
(dp1977
g73
(dp1978
g81
I4
ssg82
g1972
sg75
(lp1979
g68
(g77
g70
NtRp1980
(dp1981
g73
(dp1982
g81
I3
ssg82
Nsg75
(lp1983
sbasbasbasbag68
(g84
g70
NtRp1984
(dp1985
g73
(dp1986
sg82
g1915
sg75
(lp1987
g68
(g89
g70
NtRp1988
(dp1989
g73
(dp1990
g93
g94
ssg82
g1984
sg75
(lp1991
g914
asbag68
(g89
g70
NtRp1992
(dp1993
g73
(dp1994
g100
g101
ssg82
g1984
sg75
(lp1995
S':'
asbag68
(g89
g70
NtRp1996
(dp1997
g73
(dp1998
sg82
g1984
sg75
(lp1999
g68
(g69
g70
NtRp2000
(dp2001
g73
(dp2002
g81
I4
ssg82
g1996
sg75
(lp2003
S"<Values at 0xa854aec: {'verbose': False, 'ip': '127.0.0.1', 'shutdown_timeout': 5, 'taskbar': False, 'nocron': False, 'pid_filename': 'httpserver.pid', 'maxthreads': None, 'softcron': False, 'server_name': 'krutarth-Compaq-610', 'bpython': False, 'nogui': False, 'port': 8000, 'extcron': False, 'debuglevel': 30, 'test': None, 'folder': '/home/krutarth/Downloads/911india', 'config': '', 'import_models': False, 'winservice': '', 'shell': None, 'run': '', 'log_filename': 'httpserver.log', 'args': [''], 'socket_timeout': 5, 'ssl_ca_certificate': None, 'scheduler': None, 'profiler_filename': None, 'ssl_private_key': '', 'password': '<ask>', 'request_queue_size': 5, 'ssl_certificate': '', 'cronjob': False, 'numthreads': None, 'quiet': False, 'interfaces': None, 'minthreads': None, 'timeout': 10, 'plain': False, 'nobanner': False}>"
p2004
asbasbasbag68
(g84
g70
NtRp2005
(dp2006
g73
(dp2007
sg82
g1915
sg75
(lp2008
g68
(g89
g70
NtRp2009
(dp2010
g73
(dp2011
g93
g94
ssg82
g2005
sg75
(lp2012
g936
asbag68
(g89
g70
NtRp2013
(dp2014
g73
(dp2015
g100
g101
ssg82
g2005
sg75
(lp2016
S':'
asbag68
(g89
g70
NtRp2017
(dp2018
g73
(dp2019
sg82
g2005
sg75
(lp2020
g68
(g69
g70
NtRp2021
(dp2022
g73
(dp2023
g81
I4
ssg82
g2017
sg75
(lp2024
S'set([])'
p2025
asbasbasbag68
(g84
g70
NtRp2026
(dp2027
g73
(dp2028
sg82
g1915
sg75
(lp2029
g68
(g89
g70
NtRp2030
(dp2031
g73
(dp2032
g93
g94
ssg82
g2026
sg75
(lp2033
g958
asbag68
(g89
g70
NtRp2034
(dp2035
g73
(dp2036
g100
g101
ssg82
g2026
sg75
(lp2037
S':'
asbag68
(g89
g70
NtRp2038
(dp2039
g73
(dp2040
sg82
g2026
sg75
(lp2041
g68
(g69
g70
NtRp2042
(dp2043
g73
(dp2044
g81
I4
ssg82
g2038
sg75
(lp2045
g111
asbasbasbag68
(g84
g70
NtRp2046
(dp2047
g73
(dp2048
sg82
g1915
sg75
(lp2049
g68
(g89
g70
NtRp2050
(dp2051
g73
(dp2052
g93
g94
ssg82
g2046
sg75
(lp2053
g979
asbag68
(g89
g70
NtRp2054
(dp2055
g73
(dp2056
g100
g101
ssg82
g2046
sg75
(lp2057
S':'
asbag68
(g89
g70
NtRp2058
(dp2059
g73
(dp2060
sg82
g2046
sg75
(lp2061
g68
(g69
g70
NtRp2062
(dp2063
g73
(dp2064
g81
I4
ssg82
g2058
sg75
(lp2065
g992
asbasbasbag68
(g84
g70
NtRp2066
(dp2067
g73
(dp2068
sg82
g1915
sg75
(lp2069
g68
(g89
g70
NtRp2070
(dp2071
g73
(dp2072
g93
g94
ssg82
g2066
sg75
(lp2073
g1220
asbag68
(g89
g70
NtRp2074
(dp2075
g73
(dp2076
g100
g101
ssg82
g2066
sg75
(lp2077
S':'
asbag68
(g89
g70
NtRp2078
(dp2079
g73
(dp2080
sg82
g2066
sg75
(lp2081
g68
(g69
g70
NtRp2082
(dp2083
g73
(dp2084
g81
I4
ssg82
g2078
sg75
(lp2085
g111
asbasbasbag68
(g84
g70
NtRp2086
(dp2087
g73
(dp2088
sg82
g1915
sg75
(lp2089
g68
(g89
g70
NtRp2090
(dp2091
g73
(dp2092
g93
g94
ssg82
g2086
sg75
(lp2093
g1241
asbag68
(g89
g70
NtRp2094
(dp2095
g73
(dp2096
g100
g101
ssg82
g2086
sg75
(lp2097
S':'
asbag68
(g89
g70
NtRp2098
(dp2099
g73
(dp2100
sg82
g2086
sg75
(lp2101
g68
(g69
g70
NtRp2102
(dp2103
g73
(dp2104
g81
I4
ssg82
g2098
sg75
(lp2105
g111
asbasbasbag68
(g84
g70
NtRp2106
(dp2107
g73
(dp2108
sg82
g1915
sg75
(lp2109
g68
(g89
g70
NtRp2110
(dp2111
g73
(dp2112
g93
g94
ssg82
g2106
sg75
(lp2113
g1479
asbag68
(g89
g70
NtRp2114
(dp2115
g73
(dp2116
g100
g101
ssg82
g2106
sg75
(lp2117
S':'
asbag68
(g89
g70
NtRp2118
(dp2119
g73
(dp2120
sg82
g2106
sg75
(lp2121
g68
(g69
g70
NtRp2122
(dp2123
g73
(dp2124
g81
I4
ssg82
g2118
sg75
(lp2125
g1492
asbasbasbag68
(g84
g70
NtRp2126
(dp2127
g73
(dp2128
sg82
g1915
sg75
(lp2129
g68
(g89
g70
NtRp2130
(dp2131
g73
(dp2132
g93
g94
ssg82
g2126
sg75
(lp2133
g1522
asbag68
(g89
g70
NtRp2134
(dp2135
g73
(dp2136
g100
g101
ssg82
g2126
sg75
(lp2137
S':'
asbag68
(g89
g70
NtRp2138
(dp2139
g73
(dp2140
sg82
g2126
sg75
(lp2141
g68
(g69
g70
NtRp2142
(dp2143
g73
(dp2144
g81
I4
ssg82
g2138
sg75
(lp2145
g68
(g77
g70
NtRp2146
(dp2147
g73
(dp2148
g81
I3
ssg82
Nsg75
(lp2149
g68
(g84
g70
NtRp2150
(dp2151
g73
(dp2152
sg82
g2146
sg75
(lp2153
g68
(g89
g70
NtRp2154
(dp2155
g73
(dp2156
sg82
g2150
sg75
(lp2157
g68
(g69
g70
NtRp2158
(dp2159
g73
(dp2160
g81
I3
ssg82
g2154
sg75
(lp2161
S'1'
asbasbasbag68
(g84
g70
NtRp2162
(dp2163
g73
(dp2164
sg82
g2146
sg75
(lp2165
g68
(g89
g70
NtRp2166
(dp2167
g73
(dp2168
sg82
g2162
sg75
(lp2169
g68
(g69
g70
NtRp2170
(dp2171
g73
(dp2172
g81
I3
ssg82
g2166
sg75
(lp2173
S'99'
p2174
asbasbasbag68
(g84
g70
NtRp2175
(dp2176
g73
(dp2177
sg82
g2146
sg75
(lp2178
g68
(g89
g70
NtRp2179
(dp2180
g73
(dp2181
sg82
g2175
sg75
(lp2182
g68
(g69
g70
NtRp2183
(dp2184
g73
(dp2185
g81
I3
ssg82
g2179
sg75
(lp2186
S'7'
asbasbasbag68
(g84
g70
NtRp2187
(dp2188
g73
(dp2189
sg82
g2146
sg75
(lp2190
g68
(g89
g70
NtRp2191
(dp2192
g73
(dp2193
sg82
g2187
sg75
(lp2194
g68
(g69
g70
NtRp2195
(dp2196
g73
(dp2197
g81
I3
ssg82
g2191
sg75
(lp2198
S'datetime.datetime(2012, 3, 4, 22, 12, 8)'
p2199
asbasbasbag68
(g84
g70
NtRp2200
(dp2201
g73
(dp2202
sg82
g2146
sg75
(lp2203
g68
(g89
g70
NtRp2204
(dp2205
g73
(dp2206
sg82
g2200
sg75
(lp2207
g68
(g69
g70
NtRp2208
(dp2209
g73
(dp2210
g81
I3
ssg82
g2204
sg75
(lp2211
g1601
asbasbasbasbasbasbasbasbasbasbasbag68
(g84
g70
NtRp2212
(dp2213
g73
(dp2214
sg82
g78
sg75
(lp2215
g68
(g89
g70
NtRp2216
(dp2217
g73
(dp2218
g93
g94
ssg82
g2212
sg75
(lp2219
S'is_https'
p2220
asbag68
(g89
g70
NtRp2221
(dp2222
g73
(dp2223
g100
g101
ssg82
g2212
sg75
(lp2224
S':'
asbag68
(g89
g70
NtRp2225
(dp2226
g73
(dp2227
sg82
g2212
sg75
(lp2228
g68
(g69
g70
NtRp2229
(dp2230
g73
(dp2231
g81
I5
ssg82
g2225
sg75
(lp2232
g111
asbasbasbag68
(g84
g70
NtRp2233
(dp2234
g73
(dp2235
sg82
g78
sg75
(lp2236
g68
(g89
g70
NtRp2237
(dp2238
g73
(dp2239
g93
g94
ssg82
g2233
sg75
(lp2240
S'is_local'
p2241
asbag68
(g89
g70
NtRp2242
(dp2243
g73
(dp2244
g100
g101
ssg82
g2233
sg75
(lp2245
S':'
asbag68
(g89
g70
NtRp2246
(dp2247
g73
(dp2248
sg82
g2233
sg75
(lp2249
g68
(g69
g70
NtRp2250
(dp2251
g73
(dp2252
g81
I5
ssg82
g2246
sg75
(lp2253
g1710
asbasbasbag68
(g84
g70
NtRp2254
(dp2255
g73
(dp2256
sg82
g78
sg75
(lp2257
g68
(g89
g70
NtRp2258
(dp2259
g73
(dp2260
g93
g94
ssg82
g2254
sg75
(lp2261
S'is_restful'
p2262
asbag68
(g89
g70
NtRp2263
(dp2264
g73
(dp2265
g100
g101
ssg82
g2254
sg75
(lp2266
S':'
asbag68
(g89
g70
NtRp2267
(dp2268
g73
(dp2269
sg82
g2254
sg75
(lp2270
g68
(g69
g70
NtRp2271
(dp2272
g73
(dp2273
g81
I5
ssg82
g2267
sg75
(lp2274
g111
asbasbasbag68
(g84
g70
NtRp2275
(dp2276
g73
(dp2277
sg82
g78
sg75
(lp2278
g68
(g89
g70
NtRp2279
(dp2280
g73
(dp2281
g93
g94
ssg82
g2275
sg75
(lp2282
S'now'
p2283
asbag68
(g89
g70
NtRp2284
(dp2285
g73
(dp2286
g100
g101
ssg82
g2275
sg75
(lp2287
S':'
asbag68
(g89
g70
NtRp2288
(dp2289
g73
(dp2290
sg82
g2275
sg75
(lp2291
g68
(g69
g70
NtRp2292
(dp2293
g73
(dp2294
g81
I5
ssg82
g2288
sg75
(lp2295
S'datetime.datetime(2013, 7, 5, 2, 39, 37, 810304)'
p2296
asbasbasbag68
(g84
g70
NtRp2297
(dp2298
g73
(dp2299
sg82
g78
sg75
(lp2300
g68
(g89
g70
NtRp2301
(dp2302
g73
(dp2303
g93
g94
ssg82
g2297
sg75
(lp2304
S'post_vars'
p2305
asbag68
(g89
g70
NtRp2306
(dp2307
g73
(dp2308
g100
g101
ssg82
g2297
sg75
(lp2309
S':'
asbag68
(g89
g70
NtRp2310
(dp2311
g73
(dp2312
sg82
g2297
sg75
(lp2313
g68
(g69
g70
NtRp2314
(dp2315
g73
(dp2316
g81
I5
ssg82
g2310
sg75
(lp2317
g68
(g77
g70
NtRp2318
(dp2319
g73
(dp2320
g81
I4
ssg82
Nsg75
(lp2321
sbasbasbasbag68
(g84
g70
NtRp2322
(dp2323
g73
(dp2324
sg82
g78
sg75
(lp2325
g68
(g89
g70
NtRp2326
(dp2327
g73
(dp2328
g93
g94
ssg82
g2322
sg75
(lp2329
S'url'
p2330
asbag68
(g89
g70
NtRp2331
(dp2332
g73
(dp2333
g100
g101
ssg82
g2322
sg75
(lp2334
S':'
asbag68
(g89
g70
NtRp2335
(dp2336
g73
(dp2337
sg82
g2322
sg75
(lp2338
g68
(g69
g70
NtRp2339
(dp2340
g73
(dp2341
g81
I5
ssg82
g2335
sg75
(lp2342
S'/911_signin/default/events'
p2343
asbasbasbag68
(g84
g70
NtRp2344
(dp2345
g73
(dp2346
sg82
g78
sg75
(lp2347
g68
(g89
g70
NtRp2348
(dp2349
g73
(dp2350
g93
g94
ssg82
g2344
sg75
(lp2351
S'utcnow'
p2352
asbag68
(g89
g70
NtRp2353
(dp2354
g73
(dp2355
g100
g101
ssg82
g2344
sg75
(lp2356
S':'
asbag68
(g89
g70
NtRp2357
(dp2358
g73
(dp2359
sg82
g2344
sg75
(lp2360
g68
(g69
g70
NtRp2361
(dp2362
g73
(dp2363
g81
I5
ssg82
g2357
sg75
(lp2364
S'datetime.datetime(2013, 7, 4, 21, 9, 37, 810335)'
p2365
asbasbasbag68
(g84
g70
NtRp2366
(dp2367
g73
(dp2368
sg82
g78
sg75
(lp2369
g68
(g89
g70
NtRp2370
(dp2371
g73
(dp2372
g93
g94
ssg82
g2366
sg75
(lp2373
S'uuid'
p2374
asbag68
(g89
g70
NtRp2375
(dp2376
g73
(dp2377
g100
g101
ssg82
g2366
sg75
(lp2378
S':'
asbag68
(g89
g70
NtRp2379
(dp2380
g73
(dp2381
sg82
g2366
sg75
(lp2382
g68
(g69
g70
NtRp2383
(dp2384
g73
(dp2385
g81
I5
ssg82
g2379
sg75
(lp2386
S'911_signin/127.0.0.1.2013-07-05.02-39-37.21cef55b-887c-418b-9e37-28b2f36cbee6'
p2387
asbasbasbag68
(g84
g70
NtRp2388
(dp2389
g73
(dp2390
sg82
g78
sg75
(lp2391
g68
(g89
g70
NtRp2392
(dp2393
g73
(dp2394
g93
g94
ssg82
g2388
sg75
(lp2395
S'vars'
p2396
asbag68
(g89
g70
NtRp2397
(dp2398
g73
(dp2399
g100
g101
ssg82
g2388
sg75
(lp2400
S':'
asbag68
(g89
g70
NtRp2401
(dp2402
g73
(dp2403
sg82
g2388
sg75
(lp2404
g68
(g69
g70
NtRp2405
(dp2406
g73
(dp2407
g81
I5
ssg82
g2401
sg75
(lp2408
g68
(g77
g70
NtRp2409
(dp2410
g73
(dp2411
g81
I4
ssg82
Nsg75
(lp2412
sbasbasbasbag68
(g84
g70
NtRp2413
(dp2414
g73
(dp2415
sg82
g78
sg75
(lp2416
g68
(g89
g70
NtRp2417
(dp2418
g73
(dp2419
g93
g94
ssg82
g2413
sg75
(lp2420
S'wsgi'
p2421
asbag68
(g89
g70
NtRp2422
(dp2423
g73
(dp2424
g100
g101
ssg82
g2413
sg75
(lp2425
S':'
asbag68
(g89
g70
NtRp2426
(dp2427
g73
(dp2428
sg82
g2413
sg75
(lp2429
g68
(g69
g70
NtRp2430
(dp2431
g73
(dp2432
g81
I5
ssg82
g2426
sg75
(lp2433
g68
(g77
g70
NtRp2434
(dp2435
g73
(dp2436
g81
I4
ssg82
Nsg75
(lp2437
g68
(g84
g70
NtRp2438
(dp2439
g73
(dp2440
sg82
g2434
sg75
(lp2441
g68
(g89
g70
NtRp2442
(dp2443
g73
(dp2444
g93
g94
ssg82
g2438
sg75
(lp2445
S'environ'
p2446
asbag68
(g89
g70
NtRp2447
(dp2448
g73
(dp2449
g100
g101
ssg82
g2438
sg75
(lp2450
S':'
asbag68
(g89
g70
NtRp2451
(dp2452
g73
(dp2453
sg82
g2438
sg75
(lp2454
g68
(g69
g70
NtRp2455
(dp2456
g73
(dp2457
g81
I4
ssg82
g2451
sg75
(lp2458
g68
(g77
g70
NtRp2459
(dp2460
g73
(dp2461
g81
I3
ssg82
Nsg75
(lp2462
g68
(g84
g70
NtRp2463
(dp2464
g73
(dp2465
sg82
g2459
sg75
(lp2466
g68
(g89
g70
NtRp2467
(dp2468
g73
(dp2469
g93
g94
ssg82
g2463
sg75
(lp2470
S'HTTP_ACCEPT'
p2471
asbag68
(g89
g70
NtRp2472
(dp2473
g73
(dp2474
g100
g101
ssg82
g2463
sg75
(lp2475
S':'
asbag68
(g89
g70
NtRp2476
(dp2477
g73
(dp2478
sg82
g2463
sg75
(lp2479
g68
(g69
g70
NtRp2480
(dp2481
g73
(dp2482
g81
I3
ssg82
g2476
sg75
(lp2483
g1014
asbasbasbag68
(g84
g70
NtRp2484
(dp2485
g73
(dp2486
sg82
g2459
sg75
(lp2487
g68
(g89
g70
NtRp2488
(dp2489
g73
(dp2490
g93
g94
ssg82
g2484
sg75
(lp2491
S'HTTP_ACCEPT_ENCODING'
p2492
asbag68
(g89
g70
NtRp2493
(dp2494
g73
(dp2495
g100
g101
ssg82
g2484
sg75
(lp2496
S':'
asbag68
(g89
g70
NtRp2497
(dp2498
g73
(dp2499
sg82
g2484
sg75
(lp2500
g68
(g69
g70
NtRp2501
(dp2502
g73
(dp2503
g81
I3
ssg82
g2497
sg75
(lp2504
g1036
asbasbasbag68
(g84
g70
NtRp2505
(dp2506
g73
(dp2507
sg82
g2459
sg75
(lp2508
g68
(g89
g70
NtRp2509
(dp2510
g73
(dp2511
g93
g94
ssg82
g2505
sg75
(lp2512
S'HTTP_ACCEPT_LANGUAGE'
p2513
asbag68
(g89
g70
NtRp2514
(dp2515
g73
(dp2516
g100
g101
ssg82
g2505
sg75
(lp2517
S':'
asbag68
(g89
g70
NtRp2518
(dp2519
g73
(dp2520
sg82
g2505
sg75
(lp2521
g68
(g69
g70
NtRp2522
(dp2523
g73
(dp2524
g81
I3
ssg82
g2518
sg75
(lp2525
g1058
asbasbasbag68
(g84
g70
NtRp2526
(dp2527
g73
(dp2528
sg82
g2459
sg75
(lp2529
g68
(g89
g70
NtRp2530
(dp2531
g73
(dp2532
g93
g94
ssg82
g2526
sg75
(lp2533
S'HTTP_CACHE_CONTROL'
p2534
asbag68
(g89
g70
NtRp2535
(dp2536
g73
(dp2537
g100
g101
ssg82
g2526
sg75
(lp2538
S':'
asbag68
(g89
g70
NtRp2539
(dp2540
g73
(dp2541
sg82
g2526
sg75
(lp2542
g68
(g69
g70
NtRp2543
(dp2544
g73
(dp2545
g81
I3
ssg82
g2539
sg75
(lp2546
g1080
asbasbasbag68
(g84
g70
NtRp2547
(dp2548
g73
(dp2549
sg82
g2459
sg75
(lp2550
g68
(g89
g70
NtRp2551
(dp2552
g73
(dp2553
g93
g94
ssg82
g2547
sg75
(lp2554
S'HTTP_CONNECTION'
p2555
asbag68
(g89
g70
NtRp2556
(dp2557
g73
(dp2558
g100
g101
ssg82
g2547
sg75
(lp2559
S':'
asbag68
(g89
g70
NtRp2560
(dp2561
g73
(dp2562
sg82
g2547
sg75
(lp2563
g68
(g69
g70
NtRp2564
(dp2565
g73
(dp2566
g81
I3
ssg82
g2560
sg75
(lp2567
g1102
asbasbasbag68
(g84
g70
NtRp2568
(dp2569
g73
(dp2570
sg82
g2459
sg75
(lp2571
g68
(g89
g70
NtRp2572
(dp2573
g73
(dp2574
g93
g94
ssg82
g2568
sg75
(lp2575
S'HTTP_COOKIE'
p2576
asbag68
(g89
g70
NtRp2577
(dp2578
g73
(dp2579
g100
g101
ssg82
g2568
sg75
(lp2580
S':'
asbag68
(g89
g70
NtRp2581
(dp2582
g73
(dp2583
sg82
g2568
sg75
(lp2584
g68
(g69
g70
NtRp2585
(dp2586
g73
(dp2587
g81
I3
ssg82
g2581
sg75
(lp2588
g1124
asbasbasbag68
(g84
g70
NtRp2589
(dp2590
g73
(dp2591
sg82
g2459
sg75
(lp2592
g68
(g89
g70
NtRp2593
(dp2594
g73
(dp2595
g93
g94
ssg82
g2589
sg75
(lp2596
S'HTTP_DNT'
p2597
asbag68
(g89
g70
NtRp2598
(dp2599
g73
(dp2600
g100
g101
ssg82
g2589
sg75
(lp2601
S':'
asbag68
(g89
g70
NtRp2602
(dp2603
g73
(dp2604
sg82
g2589
sg75
(lp2605
g68
(g69
g70
NtRp2606
(dp2607
g73
(dp2608
g81
I3
ssg82
g2602
sg75
(lp2609
S'1'
asbasbasbag68
(g84
g70
NtRp2610
(dp2611
g73
(dp2612
sg82
g2459
sg75
(lp2613
g68
(g89
g70
NtRp2614
(dp2615
g73
(dp2616
g93
g94
ssg82
g2610
sg75
(lp2617
S'HTTP_HOST'
p2618
asbag68
(g89
g70
NtRp2619
(dp2620
g73
(dp2621
g100
g101
ssg82
g2610
sg75
(lp2622
S':'
asbag68
(g89
g70
NtRp2623
(dp2624
g73
(dp2625
sg82
g2610
sg75
(lp2626
g68
(g69
g70
NtRp2627
(dp2628
g73
(dp2629
g81
I3
ssg82
g2623
sg75
(lp2630
g1167
asbasbasbag68
(g84
g70
NtRp2631
(dp2632
g73
(dp2633
sg82
g2459
sg75
(lp2634
g68
(g89
g70
NtRp2635
(dp2636
g73
(dp2637
g93
g94
ssg82
g2631
sg75
(lp2638
S'HTTP_REFERER'
p2639
asbag68
(g89
g70
NtRp2640
(dp2641
g73
(dp2642
g100
g101
ssg82
g2631
sg75
(lp2643
S':'
asbag68
(g89
g70
NtRp2644
(dp2645
g73
(dp2646
sg82
g2631
sg75
(lp2647
g68
(g69
g70
NtRp2648
(dp2649
g73
(dp2650
g81
I3
ssg82
g2644
sg75
(lp2651
g1189
asbasbasbag68
(g84
g70
NtRp2652
(dp2653
g73
(dp2654
sg82
g2459
sg75
(lp2655
g68
(g89
g70
NtRp2656
(dp2657
g73
(dp2658
g93
g94
ssg82
g2652
sg75
(lp2659
S'HTTP_USER_AGENT'
p2660
asbag68
(g89
g70
NtRp2661
(dp2662
g73
(dp2663
g100
g101
ssg82
g2652
sg75
(lp2664
S':'
asbag68
(g89
g70
NtRp2665
(dp2666
g73
(dp2667
sg82
g2652
sg75
(lp2668
g68
(g69
g70
NtRp2669
(dp2670
g73
(dp2671
g81
I3
ssg82
g2665
sg75
(lp2672
g1211
asbasbasbag68
(g84
g70
NtRp2673
(dp2674
g73
(dp2675
sg82
g2459
sg75
(lp2676
g68
(g89
g70
NtRp2677
(dp2678
g73
(dp2679
g93
g94
ssg82
g2673
sg75
(lp2680
S'PATH_INFO'
p2681
asbag68
(g89
g70
NtRp2682
(dp2683
g73
(dp2684
g100
g101
ssg82
g2673
sg75
(lp2685
S':'
asbag68
(g89
g70
NtRp2686
(dp2687
g73
(dp2688
sg82
g2673
sg75
(lp2689
g68
(g69
g70
NtRp2690
(dp2691
g73
(dp2692
g81
I3
ssg82
g2686
sg75
(lp2693
g1275
asbasbasbag68
(g84
g70
NtRp2694
(dp2695
g73
(dp2696
sg82
g2459
sg75
(lp2697
g68
(g89
g70
NtRp2698
(dp2699
g73
(dp2700
g93
g94
ssg82
g2694
sg75
(lp2701
S'QUERY_STRING'
p2702
asbag68
(g89
g70
NtRp2703
(dp2704
g73
(dp2705
g100
g101
ssg82
g2694
sg75
(lp2706
S':'
asbag68
(g89
g70
NtRp2707
(dp2708
g73
(dp2709
sg82
g2694
sg75
(lp2710
g68
(g69
g70
NtRp2711
(dp2712
g73
(dp2713
g81
I3
ssg82
g2707
sg75
(lp2714
S''
asbasbasbag68
(g84
g70
NtRp2715
(dp2716
g73
(dp2717
sg82
g2459
sg75
(lp2718
g68
(g89
g70
NtRp2719
(dp2720
g73
(dp2721
g93
g94
ssg82
g2715
sg75
(lp2722
S'REMOTE_ADDR'
p2723
asbag68
(g89
g70
NtRp2724
(dp2725
g73
(dp2726
g100
g101
ssg82
g2715
sg75
(lp2727
S':'
asbag68
(g89
g70
NtRp2728
(dp2729
g73
(dp2730
sg82
g2715
sg75
(lp2731
g68
(g69
g70
NtRp2732
(dp2733
g73
(dp2734
g81
I3
ssg82
g2728
sg75
(lp2735
g201
asbasbasbag68
(g84
g70
NtRp2736
(dp2737
g73
(dp2738
sg82
g2459
sg75
(lp2739
g68
(g89
g70
NtRp2740
(dp2741
g73
(dp2742
g93
g94
ssg82
g2736
sg75
(lp2743
S'REMOTE_PORT'
p2744
asbag68
(g89
g70
NtRp2745
(dp2746
g73
(dp2747
g100
g101
ssg82
g2736
sg75
(lp2748
S':'
asbag68
(g89
g70
NtRp2749
(dp2750
g73
(dp2751
sg82
g2736
sg75
(lp2752
g68
(g69
g70
NtRp2753
(dp2754
g73
(dp2755
g81
I3
ssg82
g2749
sg75
(lp2756
g1339
asbasbasbag68
(g84
g70
NtRp2757
(dp2758
g73
(dp2759
sg82
g2459
sg75
(lp2760
g68
(g89
g70
NtRp2761
(dp2762
g73
(dp2763
g93
g94
ssg82
g2757
sg75
(lp2764
S'REQUEST_METHOD'
p2765
asbag68
(g89
g70
NtRp2766
(dp2767
g73
(dp2768
g100
g101
ssg82
g2757
sg75
(lp2769
S':'
asbag68
(g89
g70
NtRp2770
(dp2771
g73
(dp2772
sg82
g2757
sg75
(lp2773
g68
(g69
g70
NtRp2774
(dp2775
g73
(dp2776
g81
I3
ssg82
g2770
sg75
(lp2777
g1361
asbasbasbag68
(g84
g70
NtRp2778
(dp2779
g73
(dp2780
sg82
g2459
sg75
(lp2781
g68
(g89
g70
NtRp2782
(dp2783
g73
(dp2784
g93
g94
ssg82
g2778
sg75
(lp2785
S'SCRIPT_NAME'
p2786
asbag68
(g89
g70
NtRp2787
(dp2788
g73
(dp2789
g100
g101
ssg82
g2778
sg75
(lp2790
S':'
asbag68
(g89
g70
NtRp2791
(dp2792
g73
(dp2793
sg82
g2778
sg75
(lp2794
g68
(g69
g70
NtRp2795
(dp2796
g73
(dp2797
g81
I3
ssg82
g2791
sg75
(lp2798
S''
asbasbasbag68
(g84
g70
NtRp2799
(dp2800
g73
(dp2801
sg82
g2459
sg75
(lp2802
g68
(g89
g70
NtRp2803
(dp2804
g73
(dp2805
g93
g94
ssg82
g2799
sg75
(lp2806
S'SERVER_NAME'
p2807
asbag68
(g89
g70
NtRp2808
(dp2809
g73
(dp2810
g100
g101
ssg82
g2799
sg75
(lp2811
S':'
asbag68
(g89
g70
NtRp2812
(dp2813
g73
(dp2814
sg82
g2799
sg75
(lp2815
g68
(g69
g70
NtRp2816
(dp2817
g73
(dp2818
g81
I3
ssg82
g2812
sg75
(lp2819
g1404
asbasbasbag68
(g84
g70
NtRp2820
(dp2821
g73
(dp2822
sg82
g2459
sg75
(lp2823
g68
(g89
g70
NtRp2824
(dp2825
g73
(dp2826
g93
g94
ssg82
g2820
sg75
(lp2827
S'SERVER_PORT'
p2828
asbag68
(g89
g70
NtRp2829
(dp2830
g73
(dp2831
g100
g101
ssg82
g2820
sg75
(lp2832
S':'
asbag68
(g89
g70
NtRp2833
(dp2834
g73
(dp2835
sg82
g2820
sg75
(lp2836
g68
(g69
g70
NtRp2837
(dp2838
g73
(dp2839
g81
I3
ssg82
g2833
sg75
(lp2840
g1426
asbasbasbag68
(g84
g70
NtRp2841
(dp2842
g73
(dp2843
sg82
g2459
sg75
(lp2844
g68
(g89
g70
NtRp2845
(dp2846
g73
(dp2847
g93
g94
ssg82
g2841
sg75
(lp2848
S'SERVER_PROTOCOL'
p2849
asbag68
(g89
g70
NtRp2850
(dp2851
g73
(dp2852
g100
g101
ssg82
g2841
sg75
(lp2853
S':'
asbag68
(g89
g70
NtRp2854
(dp2855
g73
(dp2856
sg82
g2841
sg75
(lp2857
g68
(g69
g70
NtRp2858
(dp2859
g73
(dp2860
g81
I3
ssg82
g2854
sg75
(lp2861
g1448
asbasbasbag68
(g84
g70
NtRp2862
(dp2863
g73
(dp2864
sg82
g2459
sg75
(lp2865
g68
(g89
g70
NtRp2866
(dp2867
g73
(dp2868
g93
g94
ssg82
g2862
sg75
(lp2869
S'SERVER_SOFTWARE'
p2870
asbag68
(g89
g70
NtRp2871
(dp2872
g73
(dp2873
g100
g101
ssg82
g2862
sg75
(lp2874
S':'
asbag68
(g89
g70
NtRp2875
(dp2876
g73
(dp2877
sg82
g2862
sg75
(lp2878
g68
(g69
g70
NtRp2879
(dp2880
g73
(dp2881
g81
I3
ssg82
g2875
sg75
(lp2882
g1470
asbasbasbag68
(g84
g70
NtRp2883
(dp2884
g73
(dp2885
sg82
g2459
sg75
(lp2886
g68
(g89
g70
NtRp2887
(dp2888
g73
(dp2889
g93
g94
ssg82
g2883
sg75
(lp2890
S'wsgi.errors'
p2891
asbag68
(g89
g70
NtRp2892
(dp2893
g73
(dp2894
g100
g101
ssg82
g2883
sg75
(lp2895
S':'
asbag68
(g89
g70
NtRp2896
(dp2897
g73
(dp2898
sg82
g2883
sg75
(lp2899
g68
(g69
g70
NtRp2900
(dp2901
g73
(dp2902
g81
I3
ssg82
g2896
sg75
(lp2903
S"<open file '<stderr>', mode 'w' at 0xb75190d0>"
p2904
asbasbasbag68
(g84
g70
NtRp2905
(dp2906
g73
(dp2907
sg82
g2459
sg75
(lp2908
g68
(g89
g70
NtRp2909
(dp2910
g73
(dp2911
g93
g94
ssg82
g2905
sg75
(lp2912
S'wsgi.file_wrapper'
p2913
asbag68
(g89
g70
NtRp2914
(dp2915
g73
(dp2916
g100
g101
ssg82
g2905
sg75
(lp2917
S':'
asbag68
(g89
g70
NtRp2918
(dp2919
g73
(dp2920
sg82
g2905
sg75
(lp2921
g68
(g69
g70
NtRp2922
(dp2923
g73
(dp2924
g81
I3
ssg82
g2918
sg75
(lp2925
S'<class wsgiref.util.FileWrapper at 0xb6a4f1dc>'
p2926
asbasbasbag68
(g84
g70
NtRp2927
(dp2928
g73
(dp2929
sg82
g2459
sg75
(lp2930
g68
(g89
g70
NtRp2931
(dp2932
g73
(dp2933
g93
g94
ssg82
g2927
sg75
(lp2934
S'wsgi.input'
p2935
asbag68
(g89
g70
NtRp2936
(dp2937
g73
(dp2938
g100
g101
ssg82
g2927
sg75
(lp2939
S':'
asbag68
(g89
g70
NtRp2940
(dp2941
g73
(dp2942
sg82
g2927
sg75
(lp2943
g68
(g69
g70
NtRp2944
(dp2945
g73
(dp2946
g81
I3
ssg82
g2940
sg75
(lp2947
S'<cStringIO.StringO object at 0xad738b20>'
p2948
asbasbasbag68
(g84
g70
NtRp2949
(dp2950
g73
(dp2951
sg82
g2459
sg75
(lp2952
g68
(g89
g70
NtRp2953
(dp2954
g73
(dp2955
g93
g94
ssg82
g2949
sg75
(lp2956
S'wsgi.multiprocess'
p2957
asbag68
(g89
g70
NtRp2958
(dp2959
g73
(dp2960
g100
g101
ssg82
g2949
sg75
(lp2961
S':'
asbag68
(g89
g70
NtRp2962
(dp2963
g73
(dp2964
sg82
g2949
sg75
(lp2965
g68
(g69
g70
NtRp2966
(dp2967
g73
(dp2968
g81
I3
ssg82
g2962
sg75
(lp2969
g111
asbasbasbag68
(g84
g70
NtRp2970
(dp2971
g73
(dp2972
sg82
g2459
sg75
(lp2973
g68
(g89
g70
NtRp2974
(dp2975
g73
(dp2976
g93
g94
ssg82
g2970
sg75
(lp2977
S'wsgi.multithread'
p2978
asbag68
(g89
g70
NtRp2979
(dp2980
g73
(dp2981
g100
g101
ssg82
g2970
sg75
(lp2982
S':'
asbag68
(g89
g70
NtRp2983
(dp2984
g73
(dp2985
sg82
g2970
sg75
(lp2986
g68
(g69
g70
NtRp2987
(dp2988
g73
(dp2989
g81
I3
ssg82
g2983
sg75
(lp2990
g1710
asbasbasbag68
(g84
g70
NtRp2991
(dp2992
g73
(dp2993
sg82
g2459
sg75
(lp2994
g68
(g89
g70
NtRp2995
(dp2996
g73
(dp2997
g93
g94
ssg82
g2991
sg75
(lp2998
S'wsgi.run_once'
p2999
asbag68
(g89
g70
NtRp3000
(dp3001
g73
(dp3002
g100
g101
ssg82
g2991
sg75
(lp3003
S':'
asbag68
(g89
g70
NtRp3004
(dp3005
g73
(dp3006
sg82
g2991
sg75
(lp3007
g68
(g69
g70
NtRp3008
(dp3009
g73
(dp3010
g81
I3
ssg82
g3004
sg75
(lp3011
g111
asbasbasbag68
(g84
g70
NtRp3012
(dp3013
g73
(dp3014
sg82
g2459
sg75
(lp3015
g68
(g89
g70
NtRp3016
(dp3017
g73
(dp3018
g93
g94
ssg82
g3012
sg75
(lp3019
S'wsgi.url_scheme'
p3020
asbag68
(g89
g70
NtRp3021
(dp3022
g73
(dp3023
g100
g101
ssg82
g3012
sg75
(lp3024
S':'
asbag68
(g89
g70
NtRp3025
(dp3026
g73
(dp3027
sg82
g3012
sg75
(lp3028
g68
(g69
g70
NtRp3029
(dp3030
g73
(dp3031
g81
I3
ssg82
g3025
sg75
(lp3032
g1753
asbasbasbag68
(g84
g70
NtRp3033
(dp3034
g73
(dp3035
sg82
g2459
sg75
(lp3036
g68
(g89
g70
NtRp3037
(dp3038
g73
(dp3039
g93
g94
ssg82
g3033
sg75
(lp3040
S'wsgi.version'
p3041
asbag68
(g89
g70
NtRp3042
(dp3043
g73
(dp3044
g100
g101
ssg82
g3033
sg75
(lp3045
S':'
asbag68
(g89
g70
NtRp3046
(dp3047
g73
(dp3048
sg82
g3033
sg75
(lp3049
g68
(g69
g70
NtRp3050
(dp3051
g73
(dp3052
g81
I3
ssg82
g3046
sg75
(lp3053
S'1'
asbasbasbasbasbasbasbasbasbasbasbasbasbsS'frames'
p3054
(lp3055
(dp3056
S'file'
p3057
S'/home/krutarth/Downloads/911india/gluon/restricted.py'
p3058
sS'dump'
p3059
(dp3060
S'code'
p3061
S"'import datetime\\n# -*- coding: utf-8 -*-\\n# this f...elect()\\n\\nresponse._vars=response._caller(events)\\n'"
p3062
sS'layer'
p3063
S"'/home/krutarth/Downloads/911india/applications/911_signin/controllers/default.py'"
p3064
sS'global compile2'
p3065
S'<function compile2>'
p3066
sS'ccode'
p3067
S'undefined'
p3068
ssS'lnum'
p3069
I204
sS'lines'
p3070
(dp3071
I199
S"    environment['__name__'] = '__restricted__'"
p3072
sI200
S'    try:'
p3073
sI201
S'        if type(code) == types.CodeType:'
p3074
sI202
S'            ccode = code'
p3075
sI203
S'        else:'
p3076
sI204
S'            ccode = compile2(code,layer)'
p3077
sI205
S'        exec ccode in environment'
p3078
sI206
S'    except HTTP:'
p3079
sI207
S'        raise'
p3080
sI208
S'    except RestrictedError:'
p3081
ssS'call'
p3082
S"(code='import datetime\\n# -*- coding: utf-8 -*-\\n# this f...elect()\\n\\nresponse._vars=response._caller(events)\\n', environment={'A': <class 'gluon.html.A'>, 'Auth': <class 'gluon.tools.Auth'>, 'B': <class 'gluon.html.B'>, 'BEAUTIFY': <class 'gluon.html.BEAUTIFY'>, 'BODY': <class 'gluon.html.BODY'>, 'BR': <class 'gluon.html.BR'>, 'BUTTON': <class 'gluon.html.BUTTON'>, 'CAT': <class 'gluon.html.CAT'>, 'CENTER': <class 'gluon.html.CENTER'>, 'CLEANUP': <class 'gluon.validators.CLEANUP'>, ...}, layer='/home/krutarth/Downloads/911india/applications/911_signin/controllers/default.py')"
p3083
sS'func'
p3084
S'restricted'
p3085
sa(dp3086
g3057
S'/home/krutarth/Downloads/911india/gluon/restricted.py'
p3087
sg3059
(dp3088
S'builtincompile'
p3089
S'<built-in function compile>'
p3090
sS'code'
p3091
S"'import datetime\\n# -*- coding: utf-8 -*-\\n# this f...elect()\\n\\nresponse._vars=response._caller(events)\\n'"
p3092
sS'code.rstrip'
p3093
S'<built-in method rstrip of str object>'
p3094
sS').replace'
p3095
g3068
sS'layer'
p3096
S"'/home/krutarth/Downloads/911india/applications/911_signin/controllers/default.py'"
p3097
ssg3069
I189
sg3070
(dp3098
I192
S'    """'
p3099
sI193
S'    runs code in environment and returns the output. if an exception occurs'
p3100
sI184
S''
sI185
S'def compile2(code,layer):'
p3101
sI186
S'    """'
p3102
sI187
S"    The +'\\n' is necessary else compile fails when code ends in a comment."
p3103
sI188
S'    """'
p3104
sI189
S"    return compile(code.rstrip().replace('\\r\\n','\\n')+'\\n', layer, 'exec')"
p3105
sI190
S''
sI191
S"def restricted(code, environment=None, layer='Unknown'):"
p3106
ssg3082
S"(code='import datetime\\n# -*- coding: utf-8 -*-\\n# this f...elect()\\n\\nresponse._vars=response._caller(events)\\n', layer='/home/krutarth/Downloads/911india/applications/911_signin/controllers/default.py')"
p3107
sg3084
S'compile2'
p3108
sasS'pyver'
p3109
S'Python 2.7.4: /usr/bin/python'
p3110
sS'session'
p3111
g68
(g69
g70
NtRp3112
(dp3113
g73
(dp3114
sg75
(lp3115
g68
(g77
g70
NtRp3116
(dp3117
g73
(dp3118
g81
I5
ssg82
Nsg75
(lp3119
g68
(g84
g70
NtRp3120
(dp3121
g73
(dp3122
sg82
g3116
sg75
(lp3123
g68
(g89
g70
NtRp3124
(dp3125
g73
(dp3126
g93
g94
ssg82
g3120
sg75
(lp3127
S'auth'
p3128
asbag68
(g89
g70
NtRp3129
(dp3130
g73
(dp3131
g100
g101
ssg82
g3120
sg75
(lp3132
S':'
asbag68
(g89
g70
NtRp3133
(dp3134
g73
(dp3135
sg82
g3120
sg75
(lp3136
g68
(g69
g70
NtRp3137
(dp3138
g73
(dp3139
g81
I5
ssg82
g3133
sg75
(lp3140
g68
(g77
g70
NtRp3141
(dp3142
g73
(dp3143
g81
I4
ssg82
Nsg75
(lp3144
g68
(g84
g70
NtRp3145
(dp3146
g73
(dp3147
sg82
g3141
sg75
(lp3148
g68
(g89
g70
NtRp3149
(dp3150
g73
(dp3151
g93
g94
ssg82
g3145
sg75
(lp3152
S'expiration'
p3153
asbag68
(g89
g70
NtRp3154
(dp3155
g73
(dp3156
g100
g101
ssg82
g3145
sg75
(lp3157
S':'
asbag68
(g89
g70
NtRp3158
(dp3159
g73
(dp3160
sg82
g3145
sg75
(lp3161
g68
(g69
g70
NtRp3162
(dp3163
g73
(dp3164
g81
I4
ssg82
g3158
sg75
(lp3165
S'2592000'
p3166
asbasbasbag68
(g84
g70
NtRp3167
(dp3168
g73
(dp3169
sg82
g3141
sg75
(lp3170
g68
(g89
g70
NtRp3171
(dp3172
g73
(dp3173
g93
g94
ssg82
g3167
sg75
(lp3174
S'hmac_key'
p3175
asbag68
(g89
g70
NtRp3176
(dp3177
g73
(dp3178
g100
g101
ssg82
g3167
sg75
(lp3179
S':'
asbag68
(g89
g70
NtRp3180
(dp3181
g73
(dp3182
sg82
g3167
sg75
(lp3183
g68
(g69
g70
NtRp3184
(dp3185
g73
(dp3186
g81
I4
ssg82
g3180
sg75
(lp3187
S'ca2923ef-1665-4ff1-8955-e232df5ddde6'
p3188
asbasbasbag68
(g84
g70
NtRp3189
(dp3190
g73
(dp3191
sg82
g3141
sg75
(lp3192
g68
(g89
g70
NtRp3193
(dp3194
g73
(dp3195
g93
g94
ssg82
g3189
sg75
(lp3196
S'last_visit'
p3197
asbag68
(g89
g70
NtRp3198
(dp3199
g73
(dp3200
g100
g101
ssg82
g3189
sg75
(lp3201
S':'
asbag68
(g89
g70
NtRp3202
(dp3203
g73
(dp3204
sg82
g3189
sg75
(lp3205
g68
(g69
g70
NtRp3206
(dp3207
g73
(dp3208
g81
I4
ssg82
g3202
sg75
(lp3209
S'datetime.datetime(2013, 7, 5, 1, 18, 4, 709638)'
p3210
asbasbasbag68
(g84
g70
NtRp3211
(dp3212
g73
(dp3213
sg82
g3141
sg75
(lp3214
g68
(g89
g70
NtRp3215
(dp3216
g73
(dp3217
g93
g94
ssg82
g3211
sg75
(lp3218
S'remember'
p3219
asbag68
(g89
g70
NtRp3220
(dp3221
g73
(dp3222
g100
g101
ssg82
g3211
sg75
(lp3223
S':'
asbag68
(g89
g70
NtRp3224
(dp3225
g73
(dp3226
sg82
g3211
sg75
(lp3227
g68
(g69
g70
NtRp3228
(dp3229
g73
(dp3230
g81
I4
ssg82
g3224
sg75
(lp3231
g1710
asbasbasbag68
(g84
g70
NtRp3232
(dp3233
g73
(dp3234
sg82
g3141
sg75
(lp3235
g68
(g89
g70
NtRp3236
(dp3237
g73
(dp3238
g93
g94
ssg82
g3232
sg75
(lp3239
S'user'
p3240
asbag68
(g89
g70
NtRp3241
(dp3242
g73
(dp3243
g100
g101
ssg82
g3232
sg75
(lp3244
S':'
asbag68
(g89
g70
NtRp3245
(dp3246
g73
(dp3247
sg82
g3232
sg75
(lp3248
g68
(g69
g70
NtRp3249
(dp3250
g73
(dp3251
g81
I4
ssg82
g3245
sg75
(lp3252
g68
(g77
g70
NtRp3253
(dp3254
g73
(dp3255
g81
I3
ssg82
Nsg75
(lp3256
g68
(g84
g70
NtRp3257
(dp3258
g73
(dp3259
sg82
g3253
sg75
(lp3260
g68
(g89
g70
NtRp3261
(dp3262
g73
(dp3263
g93
g94
ssg82
g3257
sg75
(lp3264
S'email'
p3265
asbag68
(g89
g70
NtRp3266
(dp3267
g73
(dp3268
g100
g101
ssg82
g3257
sg75
(lp3269
S':'
asbag68
(g89
g70
NtRp3270
(dp3271
g73
(dp3272
sg82
g3257
sg75
(lp3273
g68
(g69
g70
NtRp3274
(dp3275
g73
(dp3276
g81
I3
ssg82
g3270
sg75
(lp3277
S'krutarthkp800@gmail.com'
p3278
asbasbasbag68
(g84
g70
NtRp3279
(dp3280
g73
(dp3281
sg82
g3253
sg75
(lp3282
g68
(g89
g70
NtRp3283
(dp3284
g73
(dp3285
g93
g94
ssg82
g3279
sg75
(lp3286
S'first_name'
p3287
asbag68
(g89
g70
NtRp3288
(dp3289
g73
(dp3290
g100
g101
ssg82
g3279
sg75
(lp3291
S':'
asbag68
(g89
g70
NtRp3292
(dp3293
g73
(dp3294
sg82
g3279
sg75
(lp3295
g68
(g69
g70
NtRp3296
(dp3297
g73
(dp3298
g81
I3
ssg82
g3292
sg75
(lp3299
S'Krutarth'
p3300
asbasbasbag68
(g84
g70
NtRp3301
(dp3302
g73
(dp3303
sg82
g3253
sg75
(lp3304
g68
(g89
g70
NtRp3305
(dp3306
g73
(dp3307
g93
g94
ssg82
g3301
sg75
(lp3308
S'id'
p3309
asbag68
(g89
g70
NtRp3310
(dp3311
g73
(dp3312
g100
g101
ssg82
g3301
sg75
(lp3313
S':'
asbag68
(g89
g70
NtRp3314
(dp3315
g73
(dp3316
sg82
g3301
sg75
(lp3317
g68
(g69
g70
NtRp3318
(dp3319
g73
(dp3320
g81
I3
ssg82
g3314
sg75
(lp3321
S'15'
p3322
asbasbasbag68
(g84
g70
NtRp3323
(dp3324
g73
(dp3325
sg82
g3253
sg75
(lp3326
g68
(g89
g70
NtRp3327
(dp3328
g73
(dp3329
g93
g94
ssg82
g3323
sg75
(lp3330
S'last_name'
p3331
asbag68
(g89
g70
NtRp3332
(dp3333
g73
(dp3334
g100
g101
ssg82
g3323
sg75
(lp3335
S':'
asbag68
(g89
g70
NtRp3336
(dp3337
g73
(dp3338
sg82
g3323
sg75
(lp3339
g68
(g69
g70
NtRp3340
(dp3341
g73
(dp3342
g81
I3
ssg82
g3336
sg75
(lp3343
S'Patel'
p3344
asbasbasbag68
(g84
g70
NtRp3345
(dp3346
g73
(dp3347
sg82
g3253
sg75
(lp3348
g68
(g89
g70
NtRp3349
(dp3350
g73
(dp3351
g93
g94
ssg82
g3345
sg75
(lp3352
S'password'
p3353
asbag68
(g89
g70
NtRp3354
(dp3355
g73
(dp3356
g100
g101
ssg82
g3345
sg75
(lp3357
S':'
asbag68
(g89
g70
NtRp3358
(dp3359
g73
(dp3360
sg82
g3345
sg75
(lp3361
g68
(g69
g70
NtRp3362
(dp3363
g73
(dp3364
g81
I3
ssg82
g3358
sg75
(lp3365
S'009310309c51c03cf474b4fac65521e3b03b5bbdf643e606d54a1b6644c0cee69bed84e134408efa1dc8562b96303a8eeecf11cc0621efd5d1388afff98252ac'
p3366
asbasbasbag68
(g84
g70
NtRp3367
(dp3368
g73
(dp3369
sg82
g3253
sg75
(lp3370
g68
(g89
g70
NtRp3371
(dp3372
g73
(dp3373
g93
g94
ssg82
g3367
sg75
(lp3374
S'registration_key'
p3375
asbag68
(g89
g70
NtRp3376
(dp3377
g73
(dp3378
g100
g101
ssg82
g3367
sg75
(lp3379
S':'
asbag68
(g89
g70
NtRp3380
(dp3381
g73
(dp3382
sg82
g3367
sg75
(lp3383
g68
(g69
g70
NtRp3384
(dp3385
g73
(dp3386
g81
I3
ssg82
g3380
sg75
(lp3387
S''
asbasbasbag68
(g84
g70
NtRp3388
(dp3389
g73
(dp3390
sg82
g3253
sg75
(lp3391
g68
(g89
g70
NtRp3392
(dp3393
g73
(dp3394
g93
g94
ssg82
g3388
sg75
(lp3395
S'unread_ctr'
p3396
asbag68
(g89
g70
NtRp3397
(dp3398
g73
(dp3399
g100
g101
ssg82
g3388
sg75
(lp3400
S':'
asbag68
(g89
g70
NtRp3401
(dp3402
g73
(dp3403
sg82
g3388
sg75
(lp3404
g68
(g69
g70
NtRp3405
(dp3406
g73
(dp3407
g81
I3
ssg82
g3401
sg75
(lp3408
S'0'
asbasbasbag68
(g84
g70
NtRp3409
(dp3410
g73
(dp3411
sg82
g3253
sg75
(lp3412
g68
(g89
g70
NtRp3413
(dp3414
g73
(dp3415
g93
g94
ssg82
g3409
sg75
(lp3416
S'username'
p3417
asbag68
(g89
g70
NtRp3418
(dp3419
g73
(dp3420
g100
g101
ssg82
g3409
sg75
(lp3421
S':'
asbag68
(g89
g70
NtRp3422
(dp3423
g73
(dp3424
sg82
g3409
sg75
(lp3425
g68
(g69
g70
NtRp3426
(dp3427
g73
(dp3428
g81
I3
ssg82
g3422
sg75
(lp3429
S'krutarth_iiit'
p3430
asbasbasbasbasbasbasbag68
(g84
g70
NtRp3431
(dp3432
g73
(dp3433
sg82
g3141
sg75
(lp3434
g68
(g89
g70
NtRp3435
(dp3436
g73
(dp3437
g93
g94
ssg82
g3431
sg75
(lp3438
S'user_groups'
p3439
asbag68
(g89
g70
NtRp3440
(dp3441
g73
(dp3442
g100
g101
ssg82
g3431
sg75
(lp3443
S':'
asbag68
(g89
g70
NtRp3444
(dp3445
g73
(dp3446
sg82
g3431
sg75
(lp3447
g68
(g69
g70
NtRp3448
(dp3449
g73
(dp3450
g81
I4
ssg82
g3444
sg75
(lp3451
g68
(g77
g70
NtRp3452
(dp3453
g73
(dp3454
g81
I3
ssg82
Nsg75
(lp3455
g68
(g84
g70
NtRp3456
(dp3457
g73
(dp3458
sg82
g3452
sg75
(lp3459
g68
(g89
g70
NtRp3460
(dp3461
g73
(dp3462
g93
g94
ssg82
g3456
sg75
(lp3463
S'16'
p3464
asbag68
(g89
g70
NtRp3465
(dp3466
g73
(dp3467
g100
g101
ssg82
g3456
sg75
(lp3468
S':'
asbag68
(g89
g70
NtRp3469
(dp3470
g73
(dp3471
sg82
g3456
sg75
(lp3472
g68
(g69
g70
NtRp3473
(dp3474
g73
(dp3475
g81
I3
ssg82
g3469
sg75
(lp3476
S'user_15'
p3477
asbasbasbasbasbasbasbasbasbasbasbasbasbsS'etype'
p3478
S"<type 'exceptions.IndentationError'>"
p3479
sS'date'
p3480
S'Fri Jul  5 02:39:38 2013'
p3481
sS'response'
p3482
g68
(g69
g70
NtRp3483
(dp3484
g73
(dp3485
sg75
(lp3486
g68
(g77
g70
NtRp3487
(dp3488
g73
(dp3489
g81
I5
ssg82
Nsg75
(lp3490
g68
(g84
g70
NtRp3491
(dp3492
g73
(dp3493
sg82
g3487
sg75
(lp3494
g68
(g89
g70
NtRp3495
(dp3496
g73
(dp3497
g93
g94
ssg82
g3491
sg75
(lp3498
g166
asbag68
(g89
g70
NtRp3499
(dp3500
g73
(dp3501
g100
g101
ssg82
g3491
sg75
(lp3502
S':'
asbag68
(g89
g70
NtRp3503
(dp3504
g73
(dp3505
sg82
g3491
sg75
(lp3506
g68
(g69
g70
NtRp3507
(dp3508
g73
(dp3509
g81
I5
ssg82
g3503
sg75
(lp3510
S'<cStringIO.StringO object at 0xad4875a0>'
p3511
asbasbasbag68
(g84
g70
NtRp3512
(dp3513
g73
(dp3514
sg82
g3487
sg75
(lp3515
g68
(g89
g70
NtRp3516
(dp3517
g73
(dp3518
g93
g94
ssg82
g3512
sg75
(lp3519
g232
asbag68
(g89
g70
NtRp3520
(dp3521
g73
(dp3522
g100
g101
ssg82
g3512
sg75
(lp3523
S':'
asbag68
(g89
g70
NtRp3524
(dp3525
g73
(dp3526
sg82
g3512
sg75
(lp3527
g68
(g69
g70
NtRp3528
(dp3529
g73
(dp3530
g81
I5
ssg82
g3524
sg75
(lp3531
g68
(g77
g70
NtRp3532
(dp3533
g73
(dp3534
g81
I4
ssg82
Nsg75
(lp3535
g68
(g84
g70
NtRp3536
(dp3537
g73
(dp3538
sg82
g3532
sg75
(lp3539
g68
(g89
g70
NtRp3540
(dp3541
g73
(dp3542
g93
g94
ssg82
g3536
sg75
(lp3543
S'session_id_911_signin'
p3544
asbag68
(g89
g70
NtRp3545
(dp3546
g73
(dp3547
g100
g101
ssg82
g3536
sg75
(lp3548
S':'
asbag68
(g89
g70
NtRp3549
(dp3550
g73
(dp3551
sg82
g3536
sg75
(lp3552
g68
(g69
g70
NtRp3553
(dp3554
g73
(dp3555
g81
I4
ssg82
g3549
sg75
(lp3556
g68
(g77
g70
NtRp3557
(dp3558
g73
(dp3559
g81
I3
ssg82
Nsg75
(lp3560
g68
(g84
g70
NtRp3561
(dp3562
g73
(dp3563
sg82
g3557
sg75
(lp3564
g68
(g89
g70
NtRp3565
(dp3566
g73
(dp3567
g93
g94
ssg82
g3561
sg75
(lp3568
g282
asbag68
(g89
g70
NtRp3569
(dp3570
g73
(dp3571
g100
g101
ssg82
g3561
sg75
(lp3572
S':'
asbag68
(g89
g70
NtRp3573
(dp3574
g73
(dp3575
sg82
g3561
sg75
(lp3576
g68
(g69
g70
NtRp3577
(dp3578
g73
(dp3579
g81
I3
ssg82
g3573
sg75
(lp3580
S''
asbasbasbag68
(g84
g70
NtRp3581
(dp3582
g73
(dp3583
sg82
g3557
sg75
(lp3584
g68
(g89
g70
NtRp3585
(dp3586
g73
(dp3587
g93
g94
ssg82
g3581
sg75
(lp3588
g303
asbag68
(g89
g70
NtRp3589
(dp3590
g73
(dp3591
g100
g101
ssg82
g3581
sg75
(lp3592
S':'
asbag68
(g89
g70
NtRp3593
(dp3594
g73
(dp3595
sg82
g3581
sg75
(lp3596
g68
(g69
g70
NtRp3597
(dp3598
g73
(dp3599
g81
I3
ssg82
g3593
sg75
(lp3600
S''
asbasbasbag68
(g84
g70
NtRp3601
(dp3602
g73
(dp3603
sg82
g3557
sg75
(lp3604
g68
(g89
g70
NtRp3605
(dp3606
g73
(dp3607
g93
g94
ssg82
g3601
sg75
(lp3608
g324
asbag68
(g89
g70
NtRp3609
(dp3610
g73
(dp3611
g100
g101
ssg82
g3601
sg75
(lp3612
S':'
asbag68
(g89
g70
NtRp3613
(dp3614
g73
(dp3615
sg82
g3601
sg75
(lp3616
g68
(g69
g70
NtRp3617
(dp3618
g73
(dp3619
g81
I3
ssg82
g3613
sg75
(lp3620
S'2592000'
p3621
asbasbasbag68
(g84
g70
NtRp3622
(dp3623
g73
(dp3624
sg82
g3557
sg75
(lp3625
g68
(g89
g70
NtRp3626
(dp3627
g73
(dp3628
g93
g94
ssg82
g3622
sg75
(lp3629
g345
asbag68
(g89
g70
NtRp3630
(dp3631
g73
(dp3632
g100
g101
ssg82
g3622
sg75
(lp3633
S':'
asbag68
(g89
g70
NtRp3634
(dp3635
g73
(dp3636
sg82
g3622
sg75
(lp3637
g68
(g69
g70
NtRp3638
(dp3639
g73
(dp3640
g81
I3
ssg82
g3634
sg75
(lp3641
S''
asbasbasbag68
(g84
g70
NtRp3642
(dp3643
g73
(dp3644
sg82
g3557
sg75
(lp3645
g68
(g89
g70
NtRp3646
(dp3647
g73
(dp3648
g93
g94
ssg82
g3642
sg75
(lp3649
g366
asbag68
(g89
g70
NtRp3650
(dp3651
g73
(dp3652
g100
g101
ssg82
g3642
sg75
(lp3653
S':'
asbag68
(g89
g70
NtRp3654
(dp3655
g73
(dp3656
sg82
g3642
sg75
(lp3657
g68
(g69
g70
NtRp3658
(dp3659
g73
(dp3660
g81
I3
ssg82
g3654
sg75
(lp3661
S''
asbasbasbag68
(g84
g70
NtRp3662
(dp3663
g73
(dp3664
sg82
g3557
sg75
(lp3665
g68
(g89
g70
NtRp3666
(dp3667
g73
(dp3668
g93
g94
ssg82
g3662
sg75
(lp3669
g387
asbag68
(g89
g70
NtRp3670
(dp3671
g73
(dp3672
g100
g101
ssg82
g3662
sg75
(lp3673
S':'
asbag68
(g89
g70
NtRp3674
(dp3675
g73
(dp3676
sg82
g3662
sg75
(lp3677
g68
(g69
g70
NtRp3678
(dp3679
g73
(dp3680
g81
I3
ssg82
g3674
sg75
(lp3681
S'/'
asbasbasbag68
(g84
g70
NtRp3682
(dp3683
g73
(dp3684
sg82
g3557
sg75
(lp3685
g68
(g89
g70
NtRp3686
(dp3687
g73
(dp3688
g93
g94
ssg82
g3682
sg75
(lp3689
g408
asbag68
(g89
g70
NtRp3690
(dp3691
g73
(dp3692
g100
g101
ssg82
g3682
sg75
(lp3693
S':'
asbag68
(g89
g70
NtRp3694
(dp3695
g73
(dp3696
sg82
g3682
sg75
(lp3697
g68
(g69
g70
NtRp3698
(dp3699
g73
(dp3700
g81
I3
ssg82
g3694
sg75
(lp3701
S''
asbasbasbag68
(g84
g70
NtRp3702
(dp3703
g73
(dp3704
sg82
g3557
sg75
(lp3705
g68
(g89
g70
NtRp3706
(dp3707
g73
(dp3708
g93
g94
ssg82
g3702
sg75
(lp3709
g429
asbag68
(g89
g70
NtRp3710
(dp3711
g73
(dp3712
g100
g101
ssg82
g3702
sg75
(lp3713
S':'
asbag68
(g89
g70
NtRp3714
(dp3715
g73
(dp3716
sg82
g3702
sg75
(lp3717
g68
(g69
g70
NtRp3718
(dp3719
g73
(dp3720
g81
I3
ssg82
g3714
sg75
(lp3721
S''
asbasbasbasbasbasbasbasbasbasbasbag68
(g84
g70
NtRp3722
(dp3723
g73
(dp3724
sg82
g3487
sg75
(lp3725
g68
(g89
g70
NtRp3726
(dp3727
g73
(dp3728
g93
g94
ssg82
g3722
sg75
(lp3729
S'delimiters'
p3730
asbag68
(g89
g70
NtRp3731
(dp3732
g73
(dp3733
g100
g101
ssg82
g3722
sg75
(lp3734
S':'
asbag68
(g89
g70
NtRp3735
(dp3736
g73
(dp3737
sg82
g3722
sg75
(lp3738
g68
(g69
g70
NtRp3739
(dp3740
g73
(dp3741
g81
I5
ssg82
g3735
sg75
(lp3742
g68
(g77
g70
NtRp3743
(dp3744
g73
(dp3745
g81
I4
ssg82
Nsg75
(lp3746
g68
(g84
g70
NtRp3747
(dp3748
g73
(dp3749
sg82
g3743
sg75
(lp3750
g68
(g89
g70
NtRp3751
(dp3752
g73
(dp3753
sg82
g3747
sg75
(lp3754
g68
(g69
g70
NtRp3755
(dp3756
g73
(dp3757
g81
I4
ssg82
g3751
sg75
(lp3758
S'{{'
p3759
asbasbasbag68
(g84
g70
NtRp3760
(dp3761
g73
(dp3762
sg82
g3743
sg75
(lp3763
g68
(g89
g70
NtRp3764
(dp3765
g73
(dp3766
sg82
g3760
sg75
(lp3767
g68
(g69
g70
NtRp3768
(dp3769
g73
(dp3770
g81
I4
ssg82
g3764
sg75
(lp3771
S'}}'
p3772
asbasbasbasbasbasbasbag68
(g84
g70
NtRp3773
(dp3774
g73
(dp3775
sg82
g3487
sg75
(lp3776
g68
(g89
g70
NtRp3777
(dp3778
g73
(dp3779
g93
g94
ssg82
g3773
sg75
(lp3780
S'files'
p3781
asbag68
(g89
g70
NtRp3782
(dp3783
g73
(dp3784
g100
g101
ssg82
g3773
sg75
(lp3785
S':'
asbag68
(g89
g70
NtRp3786
(dp3787
g73
(dp3788
sg82
g3773
sg75
(lp3789
g68
(g69
g70
NtRp3790
(dp3791
g73
(dp3792
g81
I5
ssg82
g3786
sg75
(lp3793
g68
(g77
g70
NtRp3794
(dp3795
g73
(dp3796
g81
I4
ssg82
Nsg75
(lp3797
sbasbasbasbag68
(g84
g70
NtRp3798
(dp3799
g73
(dp3800
sg82
g3487
sg75
(lp3801
g68
(g89
g70
NtRp3802
(dp3803
g73
(dp3804
g93
g94
ssg82
g3798
sg75
(lp3805
S'flash'
p3806
asbag68
(g89
g70
NtRp3807
(dp3808
g73
(dp3809
g100
g101
ssg82
g3798
sg75
(lp3810
S':'
asbag68
(g89
g70
NtRp3811
(dp3812
g73
(dp3813
sg82
g3798
sg75
(lp3814
g68
(g69
g70
NtRp3815
(dp3816
g73
(dp3817
g81
I5
ssg82
g3811
sg75
(lp3818
S''
asbasbasbag68
(g84
g70
NtRp3819
(dp3820
g73
(dp3821
sg82
g3487
sg75
(lp3822
g68
(g89
g70
NtRp3823
(dp3824
g73
(dp3825
g93
g94
ssg82
g3819
sg75
(lp3826
S'generic_patterns'
p3827
asbag68
(g89
g70
NtRp3828
(dp3829
g73
(dp3830
g100
g101
ssg82
g3819
sg75
(lp3831
S':'
asbag68
(g89
g70
NtRp3832
(dp3833
g73
(dp3834
sg82
g3819
sg75
(lp3835
g68
(g69
g70
NtRp3836
(dp3837
g73
(dp3838
g81
I5
ssg82
g3832
sg75
(lp3839
g68
(g77
g70
NtRp3840
(dp3841
g73
(dp3842
g81
I4
ssg82
Nsg75
(lp3843
g68
(g84
g70
NtRp3844
(dp3845
g73
(dp3846
sg82
g3840
sg75
(lp3847
g68
(g89
g70
NtRp3848
(dp3849
g73
(dp3850
sg82
g3844
sg75
(lp3851
g68
(g69
g70
NtRp3852
(dp3853
g73
(dp3854
g81
I4
ssg82
g3848
sg75
(lp3855
S'*'
asbasbasbasbasbasbasbag68
(g84
g70
NtRp3856
(dp3857
g73
(dp3858
sg82
g3487
sg75
(lp3859
g68
(g89
g70
NtRp3860
(dp3861
g73
(dp3862
g93
g94
ssg82
g3856
sg75
(lp3863
S'headers'
p3864
asbag68
(g89
g70
NtRp3865
(dp3866
g73
(dp3867
g100
g101
ssg82
g3856
sg75
(lp3868
S':'
asbag68
(g89
g70
NtRp3869
(dp3870
g73
(dp3871
sg82
g3856
sg75
(lp3872
g68
(g69
g70
NtRp3873
(dp3874
g73
(dp3875
g81
I5
ssg82
g3869
sg75
(lp3876
g68
(g77
g70
NtRp3877
(dp3878
g73
(dp3879
g81
I4
ssg82
Nsg75
(lp3880
g68
(g84
g70
NtRp3881
(dp3882
g73
(dp3883
sg82
g3877
sg75
(lp3884
g68
(g89
g70
NtRp3885
(dp3886
g73
(dp3887
g93
g94
ssg82
g3881
sg75
(lp3888
S'Cache-Control'
p3889
asbag68
(g89
g70
NtRp3890
(dp3891
g73
(dp3892
g100
g101
ssg82
g3881
sg75
(lp3893
S':'
asbag68
(g89
g70
NtRp3894
(dp3895
g73
(dp3896
sg82
g3881
sg75
(lp3897
g68
(g69
g70
NtRp3898
(dp3899
g73
(dp3900
g81
I4
ssg82
g3894
sg75
(lp3901
S'no-store, no-cache, must-revalidate, post-check=0, pre-check=0'
p3902
asbasbasbag68
(g84
g70
NtRp3903
(dp3904
g73
(dp3905
sg82
g3877
sg75
(lp3906
g68
(g89
g70
NtRp3907
(dp3908
g73
(dp3909
g93
g94
ssg82
g3903
sg75
(lp3910
S'Content-Type'
p3911
asbag68
(g89
g70
NtRp3912
(dp3913
g73
(dp3914
g100
g101
ssg82
g3903
sg75
(lp3915
S':'
asbag68
(g89
g70
NtRp3916
(dp3917
g73
(dp3918
sg82
g3903
sg75
(lp3919
g68
(g69
g70
NtRp3920
(dp3921
g73
(dp3922
g81
I4
ssg82
g3916
sg75
(lp3923
S'text/html; charset=utf-8'
p3924
asbasbasbag68
(g84
g70
NtRp3925
(dp3926
g73
(dp3927
sg82
g3877
sg75
(lp3928
g68
(g89
g70
NtRp3929
(dp3930
g73
(dp3931
g93
g94
ssg82
g3925
sg75
(lp3932
S'Expires'
p3933
asbag68
(g89
g70
NtRp3934
(dp3935
g73
(dp3936
g100
g101
ssg82
g3925
sg75
(lp3937
S':'
asbag68
(g89
g70
NtRp3938
(dp3939
g73
(dp3940
sg82
g3925
sg75
(lp3941
g68
(g69
g70
NtRp3942
(dp3943
g73
(dp3944
g81
I4
ssg82
g3938
sg75
(lp3945
S'Thu, 04 Jul 2013 21:09:37 GMT'
p3946
asbasbasbag68
(g84
g70
NtRp3947
(dp3948
g73
(dp3949
sg82
g3877
sg75
(lp3950
g68
(g89
g70
NtRp3951
(dp3952
g73
(dp3953
g93
g94
ssg82
g3947
sg75
(lp3954
S'Pragma'
p3955
asbag68
(g89
g70
NtRp3956
(dp3957
g73
(dp3958
g100
g101
ssg82
g3947
sg75
(lp3959
S':'
asbag68
(g89
g70
NtRp3960
(dp3961
g73
(dp3962
sg82
g3947
sg75
(lp3963
g68
(g69
g70
NtRp3964
(dp3965
g73
(dp3966
g81
I4
ssg82
g3960
sg75
(lp3967
S'no-cache'
p3968
asbasbasbag68
(g84
g70
NtRp3969
(dp3970
g73
(dp3971
sg82
g3877
sg75
(lp3972
g68
(g89
g70
NtRp3973
(dp3974
g73
(dp3975
g93
g94
ssg82
g3969
sg75
(lp3976
S'X-Powered-By'
p3977
asbag68
(g89
g70
NtRp3978
(dp3979
g73
(dp3980
g100
g101
ssg82
g3969
sg75
(lp3981
S':'
asbag68
(g89
g70
NtRp3982
(dp3983
g73
(dp3984
sg82
g3969
sg75
(lp3985
g68
(g69
g70
NtRp3986
(dp3987
g73
(dp3988
g81
I4
ssg82
g3982
sg75
(lp3989
S'web2py'
p3990
asbasbasbasbasbasbasbag68
(g84
g70
NtRp3991
(dp3992
g73
(dp3993
sg82
g3487
sg75
(lp3994
g68
(g89
g70
NtRp3995
(dp3996
g73
(dp3997
g93
g94
ssg82
g3991
sg75
(lp3998
S'menu'
p3999
asbag68
(g89
g70
NtRp4000
(dp4001
g73
(dp4002
g100
g101
ssg82
g3991
sg75
(lp4003
S':'
asbag68
(g89
g70
NtRp4004
(dp4005
g73
(dp4006
sg82
g3991
sg75
(lp4007
g68
(g69
g70
NtRp4008
(dp4009
g73
(dp4010
g81
I5
ssg82
g4004
sg75
(lp4011
g68
(g77
g70
NtRp4012
(dp4013
g73
(dp4014
g81
I4
ssg82
Nsg75
(lp4015
g68
(g84
g70
NtRp4016
(dp4017
g73
(dp4018
sg82
g4012
sg75
(lp4019
g68
(g89
g70
NtRp4020
(dp4021
g73
(dp4022
sg82
g4016
sg75
(lp4023
g68
(g69
g70
NtRp4024
(dp4025
g73
(dp4026
g81
I4
ssg82
g4020
sg75
(lp4027
g68
(g77
g70
NtRp4028
(dp4029
g73
(dp4030
g81
I3
ssg82
Nsg75
(lp4031
g68
(g84
g70
NtRp4032
(dp4033
g73
(dp4034
sg82
g4028
sg75
(lp4035
g68
(g89
g70
NtRp4036
(dp4037
g73
(dp4038
sg82
g4032
sg75
(lp4039
g68
(g69
g70
NtRp4040
(dp4041
g73
(dp4042
g81
I3
ssg82
g4036
sg75
(lp4043
cgluon.languages
lazyT_unpickle
p4044
(S't\x04\x00\x00\x00Home'
tRp4045
asbasbasbag68
(g84
g70
NtRp4046
(dp4047
g73
(dp4048
sg82
g4028
sg75
(lp4049
g68
(g89
g70
NtRp4050
(dp4051
g73
(dp4052
sg82
g4046
sg75
(lp4053
g68
(g69
g70
NtRp4054
(dp4055
g73
(dp4056
g81
I3
ssg82
g4050
sg75
(lp4057
g111
asbasbasbag68
(g84
g70
NtRp4058
(dp4059
g73
(dp4060
sg82
g4028
sg75
(lp4061
g68
(g89
g70
NtRp4062
(dp4063
g73
(dp4064
sg82
g4058
sg75
(lp4065
g68
(g69
g70
NtRp4066
(dp4067
g73
(dp4068
g81
I3
ssg82
g4062
sg75
(lp4069
S'/911_signin/default/index'
p4070
asbasbasbag68
(g84
g70
NtRp4071
(dp4072
g73
(dp4073
sg82
g4028
sg75
(lp4074
g68
(g89
g70
NtRp4075
(dp4076
g73
(dp4077
sg82
g4071
sg75
(lp4078
g68
(g69
g70
NtRp4079
(dp4080
g73
(dp4081
g81
I3
ssg82
g4075
sg75
(lp4082
g68
(g77
g70
NtRp4083
(dp4084
g73
(dp4085
g81
I2
ssg82
Nsg75
(lp4086
sbasbasbasbasbasbasbasbag68
(g84
g70
NtRp4087
(dp4088
g73
(dp4089
sg82
g4012
sg75
(lp4090
g68
(g89
g70
NtRp4091
(dp4092
g73
(dp4093
sg82
g4087
sg75
(lp4094
g68
(g69
g70
NtRp4095
(dp4096
g73
(dp4097
g81
I4
ssg82
g4091
sg75
(lp4098
g68
(g77
g70
NtRp4099
(dp4100
g73
(dp4101
g81
I3
ssg82
Nsg75
(lp4102
g68
(g84
g70
NtRp4103
(dp4104
g73
(dp4105
sg82
g4099
sg75
(lp4106
g68
(g89
g70
NtRp4107
(dp4108
g73
(dp4109
sg82
g4103
sg75
(lp4110
g68
(g69
g70
NtRp4111
(dp4112
g73
(dp4113
g81
I3
ssg82
g4107
sg75
(lp4114
g68
(cgluon.html
SPAN
p4115
g70
NtRp4116
(dp4117
g73
(dp4118
g93
S'color:yellow'
p4119
ssg82
Nsg75
(lp4120
g3990
asbasbasbasbag68
(g84
g70
NtRp4121
(dp4122
g73
(dp4123
sg82
g4099
sg75
(lp4124
g68
(g89
g70
NtRp4125
(dp4126
g73
(dp4127
sg82
g4121
sg75
(lp4128
g68
(g69
g70
NtRp4129
(dp4130
g73
(dp4131
g81
I3
ssg82
g4125
sg75
(lp4132
g111
asbasbasbag68
(g84
g70
NtRp4133
(dp4134
g73
(dp4135
sg82
g4099
sg75
(lp4136
g68
(g89
g70
NtRp4137
(dp4138
g73
(dp4139
sg82
g4133
sg75
(lp4140
g68
(g69
g70
NtRp4141
(dp4142
g73
(dp4143
g81
I3
ssg82
g4137
sg75
(lp4144
S'None'
p4145
asbasbasbag68
(g84
g70
NtRp4146
(dp4147
g73
(dp4148
sg82
g4099
sg75
(lp4149
g68
(g89
g70
NtRp4150
(dp4151
g73
(dp4152
sg82
g4146
sg75
(lp4153
g68
(g69
g70
NtRp4154
(dp4155
g73
(dp4156
g81
I3
ssg82
g4150
sg75
(lp4157
g68
(g77
g70
NtRp4158
(dp4159
g73
(dp4160
g81
I2
ssg82
Nsg75
(lp4161
g68
(g84
g70
NtRp4162
(dp4163
g73
(dp4164
sg82
g4158
sg75
(lp4165
g68
(g89
g70
NtRp4166
(dp4167
g73
(dp4168
sg82
g4162
sg75
(lp4169
g68
(g69
g70
NtRp4170
(dp4171
g73
(dp4172
g81
I2
ssg82
g4166
sg75
(lp4173
g68
(g77
g70
NtRp4174
(dp4175
g73
(dp4176
g81
I1
ssg82
Nsg75
(lp4177
g68
(g84
g70
NtRp4178
(dp4179
g73
(dp4180
sg82
g4174
sg75
(lp4181
g68
(g89
g70
NtRp4182
(dp4183
g73
(dp4184
sg82
g4178
sg75
(lp4185
g68
(g69
g70
NtRp4186
(dp4187
g73
(dp4188
g81
I1
ssg82
g4182
sg75
(lp4189
g4044
(S's\x08\x00\x00\x00My Sites'
tRp4190
asbasbasbag68
(g84
g70
NtRp4191
(dp4192
g73
(dp4193
sg82
g4174
sg75
(lp4194
g68
(g89
g70
NtRp4195
(dp4196
g73
(dp4197
sg82
g4191
sg75
(lp4198
g68
(g69
g70
NtRp4199
(dp4200
g73
(dp4201
g81
I1
ssg82
g4195
sg75
(lp4202
I00
asbasbasbag68
(g84
g70
NtRp4203
(dp4204
g73
(dp4205
sg82
g4174
sg75
(lp4206
g68
(g89
g70
NtRp4207
(dp4208
g73
(dp4209
sg82
g4203
sg75
(lp4210
g68
(g69
g70
NtRp4211
(dp4212
g73
(dp4213
g81
I1
ssg82
g4207
sg75
(lp4214
S'/admin/default/site'
p4215
asbasbasbasbasbasbasbag68
(g84
g70
NtRp4216
(dp4217
g73
(dp4218
sg82
g4158
sg75
(lp4219
g68
(g89
g70
NtRp4220
(dp4221
g73
(dp4222
sg82
g4216
sg75
(lp4223
g68
(g69
g70
NtRp4224
(dp4225
g73
(dp4226
g81
I2
ssg82
g4220
sg75
(lp4227
g68
(g77
g70
NtRp4228
(dp4229
g73
(dp4230
g81
I1
ssg82
Nsg75
(lp4231
g68
(g84
g70
NtRp4232
(dp4233
g73
(dp4234
sg82
g4228
sg75
(lp4235
g68
(g89
g70
NtRp4236
(dp4237
g73
(dp4238
sg82
g4232
sg75
(lp4239
g68
(g69
g70
NtRp4240
(dp4241
g73
(dp4242
g81
I1
ssg82
g4236
sg75
(lp4243
g4044
(S's\x08\x00\x00\x00This App'
tRp4244
asbasbasbag68
(g84
g70
NtRp4245
(dp4246
g73
(dp4247
sg82
g4228
sg75
(lp4248
g68
(g89
g70
NtRp4249
(dp4250
g73
(dp4251
sg82
g4245
sg75
(lp4252
g68
(g69
g70
NtRp4253
(dp4254
g73
(dp4255
g81
I1
ssg82
g4249
sg75
(lp4256
I00
asbasbasbag68
(g84
g70
NtRp4257
(dp4258
g73
(dp4259
sg82
g4228
sg75
(lp4260
g68
(g89
g70
NtRp4261
(dp4262
g73
(dp4263
sg82
g4257
sg75
(lp4264
g68
(g69
g70
NtRp4265
(dp4266
g73
(dp4267
g81
I1
ssg82
g4261
sg75
(lp4268
S'/admin/default/design/911_signin'
p4269
asbasbasbag68
(g84
g70
NtRp4270
(dp4271
g73
(dp4272
sg82
g4228
sg75
(lp4273
g68
(g89
g70
NtRp4274
(dp4275
g73
(dp4276
sg82
g4270
sg75
(lp4277
g68
(g69
g70
NtRp4278
(dp4279
g73
(dp4280
g81
I1
ssg82
g4274
sg75
(lp4281
(lp4282
(g4044
(S't\n\x00\x00\x00Controller'
tRp4283
I00
S'/admin/default/edit/911_signin/controllers/default.py'
tp4284
a(g4044
(S't\x04\x00\x00\x00View'
tRp4285
I00
S'/admin/default/edit/911_signin/views/default/events.html'
tp4286
a(g4044
(S't\x06\x00\x00\x00Layout'
tRp4287
I00
S'/admin/default/edit/911_signin/views/layout.html'
tp4288
a(g4044
(S't\n\x00\x00\x00Stylesheet'
tRp4289
I00
S'/admin/default/edit/911_signin/static/css/web2py.css'
tp4290
a(g4044
(S's\x08\x00\x00\x00DB Model'
tRp4291
I00
S'/admin/default/edit/911_signin/models/db.py'
tp4292
a(g4044
(S's\n\x00\x00\x00Menu Model'
tRp4293
I00
S'/admin/default/edit/911_signin/models/menu.py'
tp4294
a(g4044
(S't\x08\x00\x00\x00Database'
tRp4295
I00
S'/911_signin/appadmin/index'
tp4296
a(g4044
(S't\x06\x00\x00\x00Errors'
tRp4297
I00
S'/admin/default/errors/911_signin'
tp4298
a(g4044
(S't\x05\x00\x00\x00About'
tRp4299
I00
S'/admin/default/about/911_signin'
tp4300
aasbasbasbasbasbasbasbag68
(g84
g70
NtRp4301
(dp4302
g73
(dp4303
sg82
g4158
sg75
(lp4304
g68
(g89
g70
NtRp4305
(dp4306
g73
(dp4307
sg82
g4301
sg75
(lp4308
g68
(g69
g70
NtRp4309
(dp4310
g73
(dp4311
g81
I2
ssg82
g4305
sg75
(lp4312
g68
(g77
g70
NtRp4313
(dp4314
g73
(dp4315
g81
I1
ssg82
Nsg75
(lp4316
g68
(g84
g70
NtRp4317
(dp4318
g73
(dp4319
sg82
g4313
sg75
(lp4320
g68
(g89
g70
NtRp4321
(dp4322
g73
(dp4323
sg82
g4317
sg75
(lp4324
g68
(g69
g70
NtRp4325
(dp4326
g73
(dp4327
g81
I1
ssg82
g4321
sg75
(lp4328
S'web2py.com'
p4329
asbasbasbag68
(g84
g70
NtRp4330
(dp4331
g73
(dp4332
sg82
g4313
sg75
(lp4333
g68
(g89
g70
NtRp4334
(dp4335
g73
(dp4336
sg82
g4330
sg75
(lp4337
g68
(g69
g70
NtRp4338
(dp4339
g73
(dp4340
g81
I1
ssg82
g4334
sg75
(lp4341
I00
asbasbasbag68
(g84
g70
NtRp4342
(dp4343
g73
(dp4344
sg82
g4313
sg75
(lp4345
g68
(g89
g70
NtRp4346
(dp4347
g73
(dp4348
sg82
g4342
sg75
(lp4349
g68
(g69
g70
NtRp4350
(dp4351
g73
(dp4352
g81
I1
ssg82
g4346
sg75
(lp4353
S'http://www.web2py.com'
p4354
asbasbasbag68
(g84
g70
NtRp4355
(dp4356
g73
(dp4357
sg82
g4313
sg75
(lp4358
g68
(g89
g70
NtRp4359
(dp4360
g73
(dp4361
sg82
g4355
sg75
(lp4362
g68
(g69
g70
NtRp4363
(dp4364
g73
(dp4365
g81
I1
ssg82
g4359
sg75
(lp4366
(lp4367
(g4044
(S't\x08\x00\x00\x00Download'
tRp4368
I00
S'http://www.web2py.com/examples/default/download'
p4369
tp4370
a(g4044
(S't\x07\x00\x00\x00Support'
tRp4371
I00
S'http://www.web2py.com/examples/default/support'
p4372
tp4373
a(g4044
(S't\x04\x00\x00\x00Demo'
tRp4374
I00
S'http://web2py.com/demo_admin'
p4375
tp4376
a(g4044
(S's\x0e\x00\x00\x00Quick Examples'
tRp4377
I00
S'http://web2py.com/examples/default/examples'
p4378
tp4379
a(g4044
(S't\x03\x00\x00\x00FAQ'
tRp4380
I00
S'http://web2py.com/AlterEgo'
p4381
tp4382
a(g4044
(S't\x06\x00\x00\x00Videos'
tRp4383
I00
S'http://www.web2py.com/examples/default/videos/'
p4384
tp4385
a(g4044
(S's\x11\x00\x00\x00Free Applications'
tRp4386
I00
S'http://web2py.com/appliances'
p4387
tp4388
a(g4044
(S't\x07\x00\x00\x00Plugins'
tRp4389
I00
S'http://web2py.com/plugins'
p4390
tp4391
a(g4044
(S't\x07\x00\x00\x00Layouts'
tRp4392
I00
S'http://web2py.com/layouts'
p4393
tp4394
a(g4044
(S't\x07\x00\x00\x00Recipes'
tRp4395
I00
S'http://web2pyslices.com/'
p4396
tp4397
a(g4044
(S't\x08\x00\x00\x00Semantic'
tRp4398
I00
S'http://web2py.com/semantic'
p4399
tp4400
aasbasbasbasbasbasbasbag68
(g84
g70
NtRp4401
(dp4402
g73
(dp4403
sg82
g4158
sg75
(lp4404
g68
(g89
g70
NtRp4405
(dp4406
g73
(dp4407
sg82
g4401
sg75
(lp4408
g68
(g69
g70
NtRp4409
(dp4410
g73
(dp4411
g81
I2
ssg82
g4405
sg75
(lp4412
g68
(g77
g70
NtRp4413
(dp4414
g73
(dp4415
g81
I1
ssg82
Nsg75
(lp4416
g68
(g84
g70
NtRp4417
(dp4418
g73
(dp4419
sg82
g4413
sg75
(lp4420
g68
(g89
g70
NtRp4421
(dp4422
g73
(dp4423
sg82
g4417
sg75
(lp4424
g68
(g69
g70
NtRp4425
(dp4426
g73
(dp4427
g81
I1
ssg82
g4421
sg75
(lp4428
g4044
(S't\r\x00\x00\x00Documentation'
tRp4429
asbasbasbag68
(g84
g70
NtRp4430
(dp4431
g73
(dp4432
sg82
g4413
sg75
(lp4433
g68
(g89
g70
NtRp4434
(dp4435
g73
(dp4436
sg82
g4430
sg75
(lp4437
g68
(g69
g70
NtRp4438
(dp4439
g73
(dp4440
g81
I1
ssg82
g4434
sg75
(lp4441
I00
asbasbasbag68
(g84
g70
NtRp4442
(dp4443
g73
(dp4444
sg82
g4413
sg75
(lp4445
g68
(g89
g70
NtRp4446
(dp4447
g73
(dp4448
sg82
g4442
sg75
(lp4449
g68
(g69
g70
NtRp4450
(dp4451
g73
(dp4452
g81
I1
ssg82
g4446
sg75
(lp4453
S'http://www.web2py.com/book'
p4454
asbasbasbag68
(g84
g70
NtRp4455
(dp4456
g73
(dp4457
sg82
g4413
sg75
(lp4458
g68
(g89
g70
NtRp4459
(dp4460
g73
(dp4461
sg82
g4455
sg75
(lp4462
g68
(g69
g70
NtRp4463
(dp4464
g73
(dp4465
g81
I1
ssg82
g4459
sg75
(lp4466
(lp4467
(g4044
(S't\x07\x00\x00\x00Preface'
tRp4468
I00
S'http://www.web2py.com/book/default/chapter/00'
p4469
tp4470
a(g4044
(S't\x0c\x00\x00\x00Introduction'
tRp4471
I00
S'http://www.web2py.com/book/default/chapter/01'
p4472
tp4473
a(g4044
(S't\x06\x00\x00\x00Python'
tRp4474
I00
S'http://www.web2py.com/book/default/chapter/02'
p4475
tp4476
a(g4044
(S't\x08\x00\x00\x00Overview'
tRp4477
I00
S'http://www.web2py.com/book/default/chapter/03'
p4478
tp4479
a(g4044
(S's\x08\x00\x00\x00The Core'
tRp4480
I00
S'http://www.web2py.com/book/default/chapter/04'
p4481
tp4482
a(g4044
(S's\t\x00\x00\x00The Views'
tRp4483
I00
S'http://www.web2py.com/book/default/chapter/05'
p4484
tp4485
a(g4044
(S't\x08\x00\x00\x00Database'
tRp4486
I00
S'http://www.web2py.com/book/default/chapter/06'
p4487
tp4488
a(g4044
(S's\x14\x00\x00\x00Forms and Validators'
tRp4489
I00
S'http://www.web2py.com/book/default/chapter/07'
p4490
tp4491
a(g4044
(S's\r\x00\x00\x00Email and SMS'
tRp4492
I00
S'http://www.web2py.com/book/default/chapter/08'
p4493
tp4494
a(g4044
(S's\x0e\x00\x00\x00Access Control'
tRp4495
I00
S'http://www.web2py.com/book/default/chapter/09'
p4496
tp4497
a(g4044
(S't\x08\x00\x00\x00Services'
tRp4498
I00
S'http://www.web2py.com/book/default/chapter/10'
p4499
tp4500
a(g4044
(S's\x0c\x00\x00\x00Ajax Recipes'
tRp4501
I00
S'http://www.web2py.com/book/default/chapter/11'
p4502
tp4503
a(g4044
(S's\x16\x00\x00\x00Components and Plugins'
tRp4504
I00
S'http://www.web2py.com/book/default/chapter/12'
p4505
tp4506
a(g4044
(S's\x12\x00\x00\x00Deployment Recipes'
tRp4507
I00
S'http://www.web2py.com/book/default/chapter/13'
p4508
tp4509
a(g4044
(S's\r\x00\x00\x00Other Recipes'
tRp4510
I00
S'http://www.web2py.com/book/default/chapter/14'
p4511
tp4512
a(g4044
(S's\r\x00\x00\x00Buy this book'
tRp4513
I00
S'http://stores.lulu.com/web2py'
p4514
tp4515
aasbasbasbasbasbasbasbag68
(g84
g70
NtRp4516
(dp4517
g73
(dp4518
sg82
g4158
sg75
(lp4519
g68
(g89
g70
NtRp4520
(dp4521
g73
(dp4522
sg82
g4516
sg75
(lp4523
g68
(g69
g70
NtRp4524
(dp4525
g73
(dp4526
g81
I2
ssg82
g4520
sg75
(lp4527
g68
(g77
g70
NtRp4528
(dp4529
g73
(dp4530
g81
I1
ssg82
Nsg75
(lp4531
g68
(g84
g70
NtRp4532
(dp4533
g73
(dp4534
sg82
g4528
sg75
(lp4535
g68
(g89
g70
NtRp4536
(dp4537
g73
(dp4538
sg82
g4532
sg75
(lp4539
g68
(g69
g70
NtRp4540
(dp4541
g73
(dp4542
g81
I1
ssg82
g4536
sg75
(lp4543
g4044
(S't\t\x00\x00\x00Community'
tRp4544
asbasbasbag68
(g84
g70
NtRp4545
(dp4546
g73
(dp4547
sg82
g4528
sg75
(lp4548
g68
(g89
g70
NtRp4549
(dp4550
g73
(dp4551
sg82
g4545
sg75
(lp4552
g68
(g69
g70
NtRp4553
(dp4554
g73
(dp4555
g81
I1
ssg82
g4549
sg75
(lp4556
I00
asbasbasbag68
(g84
g70
NtRp4557
(dp4558
g73
(dp4559
sg82
g4528
sg75
(lp4560
g68
(g89
g70
NtRp4561
(dp4562
g73
(dp4563
sg82
g4557
sg75
(lp4564
g68
(g69
g70
NtRp4565
(dp4566
g73
(dp4567
g81
I1
ssg82
g4561
sg75
(lp4568
Nasbasbasbag68
(g84
g70
NtRp4569
(dp4570
g73
(dp4571
sg82
g4528
sg75
(lp4572
g68
(g89
g70
NtRp4573
(dp4574
g73
(dp4575
sg82
g4569
sg75
(lp4576
g68
(g69
g70
NtRp4577
(dp4578
g73
(dp4579
g81
I1
ssg82
g4573
sg75
(lp4580
(lp4581
(g4044
(S't\x06\x00\x00\x00Groups'
tRp4582
I00
S'http://www.web2py.com/examples/default/usergroups'
p4583
tp4584
a(g4044
(S't\x07\x00\x00\x00Twitter'
tRp4585
I00
S'http://twitter.com/web2py'
p4586
tp4587
a(g4044
(S's\t\x00\x00\x00Live Chat'
tRp4588
I00
S'http://webchat.freenode.net/?channels=web2py'
p4589
tp4590
aasbasbasbasbasbasbasbag68
(g84
g70
NtRp4591
(dp4592
g73
(dp4593
sg82
g4158
sg75
(lp4594
g68
(g89
g70
NtRp4595
(dp4596
g73
(dp4597
sg82
g4591
sg75
(lp4598
g68
(g69
g70
NtRp4599
(dp4600
g73
(dp4601
g81
I2
ssg82
g4595
sg75
(lp4602
g68
(g77
g70
NtRp4603
(dp4604
g73
(dp4605
g81
I1
ssg82
Nsg75
(lp4606
g68
(g84
g70
NtRp4607
(dp4608
g73
(dp4609
sg82
g4603
sg75
(lp4610
g68
(g89
g70
NtRp4611
(dp4612
g73
(dp4613
sg82
g4607
sg75
(lp4614
g68
(g69
g70
NtRp4615
(dp4616
g73
(dp4617
g81
I1
ssg82
g4611
sg75
(lp4618
g4044
(S't\x07\x00\x00\x00Plugins'
tRp4619
asbasbasbag68
(g84
g70
NtRp4620
(dp4621
g73
(dp4622
sg82
g4603
sg75
(lp4623
g68
(g89
g70
NtRp4624
(dp4625
g73
(dp4626
sg82
g4620
sg75
(lp4627
g68
(g69
g70
NtRp4628
(dp4629
g73
(dp4630
g81
I1
ssg82
g4624
sg75
(lp4631
I00
asbasbasbag68
(g84
g70
NtRp4632
(dp4633
g73
(dp4634
sg82
g4603
sg75
(lp4635
g68
(g89
g70
NtRp4636
(dp4637
g73
(dp4638
sg82
g4632
sg75
(lp4639
g68
(g69
g70
NtRp4640
(dp4641
g73
(dp4642
g81
I1
ssg82
g4636
sg75
(lp4643
Nasbasbasbag68
(g84
g70
NtRp4644
(dp4645
g73
(dp4646
sg82
g4603
sg75
(lp4647
g68
(g89
g70
NtRp4648
(dp4649
g73
(dp4650
sg82
g4644
sg75
(lp4651
g68
(g69
g70
NtRp4652
(dp4653
g73
(dp4654
g81
I1
ssg82
g4648
sg75
(lp4655
(lp4656
(S'plugin_wiki'
p4657
I00
S'http://web2py.com/examples/default/download'
p4658
tp4659
a(g4044
(S's\r\x00\x00\x00Other Plugins'
tRp4660
I00
g4390
tp4661
a(g4044
(S's\x0e\x00\x00\x00Layout Plugins'
tRp4662
I00
g4393
tp4663
aasbasbasbasbasbasbasbasbasbasbasbasbasbasbasbasbasbasbasbag68
(g84
g70
NtRp4664
(dp4665
g73
(dp4666
sg82
g3487
sg75
(lp4667
g68
(g89
g70
NtRp4668
(dp4669
g73
(dp4670
g93
g94
ssg82
g4664
sg75
(lp4671
S'meta'
p4672
asbag68
(g89
g70
NtRp4673
(dp4674
g73
(dp4675
g100
g101
ssg82
g4664
sg75
(lp4676
S':'
asbag68
(g89
g70
NtRp4677
(dp4678
g73
(dp4679
sg82
g4664
sg75
(lp4680
g68
(g69
g70
NtRp4681
(dp4682
g73
(dp4683
g81
I5
ssg82
g4677
sg75
(lp4684
g68
(g77
g70
NtRp4685
(dp4686
g73
(dp4687
g81
I4
ssg82
Nsg75
(lp4688
g68
(g84
g70
NtRp4689
(dp4690
g73
(dp4691
sg82
g4685
sg75
(lp4692
g68
(g89
g70
NtRp4693
(dp4694
g73
(dp4695
g93
g94
ssg82
g4689
sg75
(lp4696
S'author'
p4697
asbag68
(g89
g70
NtRp4698
(dp4699
g73
(dp4700
g100
g101
ssg82
g4689
sg75
(lp4701
S':'
asbag68
(g89
g70
NtRp4702
(dp4703
g73
(dp4704
sg82
g4689
sg75
(lp4705
g68
(g69
g70
NtRp4706
(dp4707
g73
(dp4708
g81
I4
ssg82
g4702
sg75
(lp4709
S'Your Name <you@example.com>'
p4710
asbasbasbag68
(g84
g70
NtRp4711
(dp4712
g73
(dp4713
sg82
g4685
sg75
(lp4714
g68
(g89
g70
NtRp4715
(dp4716
g73
(dp4717
g93
g94
ssg82
g4711
sg75
(lp4718
S'copyright'
p4719
asbag68
(g89
g70
NtRp4720
(dp4721
g73
(dp4722
g100
g101
ssg82
g4711
sg75
(lp4723
S':'
asbag68
(g89
g70
NtRp4724
(dp4725
g73
(dp4726
sg82
g4711
sg75
(lp4727
g68
(g69
g70
NtRp4728
(dp4729
g73
(dp4730
g81
I4
ssg82
g4724
sg75
(lp4731
S'Copyright 2011'
p4732
asbasbasbag68
(g84
g70
NtRp4733
(dp4734
g73
(dp4735
sg82
g4685
sg75
(lp4736
g68
(g89
g70
NtRp4737
(dp4738
g73
(dp4739
g93
g94
ssg82
g4733
sg75
(lp4740
S'description'
p4741
asbag68
(g89
g70
NtRp4742
(dp4743
g73
(dp4744
g100
g101
ssg82
g4733
sg75
(lp4745
S':'
asbag68
(g89
g70
NtRp4746
(dp4747
g73
(dp4748
sg82
g4733
sg75
(lp4749
g68
(g69
g70
NtRp4750
(dp4751
g73
(dp4752
g81
I4
ssg82
g4746
sg75
(lp4753
S'a cool new app'
p4754
asbasbasbag68
(g84
g70
NtRp4755
(dp4756
g73
(dp4757
sg82
g4685
sg75
(lp4758
g68
(g89
g70
NtRp4759
(dp4760
g73
(dp4761
g93
g94
ssg82
g4755
sg75
(lp4762
S'generator'
p4763
asbag68
(g89
g70
NtRp4764
(dp4765
g73
(dp4766
g100
g101
ssg82
g4755
sg75
(lp4767
S':'
asbag68
(g89
g70
NtRp4768
(dp4769
g73
(dp4770
sg82
g4755
sg75
(lp4771
g68
(g69
g70
NtRp4772
(dp4773
g73
(dp4774
g81
I4
ssg82
g4768
sg75
(lp4775
S'Web2py Web Framework'
p4776
asbasbasbag68
(g84
g70
NtRp4777
(dp4778
g73
(dp4779
sg82
g4685
sg75
(lp4780
g68
(g89
g70
NtRp4781
(dp4782
g73
(dp4783
g93
g94
ssg82
g4777
sg75
(lp4784
S'keywords'
p4785
asbag68
(g89
g70
NtRp4786
(dp4787
g73
(dp4788
g100
g101
ssg82
g4777
sg75
(lp4789
S':'
asbag68
(g89
g70
NtRp4790
(dp4791
g73
(dp4792
sg82
g4777
sg75
(lp4793
g68
(g69
g70
NtRp4794
(dp4795
g73
(dp4796
g81
I4
ssg82
g4790
sg75
(lp4797
S'web2py, python, framework'
p4798
asbasbasbasbasbasbasbag68
(g84
g70
NtRp4799
(dp4800
g73
(dp4801
sg82
g3487
sg75
(lp4802
g68
(g89
g70
NtRp4803
(dp4804
g73
(dp4805
g93
g94
ssg82
g4799
sg75
(lp4806
S'postprocessing'
p4807
asbag68
(g89
g70
NtRp4808
(dp4809
g73
(dp4810
g100
g101
ssg82
g4799
sg75
(lp4811
S':'
asbag68
(g89
g70
NtRp4812
(dp4813
g73
(dp4814
sg82
g4799
sg75
(lp4815
g68
(g69
g70
NtRp4816
(dp4817
g73
(dp4818
g81
I5
ssg82
g4812
sg75
(lp4819
g68
(g77
g70
NtRp4820
(dp4821
g73
(dp4822
g81
I4
ssg82
Nsg75
(lp4823
sbasbasbasbag68
(g84
g70
NtRp4824
(dp4825
g73
(dp4826
sg82
g3487
sg75
(lp4827
g68
(g89
g70
NtRp4828
(dp4829
g73
(dp4830
g93
g94
ssg82
g4824
sg75
(lp4831
S'session_file'
p4832
asbag68
(g89
g70
NtRp4833
(dp4834
g73
(dp4835
g100
g101
ssg82
g4824
sg75
(lp4836
S':'
asbag68
(g89
g70
NtRp4837
(dp4838
g73
(dp4839
sg82
g4824
sg75
(lp4840
g68
(g69
g70
NtRp4841
(dp4842
g73
(dp4843
g81
I5
ssg82
g4837
sg75
(lp4844
S"<open file '/home/krutarth/Downloads/911india/applications/911_signin/sessions/127.0.0.1-6572663b-59b7-4eae-8a04-69e22de716cf', mode 'rb+' at 0xad934650>"
p4845
asbasbasbag68
(g84
g70
NtRp4846
(dp4847
g73
(dp4848
sg82
g3487
sg75
(lp4849
g68
(g89
g70
NtRp4850
(dp4851
g73
(dp4852
g93
g94
ssg82
g4846
sg75
(lp4853
S'session_filename'
p4854
asbag68
(g89
g70
NtRp4855
(dp4856
g73
(dp4857
g100
g101
ssg82
g4846
sg75
(lp4858
S':'
asbag68
(g89
g70
NtRp4859
(dp4860
g73
(dp4861
sg82
g4846
sg75
(lp4862
g68
(g69
g70
NtRp4863
(dp4864
g73
(dp4865
g81
I5
ssg82
g4859
sg75
(lp4866
S'/home/krutarth/Downloads/911india/applications/911_signin/sessions/127.0.0.1-6572663b-59b7-4eae-8a04-69e22de716cf'
p4867
asbasbasbag68
(g84
g70
NtRp4868
(dp4869
g73
(dp4870
sg82
g3487
sg75
(lp4871
g68
(g89
g70
NtRp4872
(dp4873
g73
(dp4874
g93
g94
ssg82
g4868
sg75
(lp4875
S'session_id'
p4876
asbag68
(g89
g70
NtRp4877
(dp4878
g73
(dp4879
g100
g101
ssg82
g4868
sg75
(lp4880
S':'
asbag68
(g89
g70
NtRp4881
(dp4882
g73
(dp4883
sg82
g4868
sg75
(lp4884
g68
(g69
g70
NtRp4885
(dp4886
g73
(dp4887
g81
I5
ssg82
g4881
sg75
(lp4888
S'127.0.0.1-6572663b-59b7-4eae-8a04-69e22de716cf'
p4889
asbasbasbag68
(g84
g70
NtRp4890
(dp4891
g73
(dp4892
sg82
g3487
sg75
(lp4893
g68
(g89
g70
NtRp4894
(dp4895
g73
(dp4896
g93
g94
ssg82
g4890
sg75
(lp4897
S'session_id_name'
p4898
asbag68
(g89
g70
NtRp4899
(dp4900
g73
(dp4901
g100
g101
ssg82
g4890
sg75
(lp4902
S':'
asbag68
(g89
g70
NtRp4903
(dp4904
g73
(dp4905
sg82
g4890
sg75
(lp4906
g68
(g69
g70
NtRp4907
(dp4908
g73
(dp4909
g81
I5
ssg82
g4903
sg75
(lp4910
g3544
asbasbasbag68
(g84
g70
NtRp4911
(dp4912
g73
(dp4913
sg82
g3487
sg75
(lp4914
g68
(g89
g70
NtRp4915
(dp4916
g73
(dp4917
g93
g94
ssg82
g4911
sg75
(lp4918
S'session_locked'
p4919
asbag68
(g89
g70
NtRp4920
(dp4921
g73
(dp4922
g100
g101
ssg82
g4911
sg75
(lp4923
S':'
asbag68
(g89
g70
NtRp4924
(dp4925
g73
(dp4926
sg82
g4911
sg75
(lp4927
g68
(g69
g70
NtRp4928
(dp4929
g73
(dp4930
g81
I5
ssg82
g4924
sg75
(lp4931
g1710
asbasbasbag68
(g84
g70
NtRp4932
(dp4933
g73
(dp4934
sg82
g3487
sg75
(lp4935
g68
(g89
g70
NtRp4936
(dp4937
g73
(dp4938
g93
g94
ssg82
g4932
sg75
(lp4939
S'session_new'
p4940
asbag68
(g89
g70
NtRp4941
(dp4942
g73
(dp4943
g100
g101
ssg82
g4932
sg75
(lp4944
S':'
asbag68
(g89
g70
NtRp4945
(dp4946
g73
(dp4947
sg82
g4932
sg75
(lp4948
g68
(g69
g70
NtRp4949
(dp4950
g73
(dp4951
g81
I5
ssg82
g4945
sg75
(lp4952
g111
asbasbasbag68
(g84
g70
NtRp4953
(dp4954
g73
(dp4955
sg82
g3487
sg75
(lp4956
g68
(g89
g70
NtRp4957
(dp4958
g73
(dp4959
g93
g94
ssg82
g4953
sg75
(lp4960
S'status'
p4961
asbag68
(g89
g70
NtRp4962
(dp4963
g73
(dp4964
g100
g101
ssg82
g4953
sg75
(lp4965
S':'
asbag68
(g89
g70
NtRp4966
(dp4967
g73
(dp4968
sg82
g4953
sg75
(lp4969
g68
(g69
g70
NtRp4970
(dp4971
g73
(dp4972
g81
I5
ssg82
g4966
sg75
(lp4973
S'200'
p4974
asbasbasbag68
(g84
g70
NtRp4975
(dp4976
g73
(dp4977
sg82
g3487
sg75
(lp4978
g68
(g89
g70
NtRp4979
(dp4980
g73
(dp4981
g93
g94
ssg82
g4975
sg75
(lp4982
S'subtitle'
p4983
asbag68
(g89
g70
NtRp4984
(dp4985
g73
(dp4986
g100
g101
ssg82
g4975
sg75
(lp4987
S':'
asbag68
(g89
g70
NtRp4988
(dp4989
g73
(dp4990
sg82
g4975
sg75
(lp4991
g68
(g69
g70
NtRp4992
(dp4993
g73
(dp4994
g81
I5
ssg82
g4988
sg75
(lp4995
g4044
(S's\r\x00\x00\x00customize me!'
tRp4996
asbasbasbag68
(g84
g70
NtRp4997
(dp4998
g73
(dp4999
sg82
g3487
sg75
(lp5000
g68
(g89
g70
NtRp5001
(dp5002
g73
(dp5003
g93
g94
ssg82
g4997
sg75
(lp5004
S'title'
p5005
asbag68
(g89
g70
NtRp5006
(dp5007
g73
(dp5008
g100
g101
ssg82
g4997
sg75
(lp5009
S':'
asbag68
(g89
g70
NtRp5010
(dp5011
g73
(dp5012
sg82
g4997
sg75
(lp5013
g68
(g69
g70
NtRp5014
(dp5015
g73
(dp5016
g81
I5
ssg82
g5010
sg75
(lp5017
S'911 Signin'
p5018
asbasbasbag68
(g84
g70
NtRp5019
(dp5020
g73
(dp5021
sg82
g3487
sg75
(lp5022
g68
(g89
g70
NtRp5023
(dp5024
g73
(dp5025
g93
g94
ssg82
g5019
sg75
(lp5026
g2374
asbag68
(g89
g70
NtRp5027
(dp5028
g73
(dp5029
g100
g101
ssg82
g5019
sg75
(lp5030
S':'
asbag68
(g89
g70
NtRp5031
(dp5032
g73
(dp5033
sg82
g5019
sg75
(lp5034
g68
(g69
g70
NtRp5035
(dp5036
g73
(dp5037
g81
I5
ssg82
g5031
sg75
(lp5038
g2387
asbasbasbag68
(g84
g70
NtRp5039
(dp5040
g73
(dp5041
sg82
g3487
sg75
(lp5042
g68
(g89
g70
NtRp5043
(dp5044
g73
(dp5045
g93
g94
ssg82
g5039
sg75
(lp5046
S'view'
p5047
asbag68
(g89
g70
NtRp5048
(dp5049
g73
(dp5050
g100
g101
ssg82
g5039
sg75
(lp5051
S':'
asbag68
(g89
g70
NtRp5052
(dp5053
g73
(dp5054
sg82
g5039
sg75
(lp5055
g68
(g69
g70
NtRp5056
(dp5057
g73
(dp5058
g81
I5
ssg82
g5052
sg75
(lp5059
S'default/events.html'
p5060
asbasbasbasbasbsS'locals'
p5061
(dp5062
g4
S"'/home/krutarth/Downloads/911india/applications/911_signin/controllers/default.py'"
p5063
sg6
S"'import datetime\\n# -*- coding: utf-8 -*-\\n# this f...elect()\\n\\nresponse._vars=response._caller(events)\\n'"
p5064
sssS'traceback'
p5065
S'Traceback (most recent call last):\n  File "/home/krutarth/Downloads/911india/gluon/restricted.py", line 204, in restricted\n    ccode = compile2(code,layer)\n  File "/home/krutarth/Downloads/911india/gluon/restricted.py", line 189, in compile2\n    return compile(code.rstrip().replace(\'\\r\\n\',\'\\n\')+\'\\n\', layer, \'exec\')\n  File "/home/krutarth/Downloads/911india/applications/911_signin/controllers/default.py", line 204\n    return dict(form=form)\n         ^\nIndentationError: expected an indented block\n'
p5066
s.