(dp1
S'output'
p2
S"<type 'exceptions.SyntaxError'> invalid table name: auth_user"
p3
sS'layer'
p4
S'/home/enigma/web2py/applications/911_signin/models/db.py'
p5
sS'code'
p6
S'# -*- coding: utf-8 -*-\n\n#########################################################################\n## This scaffolding model makes your app work on Google App Engine too\n## File is released under public domain and you can use without limitations\n#########################################################################\n\n## if SSL/HTTPS is properly configured and you want all HTTP requests to\n## be redirected to HTTPS, uncomment the line below:\n# request.requires_https()\n\nif not request.env.web2py_runtime_gae:\n    ## if NOT running on Google App Engine use SQLite or other DB\n    db = DAL(\'sqlite://storage.sqlite\')\nelse:\n    ## connect to Google BigTable (optional \'google:datastore://namespace\')\n    db = DAL(\'google:datastore\')\n    ## store sessions and tickets there\n    session.connect(request, response, db = db)\n    ## or store session in Memcache, Redis, etc.\n    ## from gluon.contrib.memdb import MEMDB\n    ## from google.appengine.api.memcache import Client\n    ## session.connect(request, response, db = MEMDB(Client()))\n\n## by default give a view/generic.extension to all actions from localhost\n## none otherwise. a pattern can be \'controller/function.extension\'\nresponse.generic_patterns = [\'*\'] if request.is_local else []\n## (optional) optimize handling of static files\n# response.optimize_css = \'concat,minify,inline\'\n# response.optimize_js = \'concat,minify,inline\'\n\n#########################################################################\n## Here is sample code if you need for\n## - email capabilities\n## - authentication (registration, login, logout, ... )\n## - authorization (role based authorization)\n## - services (xml, csv, json, xmlrpc, jsonrpc, amf, rss)\n## - old style crud actions\n## (more options discussed in gluon/tools.py)\n#########################################################################\n\nfrom gluon.tools import Auth, Crud, Service, PluginManager, prettydate\nauth = Auth(db, hmac_key=Auth.get_or_create_key())\ncrud, service, plugins = Crud(db), Service(), PluginManager()\n\n## create all tables needed by auth if not custom tables\nauth.define_tables()\n\n## configure email\nmail=auth.settings.mailer\nmail.settings.server = \'logging\' or \'smtp.gmail.com:587\'\nmail.settings.sender = \'chandantheshadow@gmail.com\'\n\n## configure auth policy\nauth.settings.registration_requires_verification = False\nauth.settings.registration_requires_approval = False\nauth.settings.reset_password_requires_verification = True\n\n## if you need to use OpenID, Facebook, MySpace, Twitter, Linkedin, etc.\n## register with janrain.com, write your domain:api_key in private/janrain.key\nfrom gluon.contrib.login_methods.rpx_account import use_janrain\nuse_janrain(auth,filename=\'private/janrain.key\')\n\n#########################################################################\n## Define your tables below (or better in another model file) for example\n##\n## >>> db.define_table(\'mytable\',Field(\'myfield\',\'string\'))\n##\n## Fields can be \'string\',\'text\',\'password\',\'integer\',\'double\',\'boolean\'\n##       \'date\',\'time\',\'datetime\',\'blob\',\'upload\', \'reference TABLENAME\'\n## There is an implicit \'id integer autoincrement\' field\n## Consult manual for more options, validators, etc.\n##\n## More API examples for controllers:\n##\n## >>> db.mytable.insert(myfield=\'value\')\n## >>> rows=db(db.mytable.myfield==\'value\').select(db.mytable.ALL)\n## >>> for row in rows: print row.id, row.myfield\n#########################################################################\n\nauth.settings.table_user = db.define_table(\n\t"auth_user",\n\tField(\'name\', requires = [IS_NOT_EMPTY(), IS_ALPHANUMERIC()]),\n\tField(\'username\', length=32, requires = [IS_NOT_EMPTY(), IS_LENGTH(32), IS_ALPHANUMERIC()]),\n\tField(\'email\', length=128,default=\'\', requires = [IS_EMAIL(), IS_NOT_EMPTY()]),\n\tField(\'password\', \'password\', readable=False, label=\'Password\', requires=CRYPT(digest_alg=\'sha512\')), \n\tField(\'registration_key\', length=128,\n\twritable=False, readable=False, default=\'\'))\n'
p7
sS'snapshot'
p8
(dp9
S'exception'
p10
(dp11
S'__getslice__'
p12
S"<method-wrapper '__getslice__' of exceptions.SyntaxError object>"
p13
sS'text'
p14
S'None'
p15
sS'__str__'
p16
S"<method-wrapper '__str__' of exceptions.SyntaxError object>"
p17
sS'__reduce__'
p18
S'<built-in method __reduce__ of exceptions.SyntaxError object>'
p19
sS'__dict__'
p20
S'{}'
p21
sS'__sizeof__'
p22
S'<built-in method __sizeof__ of exceptions.SyntaxError object>'
p23
sS'__init__'
p24
S"<method-wrapper '__init__' of exceptions.SyntaxError object>"
p25
sS'__setattr__'
p26
S"<method-wrapper '__setattr__' of exceptions.SyntaxError object>"
p27
sS'__reduce_ex__'
p28
S'<built-in method __reduce_ex__ of exceptions.SyntaxError object>'
p29
sS'__new__'
p30
S'<built-in method __new__ of type object>'
p31
sS'__format__'
p32
S'<built-in method __format__ of exceptions.SyntaxError object>'
p33
sS'__class__'
p34
S"<type 'exceptions.SyntaxError'>"
p35
sS'filename'
p36
S'None'
p37
sS'lineno'
p38
S'None'
p39
sS'msg'
p40
S"'invalid table name: auth_user'"
p41
sS'__doc__'
p42
S"'Invalid syntax.'"
p43
sS'__getitem__'
p44
S"<method-wrapper '__getitem__' of exceptions.SyntaxError object>"
p45
sS'__setstate__'
p46
S'<built-in method __setstate__ of exceptions.SyntaxError object>'
p47
sS'__getattribute__'
p48
S"<method-wrapper '__getattribute__' of exceptions.SyntaxError object>"
p49
sS'print_file_and_line'
p50
S'None'
p51
sS'args'
p52
S"('invalid table name: auth_user',)"
p53
sS'__subclasshook__'
p54
S'<built-in method __subclasshook__ of type object>'
p55
sS'offset'
p56
S'None'
p57
sS'__unicode__'
p58
S'<built-in method __unicode__ of exceptions.SyntaxError object>'
p59
sS'__delattr__'
p60
S"<method-wrapper '__delattr__' of exceptions.SyntaxError object>"
p61
sS'__repr__'
p62
S"<method-wrapper '__repr__' of exceptions.SyntaxError object>"
p63
sS'__hash__'
p64
S"<method-wrapper '__hash__' of exceptions.SyntaxError object>"
p65
ssS'evalue'
p66
S'invalid table name: auth_user'
p67
sS'request'
p68
ccopy_reg
_reconstructor
p69
(cgluon.html
BEAUTIFY
p70
c__builtin__
object
p71
NtRp72
(dp73
S'attributes'
p74
(dp75
sS'components'
p76
(lp77
g69
(cgluon.html
TABLE
p78
g71
NtRp79
(dp80
g74
(dp81
S'level'
p82
I5
ssS'parent'
p83
Nsg76
(lp84
g69
(cgluon.html
TR
p85
g71
NtRp86
(dp87
g74
(dp88
sg83
g79
sg76
(lp89
g69
(cgluon.html
TD
p90
g71
NtRp91
(dp92
g74
(dp93
S'_style'
p94
S'font-weight:bold;vertical-align:top'
p95
ssg83
g86
sg76
(lp96
S'ajax'
p97
asbag69
(g90
g71
NtRp98
(dp99
g74
(dp100
S'_valign'
p101
S'top'
p102
ssg83
g86
sg76
(lp103
S':'
asbag69
(g90
g71
NtRp104
(dp105
g74
(dp106
sg83
g86
sg76
(lp107
g69
(g70
g71
NtRp108
(dp109
g74
(dp110
g82
I5
ssg83
g104
sg76
(lp111
S'False'
p112
asbasbasbag69
(g85
g71
NtRp113
(dp114
g74
(dp115
sg83
g79
sg76
(lp116
g69
(g90
g71
NtRp117
(dp118
g74
(dp119
g94
g95
ssg83
g113
sg76
(lp120
S'application'
p121
asbag69
(g90
g71
NtRp122
(dp123
g74
(dp124
g101
g102
ssg83
g113
sg76
(lp125
S':'
asbag69
(g90
g71
NtRp126
(dp127
g74
(dp128
sg83
g113
sg76
(lp129
g69
(g70
g71
NtRp130
(dp131
g74
(dp132
g82
I5
ssg83
g126
sg76
(lp133
S'911_signin'
p134
asbasbasbag69
(g85
g71
NtRp135
(dp136
g74
(dp137
sg83
g79
sg76
(lp138
g69
(g90
g71
NtRp139
(dp140
g74
(dp141
g94
g95
ssg83
g135
sg76
(lp142
g52
asbag69
(g90
g71
NtRp143
(dp144
g74
(dp145
g101
g102
ssg83
g135
sg76
(lp146
S':'
asbag69
(g90
g71
NtRp147
(dp148
g74
(dp149
sg83
g135
sg76
(lp150
g69
(g70
g71
NtRp151
(dp152
g74
(dp153
g82
I5
ssg83
g147
sg76
(lp154
g69
(g78
g71
NtRp155
(dp156
g74
(dp157
g82
I4
ssg83
Nsg76
(lp158
sbasbasbasbag69
(g85
g71
NtRp159
(dp160
g74
(dp161
sg83
g79
sg76
(lp162
g69
(g90
g71
NtRp163
(dp164
g74
(dp165
g94
g95
ssg83
g159
sg76
(lp166
S'body'
p167
asbag69
(g90
g71
NtRp168
(dp169
g74
(dp170
g101
g102
ssg83
g159
sg76
(lp171
S':'
asbag69
(g90
g71
NtRp172
(dp173
g74
(dp174
sg83
g159
sg76
(lp175
g69
(g70
g71
NtRp176
(dp177
g74
(dp178
g82
I5
ssg83
g172
sg76
(lp179
S'<cStringIO.StringO object at 0xb19ae540>'
p180
asbasbasbag69
(g85
g71
NtRp181
(dp182
g74
(dp183
sg83
g79
sg76
(lp184
g69
(g90
g71
NtRp185
(dp186
g74
(dp187
g94
g95
ssg83
g181
sg76
(lp188
S'client'
p189
asbag69
(g90
g71
NtRp190
(dp191
g74
(dp192
g101
g102
ssg83
g181
sg76
(lp193
S':'
asbag69
(g90
g71
NtRp194
(dp195
g74
(dp196
sg83
g181
sg76
(lp197
g69
(g70
g71
NtRp198
(dp199
g74
(dp200
g82
I5
ssg83
g194
sg76
(lp201
S'127.0.0.1'
p202
asbasbasbag69
(g85
g71
NtRp203
(dp204
g74
(dp205
sg83
g79
sg76
(lp206
g69
(g90
g71
NtRp207
(dp208
g74
(dp209
g94
g95
ssg83
g203
sg76
(lp210
S'controller'
p211
asbag69
(g90
g71
NtRp212
(dp213
g74
(dp214
g101
g102
ssg83
g203
sg76
(lp215
S':'
asbag69
(g90
g71
NtRp216
(dp217
g74
(dp218
sg83
g203
sg76
(lp219
g69
(g70
g71
NtRp220
(dp221
g74
(dp222
g82
I5
ssg83
g216
sg76
(lp223
S'default'
p224
asbasbasbag69
(g85
g71
NtRp225
(dp226
g74
(dp227
sg83
g79
sg76
(lp228
g69
(g90
g71
NtRp229
(dp230
g74
(dp231
g94
g95
ssg83
g225
sg76
(lp232
S'cookies'
p233
asbag69
(g90
g71
NtRp234
(dp235
g74
(dp236
g101
g102
ssg83
g225
sg76
(lp237
S':'
asbag69
(g90
g71
NtRp238
(dp239
g74
(dp240
sg83
g225
sg76
(lp241
g69
(g70
g71
NtRp242
(dp243
g74
(dp244
g82
I5
ssg83
g238
sg76
(lp245
g69
(g78
g71
NtRp246
(dp247
g74
(dp248
g82
I4
ssg83
Nsg76
(lp249
g69
(g85
g71
NtRp250
(dp251
g74
(dp252
sg83
g246
sg76
(lp253
g69
(g90
g71
NtRp254
(dp255
g74
(dp256
g94
g95
ssg83
g250
sg76
(lp257
S'SESS382051e6e1ed8806a7f7ff8f96fa26b4'
p258
asbag69
(g90
g71
NtRp259
(dp260
g74
(dp261
g101
g102
ssg83
g250
sg76
(lp262
S':'
asbag69
(g90
g71
NtRp263
(dp264
g74
(dp265
sg83
g250
sg76
(lp266
g69
(g70
g71
NtRp267
(dp268
g74
(dp269
g82
I4
ssg83
g263
sg76
(lp270
g69
(g78
g71
NtRp271
(dp272
g74
(dp273
g82
I3
ssg83
Nsg76
(lp274
g69
(g85
g71
NtRp275
(dp276
g74
(dp277
sg83
g271
sg76
(lp278
g69
(g90
g71
NtRp279
(dp280
g74
(dp281
g94
g95
ssg83
g275
sg76
(lp282
S'comment'
p283
asbag69
(g90
g71
NtRp284
(dp285
g74
(dp286
g101
g102
ssg83
g275
sg76
(lp287
S':'
asbag69
(g90
g71
NtRp288
(dp289
g74
(dp290
sg83
g275
sg76
(lp291
g69
(g70
g71
NtRp292
(dp293
g74
(dp294
g82
I3
ssg83
g288
sg76
(lp295
S''
asbasbasbag69
(g85
g71
NtRp296
(dp297
g74
(dp298
sg83
g271
sg76
(lp299
g69
(g90
g71
NtRp300
(dp301
g74
(dp302
g94
g95
ssg83
g296
sg76
(lp303
S'domain'
p304
asbag69
(g90
g71
NtRp305
(dp306
g74
(dp307
g101
g102
ssg83
g296
sg76
(lp308
S':'
asbag69
(g90
g71
NtRp309
(dp310
g74
(dp311
sg83
g296
sg76
(lp312
g69
(g70
g71
NtRp313
(dp314
g74
(dp315
g82
I3
ssg83
g309
sg76
(lp316
S''
asbasbasbag69
(g85
g71
NtRp317
(dp318
g74
(dp319
sg83
g271
sg76
(lp320
g69
(g90
g71
NtRp321
(dp322
g74
(dp323
g94
g95
ssg83
g317
sg76
(lp324
S'expires'
p325
asbag69
(g90
g71
NtRp326
(dp327
g74
(dp328
g101
g102
ssg83
g317
sg76
(lp329
S':'
asbag69
(g90
g71
NtRp330
(dp331
g74
(dp332
sg83
g317
sg76
(lp333
g69
(g70
g71
NtRp334
(dp335
g74
(dp336
g82
I3
ssg83
g330
sg76
(lp337
S''
asbasbasbag69
(g85
g71
NtRp338
(dp339
g74
(dp340
sg83
g271
sg76
(lp341
g69
(g90
g71
NtRp342
(dp343
g74
(dp344
g94
g95
ssg83
g338
sg76
(lp345
S'httponly'
p346
asbag69
(g90
g71
NtRp347
(dp348
g74
(dp349
g101
g102
ssg83
g338
sg76
(lp350
S':'
asbag69
(g90
g71
NtRp351
(dp352
g74
(dp353
sg83
g338
sg76
(lp354
g69
(g70
g71
NtRp355
(dp356
g74
(dp357
g82
I3
ssg83
g351
sg76
(lp358
S''
asbasbasbag69
(g85
g71
NtRp359
(dp360
g74
(dp361
sg83
g271
sg76
(lp362
g69
(g90
g71
NtRp363
(dp364
g74
(dp365
g94
g95
ssg83
g359
sg76
(lp366
S'max-age'
p367
asbag69
(g90
g71
NtRp368
(dp369
g74
(dp370
g101
g102
ssg83
g359
sg76
(lp371
S':'
asbag69
(g90
g71
NtRp372
(dp373
g74
(dp374
sg83
g359
sg76
(lp375
g69
(g70
g71
NtRp376
(dp377
g74
(dp378
g82
I3
ssg83
g372
sg76
(lp379
S''
asbasbasbag69
(g85
g71
NtRp380
(dp381
g74
(dp382
sg83
g271
sg76
(lp383
g69
(g90
g71
NtRp384
(dp385
g74
(dp386
g94
g95
ssg83
g380
sg76
(lp387
S'path'
p388
asbag69
(g90
g71
NtRp389
(dp390
g74
(dp391
g101
g102
ssg83
g380
sg76
(lp392
S':'
asbag69
(g90
g71
NtRp393
(dp394
g74
(dp395
sg83
g380
sg76
(lp396
g69
(g70
g71
NtRp397
(dp398
g74
(dp399
g82
I3
ssg83
g393
sg76
(lp400
S''
asbasbasbag69
(g85
g71
NtRp401
(dp402
g74
(dp403
sg83
g271
sg76
(lp404
g69
(g90
g71
NtRp405
(dp406
g74
(dp407
g94
g95
ssg83
g401
sg76
(lp408
S'secure'
p409
asbag69
(g90
g71
NtRp410
(dp411
g74
(dp412
g101
g102
ssg83
g401
sg76
(lp413
S':'
asbag69
(g90
g71
NtRp414
(dp415
g74
(dp416
sg83
g401
sg76
(lp417
g69
(g70
g71
NtRp418
(dp419
g74
(dp420
g82
I3
ssg83
g414
sg76
(lp421
S''
asbasbasbag69
(g85
g71
NtRp422
(dp423
g74
(dp424
sg83
g271
sg76
(lp425
g69
(g90
g71
NtRp426
(dp427
g74
(dp428
g94
g95
ssg83
g422
sg76
(lp429
S'version'
p430
asbag69
(g90
g71
NtRp431
(dp432
g74
(dp433
g101
g102
ssg83
g422
sg76
(lp434
S':'
asbag69
(g90
g71
NtRp435
(dp436
g74
(dp437
sg83
g422
sg76
(lp438
g69
(g70
g71
NtRp439
(dp440
g74
(dp441
g82
I3
ssg83
g435
sg76
(lp442
S''
asbasbasbasbasbasbasbag69
(g85
g71
NtRp443
(dp444
g74
(dp445
sg83
g246
sg76
(lp446
g69
(g90
g71
NtRp447
(dp448
g74
(dp449
g94
g95
ssg83
g443
sg76
(lp450
S'SESS5a480d13812eae04fe2f3fbb68939d2a'
p451
asbag69
(g90
g71
NtRp452
(dp453
g74
(dp454
g101
g102
ssg83
g443
sg76
(lp455
S':'
asbag69
(g90
g71
NtRp456
(dp457
g74
(dp458
sg83
g443
sg76
(lp459
g69
(g70
g71
NtRp460
(dp461
g74
(dp462
g82
I4
ssg83
g456
sg76
(lp463
g69
(g78
g71
NtRp464
(dp465
g74
(dp466
g82
I3
ssg83
Nsg76
(lp467
g69
(g85
g71
NtRp468
(dp469
g74
(dp470
sg83
g464
sg76
(lp471
g69
(g90
g71
NtRp472
(dp473
g74
(dp474
g94
g95
ssg83
g468
sg76
(lp475
g283
asbag69
(g90
g71
NtRp476
(dp477
g74
(dp478
g101
g102
ssg83
g468
sg76
(lp479
S':'
asbag69
(g90
g71
NtRp480
(dp481
g74
(dp482
sg83
g468
sg76
(lp483
g69
(g70
g71
NtRp484
(dp485
g74
(dp486
g82
I3
ssg83
g480
sg76
(lp487
S''
asbasbasbag69
(g85
g71
NtRp488
(dp489
g74
(dp490
sg83
g464
sg76
(lp491
g69
(g90
g71
NtRp492
(dp493
g74
(dp494
g94
g95
ssg83
g488
sg76
(lp495
g304
asbag69
(g90
g71
NtRp496
(dp497
g74
(dp498
g101
g102
ssg83
g488
sg76
(lp499
S':'
asbag69
(g90
g71
NtRp500
(dp501
g74
(dp502
sg83
g488
sg76
(lp503
g69
(g70
g71
NtRp504
(dp505
g74
(dp506
g82
I3
ssg83
g500
sg76
(lp507
S''
asbasbasbag69
(g85
g71
NtRp508
(dp509
g74
(dp510
sg83
g464
sg76
(lp511
g69
(g90
g71
NtRp512
(dp513
g74
(dp514
g94
g95
ssg83
g508
sg76
(lp515
g325
asbag69
(g90
g71
NtRp516
(dp517
g74
(dp518
g101
g102
ssg83
g508
sg76
(lp519
S':'
asbag69
(g90
g71
NtRp520
(dp521
g74
(dp522
sg83
g508
sg76
(lp523
g69
(g70
g71
NtRp524
(dp525
g74
(dp526
g82
I3
ssg83
g520
sg76
(lp527
S''
asbasbasbag69
(g85
g71
NtRp528
(dp529
g74
(dp530
sg83
g464
sg76
(lp531
g69
(g90
g71
NtRp532
(dp533
g74
(dp534
g94
g95
ssg83
g528
sg76
(lp535
g346
asbag69
(g90
g71
NtRp536
(dp537
g74
(dp538
g101
g102
ssg83
g528
sg76
(lp539
S':'
asbag69
(g90
g71
NtRp540
(dp541
g74
(dp542
sg83
g528
sg76
(lp543
g69
(g70
g71
NtRp544
(dp545
g74
(dp546
g82
I3
ssg83
g540
sg76
(lp547
S''
asbasbasbag69
(g85
g71
NtRp548
(dp549
g74
(dp550
sg83
g464
sg76
(lp551
g69
(g90
g71
NtRp552
(dp553
g74
(dp554
g94
g95
ssg83
g548
sg76
(lp555
g367
asbag69
(g90
g71
NtRp556
(dp557
g74
(dp558
g101
g102
ssg83
g548
sg76
(lp559
S':'
asbag69
(g90
g71
NtRp560
(dp561
g74
(dp562
sg83
g548
sg76
(lp563
g69
(g70
g71
NtRp564
(dp565
g74
(dp566
g82
I3
ssg83
g560
sg76
(lp567
S''
asbasbasbag69
(g85
g71
NtRp568
(dp569
g74
(dp570
sg83
g464
sg76
(lp571
g69
(g90
g71
NtRp572
(dp573
g74
(dp574
g94
g95
ssg83
g568
sg76
(lp575
g388
asbag69
(g90
g71
NtRp576
(dp577
g74
(dp578
g101
g102
ssg83
g568
sg76
(lp579
S':'
asbag69
(g90
g71
NtRp580
(dp581
g74
(dp582
sg83
g568
sg76
(lp583
g69
(g70
g71
NtRp584
(dp585
g74
(dp586
g82
I3
ssg83
g580
sg76
(lp587
S''
asbasbasbag69
(g85
g71
NtRp588
(dp589
g74
(dp590
sg83
g464
sg76
(lp591
g69
(g90
g71
NtRp592
(dp593
g74
(dp594
g94
g95
ssg83
g588
sg76
(lp595
g409
asbag69
(g90
g71
NtRp596
(dp597
g74
(dp598
g101
g102
ssg83
g588
sg76
(lp599
S':'
asbag69
(g90
g71
NtRp600
(dp601
g74
(dp602
sg83
g588
sg76
(lp603
g69
(g70
g71
NtRp604
(dp605
g74
(dp606
g82
I3
ssg83
g600
sg76
(lp607
S''
asbasbasbag69
(g85
g71
NtRp608
(dp609
g74
(dp610
sg83
g464
sg76
(lp611
g69
(g90
g71
NtRp612
(dp613
g74
(dp614
g94
g95
ssg83
g608
sg76
(lp615
g430
asbag69
(g90
g71
NtRp616
(dp617
g74
(dp618
g101
g102
ssg83
g608
sg76
(lp619
S':'
asbag69
(g90
g71
NtRp620
(dp621
g74
(dp622
sg83
g608
sg76
(lp623
g69
(g70
g71
NtRp624
(dp625
g74
(dp626
g82
I3
ssg83
g620
sg76
(lp627
S''
asbasbasbasbasbasbasbag69
(g85
g71
NtRp628
(dp629
g74
(dp630
sg83
g246
sg76
(lp631
g69
(g90
g71
NtRp632
(dp633
g74
(dp634
g94
g95
ssg83
g628
sg76
(lp635
S'session_id_911_signin'
p636
asbag69
(g90
g71
NtRp637
(dp638
g74
(dp639
g101
g102
ssg83
g628
sg76
(lp640
S':'
asbag69
(g90
g71
NtRp641
(dp642
g74
(dp643
sg83
g628
sg76
(lp644
g69
(g70
g71
NtRp645
(dp646
g74
(dp647
g82
I4
ssg83
g641
sg76
(lp648
g69
(g78
g71
NtRp649
(dp650
g74
(dp651
g82
I3
ssg83
Nsg76
(lp652
g69
(g85
g71
NtRp653
(dp654
g74
(dp655
sg83
g649
sg76
(lp656
g69
(g90
g71
NtRp657
(dp658
g74
(dp659
g94
g95
ssg83
g653
sg76
(lp660
g283
asbag69
(g90
g71
NtRp661
(dp662
g74
(dp663
g101
g102
ssg83
g653
sg76
(lp664
S':'
asbag69
(g90
g71
NtRp665
(dp666
g74
(dp667
sg83
g653
sg76
(lp668
g69
(g70
g71
NtRp669
(dp670
g74
(dp671
g82
I3
ssg83
g665
sg76
(lp672
S''
asbasbasbag69
(g85
g71
NtRp673
(dp674
g74
(dp675
sg83
g649
sg76
(lp676
g69
(g90
g71
NtRp677
(dp678
g74
(dp679
g94
g95
ssg83
g673
sg76
(lp680
g304
asbag69
(g90
g71
NtRp681
(dp682
g74
(dp683
g101
g102
ssg83
g673
sg76
(lp684
S':'
asbag69
(g90
g71
NtRp685
(dp686
g74
(dp687
sg83
g673
sg76
(lp688
g69
(g70
g71
NtRp689
(dp690
g74
(dp691
g82
I3
ssg83
g685
sg76
(lp692
S''
asbasbasbag69
(g85
g71
NtRp693
(dp694
g74
(dp695
sg83
g649
sg76
(lp696
g69
(g90
g71
NtRp697
(dp698
g74
(dp699
g94
g95
ssg83
g693
sg76
(lp700
g325
asbag69
(g90
g71
NtRp701
(dp702
g74
(dp703
g101
g102
ssg83
g693
sg76
(lp704
S':'
asbag69
(g90
g71
NtRp705
(dp706
g74
(dp707
sg83
g693
sg76
(lp708
g69
(g70
g71
NtRp709
(dp710
g74
(dp711
g82
I3
ssg83
g705
sg76
(lp712
S''
asbasbasbag69
(g85
g71
NtRp713
(dp714
g74
(dp715
sg83
g649
sg76
(lp716
g69
(g90
g71
NtRp717
(dp718
g74
(dp719
g94
g95
ssg83
g713
sg76
(lp720
g346
asbag69
(g90
g71
NtRp721
(dp722
g74
(dp723
g101
g102
ssg83
g713
sg76
(lp724
S':'
asbag69
(g90
g71
NtRp725
(dp726
g74
(dp727
sg83
g713
sg76
(lp728
g69
(g70
g71
NtRp729
(dp730
g74
(dp731
g82
I3
ssg83
g725
sg76
(lp732
S''
asbasbasbag69
(g85
g71
NtRp733
(dp734
g74
(dp735
sg83
g649
sg76
(lp736
g69
(g90
g71
NtRp737
(dp738
g74
(dp739
g94
g95
ssg83
g733
sg76
(lp740
g367
asbag69
(g90
g71
NtRp741
(dp742
g74
(dp743
g101
g102
ssg83
g733
sg76
(lp744
S':'
asbag69
(g90
g71
NtRp745
(dp746
g74
(dp747
sg83
g733
sg76
(lp748
g69
(g70
g71
NtRp749
(dp750
g74
(dp751
g82
I3
ssg83
g745
sg76
(lp752
S''
asbasbasbag69
(g85
g71
NtRp753
(dp754
g74
(dp755
sg83
g649
sg76
(lp756
g69
(g90
g71
NtRp757
(dp758
g74
(dp759
g94
g95
ssg83
g753
sg76
(lp760
g388
asbag69
(g90
g71
NtRp761
(dp762
g74
(dp763
g101
g102
ssg83
g753
sg76
(lp764
S':'
asbag69
(g90
g71
NtRp765
(dp766
g74
(dp767
sg83
g753
sg76
(lp768
g69
(g70
g71
NtRp769
(dp770
g74
(dp771
g82
I3
ssg83
g765
sg76
(lp772
S''
asbasbasbag69
(g85
g71
NtRp773
(dp774
g74
(dp775
sg83
g649
sg76
(lp776
g69
(g90
g71
NtRp777
(dp778
g74
(dp779
g94
g95
ssg83
g773
sg76
(lp780
g409
asbag69
(g90
g71
NtRp781
(dp782
g74
(dp783
g101
g102
ssg83
g773
sg76
(lp784
S':'
asbag69
(g90
g71
NtRp785
(dp786
g74
(dp787
sg83
g773
sg76
(lp788
g69
(g70
g71
NtRp789
(dp790
g74
(dp791
g82
I3
ssg83
g785
sg76
(lp792
S''
asbasbasbag69
(g85
g71
NtRp793
(dp794
g74
(dp795
sg83
g649
sg76
(lp796
g69
(g90
g71
NtRp797
(dp798
g74
(dp799
g94
g95
ssg83
g793
sg76
(lp800
g430
asbag69
(g90
g71
NtRp801
(dp802
g74
(dp803
g101
g102
ssg83
g793
sg76
(lp804
S':'
asbag69
(g90
g71
NtRp805
(dp806
g74
(dp807
sg83
g793
sg76
(lp808
g69
(g70
g71
NtRp809
(dp810
g74
(dp811
g82
I3
ssg83
g805
sg76
(lp812
S''
asbasbasbasbasbasbasbag69
(g85
g71
NtRp813
(dp814
g74
(dp815
sg83
g246
sg76
(lp816
g69
(g90
g71
NtRp817
(dp818
g74
(dp819
g94
g95
ssg83
g813
sg76
(lp820
S'session_id_admin'
p821
asbag69
(g90
g71
NtRp822
(dp823
g74
(dp824
g101
g102
ssg83
g813
sg76
(lp825
S':'
asbag69
(g90
g71
NtRp826
(dp827
g74
(dp828
sg83
g813
sg76
(lp829
g69
(g70
g71
NtRp830
(dp831
g74
(dp832
g82
I4
ssg83
g826
sg76
(lp833
g69
(g78
g71
NtRp834
(dp835
g74
(dp836
g82
I3
ssg83
Nsg76
(lp837
g69
(g85
g71
NtRp838
(dp839
g74
(dp840
sg83
g834
sg76
(lp841
g69
(g90
g71
NtRp842
(dp843
g74
(dp844
g94
g95
ssg83
g838
sg76
(lp845
g283
asbag69
(g90
g71
NtRp846
(dp847
g74
(dp848
g101
g102
ssg83
g838
sg76
(lp849
S':'
asbag69
(g90
g71
NtRp850
(dp851
g74
(dp852
sg83
g838
sg76
(lp853
g69
(g70
g71
NtRp854
(dp855
g74
(dp856
g82
I3
ssg83
g850
sg76
(lp857
S''
asbasbasbag69
(g85
g71
NtRp858
(dp859
g74
(dp860
sg83
g834
sg76
(lp861
g69
(g90
g71
NtRp862
(dp863
g74
(dp864
g94
g95
ssg83
g858
sg76
(lp865
g304
asbag69
(g90
g71
NtRp866
(dp867
g74
(dp868
g101
g102
ssg83
g858
sg76
(lp869
S':'
asbag69
(g90
g71
NtRp870
(dp871
g74
(dp872
sg83
g858
sg76
(lp873
g69
(g70
g71
NtRp874
(dp875
g74
(dp876
g82
I3
ssg83
g870
sg76
(lp877
S''
asbasbasbag69
(g85
g71
NtRp878
(dp879
g74
(dp880
sg83
g834
sg76
(lp881
g69
(g90
g71
NtRp882
(dp883
g74
(dp884
g94
g95
ssg83
g878
sg76
(lp885
g325
asbag69
(g90
g71
NtRp886
(dp887
g74
(dp888
g101
g102
ssg83
g878
sg76
(lp889
S':'
asbag69
(g90
g71
NtRp890
(dp891
g74
(dp892
sg83
g878
sg76
(lp893
g69
(g70
g71
NtRp894
(dp895
g74
(dp896
g82
I3
ssg83
g890
sg76
(lp897
S''
asbasbasbag69
(g85
g71
NtRp898
(dp899
g74
(dp900
sg83
g834
sg76
(lp901
g69
(g90
g71
NtRp902
(dp903
g74
(dp904
g94
g95
ssg83
g898
sg76
(lp905
g346
asbag69
(g90
g71
NtRp906
(dp907
g74
(dp908
g101
g102
ssg83
g898
sg76
(lp909
S':'
asbag69
(g90
g71
NtRp910
(dp911
g74
(dp912
sg83
g898
sg76
(lp913
g69
(g70
g71
NtRp914
(dp915
g74
(dp916
g82
I3
ssg83
g910
sg76
(lp917
S''
asbasbasbag69
(g85
g71
NtRp918
(dp919
g74
(dp920
sg83
g834
sg76
(lp921
g69
(g90
g71
NtRp922
(dp923
g74
(dp924
g94
g95
ssg83
g918
sg76
(lp925
g367
asbag69
(g90
g71
NtRp926
(dp927
g74
(dp928
g101
g102
ssg83
g918
sg76
(lp929
S':'
asbag69
(g90
g71
NtRp930
(dp931
g74
(dp932
sg83
g918
sg76
(lp933
g69
(g70
g71
NtRp934
(dp935
g74
(dp936
g82
I3
ssg83
g930
sg76
(lp937
S''
asbasbasbag69
(g85
g71
NtRp938
(dp939
g74
(dp940
sg83
g834
sg76
(lp941
g69
(g90
g71
NtRp942
(dp943
g74
(dp944
g94
g95
ssg83
g938
sg76
(lp945
g388
asbag69
(g90
g71
NtRp946
(dp947
g74
(dp948
g101
g102
ssg83
g938
sg76
(lp949
S':'
asbag69
(g90
g71
NtRp950
(dp951
g74
(dp952
sg83
g938
sg76
(lp953
g69
(g70
g71
NtRp954
(dp955
g74
(dp956
g82
I3
ssg83
g950
sg76
(lp957
S''
asbasbasbag69
(g85
g71
NtRp958
(dp959
g74
(dp960
sg83
g834
sg76
(lp961
g69
(g90
g71
NtRp962
(dp963
g74
(dp964
g94
g95
ssg83
g958
sg76
(lp965
g409
asbag69
(g90
g71
NtRp966
(dp967
g74
(dp968
g101
g102
ssg83
g958
sg76
(lp969
S':'
asbag69
(g90
g71
NtRp970
(dp971
g74
(dp972
sg83
g958
sg76
(lp973
g69
(g70
g71
NtRp974
(dp975
g74
(dp976
g82
I3
ssg83
g970
sg76
(lp977
S''
asbasbasbag69
(g85
g71
NtRp978
(dp979
g74
(dp980
sg83
g834
sg76
(lp981
g69
(g90
g71
NtRp982
(dp983
g74
(dp984
g94
g95
ssg83
g978
sg76
(lp985
g430
asbag69
(g90
g71
NtRp986
(dp987
g74
(dp988
g101
g102
ssg83
g978
sg76
(lp989
S':'
asbag69
(g90
g71
NtRp990
(dp991
g74
(dp992
sg83
g978
sg76
(lp993
g69
(g70
g71
NtRp994
(dp995
g74
(dp996
g82
I3
ssg83
g990
sg76
(lp997
S''
asbasbasbasbasbasbasbag69
(g85
g71
NtRp998
(dp999
g74
(dp1000
sg83
g246
sg76
(lp1001
g69
(g90
g71
NtRp1002
(dp1003
g74
(dp1004
g94
g95
ssg83
g998
sg76
(lp1005
S'session_id_welcome'
p1006
asbag69
(g90
g71
NtRp1007
(dp1008
g74
(dp1009
g101
g102
ssg83
g998
sg76
(lp1010
S':'
asbag69
(g90
g71
NtRp1011
(dp1012
g74
(dp1013
sg83
g998
sg76
(lp1014
g69
(g70
g71
NtRp1015
(dp1016
g74
(dp1017
g82
I4
ssg83
g1011
sg76
(lp1018
g69
(g78
g71
NtRp1019
(dp1020
g74
(dp1021
g82
I3
ssg83
Nsg76
(lp1022
g69
(g85
g71
NtRp1023
(dp1024
g74
(dp1025
sg83
g1019
sg76
(lp1026
g69
(g90
g71
NtRp1027
(dp1028
g74
(dp1029
g94
g95
ssg83
g1023
sg76
(lp1030
g283
asbag69
(g90
g71
NtRp1031
(dp1032
g74
(dp1033
g101
g102
ssg83
g1023
sg76
(lp1034
S':'
asbag69
(g90
g71
NtRp1035
(dp1036
g74
(dp1037
sg83
g1023
sg76
(lp1038
g69
(g70
g71
NtRp1039
(dp1040
g74
(dp1041
g82
I3
ssg83
g1035
sg76
(lp1042
S''
asbasbasbag69
(g85
g71
NtRp1043
(dp1044
g74
(dp1045
sg83
g1019
sg76
(lp1046
g69
(g90
g71
NtRp1047
(dp1048
g74
(dp1049
g94
g95
ssg83
g1043
sg76
(lp1050
g304
asbag69
(g90
g71
NtRp1051
(dp1052
g74
(dp1053
g101
g102
ssg83
g1043
sg76
(lp1054
S':'
asbag69
(g90
g71
NtRp1055
(dp1056
g74
(dp1057
sg83
g1043
sg76
(lp1058
g69
(g70
g71
NtRp1059
(dp1060
g74
(dp1061
g82
I3
ssg83
g1055
sg76
(lp1062
S''
asbasbasbag69
(g85
g71
NtRp1063
(dp1064
g74
(dp1065
sg83
g1019
sg76
(lp1066
g69
(g90
g71
NtRp1067
(dp1068
g74
(dp1069
g94
g95
ssg83
g1063
sg76
(lp1070
g325
asbag69
(g90
g71
NtRp1071
(dp1072
g74
(dp1073
g101
g102
ssg83
g1063
sg76
(lp1074
S':'
asbag69
(g90
g71
NtRp1075
(dp1076
g74
(dp1077
sg83
g1063
sg76
(lp1078
g69
(g70
g71
NtRp1079
(dp1080
g74
(dp1081
g82
I3
ssg83
g1075
sg76
(lp1082
S''
asbasbasbag69
(g85
g71
NtRp1083
(dp1084
g74
(dp1085
sg83
g1019
sg76
(lp1086
g69
(g90
g71
NtRp1087
(dp1088
g74
(dp1089
g94
g95
ssg83
g1083
sg76
(lp1090
g346
asbag69
(g90
g71
NtRp1091
(dp1092
g74
(dp1093
g101
g102
ssg83
g1083
sg76
(lp1094
S':'
asbag69
(g90
g71
NtRp1095
(dp1096
g74
(dp1097
sg83
g1083
sg76
(lp1098
g69
(g70
g71
NtRp1099
(dp1100
g74
(dp1101
g82
I3
ssg83
g1095
sg76
(lp1102
S''
asbasbasbag69
(g85
g71
NtRp1103
(dp1104
g74
(dp1105
sg83
g1019
sg76
(lp1106
g69
(g90
g71
NtRp1107
(dp1108
g74
(dp1109
g94
g95
ssg83
g1103
sg76
(lp1110
g367
asbag69
(g90
g71
NtRp1111
(dp1112
g74
(dp1113
g101
g102
ssg83
g1103
sg76
(lp1114
S':'
asbag69
(g90
g71
NtRp1115
(dp1116
g74
(dp1117
sg83
g1103
sg76
(lp1118
g69
(g70
g71
NtRp1119
(dp1120
g74
(dp1121
g82
I3
ssg83
g1115
sg76
(lp1122
S''
asbasbasbag69
(g85
g71
NtRp1123
(dp1124
g74
(dp1125
sg83
g1019
sg76
(lp1126
g69
(g90
g71
NtRp1127
(dp1128
g74
(dp1129
g94
g95
ssg83
g1123
sg76
(lp1130
g388
asbag69
(g90
g71
NtRp1131
(dp1132
g74
(dp1133
g101
g102
ssg83
g1123
sg76
(lp1134
S':'
asbag69
(g90
g71
NtRp1135
(dp1136
g74
(dp1137
sg83
g1123
sg76
(lp1138
g69
(g70
g71
NtRp1139
(dp1140
g74
(dp1141
g82
I3
ssg83
g1135
sg76
(lp1142
S''
asbasbasbag69
(g85
g71
NtRp1143
(dp1144
g74
(dp1145
sg83
g1019
sg76
(lp1146
g69
(g90
g71
NtRp1147
(dp1148
g74
(dp1149
g94
g95
ssg83
g1143
sg76
(lp1150
g409
asbag69
(g90
g71
NtRp1151
(dp1152
g74
(dp1153
g101
g102
ssg83
g1143
sg76
(lp1154
S':'
asbag69
(g90
g71
NtRp1155
(dp1156
g74
(dp1157
sg83
g1143
sg76
(lp1158
g69
(g70
g71
NtRp1159
(dp1160
g74
(dp1161
g82
I3
ssg83
g1155
sg76
(lp1162
S''
asbasbasbag69
(g85
g71
NtRp1163
(dp1164
g74
(dp1165
sg83
g1019
sg76
(lp1166
g69
(g90
g71
NtRp1167
(dp1168
g74
(dp1169
g94
g95
ssg83
g1163
sg76
(lp1170
g430
asbag69
(g90
g71
NtRp1171
(dp1172
g74
(dp1173
g101
g102
ssg83
g1163
sg76
(lp1174
S':'
asbag69
(g90
g71
NtRp1175
(dp1176
g74
(dp1177
sg83
g1163
sg76
(lp1178
g69
(g70
g71
NtRp1179
(dp1180
g74
(dp1181
g82
I3
ssg83
g1175
sg76
(lp1182
S''
asbasbasbasbasbasbasbasbasbasbasbag69
(g85
g71
NtRp1183
(dp1184
g74
(dp1185
sg83
g79
sg76
(lp1186
g69
(g90
g71
NtRp1187
(dp1188
g74
(dp1189
g94
g95
ssg83
g1183
sg76
(lp1190
S'env'
p1191
asbag69
(g90
g71
NtRp1192
(dp1193
g74
(dp1194
g101
g102
ssg83
g1183
sg76
(lp1195
S':'
asbag69
(g90
g71
NtRp1196
(dp1197
g74
(dp1198
sg83
g1183
sg76
(lp1199
g69
(g70
g71
NtRp1200
(dp1201
g74
(dp1202
g82
I5
ssg83
g1196
sg76
(lp1203
g69
(g78
g71
NtRp1204
(dp1205
g74
(dp1206
g82
I4
ssg83
Nsg76
(lp1207
g69
(g85
g71
NtRp1208
(dp1209
g74
(dp1210
sg83
g1204
sg76
(lp1211
g69
(g90
g71
NtRp1212
(dp1213
g74
(dp1214
g94
g95
ssg83
g1208
sg76
(lp1215
S'app_folders'
p1216
asbag69
(g90
g71
NtRp1217
(dp1218
g74
(dp1219
g101
g102
ssg83
g1208
sg76
(lp1220
S':'
asbag69
(g90
g71
NtRp1221
(dp1222
g74
(dp1223
sg83
g1208
sg76
(lp1224
g69
(g70
g71
NtRp1225
(dp1226
g74
(dp1227
g82
I4
ssg83
g1221
sg76
(lp1228
S"set(['/home/enigma/web2py/applications/admin/', '/home/enigma/web2py/applications/911_signin/', '/home/enigma/web2py/applications/examples/', '/home/enigma/web2py/applications/welcome/'])"
p1229
asbasbasbag69
(g85
g71
NtRp1230
(dp1231
g74
(dp1232
sg83
g1204
sg76
(lp1233
g69
(g90
g71
NtRp1234
(dp1235
g74
(dp1236
g94
g95
ssg83
g1230
sg76
(lp1237
S'applications_parent'
p1238
asbag69
(g90
g71
NtRp1239
(dp1240
g74
(dp1241
g101
g102
ssg83
g1230
sg76
(lp1242
S':'
asbag69
(g90
g71
NtRp1243
(dp1244
g74
(dp1245
sg83
g1230
sg76
(lp1246
g69
(g70
g71
NtRp1247
(dp1248
g74
(dp1249
g82
I4
ssg83
g1243
sg76
(lp1250
S'/home/enigma/web2py'
p1251
asbasbasbag69
(g85
g71
NtRp1252
(dp1253
g74
(dp1254
sg83
g1204
sg76
(lp1255
g69
(g90
g71
NtRp1256
(dp1257
g74
(dp1258
g94
g95
ssg83
g1252
sg76
(lp1259
S'cmd_args'
p1260
asbag69
(g90
g71
NtRp1261
(dp1262
g74
(dp1263
g101
g102
ssg83
g1252
sg76
(lp1264
S':'
asbag69
(g90
g71
NtRp1265
(dp1266
g74
(dp1267
sg83
g1252
sg76
(lp1268
g69
(g70
g71
NtRp1269
(dp1270
g74
(dp1271
g82
I4
ssg83
g1265
sg76
(lp1272
g69
(g78
g71
NtRp1273
(dp1274
g74
(dp1275
g82
I3
ssg83
Nsg76
(lp1276
sbasbasbasbag69
(g85
g71
NtRp1277
(dp1278
g74
(dp1279
sg83
g1204
sg76
(lp1280
g69
(g90
g71
NtRp1281
(dp1282
g74
(dp1283
g94
g95
ssg83
g1277
sg76
(lp1284
S'cmd_options'
p1285
asbag69
(g90
g71
NtRp1286
(dp1287
g74
(dp1288
g101
g102
ssg83
g1277
sg76
(lp1289
S':'
asbag69
(g90
g71
NtRp1290
(dp1291
g74
(dp1292
sg83
g1277
sg76
(lp1293
g69
(g70
g71
NtRp1294
(dp1295
g74
(dp1296
g82
I4
ssg83
g1290
sg76
(lp1297
S"<Values at 0x8bcabcc: {'verbose': False, 'ip': '127.0.0.1', 'shutdown_timeout': 5, 'taskbar': False, 'nocron': False, 'pid_filename': 'httpserver.pid', 'maxthreads': None, 'softcron': False, 'server_name': 'ubuntu', 'bpython': False, 'nogui': False, 'port': 8000, 'extcron': False, 'debuglevel': 30, 'test': None, 'folder': '/home/enigma/web2py', 'config': '', 'import_models': False, 'winservice': '', 'shell': None, 'run': '', 'log_filename': 'httpserver.log', 'args': [''], 'socket_timeout': 5, 'ssl_ca_certificate': None, 'scheduler': None, 'profiler_filename': None, 'ssl_private_key': '', 'password': '<ask>', 'request_queue_size': 5, 'ssl_certificate': '', 'cronjob': False, 'numthreads': None, 'quiet': False, 'interfaces': None, 'minthreads': None, 'timeout': 10, 'plain': False, 'nobanner': False}>"
p1298
asbasbasbag69
(g85
g71
NtRp1299
(dp1300
g74
(dp1301
sg83
g1204
sg76
(lp1302
g69
(g90
g71
NtRp1303
(dp1304
g74
(dp1305
g94
g95
ssg83
g1299
sg76
(lp1306
S'db_sessions'
p1307
asbag69
(g90
g71
NtRp1308
(dp1309
g74
(dp1310
g101
g102
ssg83
g1299
sg76
(lp1311
S':'
asbag69
(g90
g71
NtRp1312
(dp1313
g74
(dp1314
sg83
g1299
sg76
(lp1315
g69
(g70
g71
NtRp1316
(dp1317
g74
(dp1318
g82
I4
ssg83
g1312
sg76
(lp1319
S'set([])'
p1320
asbasbasbag69
(g85
g71
NtRp1321
(dp1322
g74
(dp1323
sg83
g1204
sg76
(lp1324
g69
(g90
g71
NtRp1325
(dp1326
g74
(dp1327
g94
g95
ssg83
g1321
sg76
(lp1328
S'debugging'
p1329
asbag69
(g90
g71
NtRp1330
(dp1331
g74
(dp1332
g101
g102
ssg83
g1321
sg76
(lp1333
S':'
asbag69
(g90
g71
NtRp1334
(dp1335
g74
(dp1336
sg83
g1321
sg76
(lp1337
g69
(g70
g71
NtRp1338
(dp1339
g74
(dp1340
g82
I4
ssg83
g1334
sg76
(lp1341
g112
asbasbasbag69
(g85
g71
NtRp1342
(dp1343
g74
(dp1344
sg83
g1204
sg76
(lp1345
g69
(g90
g71
NtRp1346
(dp1347
g74
(dp1348
g94
g95
ssg83
g1342
sg76
(lp1349
S'gluon_parent'
p1350
asbag69
(g90
g71
NtRp1351
(dp1352
g74
(dp1353
g101
g102
ssg83
g1342
sg76
(lp1354
S':'
asbag69
(g90
g71
NtRp1355
(dp1356
g74
(dp1357
sg83
g1342
sg76
(lp1358
g69
(g70
g71
NtRp1359
(dp1360
g74
(dp1361
g82
I4
ssg83
g1355
sg76
(lp1362
S'/home/enigma/web2py'
p1363
asbasbasbag69
(g85
g71
NtRp1364
(dp1365
g74
(dp1366
sg83
g1204
sg76
(lp1367
g69
(g90
g71
NtRp1368
(dp1369
g74
(dp1370
g94
g95
ssg83
g1364
sg76
(lp1371
S'http_accept'
p1372
asbag69
(g90
g71
NtRp1373
(dp1374
g74
(dp1375
g101
g102
ssg83
g1364
sg76
(lp1376
S':'
asbag69
(g90
g71
NtRp1377
(dp1378
g74
(dp1379
sg83
g1364
sg76
(lp1380
g69
(g70
g71
NtRp1381
(dp1382
g74
(dp1383
g82
I4
ssg83
g1377
sg76
(lp1384
S'text/html,application/xhtml+xml,application/xml;q=0.9,*/*;q=0.8'
p1385
asbasbasbag69
(g85
g71
NtRp1386
(dp1387
g74
(dp1388
sg83
g1204
sg76
(lp1389
g69
(g90
g71
NtRp1390
(dp1391
g74
(dp1392
g94
g95
ssg83
g1386
sg76
(lp1393
S'http_accept_charset'
p1394
asbag69
(g90
g71
NtRp1395
(dp1396
g74
(dp1397
g101
g102
ssg83
g1386
sg76
(lp1398
S':'
asbag69
(g90
g71
NtRp1399
(dp1400
g74
(dp1401
sg83
g1386
sg76
(lp1402
g69
(g70
g71
NtRp1403
(dp1404
g74
(dp1405
g82
I4
ssg83
g1399
sg76
(lp1406
S'ISO-8859-1,utf-8;q=0.7,*;q=0.3'
p1407
asbasbasbag69
(g85
g71
NtRp1408
(dp1409
g74
(dp1410
sg83
g1204
sg76
(lp1411
g69
(g90
g71
NtRp1412
(dp1413
g74
(dp1414
g94
g95
ssg83
g1408
sg76
(lp1415
S'http_accept_encoding'
p1416
asbag69
(g90
g71
NtRp1417
(dp1418
g74
(dp1419
g101
g102
ssg83
g1408
sg76
(lp1420
S':'
asbag69
(g90
g71
NtRp1421
(dp1422
g74
(dp1423
sg83
g1408
sg76
(lp1424
g69
(g70
g71
NtRp1425
(dp1426
g74
(dp1427
g82
I4
ssg83
g1421
sg76
(lp1428
S'gzip,deflate,sdch'
p1429
asbasbasbag69
(g85
g71
NtRp1430
(dp1431
g74
(dp1432
sg83
g1204
sg76
(lp1433
g69
(g90
g71
NtRp1434
(dp1435
g74
(dp1436
g94
g95
ssg83
g1430
sg76
(lp1437
S'http_accept_language'
p1438
asbag69
(g90
g71
NtRp1439
(dp1440
g74
(dp1441
g101
g102
ssg83
g1430
sg76
(lp1442
S':'
asbag69
(g90
g71
NtRp1443
(dp1444
g74
(dp1445
sg83
g1430
sg76
(lp1446
g69
(g70
g71
NtRp1447
(dp1448
g74
(dp1449
g82
I4
ssg83
g1443
sg76
(lp1450
S'en-US,en;q=0.8'
p1451
asbasbasbag69
(g85
g71
NtRp1452
(dp1453
g74
(dp1454
sg83
g1204
sg76
(lp1455
g69
(g90
g71
NtRp1456
(dp1457
g74
(dp1458
g94
g95
ssg83
g1452
sg76
(lp1459
S'http_cache_control'
p1460
asbag69
(g90
g71
NtRp1461
(dp1462
g74
(dp1463
g101
g102
ssg83
g1452
sg76
(lp1464
S':'
asbag69
(g90
g71
NtRp1465
(dp1466
g74
(dp1467
sg83
g1452
sg76
(lp1468
g69
(g70
g71
NtRp1469
(dp1470
g74
(dp1471
g82
I4
ssg83
g1465
sg76
(lp1472
S'max-age=0'
p1473
asbasbasbag69
(g85
g71
NtRp1474
(dp1475
g74
(dp1476
sg83
g1204
sg76
(lp1477
g69
(g90
g71
NtRp1478
(dp1479
g74
(dp1480
g94
g95
ssg83
g1474
sg76
(lp1481
S'http_connection'
p1482
asbag69
(g90
g71
NtRp1483
(dp1484
g74
(dp1485
g101
g102
ssg83
g1474
sg76
(lp1486
S':'
asbag69
(g90
g71
NtRp1487
(dp1488
g74
(dp1489
sg83
g1474
sg76
(lp1490
g69
(g70
g71
NtRp1491
(dp1492
g74
(dp1493
g82
I4
ssg83
g1487
sg76
(lp1494
S'keep-alive'
p1495
asbasbasbag69
(g85
g71
NtRp1496
(dp1497
g74
(dp1498
sg83
g1204
sg76
(lp1499
g69
(g90
g71
NtRp1500
(dp1501
g74
(dp1502
g94
g95
ssg83
g1496
sg76
(lp1503
S'http_cookie'
p1504
asbag69
(g90
g71
NtRp1505
(dp1506
g74
(dp1507
g101
g102
ssg83
g1496
sg76
(lp1508
S':'
asbag69
(g90
g71
NtRp1509
(dp1510
g74
(dp1511
sg83
g1496
sg76
(lp1512
g69
(g70
g71
NtRp1513
(dp1514
g74
(dp1515
g82
I4
ssg83
g1509
sg76
(lp1516
S'SESS382051e6e1ed8806a7f7ff8f96fa26b4=93mk8qeav55m4l0t2nngdkbok7; SESS5a480d13812eae04fe2f3fbb68939d2a=5uh6x0hvx3esdoK_KarPLopdOvR0spRO7lAxc3AvU30; session_id_911_signin=127.0.0.1-67b0e5b6-1b0a-44b4-ab3b-12cdb27e2039; session_id_welcome=127.0.0.1-5dc091cb-f876-4468-949b-5474e92b885f; session_id_admin=127.0.0.1-fca475e0-7ba0-477f-9a3d-d1daa725dcb2'
p1517
asbasbasbag69
(g85
g71
NtRp1518
(dp1519
g74
(dp1520
sg83
g1204
sg76
(lp1521
g69
(g90
g71
NtRp1522
(dp1523
g74
(dp1524
g94
g95
ssg83
g1518
sg76
(lp1525
S'http_host'
p1526
asbag69
(g90
g71
NtRp1527
(dp1528
g74
(dp1529
g101
g102
ssg83
g1518
sg76
(lp1530
S':'
asbag69
(g90
g71
NtRp1531
(dp1532
g74
(dp1533
sg83
g1518
sg76
(lp1534
g69
(g70
g71
NtRp1535
(dp1536
g74
(dp1537
g82
I4
ssg83
g1531
sg76
(lp1538
S'localhost:8000'
p1539
asbasbasbag69
(g85
g71
NtRp1540
(dp1541
g74
(dp1542
sg83
g1204
sg76
(lp1543
g69
(g90
g71
NtRp1544
(dp1545
g74
(dp1546
g94
g95
ssg83
g1540
sg76
(lp1547
S'http_referer'
p1548
asbag69
(g90
g71
NtRp1549
(dp1550
g74
(dp1551
g101
g102
ssg83
g1540
sg76
(lp1552
S':'
asbag69
(g90
g71
NtRp1553
(dp1554
g74
(dp1555
sg83
g1540
sg76
(lp1556
g69
(g70
g71
NtRp1557
(dp1558
g74
(dp1559
g82
I4
ssg83
g1553
sg76
(lp1560
S'http://localhost:8000/admin/default/site'
p1561
asbasbasbag69
(g85
g71
NtRp1562
(dp1563
g74
(dp1564
sg83
g1204
sg76
(lp1565
g69
(g90
g71
NtRp1566
(dp1567
g74
(dp1568
g94
g95
ssg83
g1562
sg76
(lp1569
S'http_user_agent'
p1570
asbag69
(g90
g71
NtRp1571
(dp1572
g74
(dp1573
g101
g102
ssg83
g1562
sg76
(lp1574
S':'
asbag69
(g90
g71
NtRp1575
(dp1576
g74
(dp1577
sg83
g1562
sg76
(lp1578
g69
(g70
g71
NtRp1579
(dp1580
g74
(dp1581
g82
I4
ssg83
g1575
sg76
(lp1582
S'Mozilla/5.0 (X11; Linux i686) AppleWebKit/537.22 (KHTML, like Gecko) Ubuntu Chromium/25.0.1364.160 Chrome/25.0.1364.160 Safari/537.22'
p1583
asbasbasbag69
(g85
g71
NtRp1584
(dp1585
g74
(dp1586
sg83
g1204
sg76
(lp1587
g69
(g90
g71
NtRp1588
(dp1589
g74
(dp1590
g94
g95
ssg83
g1584
sg76
(lp1591
S'is_jython'
p1592
asbag69
(g90
g71
NtRp1593
(dp1594
g74
(dp1595
g101
g102
ssg83
g1584
sg76
(lp1596
S':'
asbag69
(g90
g71
NtRp1597
(dp1598
g74
(dp1599
sg83
g1584
sg76
(lp1600
g69
(g70
g71
NtRp1601
(dp1602
g74
(dp1603
g82
I4
ssg83
g1597
sg76
(lp1604
g112
asbasbasbag69
(g85
g71
NtRp1605
(dp1606
g74
(dp1607
sg83
g1204
sg76
(lp1608
g69
(g90
g71
NtRp1609
(dp1610
g74
(dp1611
g94
g95
ssg83
g1605
sg76
(lp1612
S'is_pypy'
p1613
asbag69
(g90
g71
NtRp1614
(dp1615
g74
(dp1616
g101
g102
ssg83
g1605
sg76
(lp1617
S':'
asbag69
(g90
g71
NtRp1618
(dp1619
g74
(dp1620
sg83
g1605
sg76
(lp1621
g69
(g70
g71
NtRp1622
(dp1623
g74
(dp1624
g82
I4
ssg83
g1618
sg76
(lp1625
g112
asbasbasbag69
(g85
g71
NtRp1626
(dp1627
g74
(dp1628
sg83
g1204
sg76
(lp1629
g69
(g90
g71
NtRp1630
(dp1631
g74
(dp1632
g94
g95
ssg83
g1626
sg76
(lp1633
S'path_info'
p1634
asbag69
(g90
g71
NtRp1635
(dp1636
g74
(dp1637
g101
g102
ssg83
g1626
sg76
(lp1638
S':'
asbag69
(g90
g71
NtRp1639
(dp1640
g74
(dp1641
sg83
g1626
sg76
(lp1642
g69
(g70
g71
NtRp1643
(dp1644
g74
(dp1645
g82
I4
ssg83
g1639
sg76
(lp1646
S'/911_signin/default/index'
p1647
asbasbasbag69
(g85
g71
NtRp1648
(dp1649
g74
(dp1650
sg83
g1204
sg76
(lp1651
g69
(g90
g71
NtRp1652
(dp1653
g74
(dp1654
g94
g95
ssg83
g1648
sg76
(lp1655
S'query_string'
p1656
asbag69
(g90
g71
NtRp1657
(dp1658
g74
(dp1659
g101
g102
ssg83
g1648
sg76
(lp1660
S':'
asbag69
(g90
g71
NtRp1661
(dp1662
g74
(dp1663
sg83
g1648
sg76
(lp1664
g69
(g70
g71
NtRp1665
(dp1666
g74
(dp1667
g82
I4
ssg83
g1661
sg76
(lp1668
S''
asbasbasbag69
(g85
g71
NtRp1669
(dp1670
g74
(dp1671
sg83
g1204
sg76
(lp1672
g69
(g90
g71
NtRp1673
(dp1674
g74
(dp1675
g94
g95
ssg83
g1669
sg76
(lp1676
S'remote_addr'
p1677
asbag69
(g90
g71
NtRp1678
(dp1679
g74
(dp1680
g101
g102
ssg83
g1669
sg76
(lp1681
S':'
asbag69
(g90
g71
NtRp1682
(dp1683
g74
(dp1684
sg83
g1669
sg76
(lp1685
g69
(g70
g71
NtRp1686
(dp1687
g74
(dp1688
g82
I4
ssg83
g1682
sg76
(lp1689
g202
asbasbasbag69
(g85
g71
NtRp1690
(dp1691
g74
(dp1692
sg83
g1204
sg76
(lp1693
g69
(g90
g71
NtRp1694
(dp1695
g74
(dp1696
g94
g95
ssg83
g1690
sg76
(lp1697
S'remote_port'
p1698
asbag69
(g90
g71
NtRp1699
(dp1700
g74
(dp1701
g101
g102
ssg83
g1690
sg76
(lp1702
S':'
asbag69
(g90
g71
NtRp1703
(dp1704
g74
(dp1705
sg83
g1690
sg76
(lp1706
g69
(g70
g71
NtRp1707
(dp1708
g74
(dp1709
g82
I4
ssg83
g1703
sg76
(lp1710
S'48853'
p1711
asbasbasbag69
(g85
g71
NtRp1712
(dp1713
g74
(dp1714
sg83
g1204
sg76
(lp1715
g69
(g90
g71
NtRp1716
(dp1717
g74
(dp1718
g94
g95
ssg83
g1712
sg76
(lp1719
S'request_method'
p1720
asbag69
(g90
g71
NtRp1721
(dp1722
g74
(dp1723
g101
g102
ssg83
g1712
sg76
(lp1724
S':'
asbag69
(g90
g71
NtRp1725
(dp1726
g74
(dp1727
sg83
g1712
sg76
(lp1728
g69
(g70
g71
NtRp1729
(dp1730
g74
(dp1731
g82
I4
ssg83
g1725
sg76
(lp1732
S'GET'
p1733
asbasbasbag69
(g85
g71
NtRp1734
(dp1735
g74
(dp1736
sg83
g1204
sg76
(lp1737
g69
(g90
g71
NtRp1738
(dp1739
g74
(dp1740
g94
g95
ssg83
g1734
sg76
(lp1741
S'script_name'
p1742
asbag69
(g90
g71
NtRp1743
(dp1744
g74
(dp1745
g101
g102
ssg83
g1734
sg76
(lp1746
S':'
asbag69
(g90
g71
NtRp1747
(dp1748
g74
(dp1749
sg83
g1734
sg76
(lp1750
g69
(g70
g71
NtRp1751
(dp1752
g74
(dp1753
g82
I4
ssg83
g1747
sg76
(lp1754
S''
asbasbasbag69
(g85
g71
NtRp1755
(dp1756
g74
(dp1757
sg83
g1204
sg76
(lp1758
g69
(g90
g71
NtRp1759
(dp1760
g74
(dp1761
g94
g95
ssg83
g1755
sg76
(lp1762
S'server_name'
p1763
asbag69
(g90
g71
NtRp1764
(dp1765
g74
(dp1766
g101
g102
ssg83
g1755
sg76
(lp1767
S':'
asbag69
(g90
g71
NtRp1768
(dp1769
g74
(dp1770
sg83
g1755
sg76
(lp1771
g69
(g70
g71
NtRp1772
(dp1773
g74
(dp1774
g82
I4
ssg83
g1768
sg76
(lp1775
S'ubuntu'
p1776
asbasbasbag69
(g85
g71
NtRp1777
(dp1778
g74
(dp1779
sg83
g1204
sg76
(lp1780
g69
(g90
g71
NtRp1781
(dp1782
g74
(dp1783
g94
g95
ssg83
g1777
sg76
(lp1784
S'server_port'
p1785
asbag69
(g90
g71
NtRp1786
(dp1787
g74
(dp1788
g101
g102
ssg83
g1777
sg76
(lp1789
S':'
asbag69
(g90
g71
NtRp1790
(dp1791
g74
(dp1792
sg83
g1777
sg76
(lp1793
g69
(g70
g71
NtRp1794
(dp1795
g74
(dp1796
g82
I4
ssg83
g1790
sg76
(lp1797
S'8000'
p1798
asbasbasbag69
(g85
g71
NtRp1799
(dp1800
g74
(dp1801
sg83
g1204
sg76
(lp1802
g69
(g90
g71
NtRp1803
(dp1804
g74
(dp1805
g94
g95
ssg83
g1799
sg76
(lp1806
S'server_protocol'
p1807
asbag69
(g90
g71
NtRp1808
(dp1809
g74
(dp1810
g101
g102
ssg83
g1799
sg76
(lp1811
S':'
asbag69
(g90
g71
NtRp1812
(dp1813
g74
(dp1814
sg83
g1799
sg76
(lp1815
g69
(g70
g71
NtRp1816
(dp1817
g74
(dp1818
g82
I4
ssg83
g1812
sg76
(lp1819
S'HTTP/1.1'
p1820
asbasbasbag69
(g85
g71
NtRp1821
(dp1822
g74
(dp1823
sg83
g1204
sg76
(lp1824
g69
(g90
g71
NtRp1825
(dp1826
g74
(dp1827
g94
g95
ssg83
g1821
sg76
(lp1828
S'server_software'
p1829
asbag69
(g90
g71
NtRp1830
(dp1831
g74
(dp1832
g101
g102
ssg83
g1821
sg76
(lp1833
S':'
asbag69
(g90
g71
NtRp1834
(dp1835
g74
(dp1836
sg83
g1821
sg76
(lp1837
g69
(g70
g71
NtRp1838
(dp1839
g74
(dp1840
g82
I4
ssg83
g1834
sg76
(lp1841
S'Rocket 1.2.4'
p1842
asbasbasbag69
(g85
g71
NtRp1843
(dp1844
g74
(dp1845
sg83
g1204
sg76
(lp1846
g69
(g90
g71
NtRp1847
(dp1848
g74
(dp1849
g94
g95
ssg83
g1843
sg76
(lp1850
S'web2py_crontype'
p1851
asbag69
(g90
g71
NtRp1852
(dp1853
g74
(dp1854
g101
g102
ssg83
g1843
sg76
(lp1855
S':'
asbag69
(g90
g71
NtRp1856
(dp1857
g74
(dp1858
sg83
g1843
sg76
(lp1859
g69
(g70
g71
NtRp1860
(dp1861
g74
(dp1862
g82
I4
ssg83
g1856
sg76
(lp1863
S'hard'
p1864
asbasbasbag69
(g85
g71
NtRp1865
(dp1866
g74
(dp1867
sg83
g1204
sg76
(lp1868
g69
(g90
g71
NtRp1869
(dp1870
g74
(dp1871
g94
g95
ssg83
g1865
sg76
(lp1872
S'web2py_path'
p1873
asbag69
(g90
g71
NtRp1874
(dp1875
g74
(dp1876
g101
g102
ssg83
g1865
sg76
(lp1877
S':'
asbag69
(g90
g71
NtRp1878
(dp1879
g74
(dp1880
sg83
g1865
sg76
(lp1881
g69
(g70
g71
NtRp1882
(dp1883
g74
(dp1884
g82
I4
ssg83
g1878
sg76
(lp1885
g1251
asbasbasbag69
(g85
g71
NtRp1886
(dp1887
g74
(dp1888
sg83
g1204
sg76
(lp1889
g69
(g90
g71
NtRp1890
(dp1891
g74
(dp1892
g94
g95
ssg83
g1886
sg76
(lp1893
S'web2py_version'
p1894
asbag69
(g90
g71
NtRp1895
(dp1896
g74
(dp1897
g101
g102
ssg83
g1886
sg76
(lp1898
S':'
asbag69
(g90
g71
NtRp1899
(dp1900
g74
(dp1901
sg83
g1886
sg76
(lp1902
g69
(g70
g71
NtRp1903
(dp1904
g74
(dp1905
g82
I4
ssg83
g1899
sg76
(lp1906
g69
(g78
g71
NtRp1907
(dp1908
g74
(dp1909
g82
I3
ssg83
Nsg76
(lp1910
g69
(g85
g71
NtRp1911
(dp1912
g74
(dp1913
sg83
g1907
sg76
(lp1914
g69
(g90
g71
NtRp1915
(dp1916
g74
(dp1917
sg83
g1911
sg76
(lp1918
g69
(g70
g71
NtRp1919
(dp1920
g74
(dp1921
g82
I3
ssg83
g1915
sg76
(lp1922
S'1'
asbasbasbag69
(g85
g71
NtRp1923
(dp1924
g74
(dp1925
sg83
g1907
sg76
(lp1926
g69
(g90
g71
NtRp1927
(dp1928
g74
(dp1929
sg83
g1923
sg76
(lp1930
g69
(g70
g71
NtRp1931
(dp1932
g74
(dp1933
g82
I3
ssg83
g1927
sg76
(lp1934
S'99'
p1935
asbasbasbag69
(g85
g71
NtRp1936
(dp1937
g74
(dp1938
sg83
g1907
sg76
(lp1939
g69
(g90
g71
NtRp1940
(dp1941
g74
(dp1942
sg83
g1936
sg76
(lp1943
g69
(g70
g71
NtRp1944
(dp1945
g74
(dp1946
g82
I3
ssg83
g1940
sg76
(lp1947
S'7'
asbasbasbag69
(g85
g71
NtRp1948
(dp1949
g74
(dp1950
sg83
g1907
sg76
(lp1951
g69
(g90
g71
NtRp1952
(dp1953
g74
(dp1954
sg83
g1948
sg76
(lp1955
g69
(g70
g71
NtRp1956
(dp1957
g74
(dp1958
g82
I3
ssg83
g1952
sg76
(lp1959
S'datetime.datetime(2012, 3, 4, 22, 12, 8)'
p1960
asbasbasbag69
(g85
g71
NtRp1961
(dp1962
g74
(dp1963
sg83
g1907
sg76
(lp1964
g69
(g90
g71
NtRp1965
(dp1966
g74
(dp1967
sg83
g1961
sg76
(lp1968
g69
(g70
g71
NtRp1969
(dp1970
g74
(dp1971
g82
I3
ssg83
g1965
sg76
(lp1972
S'stable'
p1973
asbasbasbasbasbasbasbag69
(g85
g71
NtRp1974
(dp1975
g74
(dp1976
sg83
g1204
sg76
(lp1977
g69
(g90
g71
NtRp1978
(dp1979
g74
(dp1980
g94
g95
ssg83
g1974
sg76
(lp1981
S'wsgi_errors'
p1982
asbag69
(g90
g71
NtRp1983
(dp1984
g74
(dp1985
g101
g102
ssg83
g1974
sg76
(lp1986
S':'
asbag69
(g90
g71
NtRp1987
(dp1988
g74
(dp1989
sg83
g1974
sg76
(lp1990
g69
(g70
g71
NtRp1991
(dp1992
g74
(dp1993
g82
I4
ssg83
g1987
sg76
(lp1994
S"<open file '<stderr>', mode 'w' at 0xb73630d0>"
p1995
asbasbasbag69
(g85
g71
NtRp1996
(dp1997
g74
(dp1998
sg83
g1204
sg76
(lp1999
g69
(g90
g71
NtRp2000
(dp2001
g74
(dp2002
g94
g95
ssg83
g1996
sg76
(lp2003
S'wsgi_file_wrapper'
p2004
asbag69
(g90
g71
NtRp2005
(dp2006
g74
(dp2007
g101
g102
ssg83
g1996
sg76
(lp2008
S':'
asbag69
(g90
g71
NtRp2009
(dp2010
g74
(dp2011
sg83
g1996
sg76
(lp2012
g69
(g70
g71
NtRp2013
(dp2014
g74
(dp2015
g82
I4
ssg83
g2009
sg76
(lp2016
S'<class wsgiref.util.FileWrapper at 0x8b0ce9c>'
p2017
asbasbasbag69
(g85
g71
NtRp2018
(dp2019
g74
(dp2020
sg83
g1204
sg76
(lp2021
g69
(g90
g71
NtRp2022
(dp2023
g74
(dp2024
g94
g95
ssg83
g2018
sg76
(lp2025
S'wsgi_input'
p2026
asbag69
(g90
g71
NtRp2027
(dp2028
g74
(dp2029
g101
g102
ssg83
g2018
sg76
(lp2030
S':'
asbag69
(g90
g71
NtRp2031
(dp2032
g74
(dp2033
sg83
g2018
sg76
(lp2034
g69
(g70
g71
NtRp2035
(dp2036
g74
(dp2037
g82
I4
ssg83
g2031
sg76
(lp2038
S'<socket._fileobject object at 0xacb1b0ec>'
p2039
asbasbasbag69
(g85
g71
NtRp2040
(dp2041
g74
(dp2042
sg83
g1204
sg76
(lp2043
g69
(g90
g71
NtRp2044
(dp2045
g74
(dp2046
g94
g95
ssg83
g2040
sg76
(lp2047
S'wsgi_multiprocess'
p2048
asbag69
(g90
g71
NtRp2049
(dp2050
g74
(dp2051
g101
g102
ssg83
g2040
sg76
(lp2052
S':'
asbag69
(g90
g71
NtRp2053
(dp2054
g74
(dp2055
sg83
g2040
sg76
(lp2056
g69
(g70
g71
NtRp2057
(dp2058
g74
(dp2059
g82
I4
ssg83
g2053
sg76
(lp2060
g112
asbasbasbag69
(g85
g71
NtRp2061
(dp2062
g74
(dp2063
sg83
g1204
sg76
(lp2064
g69
(g90
g71
NtRp2065
(dp2066
g74
(dp2067
g94
g95
ssg83
g2061
sg76
(lp2068
S'wsgi_multithread'
p2069
asbag69
(g90
g71
NtRp2070
(dp2071
g74
(dp2072
g101
g102
ssg83
g2061
sg76
(lp2073
S':'
asbag69
(g90
g71
NtRp2074
(dp2075
g74
(dp2076
sg83
g2061
sg76
(lp2077
g69
(g70
g71
NtRp2078
(dp2079
g74
(dp2080
g82
I4
ssg83
g2074
sg76
(lp2081
S'True'
p2082
asbasbasbag69
(g85
g71
NtRp2083
(dp2084
g74
(dp2085
sg83
g1204
sg76
(lp2086
g69
(g90
g71
NtRp2087
(dp2088
g74
(dp2089
g94
g95
ssg83
g2083
sg76
(lp2090
S'wsgi_run_once'
p2091
asbag69
(g90
g71
NtRp2092
(dp2093
g74
(dp2094
g101
g102
ssg83
g2083
sg76
(lp2095
S':'
asbag69
(g90
g71
NtRp2096
(dp2097
g74
(dp2098
sg83
g2083
sg76
(lp2099
g69
(g70
g71
NtRp2100
(dp2101
g74
(dp2102
g82
I4
ssg83
g2096
sg76
(lp2103
g112
asbasbasbag69
(g85
g71
NtRp2104
(dp2105
g74
(dp2106
sg83
g1204
sg76
(lp2107
g69
(g90
g71
NtRp2108
(dp2109
g74
(dp2110
g94
g95
ssg83
g2104
sg76
(lp2111
S'wsgi_url_scheme'
p2112
asbag69
(g90
g71
NtRp2113
(dp2114
g74
(dp2115
g101
g102
ssg83
g2104
sg76
(lp2116
S':'
asbag69
(g90
g71
NtRp2117
(dp2118
g74
(dp2119
sg83
g2104
sg76
(lp2120
g69
(g70
g71
NtRp2121
(dp2122
g74
(dp2123
g82
I4
ssg83
g2117
sg76
(lp2124
S'http'
p2125
asbasbasbag69
(g85
g71
NtRp2126
(dp2127
g74
(dp2128
sg83
g1204
sg76
(lp2129
g69
(g90
g71
NtRp2130
(dp2131
g74
(dp2132
g94
g95
ssg83
g2126
sg76
(lp2133
S'wsgi_version'
p2134
asbag69
(g90
g71
NtRp2135
(dp2136
g74
(dp2137
g101
g102
ssg83
g2126
sg76
(lp2138
S':'
asbag69
(g90
g71
NtRp2139
(dp2140
g74
(dp2141
sg83
g2126
sg76
(lp2142
g69
(g70
g71
NtRp2143
(dp2144
g74
(dp2145
g82
I4
ssg83
g2139
sg76
(lp2146
g69
(g78
g71
NtRp2147
(dp2148
g74
(dp2149
g82
I3
ssg83
Nsg76
(lp2150
g69
(g85
g71
NtRp2151
(dp2152
g74
(dp2153
sg83
g2147
sg76
(lp2154
g69
(g90
g71
NtRp2155
(dp2156
g74
(dp2157
sg83
g2151
sg76
(lp2158
g69
(g70
g71
NtRp2159
(dp2160
g74
(dp2161
g82
I3
ssg83
g2155
sg76
(lp2162
S'1'
asbasbasbag69
(g85
g71
NtRp2163
(dp2164
g74
(dp2165
sg83
g2147
sg76
(lp2166
g69
(g90
g71
NtRp2167
(dp2168
g74
(dp2169
sg83
g2163
sg76
(lp2170
g69
(g70
g71
NtRp2171
(dp2172
g74
(dp2173
g82
I3
ssg83
g2167
sg76
(lp2174
S'0'
asbasbasbasbasbasbasbasbasbasbasbag69
(g85
g71
NtRp2175
(dp2176
g74
(dp2177
sg83
g79
sg76
(lp2178
g69
(g90
g71
NtRp2179
(dp2180
g74
(dp2181
g94
g95
ssg83
g2175
sg76
(lp2182
S'extension'
p2183
asbag69
(g90
g71
NtRp2184
(dp2185
g74
(dp2186
g101
g102
ssg83
g2175
sg76
(lp2187
S':'
asbag69
(g90
g71
NtRp2188
(dp2189
g74
(dp2190
sg83
g2175
sg76
(lp2191
g69
(g70
g71
NtRp2192
(dp2193
g74
(dp2194
g82
I5
ssg83
g2188
sg76
(lp2195
S'html'
p2196
asbasbasbag69
(g85
g71
NtRp2197
(dp2198
g74
(dp2199
sg83
g79
sg76
(lp2200
g69
(g90
g71
NtRp2201
(dp2202
g74
(dp2203
g94
g95
ssg83
g2197
sg76
(lp2204
S'folder'
p2205
asbag69
(g90
g71
NtRp2206
(dp2207
g74
(dp2208
g101
g102
ssg83
g2197
sg76
(lp2209
S':'
asbag69
(g90
g71
NtRp2210
(dp2211
g74
(dp2212
sg83
g2197
sg76
(lp2213
g69
(g70
g71
NtRp2214
(dp2215
g74
(dp2216
g82
I5
ssg83
g2210
sg76
(lp2217
S'/home/enigma/web2py/applications/911_signin/'
p2218
asbasbasbag69
(g85
g71
NtRp2219
(dp2220
g74
(dp2221
sg83
g79
sg76
(lp2222
g69
(g90
g71
NtRp2223
(dp2224
g74
(dp2225
g94
g95
ssg83
g2219
sg76
(lp2226
S'function'
p2227
asbag69
(g90
g71
NtRp2228
(dp2229
g74
(dp2230
g101
g102
ssg83
g2219
sg76
(lp2231
S':'
asbag69
(g90
g71
NtRp2232
(dp2233
g74
(dp2234
sg83
g2219
sg76
(lp2235
g69
(g70
g71
NtRp2236
(dp2237
g74
(dp2238
g82
I5
ssg83
g2232
sg76
(lp2239
S'index'
p2240
asbasbasbag69
(g85
g71
NtRp2241
(dp2242
g74
(dp2243
sg83
g79
sg76
(lp2244
g69
(g90
g71
NtRp2245
(dp2246
g74
(dp2247
g94
g95
ssg83
g2241
sg76
(lp2248
S'get_vars'
p2249
asbag69
(g90
g71
NtRp2250
(dp2251
g74
(dp2252
g101
g102
ssg83
g2241
sg76
(lp2253
S':'
asbag69
(g90
g71
NtRp2254
(dp2255
g74
(dp2256
sg83
g2241
sg76
(lp2257
g69
(g70
g71
NtRp2258
(dp2259
g74
(dp2260
g82
I5
ssg83
g2254
sg76
(lp2261
g69
(g78
g71
NtRp2262
(dp2263
g74
(dp2264
g82
I4
ssg83
Nsg76
(lp2265
sbasbasbasbag69
(g85
g71
NtRp2266
(dp2267
g74
(dp2268
sg83
g79
sg76
(lp2269
g69
(g90
g71
NtRp2270
(dp2271
g74
(dp2272
g94
g95
ssg83
g2266
sg76
(lp2273
S'global_settings'
p2274
asbag69
(g90
g71
NtRp2275
(dp2276
g74
(dp2277
g101
g102
ssg83
g2266
sg76
(lp2278
S':'
asbag69
(g90
g71
NtRp2279
(dp2280
g74
(dp2281
sg83
g2266
sg76
(lp2282
g69
(g70
g71
NtRp2283
(dp2284
g74
(dp2285
g82
I5
ssg83
g2279
sg76
(lp2286
g69
(g78
g71
NtRp2287
(dp2288
g74
(dp2289
g82
I4
ssg83
Nsg76
(lp2290
g69
(g85
g71
NtRp2291
(dp2292
g74
(dp2293
sg83
g2287
sg76
(lp2294
g69
(g90
g71
NtRp2295
(dp2296
g74
(dp2297
g94
g95
ssg83
g2291
sg76
(lp2298
g1216
asbag69
(g90
g71
NtRp2299
(dp2300
g74
(dp2301
g101
g102
ssg83
g2291
sg76
(lp2302
S':'
asbag69
(g90
g71
NtRp2303
(dp2304
g74
(dp2305
sg83
g2291
sg76
(lp2306
g69
(g70
g71
NtRp2307
(dp2308
g74
(dp2309
g82
I4
ssg83
g2303
sg76
(lp2310
S"set(['/home/enigma/web2py/applications/admin/', '/home/enigma/web2py/applications/911_signin/', '/home/enigma/web2py/applications/examples/', '/home/enigma/web2py/applications/welcome/'])"
p2311
asbasbasbag69
(g85
g71
NtRp2312
(dp2313
g74
(dp2314
sg83
g2287
sg76
(lp2315
g69
(g90
g71
NtRp2316
(dp2317
g74
(dp2318
g94
g95
ssg83
g2312
sg76
(lp2319
g1238
asbag69
(g90
g71
NtRp2320
(dp2321
g74
(dp2322
g101
g102
ssg83
g2312
sg76
(lp2323
S':'
asbag69
(g90
g71
NtRp2324
(dp2325
g74
(dp2326
sg83
g2312
sg76
(lp2327
g69
(g70
g71
NtRp2328
(dp2329
g74
(dp2330
g82
I4
ssg83
g2324
sg76
(lp2331
g1251
asbasbasbag69
(g85
g71
NtRp2332
(dp2333
g74
(dp2334
sg83
g2287
sg76
(lp2335
g69
(g90
g71
NtRp2336
(dp2337
g74
(dp2338
g94
g95
ssg83
g2332
sg76
(lp2339
g1260
asbag69
(g90
g71
NtRp2340
(dp2341
g74
(dp2342
g101
g102
ssg83
g2332
sg76
(lp2343
S':'
asbag69
(g90
g71
NtRp2344
(dp2345
g74
(dp2346
sg83
g2332
sg76
(lp2347
g69
(g70
g71
NtRp2348
(dp2349
g74
(dp2350
g82
I4
ssg83
g2344
sg76
(lp2351
g69
(g78
g71
NtRp2352
(dp2353
g74
(dp2354
g82
I3
ssg83
Nsg76
(lp2355
sbasbasbasbag69
(g85
g71
NtRp2356
(dp2357
g74
(dp2358
sg83
g2287
sg76
(lp2359
g69
(g90
g71
NtRp2360
(dp2361
g74
(dp2362
g94
g95
ssg83
g2356
sg76
(lp2363
g1285
asbag69
(g90
g71
NtRp2364
(dp2365
g74
(dp2366
g101
g102
ssg83
g2356
sg76
(lp2367
S':'
asbag69
(g90
g71
NtRp2368
(dp2369
g74
(dp2370
sg83
g2356
sg76
(lp2371
g69
(g70
g71
NtRp2372
(dp2373
g74
(dp2374
g82
I4
ssg83
g2368
sg76
(lp2375
S"<Values at 0x8bcabcc: {'verbose': False, 'ip': '127.0.0.1', 'shutdown_timeout': 5, 'taskbar': False, 'nocron': False, 'pid_filename': 'httpserver.pid', 'maxthreads': None, 'softcron': False, 'server_name': 'ubuntu', 'bpython': False, 'nogui': False, 'port': 8000, 'extcron': False, 'debuglevel': 30, 'test': None, 'folder': '/home/enigma/web2py', 'config': '', 'import_models': False, 'winservice': '', 'shell': None, 'run': '', 'log_filename': 'httpserver.log', 'args': [''], 'socket_timeout': 5, 'ssl_ca_certificate': None, 'scheduler': None, 'profiler_filename': None, 'ssl_private_key': '', 'password': '<ask>', 'request_queue_size': 5, 'ssl_certificate': '', 'cronjob': False, 'numthreads': None, 'quiet': False, 'interfaces': None, 'minthreads': None, 'timeout': 10, 'plain': False, 'nobanner': False}>"
p2376
asbasbasbag69
(g85
g71
NtRp2377
(dp2378
g74
(dp2379
sg83
g2287
sg76
(lp2380
g69
(g90
g71
NtRp2381
(dp2382
g74
(dp2383
g94
g95
ssg83
g2377
sg76
(lp2384
g1307
asbag69
(g90
g71
NtRp2385
(dp2386
g74
(dp2387
g101
g102
ssg83
g2377
sg76
(lp2388
S':'
asbag69
(g90
g71
NtRp2389
(dp2390
g74
(dp2391
sg83
g2377
sg76
(lp2392
g69
(g70
g71
NtRp2393
(dp2394
g74
(dp2395
g82
I4
ssg83
g2389
sg76
(lp2396
S'set([])'
p2397
asbasbasbag69
(g85
g71
NtRp2398
(dp2399
g74
(dp2400
sg83
g2287
sg76
(lp2401
g69
(g90
g71
NtRp2402
(dp2403
g74
(dp2404
g94
g95
ssg83
g2398
sg76
(lp2405
g1329
asbag69
(g90
g71
NtRp2406
(dp2407
g74
(dp2408
g101
g102
ssg83
g2398
sg76
(lp2409
S':'
asbag69
(g90
g71
NtRp2410
(dp2411
g74
(dp2412
sg83
g2398
sg76
(lp2413
g69
(g70
g71
NtRp2414
(dp2415
g74
(dp2416
g82
I4
ssg83
g2410
sg76
(lp2417
g112
asbasbasbag69
(g85
g71
NtRp2418
(dp2419
g74
(dp2420
sg83
g2287
sg76
(lp2421
g69
(g90
g71
NtRp2422
(dp2423
g74
(dp2424
g94
g95
ssg83
g2418
sg76
(lp2425
g1350
asbag69
(g90
g71
NtRp2426
(dp2427
g74
(dp2428
g101
g102
ssg83
g2418
sg76
(lp2429
S':'
asbag69
(g90
g71
NtRp2430
(dp2431
g74
(dp2432
sg83
g2418
sg76
(lp2433
g69
(g70
g71
NtRp2434
(dp2435
g74
(dp2436
g82
I4
ssg83
g2430
sg76
(lp2437
g1363
asbasbasbag69
(g85
g71
NtRp2438
(dp2439
g74
(dp2440
sg83
g2287
sg76
(lp2441
g69
(g90
g71
NtRp2442
(dp2443
g74
(dp2444
g94
g95
ssg83
g2438
sg76
(lp2445
g1592
asbag69
(g90
g71
NtRp2446
(dp2447
g74
(dp2448
g101
g102
ssg83
g2438
sg76
(lp2449
S':'
asbag69
(g90
g71
NtRp2450
(dp2451
g74
(dp2452
sg83
g2438
sg76
(lp2453
g69
(g70
g71
NtRp2454
(dp2455
g74
(dp2456
g82
I4
ssg83
g2450
sg76
(lp2457
g112
asbasbasbag69
(g85
g71
NtRp2458
(dp2459
g74
(dp2460
sg83
g2287
sg76
(lp2461
g69
(g90
g71
NtRp2462
(dp2463
g74
(dp2464
g94
g95
ssg83
g2458
sg76
(lp2465
g1613
asbag69
(g90
g71
NtRp2466
(dp2467
g74
(dp2468
g101
g102
ssg83
g2458
sg76
(lp2469
S':'
asbag69
(g90
g71
NtRp2470
(dp2471
g74
(dp2472
sg83
g2458
sg76
(lp2473
g69
(g70
g71
NtRp2474
(dp2475
g74
(dp2476
g82
I4
ssg83
g2470
sg76
(lp2477
g112
asbasbasbag69
(g85
g71
NtRp2478
(dp2479
g74
(dp2480
sg83
g2287
sg76
(lp2481
g69
(g90
g71
NtRp2482
(dp2483
g74
(dp2484
g94
g95
ssg83
g2478
sg76
(lp2485
g1851
asbag69
(g90
g71
NtRp2486
(dp2487
g74
(dp2488
g101
g102
ssg83
g2478
sg76
(lp2489
S':'
asbag69
(g90
g71
NtRp2490
(dp2491
g74
(dp2492
sg83
g2478
sg76
(lp2493
g69
(g70
g71
NtRp2494
(dp2495
g74
(dp2496
g82
I4
ssg83
g2490
sg76
(lp2497
g1864
asbasbasbag69
(g85
g71
NtRp2498
(dp2499
g74
(dp2500
sg83
g2287
sg76
(lp2501
g69
(g90
g71
NtRp2502
(dp2503
g74
(dp2504
g94
g95
ssg83
g2498
sg76
(lp2505
g1894
asbag69
(g90
g71
NtRp2506
(dp2507
g74
(dp2508
g101
g102
ssg83
g2498
sg76
(lp2509
S':'
asbag69
(g90
g71
NtRp2510
(dp2511
g74
(dp2512
sg83
g2498
sg76
(lp2513
g69
(g70
g71
NtRp2514
(dp2515
g74
(dp2516
g82
I4
ssg83
g2510
sg76
(lp2517
g69
(g78
g71
NtRp2518
(dp2519
g74
(dp2520
g82
I3
ssg83
Nsg76
(lp2521
g69
(g85
g71
NtRp2522
(dp2523
g74
(dp2524
sg83
g2518
sg76
(lp2525
g69
(g90
g71
NtRp2526
(dp2527
g74
(dp2528
sg83
g2522
sg76
(lp2529
g69
(g70
g71
NtRp2530
(dp2531
g74
(dp2532
g82
I3
ssg83
g2526
sg76
(lp2533
S'1'
asbasbasbag69
(g85
g71
NtRp2534
(dp2535
g74
(dp2536
sg83
g2518
sg76
(lp2537
g69
(g90
g71
NtRp2538
(dp2539
g74
(dp2540
sg83
g2534
sg76
(lp2541
g69
(g70
g71
NtRp2542
(dp2543
g74
(dp2544
g82
I3
ssg83
g2538
sg76
(lp2545
S'99'
p2546
asbasbasbag69
(g85
g71
NtRp2547
(dp2548
g74
(dp2549
sg83
g2518
sg76
(lp2550
g69
(g90
g71
NtRp2551
(dp2552
g74
(dp2553
sg83
g2547
sg76
(lp2554
g69
(g70
g71
NtRp2555
(dp2556
g74
(dp2557
g82
I3
ssg83
g2551
sg76
(lp2558
S'7'
asbasbasbag69
(g85
g71
NtRp2559
(dp2560
g74
(dp2561
sg83
g2518
sg76
(lp2562
g69
(g90
g71
NtRp2563
(dp2564
g74
(dp2565
sg83
g2559
sg76
(lp2566
g69
(g70
g71
NtRp2567
(dp2568
g74
(dp2569
g82
I3
ssg83
g2563
sg76
(lp2570
S'datetime.datetime(2012, 3, 4, 22, 12, 8)'
p2571
asbasbasbag69
(g85
g71
NtRp2572
(dp2573
g74
(dp2574
sg83
g2518
sg76
(lp2575
g69
(g90
g71
NtRp2576
(dp2577
g74
(dp2578
sg83
g2572
sg76
(lp2579
g69
(g70
g71
NtRp2580
(dp2581
g74
(dp2582
g82
I3
ssg83
g2576
sg76
(lp2583
g1973
asbasbasbasbasbasbasbasbasbasbasbag69
(g85
g71
NtRp2584
(dp2585
g74
(dp2586
sg83
g79
sg76
(lp2587
g69
(g90
g71
NtRp2588
(dp2589
g74
(dp2590
g94
g95
ssg83
g2584
sg76
(lp2591
S'is_https'
p2592
asbag69
(g90
g71
NtRp2593
(dp2594
g74
(dp2595
g101
g102
ssg83
g2584
sg76
(lp2596
S':'
asbag69
(g90
g71
NtRp2597
(dp2598
g74
(dp2599
sg83
g2584
sg76
(lp2600
g69
(g70
g71
NtRp2601
(dp2602
g74
(dp2603
g82
I5
ssg83
g2597
sg76
(lp2604
g112
asbasbasbag69
(g85
g71
NtRp2605
(dp2606
g74
(dp2607
sg83
g79
sg76
(lp2608
g69
(g90
g71
NtRp2609
(dp2610
g74
(dp2611
g94
g95
ssg83
g2605
sg76
(lp2612
S'is_local'
p2613
asbag69
(g90
g71
NtRp2614
(dp2615
g74
(dp2616
g101
g102
ssg83
g2605
sg76
(lp2617
S':'
asbag69
(g90
g71
NtRp2618
(dp2619
g74
(dp2620
sg83
g2605
sg76
(lp2621
g69
(g70
g71
NtRp2622
(dp2623
g74
(dp2624
g82
I5
ssg83
g2618
sg76
(lp2625
g2082
asbasbasbag69
(g85
g71
NtRp2626
(dp2627
g74
(dp2628
sg83
g79
sg76
(lp2629
g69
(g90
g71
NtRp2630
(dp2631
g74
(dp2632
g94
g95
ssg83
g2626
sg76
(lp2633
S'is_restful'
p2634
asbag69
(g90
g71
NtRp2635
(dp2636
g74
(dp2637
g101
g102
ssg83
g2626
sg76
(lp2638
S':'
asbag69
(g90
g71
NtRp2639
(dp2640
g74
(dp2641
sg83
g2626
sg76
(lp2642
g69
(g70
g71
NtRp2643
(dp2644
g74
(dp2645
g82
I5
ssg83
g2639
sg76
(lp2646
g112
asbasbasbag69
(g85
g71
NtRp2647
(dp2648
g74
(dp2649
sg83
g79
sg76
(lp2650
g69
(g90
g71
NtRp2651
(dp2652
g74
(dp2653
g94
g95
ssg83
g2647
sg76
(lp2654
S'now'
p2655
asbag69
(g90
g71
NtRp2656
(dp2657
g74
(dp2658
g101
g102
ssg83
g2647
sg76
(lp2659
S':'
asbag69
(g90
g71
NtRp2660
(dp2661
g74
(dp2662
sg83
g2647
sg76
(lp2663
g69
(g70
g71
NtRp2664
(dp2665
g74
(dp2666
g82
I5
ssg83
g2660
sg76
(lp2667
S'datetime.datetime(2013, 5, 17, 0, 7, 59, 724988)'
p2668
asbasbasbag69
(g85
g71
NtRp2669
(dp2670
g74
(dp2671
sg83
g79
sg76
(lp2672
g69
(g90
g71
NtRp2673
(dp2674
g74
(dp2675
g94
g95
ssg83
g2669
sg76
(lp2676
S'post_vars'
p2677
asbag69
(g90
g71
NtRp2678
(dp2679
g74
(dp2680
g101
g102
ssg83
g2669
sg76
(lp2681
S':'
asbag69
(g90
g71
NtRp2682
(dp2683
g74
(dp2684
sg83
g2669
sg76
(lp2685
g69
(g70
g71
NtRp2686
(dp2687
g74
(dp2688
g82
I5
ssg83
g2682
sg76
(lp2689
g69
(g78
g71
NtRp2690
(dp2691
g74
(dp2692
g82
I4
ssg83
Nsg76
(lp2693
sbasbasbasbag69
(g85
g71
NtRp2694
(dp2695
g74
(dp2696
sg83
g79
sg76
(lp2697
g69
(g90
g71
NtRp2698
(dp2699
g74
(dp2700
g94
g95
ssg83
g2694
sg76
(lp2701
S'url'
p2702
asbag69
(g90
g71
NtRp2703
(dp2704
g74
(dp2705
g101
g102
ssg83
g2694
sg76
(lp2706
S':'
asbag69
(g90
g71
NtRp2707
(dp2708
g74
(dp2709
sg83
g2694
sg76
(lp2710
g69
(g70
g71
NtRp2711
(dp2712
g74
(dp2713
g82
I5
ssg83
g2707
sg76
(lp2714
S'/911_signin/default/index'
p2715
asbasbasbag69
(g85
g71
NtRp2716
(dp2717
g74
(dp2718
sg83
g79
sg76
(lp2719
g69
(g90
g71
NtRp2720
(dp2721
g74
(dp2722
g94
g95
ssg83
g2716
sg76
(lp2723
S'utcnow'
p2724
asbag69
(g90
g71
NtRp2725
(dp2726
g74
(dp2727
g101
g102
ssg83
g2716
sg76
(lp2728
S':'
asbag69
(g90
g71
NtRp2729
(dp2730
g74
(dp2731
sg83
g2716
sg76
(lp2732
g69
(g70
g71
NtRp2733
(dp2734
g74
(dp2735
g82
I5
ssg83
g2729
sg76
(lp2736
S'datetime.datetime(2013, 5, 16, 18, 37, 59, 725032)'
p2737
asbasbasbag69
(g85
g71
NtRp2738
(dp2739
g74
(dp2740
sg83
g79
sg76
(lp2741
g69
(g90
g71
NtRp2742
(dp2743
g74
(dp2744
g94
g95
ssg83
g2738
sg76
(lp2745
S'uuid'
p2746
asbag69
(g90
g71
NtRp2747
(dp2748
g74
(dp2749
g101
g102
ssg83
g2738
sg76
(lp2750
S':'
asbag69
(g90
g71
NtRp2751
(dp2752
g74
(dp2753
sg83
g2738
sg76
(lp2754
g69
(g70
g71
NtRp2755
(dp2756
g74
(dp2757
g82
I5
ssg83
g2751
sg76
(lp2758
S'911_signin/127.0.0.1.2013-05-17.00-07-59.a0072880-4a85-457e-901f-18c2c9687efa'
p2759
asbasbasbag69
(g85
g71
NtRp2760
(dp2761
g74
(dp2762
sg83
g79
sg76
(lp2763
g69
(g90
g71
NtRp2764
(dp2765
g74
(dp2766
g94
g95
ssg83
g2760
sg76
(lp2767
S'vars'
p2768
asbag69
(g90
g71
NtRp2769
(dp2770
g74
(dp2771
g101
g102
ssg83
g2760
sg76
(lp2772
S':'
asbag69
(g90
g71
NtRp2773
(dp2774
g74
(dp2775
sg83
g2760
sg76
(lp2776
g69
(g70
g71
NtRp2777
(dp2778
g74
(dp2779
g82
I5
ssg83
g2773
sg76
(lp2780
g69
(g78
g71
NtRp2781
(dp2782
g74
(dp2783
g82
I4
ssg83
Nsg76
(lp2784
sbasbasbasbag69
(g85
g71
NtRp2785
(dp2786
g74
(dp2787
sg83
g79
sg76
(lp2788
g69
(g90
g71
NtRp2789
(dp2790
g74
(dp2791
g94
g95
ssg83
g2785
sg76
(lp2792
S'wsgi'
p2793
asbag69
(g90
g71
NtRp2794
(dp2795
g74
(dp2796
g101
g102
ssg83
g2785
sg76
(lp2797
S':'
asbag69
(g90
g71
NtRp2798
(dp2799
g74
(dp2800
sg83
g2785
sg76
(lp2801
g69
(g70
g71
NtRp2802
(dp2803
g74
(dp2804
g82
I5
ssg83
g2798
sg76
(lp2805
g69
(g78
g71
NtRp2806
(dp2807
g74
(dp2808
g82
I4
ssg83
Nsg76
(lp2809
g69
(g85
g71
NtRp2810
(dp2811
g74
(dp2812
sg83
g2806
sg76
(lp2813
g69
(g90
g71
NtRp2814
(dp2815
g74
(dp2816
g94
g95
ssg83
g2810
sg76
(lp2817
S'environ'
p2818
asbag69
(g90
g71
NtRp2819
(dp2820
g74
(dp2821
g101
g102
ssg83
g2810
sg76
(lp2822
S':'
asbag69
(g90
g71
NtRp2823
(dp2824
g74
(dp2825
sg83
g2810
sg76
(lp2826
g69
(g70
g71
NtRp2827
(dp2828
g74
(dp2829
g82
I4
ssg83
g2823
sg76
(lp2830
g69
(g78
g71
NtRp2831
(dp2832
g74
(dp2833
g82
I3
ssg83
Nsg76
(lp2834
g69
(g85
g71
NtRp2835
(dp2836
g74
(dp2837
sg83
g2831
sg76
(lp2838
g69
(g90
g71
NtRp2839
(dp2840
g74
(dp2841
g94
g95
ssg83
g2835
sg76
(lp2842
S'HTTP_ACCEPT'
p2843
asbag69
(g90
g71
NtRp2844
(dp2845
g74
(dp2846
g101
g102
ssg83
g2835
sg76
(lp2847
S':'
asbag69
(g90
g71
NtRp2848
(dp2849
g74
(dp2850
sg83
g2835
sg76
(lp2851
g69
(g70
g71
NtRp2852
(dp2853
g74
(dp2854
g82
I3
ssg83
g2848
sg76
(lp2855
g1385
asbasbasbag69
(g85
g71
NtRp2856
(dp2857
g74
(dp2858
sg83
g2831
sg76
(lp2859
g69
(g90
g71
NtRp2860
(dp2861
g74
(dp2862
g94
g95
ssg83
g2856
sg76
(lp2863
S'HTTP_ACCEPT_CHARSET'
p2864
asbag69
(g90
g71
NtRp2865
(dp2866
g74
(dp2867
g101
g102
ssg83
g2856
sg76
(lp2868
S':'
asbag69
(g90
g71
NtRp2869
(dp2870
g74
(dp2871
sg83
g2856
sg76
(lp2872
g69
(g70
g71
NtRp2873
(dp2874
g74
(dp2875
g82
I3
ssg83
g2869
sg76
(lp2876
g1407
asbasbasbag69
(g85
g71
NtRp2877
(dp2878
g74
(dp2879
sg83
g2831
sg76
(lp2880
g69
(g90
g71
NtRp2881
(dp2882
g74
(dp2883
g94
g95
ssg83
g2877
sg76
(lp2884
S'HTTP_ACCEPT_ENCODING'
p2885
asbag69
(g90
g71
NtRp2886
(dp2887
g74
(dp2888
g101
g102
ssg83
g2877
sg76
(lp2889
S':'
asbag69
(g90
g71
NtRp2890
(dp2891
g74
(dp2892
sg83
g2877
sg76
(lp2893
g69
(g70
g71
NtRp2894
(dp2895
g74
(dp2896
g82
I3
ssg83
g2890
sg76
(lp2897
g1429
asbasbasbag69
(g85
g71
NtRp2898
(dp2899
g74
(dp2900
sg83
g2831
sg76
(lp2901
g69
(g90
g71
NtRp2902
(dp2903
g74
(dp2904
g94
g95
ssg83
g2898
sg76
(lp2905
S'HTTP_ACCEPT_LANGUAGE'
p2906
asbag69
(g90
g71
NtRp2907
(dp2908
g74
(dp2909
g101
g102
ssg83
g2898
sg76
(lp2910
S':'
asbag69
(g90
g71
NtRp2911
(dp2912
g74
(dp2913
sg83
g2898
sg76
(lp2914
g69
(g70
g71
NtRp2915
(dp2916
g74
(dp2917
g82
I3
ssg83
g2911
sg76
(lp2918
g1451
asbasbasbag69
(g85
g71
NtRp2919
(dp2920
g74
(dp2921
sg83
g2831
sg76
(lp2922
g69
(g90
g71
NtRp2923
(dp2924
g74
(dp2925
g94
g95
ssg83
g2919
sg76
(lp2926
S'HTTP_CACHE_CONTROL'
p2927
asbag69
(g90
g71
NtRp2928
(dp2929
g74
(dp2930
g101
g102
ssg83
g2919
sg76
(lp2931
S':'
asbag69
(g90
g71
NtRp2932
(dp2933
g74
(dp2934
sg83
g2919
sg76
(lp2935
g69
(g70
g71
NtRp2936
(dp2937
g74
(dp2938
g82
I3
ssg83
g2932
sg76
(lp2939
g1473
asbasbasbag69
(g85
g71
NtRp2940
(dp2941
g74
(dp2942
sg83
g2831
sg76
(lp2943
g69
(g90
g71
NtRp2944
(dp2945
g74
(dp2946
g94
g95
ssg83
g2940
sg76
(lp2947
S'HTTP_CONNECTION'
p2948
asbag69
(g90
g71
NtRp2949
(dp2950
g74
(dp2951
g101
g102
ssg83
g2940
sg76
(lp2952
S':'
asbag69
(g90
g71
NtRp2953
(dp2954
g74
(dp2955
sg83
g2940
sg76
(lp2956
g69
(g70
g71
NtRp2957
(dp2958
g74
(dp2959
g82
I3
ssg83
g2953
sg76
(lp2960
g1495
asbasbasbag69
(g85
g71
NtRp2961
(dp2962
g74
(dp2963
sg83
g2831
sg76
(lp2964
g69
(g90
g71
NtRp2965
(dp2966
g74
(dp2967
g94
g95
ssg83
g2961
sg76
(lp2968
S'HTTP_COOKIE'
p2969
asbag69
(g90
g71
NtRp2970
(dp2971
g74
(dp2972
g101
g102
ssg83
g2961
sg76
(lp2973
S':'
asbag69
(g90
g71
NtRp2974
(dp2975
g74
(dp2976
sg83
g2961
sg76
(lp2977
g69
(g70
g71
NtRp2978
(dp2979
g74
(dp2980
g82
I3
ssg83
g2974
sg76
(lp2981
g1517
asbasbasbag69
(g85
g71
NtRp2982
(dp2983
g74
(dp2984
sg83
g2831
sg76
(lp2985
g69
(g90
g71
NtRp2986
(dp2987
g74
(dp2988
g94
g95
ssg83
g2982
sg76
(lp2989
S'HTTP_HOST'
p2990
asbag69
(g90
g71
NtRp2991
(dp2992
g74
(dp2993
g101
g102
ssg83
g2982
sg76
(lp2994
S':'
asbag69
(g90
g71
NtRp2995
(dp2996
g74
(dp2997
sg83
g2982
sg76
(lp2998
g69
(g70
g71
NtRp2999
(dp3000
g74
(dp3001
g82
I3
ssg83
g2995
sg76
(lp3002
g1539
asbasbasbag69
(g85
g71
NtRp3003
(dp3004
g74
(dp3005
sg83
g2831
sg76
(lp3006
g69
(g90
g71
NtRp3007
(dp3008
g74
(dp3009
g94
g95
ssg83
g3003
sg76
(lp3010
S'HTTP_REFERER'
p3011
asbag69
(g90
g71
NtRp3012
(dp3013
g74
(dp3014
g101
g102
ssg83
g3003
sg76
(lp3015
S':'
asbag69
(g90
g71
NtRp3016
(dp3017
g74
(dp3018
sg83
g3003
sg76
(lp3019
g69
(g70
g71
NtRp3020
(dp3021
g74
(dp3022
g82
I3
ssg83
g3016
sg76
(lp3023
g1561
asbasbasbag69
(g85
g71
NtRp3024
(dp3025
g74
(dp3026
sg83
g2831
sg76
(lp3027
g69
(g90
g71
NtRp3028
(dp3029
g74
(dp3030
g94
g95
ssg83
g3024
sg76
(lp3031
S'HTTP_USER_AGENT'
p3032
asbag69
(g90
g71
NtRp3033
(dp3034
g74
(dp3035
g101
g102
ssg83
g3024
sg76
(lp3036
S':'
asbag69
(g90
g71
NtRp3037
(dp3038
g74
(dp3039
sg83
g3024
sg76
(lp3040
g69
(g70
g71
NtRp3041
(dp3042
g74
(dp3043
g82
I3
ssg83
g3037
sg76
(lp3044
g1583
asbasbasbag69
(g85
g71
NtRp3045
(dp3046
g74
(dp3047
sg83
g2831
sg76
(lp3048
g69
(g90
g71
NtRp3049
(dp3050
g74
(dp3051
g94
g95
ssg83
g3045
sg76
(lp3052
S'PATH_INFO'
p3053
asbag69
(g90
g71
NtRp3054
(dp3055
g74
(dp3056
g101
g102
ssg83
g3045
sg76
(lp3057
S':'
asbag69
(g90
g71
NtRp3058
(dp3059
g74
(dp3060
sg83
g3045
sg76
(lp3061
g69
(g70
g71
NtRp3062
(dp3063
g74
(dp3064
g82
I3
ssg83
g3058
sg76
(lp3065
g1647
asbasbasbag69
(g85
g71
NtRp3066
(dp3067
g74
(dp3068
sg83
g2831
sg76
(lp3069
g69
(g90
g71
NtRp3070
(dp3071
g74
(dp3072
g94
g95
ssg83
g3066
sg76
(lp3073
S'QUERY_STRING'
p3074
asbag69
(g90
g71
NtRp3075
(dp3076
g74
(dp3077
g101
g102
ssg83
g3066
sg76
(lp3078
S':'
asbag69
(g90
g71
NtRp3079
(dp3080
g74
(dp3081
sg83
g3066
sg76
(lp3082
g69
(g70
g71
NtRp3083
(dp3084
g74
(dp3085
g82
I3
ssg83
g3079
sg76
(lp3086
S''
asbasbasbag69
(g85
g71
NtRp3087
(dp3088
g74
(dp3089
sg83
g2831
sg76
(lp3090
g69
(g90
g71
NtRp3091
(dp3092
g74
(dp3093
g94
g95
ssg83
g3087
sg76
(lp3094
S'REMOTE_ADDR'
p3095
asbag69
(g90
g71
NtRp3096
(dp3097
g74
(dp3098
g101
g102
ssg83
g3087
sg76
(lp3099
S':'
asbag69
(g90
g71
NtRp3100
(dp3101
g74
(dp3102
sg83
g3087
sg76
(lp3103
g69
(g70
g71
NtRp3104
(dp3105
g74
(dp3106
g82
I3
ssg83
g3100
sg76
(lp3107
g202
asbasbasbag69
(g85
g71
NtRp3108
(dp3109
g74
(dp3110
sg83
g2831
sg76
(lp3111
g69
(g90
g71
NtRp3112
(dp3113
g74
(dp3114
g94
g95
ssg83
g3108
sg76
(lp3115
S'REMOTE_PORT'
p3116
asbag69
(g90
g71
NtRp3117
(dp3118
g74
(dp3119
g101
g102
ssg83
g3108
sg76
(lp3120
S':'
asbag69
(g90
g71
NtRp3121
(dp3122
g74
(dp3123
sg83
g3108
sg76
(lp3124
g69
(g70
g71
NtRp3125
(dp3126
g74
(dp3127
g82
I3
ssg83
g3121
sg76
(lp3128
g1711
asbasbasbag69
(g85
g71
NtRp3129
(dp3130
g74
(dp3131
sg83
g2831
sg76
(lp3132
g69
(g90
g71
NtRp3133
(dp3134
g74
(dp3135
g94
g95
ssg83
g3129
sg76
(lp3136
S'REQUEST_METHOD'
p3137
asbag69
(g90
g71
NtRp3138
(dp3139
g74
(dp3140
g101
g102
ssg83
g3129
sg76
(lp3141
S':'
asbag69
(g90
g71
NtRp3142
(dp3143
g74
(dp3144
sg83
g3129
sg76
(lp3145
g69
(g70
g71
NtRp3146
(dp3147
g74
(dp3148
g82
I3
ssg83
g3142
sg76
(lp3149
g1733
asbasbasbag69
(g85
g71
NtRp3150
(dp3151
g74
(dp3152
sg83
g2831
sg76
(lp3153
g69
(g90
g71
NtRp3154
(dp3155
g74
(dp3156
g94
g95
ssg83
g3150
sg76
(lp3157
S'SCRIPT_NAME'
p3158
asbag69
(g90
g71
NtRp3159
(dp3160
g74
(dp3161
g101
g102
ssg83
g3150
sg76
(lp3162
S':'
asbag69
(g90
g71
NtRp3163
(dp3164
g74
(dp3165
sg83
g3150
sg76
(lp3166
g69
(g70
g71
NtRp3167
(dp3168
g74
(dp3169
g82
I3
ssg83
g3163
sg76
(lp3170
S''
asbasbasbag69
(g85
g71
NtRp3171
(dp3172
g74
(dp3173
sg83
g2831
sg76
(lp3174
g69
(g90
g71
NtRp3175
(dp3176
g74
(dp3177
g94
g95
ssg83
g3171
sg76
(lp3178
S'SERVER_NAME'
p3179
asbag69
(g90
g71
NtRp3180
(dp3181
g74
(dp3182
g101
g102
ssg83
g3171
sg76
(lp3183
S':'
asbag69
(g90
g71
NtRp3184
(dp3185
g74
(dp3186
sg83
g3171
sg76
(lp3187
g69
(g70
g71
NtRp3188
(dp3189
g74
(dp3190
g82
I3
ssg83
g3184
sg76
(lp3191
g1776
asbasbasbag69
(g85
g71
NtRp3192
(dp3193
g74
(dp3194
sg83
g2831
sg76
(lp3195
g69
(g90
g71
NtRp3196
(dp3197
g74
(dp3198
g94
g95
ssg83
g3192
sg76
(lp3199
S'SERVER_PORT'
p3200
asbag69
(g90
g71
NtRp3201
(dp3202
g74
(dp3203
g101
g102
ssg83
g3192
sg76
(lp3204
S':'
asbag69
(g90
g71
NtRp3205
(dp3206
g74
(dp3207
sg83
g3192
sg76
(lp3208
g69
(g70
g71
NtRp3209
(dp3210
g74
(dp3211
g82
I3
ssg83
g3205
sg76
(lp3212
g1798
asbasbasbag69
(g85
g71
NtRp3213
(dp3214
g74
(dp3215
sg83
g2831
sg76
(lp3216
g69
(g90
g71
NtRp3217
(dp3218
g74
(dp3219
g94
g95
ssg83
g3213
sg76
(lp3220
S'SERVER_PROTOCOL'
p3221
asbag69
(g90
g71
NtRp3222
(dp3223
g74
(dp3224
g101
g102
ssg83
g3213
sg76
(lp3225
S':'
asbag69
(g90
g71
NtRp3226
(dp3227
g74
(dp3228
sg83
g3213
sg76
(lp3229
g69
(g70
g71
NtRp3230
(dp3231
g74
(dp3232
g82
I3
ssg83
g3226
sg76
(lp3233
g1820
asbasbasbag69
(g85
g71
NtRp3234
(dp3235
g74
(dp3236
sg83
g2831
sg76
(lp3237
g69
(g90
g71
NtRp3238
(dp3239
g74
(dp3240
g94
g95
ssg83
g3234
sg76
(lp3241
S'SERVER_SOFTWARE'
p3242
asbag69
(g90
g71
NtRp3243
(dp3244
g74
(dp3245
g101
g102
ssg83
g3234
sg76
(lp3246
S':'
asbag69
(g90
g71
NtRp3247
(dp3248
g74
(dp3249
sg83
g3234
sg76
(lp3250
g69
(g70
g71
NtRp3251
(dp3252
g74
(dp3253
g82
I3
ssg83
g3247
sg76
(lp3254
g1842
asbasbasbag69
(g85
g71
NtRp3255
(dp3256
g74
(dp3257
sg83
g2831
sg76
(lp3258
g69
(g90
g71
NtRp3259
(dp3260
g74
(dp3261
g94
g95
ssg83
g3255
sg76
(lp3262
S'wsgi.errors'
p3263
asbag69
(g90
g71
NtRp3264
(dp3265
g74
(dp3266
g101
g102
ssg83
g3255
sg76
(lp3267
S':'
asbag69
(g90
g71
NtRp3268
(dp3269
g74
(dp3270
sg83
g3255
sg76
(lp3271
g69
(g70
g71
NtRp3272
(dp3273
g74
(dp3274
g82
I3
ssg83
g3268
sg76
(lp3275
S"<open file '<stderr>', mode 'w' at 0xb73630d0>"
p3276
asbasbasbag69
(g85
g71
NtRp3277
(dp3278
g74
(dp3279
sg83
g2831
sg76
(lp3280
g69
(g90
g71
NtRp3281
(dp3282
g74
(dp3283
g94
g95
ssg83
g3277
sg76
(lp3284
S'wsgi.file_wrapper'
p3285
asbag69
(g90
g71
NtRp3286
(dp3287
g74
(dp3288
g101
g102
ssg83
g3277
sg76
(lp3289
S':'
asbag69
(g90
g71
NtRp3290
(dp3291
g74
(dp3292
sg83
g3277
sg76
(lp3293
g69
(g70
g71
NtRp3294
(dp3295
g74
(dp3296
g82
I3
ssg83
g3290
sg76
(lp3297
S'<class wsgiref.util.FileWrapper at 0x8b0ce9c>'
p3298
asbasbasbag69
(g85
g71
NtRp3299
(dp3300
g74
(dp3301
sg83
g2831
sg76
(lp3302
g69
(g90
g71
NtRp3303
(dp3304
g74
(dp3305
g94
g95
ssg83
g3299
sg76
(lp3306
S'wsgi.input'
p3307
asbag69
(g90
g71
NtRp3308
(dp3309
g74
(dp3310
g101
g102
ssg83
g3299
sg76
(lp3311
S':'
asbag69
(g90
g71
NtRp3312
(dp3313
g74
(dp3314
sg83
g3299
sg76
(lp3315
g69
(g70
g71
NtRp3316
(dp3317
g74
(dp3318
g82
I3
ssg83
g3312
sg76
(lp3319
S'<cStringIO.StringO object at 0xb19ae540>'
p3320
asbasbasbag69
(g85
g71
NtRp3321
(dp3322
g74
(dp3323
sg83
g2831
sg76
(lp3324
g69
(g90
g71
NtRp3325
(dp3326
g74
(dp3327
g94
g95
ssg83
g3321
sg76
(lp3328
S'wsgi.multiprocess'
p3329
asbag69
(g90
g71
NtRp3330
(dp3331
g74
(dp3332
g101
g102
ssg83
g3321
sg76
(lp3333
S':'
asbag69
(g90
g71
NtRp3334
(dp3335
g74
(dp3336
sg83
g3321
sg76
(lp3337
g69
(g70
g71
NtRp3338
(dp3339
g74
(dp3340
g82
I3
ssg83
g3334
sg76
(lp3341
g112
asbasbasbag69
(g85
g71
NtRp3342
(dp3343
g74
(dp3344
sg83
g2831
sg76
(lp3345
g69
(g90
g71
NtRp3346
(dp3347
g74
(dp3348
g94
g95
ssg83
g3342
sg76
(lp3349
S'wsgi.multithread'
p3350
asbag69
(g90
g71
NtRp3351
(dp3352
g74
(dp3353
g101
g102
ssg83
g3342
sg76
(lp3354
S':'
asbag69
(g90
g71
NtRp3355
(dp3356
g74
(dp3357
sg83
g3342
sg76
(lp3358
g69
(g70
g71
NtRp3359
(dp3360
g74
(dp3361
g82
I3
ssg83
g3355
sg76
(lp3362
g2082
asbasbasbag69
(g85
g71
NtRp3363
(dp3364
g74
(dp3365
sg83
g2831
sg76
(lp3366
g69
(g90
g71
NtRp3367
(dp3368
g74
(dp3369
g94
g95
ssg83
g3363
sg76
(lp3370
S'wsgi.run_once'
p3371
asbag69
(g90
g71
NtRp3372
(dp3373
g74
(dp3374
g101
g102
ssg83
g3363
sg76
(lp3375
S':'
asbag69
(g90
g71
NtRp3376
(dp3377
g74
(dp3378
sg83
g3363
sg76
(lp3379
g69
(g70
g71
NtRp3380
(dp3381
g74
(dp3382
g82
I3
ssg83
g3376
sg76
(lp3383
g112
asbasbasbag69
(g85
g71
NtRp3384
(dp3385
g74
(dp3386
sg83
g2831
sg76
(lp3387
g69
(g90
g71
NtRp3388
(dp3389
g74
(dp3390
g94
g95
ssg83
g3384
sg76
(lp3391
S'wsgi.url_scheme'
p3392
asbag69
(g90
g71
NtRp3393
(dp3394
g74
(dp3395
g101
g102
ssg83
g3384
sg76
(lp3396
S':'
asbag69
(g90
g71
NtRp3397
(dp3398
g74
(dp3399
sg83
g3384
sg76
(lp3400
g69
(g70
g71
NtRp3401
(dp3402
g74
(dp3403
g82
I3
ssg83
g3397
sg76
(lp3404
g2125
asbasbasbag69
(g85
g71
NtRp3405
(dp3406
g74
(dp3407
sg83
g2831
sg76
(lp3408
g69
(g90
g71
NtRp3409
(dp3410
g74
(dp3411
g94
g95
ssg83
g3405
sg76
(lp3412
S'wsgi.version'
p3413
asbag69
(g90
g71
NtRp3414
(dp3415
g74
(dp3416
g101
g102
ssg83
g3405
sg76
(lp3417
S':'
asbag69
(g90
g71
NtRp3418
(dp3419
g74
(dp3420
sg83
g3405
sg76
(lp3421
g69
(g70
g71
NtRp3422
(dp3423
g74
(dp3424
g82
I3
ssg83
g3418
sg76
(lp3425
S'1'
asbasbasbasbasbasbasbasbasbasbasbasbasbsS'frames'
p3426
(lp3427
(dp3428
S'file'
p3429
S'/home/enigma/web2py/gluon/restricted.py'
p3430
sS'dump'
p3431
(dp3432
S'environment'
p3433
S"{'A': <class 'gluon.html.A'>, 'Auth': <class 'gluon.tools.Auth'>, 'B': <class 'gluon.html.B'>, 'BEAUTIFY': <class 'gluon.html.BEAUTIFY'>, 'BODY': <class 'gluon.html.BODY'>, 'BR': <class 'gluon.html.BR'>, 'BUTTON': <class 'gluon.html.BUTTON'>, 'CAT': <class 'gluon.html.CAT'>, 'CENTER': <class 'gluon.html.CENTER'>, 'CLEANUP': <class 'gluon.validators.CLEANUP'>, ...}"
p3434
sS'ccode'
p3435
S'<code object <module> at 0xacb14da0, file "/home...y/applications/911_signin/models/db.py", line 12>'
p3436
ssS'lnum'
p3437
I205
sS'lines'
p3438
(dp3439
I200
S'    try:'
p3440
sI201
S'        if type(code) == types.CodeType:'
p3441
sI202
S'            ccode = code'
p3442
sI203
S'        else:'
p3443
sI204
S'            ccode = compile2(code,layer)'
p3444
sI205
S'        exec ccode in environment'
p3445
sI206
S'    except HTTP:'
p3446
sI207
S'        raise'
p3447
sI208
S'    except RestrictedError:'
p3448
sI209
S'        # do not encapsulate (obfuscate) the original RestrictedError'
p3449
ssS'call'
p3450
S'(code="# -*- coding: utf-8 -*-\\n\\n#######################...8,\\n\\twritable=False, readable=False, default=\'\'))\\n", environment={\'A\': <class \'gluon.html.A\'>, \'Auth\': <class \'gluon.tools.Auth\'>, \'B\': <class \'gluon.html.B\'>, \'BEAUTIFY\': <class \'gluon.html.BEAUTIFY\'>, \'BODY\': <class \'gluon.html.BODY\'>, \'BR\': <class \'gluon.html.BR\'>, \'BUTTON\': <class \'gluon.html.BUTTON\'>, \'CAT\': <class \'gluon.html.CAT\'>, \'CENTER\': <class \'gluon.html.CENTER\'>, \'CLEANUP\': <class \'gluon.validators.CLEANUP\'>, ...}, layer=\'/home/enigma/web2py/applications/911_signin/models/db.py\')'
p3451
sS'func'
p3452
S'restricted'
p3453
sa(dp3454
g3429
S'/home/enigma/web2py/applications/911_signin/models/db.py'
p3455
sg3431
(dp3456
S'writable'
p3457
S'undefined'
p3458
sS'default'
p3459
g3458
sS'readable'
p3460
g3458
sS'builtinFalse'
p3461
g112
ssg3437
I88
sg3438
(dp3462
I79
S'#########################################################################'
p3463
sI80
S''
sI81
S'auth.settings.table_user = db.define_table('
p3464
sI82
S'\t"auth_user",'
p3465
sI83
S"\tField('name', requires = [IS_NOT_EMPTY(), IS_ALPHANUMERIC()]),"
p3466
sI84
S"\tField('username', length=32, requires = [IS_NOT_EMPTY(), IS_LENGTH(32), IS_ALPHANUMERIC()]),"
p3467
sI85
S"\tField('email', length=128,default='', requires = [IS_EMAIL(), IS_NOT_EMPTY()]),"
p3468
sI86
S"\tField('password', 'password', readable=False, label='Password', requires=CRYPT(digest_alg='sha512')),"
p3469
sI87
S"\tField('registration_key', length=128,"
p3470
sI88
S"\twritable=False, readable=False, default=''))"
p3471
ssg3450
S'()'
p3472
sg3452
S'<module>'
p3473
sa(dp3474
g3429
S'/home/enigma/web2py/gluon/dal.py'
p3475
sg3431
(dp3476
S'tablename'
p3477
S"'auth_user'"
p3478
sS'builtinSyntaxError'
p3479
S"<type 'exceptions.SyntaxError'>"
p3480
ssg3437
I6292
sg3438
(dp3481
I6287
S"        plural = args.get('plural',pluralize(singular.lower()).capitalize())"
p3482
sI6288
S'        lowertablename = tablename.lower()'
p3483
sI6289
S''
sI6290
S"        if tablename.startswith('_') or hasattr(self,lowertablename) or \\"
p3484
sI6291
S'                regex_python_keywords.match(tablename):'
p3485
sI6292
S"            raise SyntaxError, 'invalid table name: %s' % tablename"
p3486
sI6293
S'        elif lowertablename in self.tables:'
p3487
sI6294
S"            raise SyntaxError, 'table already defined: %s' % tablename"
p3488
sI6295
S'        elif self.check_reserved:'
p3489
sI6296
S'            self.check_reserved_keyword(tablename)'
p3490
ssg3450
S"(self=<DAL {'auth_event': <Table {'origin': <gluon.dal..._key': <gluon.dal.Field object at 0xb198a08c>}>}>, tablename='auth_user', *fields=(<gluon.dal.Field object>, <gluon.dal.Field object>, <gluon.dal.Field object>, <gluon.dal.Field object>, <gluon.dal.Field object>), **args={})"
p3491
sg3452
S'define_table'
p3492
sasS'pyver'
p3493
S'Python 2.7.3: /usr/bin/python'
p3494
sS'session'
p3495
g69
(g70
g71
NtRp3496
(dp3497
g74
(dp3498
sg76
(lp3499
g69
(g78
g71
NtRp3500
(dp3501
g74
(dp3502
g82
I5
ssg83
Nsg76
(lp3503
sbasbsS'etype'
p3504
S"<type 'exceptions.SyntaxError'>"
p3505
sS'date'
p3506
S'Fri May 17 00:07:59 2013'
p3507
sS'response'
p3508
g69
(g70
g71
NtRp3509
(dp3510
g74
(dp3511
sg76
(lp3512
g69
(g78
g71
NtRp3513
(dp3514
g74
(dp3515
g82
I5
ssg83
Nsg76
(lp3516
g69
(g85
g71
NtRp3517
(dp3518
g74
(dp3519
sg83
g3513
sg76
(lp3520
g69
(g90
g71
NtRp3521
(dp3522
g74
(dp3523
g94
g95
ssg83
g3517
sg76
(lp3524
g167
asbag69
(g90
g71
NtRp3525
(dp3526
g74
(dp3527
g101
g102
ssg83
g3517
sg76
(lp3528
S':'
asbag69
(g90
g71
NtRp3529
(dp3530
g74
(dp3531
sg83
g3517
sg76
(lp3532
g69
(g70
g71
NtRp3533
(dp3534
g74
(dp3535
g82
I5
ssg83
g3529
sg76
(lp3536
S'<cStringIO.StringO object at 0xb199f300>'
p3537
asbasbasbag69
(g85
g71
NtRp3538
(dp3539
g74
(dp3540
sg83
g3513
sg76
(lp3541
g69
(g90
g71
NtRp3542
(dp3543
g74
(dp3544
g94
g95
ssg83
g3538
sg76
(lp3545
g233
asbag69
(g90
g71
NtRp3546
(dp3547
g74
(dp3548
g101
g102
ssg83
g3538
sg76
(lp3549
S':'
asbag69
(g90
g71
NtRp3550
(dp3551
g74
(dp3552
sg83
g3538
sg76
(lp3553
g69
(g70
g71
NtRp3554
(dp3555
g74
(dp3556
g82
I5
ssg83
g3550
sg76
(lp3557
g69
(g78
g71
NtRp3558
(dp3559
g74
(dp3560
g82
I4
ssg83
Nsg76
(lp3561
g69
(g85
g71
NtRp3562
(dp3563
g74
(dp3564
sg83
g3558
sg76
(lp3565
g69
(g90
g71
NtRp3566
(dp3567
g74
(dp3568
g94
g95
ssg83
g3562
sg76
(lp3569
S'session_id_911_signin'
p3570
asbag69
(g90
g71
NtRp3571
(dp3572
g74
(dp3573
g101
g102
ssg83
g3562
sg76
(lp3574
S':'
asbag69
(g90
g71
NtRp3575
(dp3576
g74
(dp3577
sg83
g3562
sg76
(lp3578
g69
(g70
g71
NtRp3579
(dp3580
g74
(dp3581
g82
I4
ssg83
g3575
sg76
(lp3582
g69
(g78
g71
NtRp3583
(dp3584
g74
(dp3585
g82
I3
ssg83
Nsg76
(lp3586
g69
(g85
g71
NtRp3587
(dp3588
g74
(dp3589
sg83
g3583
sg76
(lp3590
g69
(g90
g71
NtRp3591
(dp3592
g74
(dp3593
g94
g95
ssg83
g3587
sg76
(lp3594
g283
asbag69
(g90
g71
NtRp3595
(dp3596
g74
(dp3597
g101
g102
ssg83
g3587
sg76
(lp3598
S':'
asbag69
(g90
g71
NtRp3599
(dp3600
g74
(dp3601
sg83
g3587
sg76
(lp3602
g69
(g70
g71
NtRp3603
(dp3604
g74
(dp3605
g82
I3
ssg83
g3599
sg76
(lp3606
S''
asbasbasbag69
(g85
g71
NtRp3607
(dp3608
g74
(dp3609
sg83
g3583
sg76
(lp3610
g69
(g90
g71
NtRp3611
(dp3612
g74
(dp3613
g94
g95
ssg83
g3607
sg76
(lp3614
g304
asbag69
(g90
g71
NtRp3615
(dp3616
g74
(dp3617
g101
g102
ssg83
g3607
sg76
(lp3618
S':'
asbag69
(g90
g71
NtRp3619
(dp3620
g74
(dp3621
sg83
g3607
sg76
(lp3622
g69
(g70
g71
NtRp3623
(dp3624
g74
(dp3625
g82
I3
ssg83
g3619
sg76
(lp3626
S''
asbasbasbag69
(g85
g71
NtRp3627
(dp3628
g74
(dp3629
sg83
g3583
sg76
(lp3630
g69
(g90
g71
NtRp3631
(dp3632
g74
(dp3633
g94
g95
ssg83
g3627
sg76
(lp3634
g325
asbag69
(g90
g71
NtRp3635
(dp3636
g74
(dp3637
g101
g102
ssg83
g3627
sg76
(lp3638
S':'
asbag69
(g90
g71
NtRp3639
(dp3640
g74
(dp3641
sg83
g3627
sg76
(lp3642
g69
(g70
g71
NtRp3643
(dp3644
g74
(dp3645
g82
I3
ssg83
g3639
sg76
(lp3646
S''
asbasbasbag69
(g85
g71
NtRp3647
(dp3648
g74
(dp3649
sg83
g3583
sg76
(lp3650
g69
(g90
g71
NtRp3651
(dp3652
g74
(dp3653
g94
g95
ssg83
g3647
sg76
(lp3654
g346
asbag69
(g90
g71
NtRp3655
(dp3656
g74
(dp3657
g101
g102
ssg83
g3647
sg76
(lp3658
S':'
asbag69
(g90
g71
NtRp3659
(dp3660
g74
(dp3661
sg83
g3647
sg76
(lp3662
g69
(g70
g71
NtRp3663
(dp3664
g74
(dp3665
g82
I3
ssg83
g3659
sg76
(lp3666
S''
asbasbasbag69
(g85
g71
NtRp3667
(dp3668
g74
(dp3669
sg83
g3583
sg76
(lp3670
g69
(g90
g71
NtRp3671
(dp3672
g74
(dp3673
g94
g95
ssg83
g3667
sg76
(lp3674
g367
asbag69
(g90
g71
NtRp3675
(dp3676
g74
(dp3677
g101
g102
ssg83
g3667
sg76
(lp3678
S':'
asbag69
(g90
g71
NtRp3679
(dp3680
g74
(dp3681
sg83
g3667
sg76
(lp3682
g69
(g70
g71
NtRp3683
(dp3684
g74
(dp3685
g82
I3
ssg83
g3679
sg76
(lp3686
S''
asbasbasbag69
(g85
g71
NtRp3687
(dp3688
g74
(dp3689
sg83
g3583
sg76
(lp3690
g69
(g90
g71
NtRp3691
(dp3692
g74
(dp3693
g94
g95
ssg83
g3687
sg76
(lp3694
g388
asbag69
(g90
g71
NtRp3695
(dp3696
g74
(dp3697
g101
g102
ssg83
g3687
sg76
(lp3698
S':'
asbag69
(g90
g71
NtRp3699
(dp3700
g74
(dp3701
sg83
g3687
sg76
(lp3702
g69
(g70
g71
NtRp3703
(dp3704
g74
(dp3705
g82
I3
ssg83
g3699
sg76
(lp3706
S'/'
asbasbasbag69
(g85
g71
NtRp3707
(dp3708
g74
(dp3709
sg83
g3583
sg76
(lp3710
g69
(g90
g71
NtRp3711
(dp3712
g74
(dp3713
g94
g95
ssg83
g3707
sg76
(lp3714
g409
asbag69
(g90
g71
NtRp3715
(dp3716
g74
(dp3717
g101
g102
ssg83
g3707
sg76
(lp3718
S':'
asbag69
(g90
g71
NtRp3719
(dp3720
g74
(dp3721
sg83
g3707
sg76
(lp3722
g69
(g70
g71
NtRp3723
(dp3724
g74
(dp3725
g82
I3
ssg83
g3719
sg76
(lp3726
S''
asbasbasbag69
(g85
g71
NtRp3727
(dp3728
g74
(dp3729
sg83
g3583
sg76
(lp3730
g69
(g90
g71
NtRp3731
(dp3732
g74
(dp3733
g94
g95
ssg83
g3727
sg76
(lp3734
g430
asbag69
(g90
g71
NtRp3735
(dp3736
g74
(dp3737
g101
g102
ssg83
g3727
sg76
(lp3738
S':'
asbag69
(g90
g71
NtRp3739
(dp3740
g74
(dp3741
sg83
g3727
sg76
(lp3742
g69
(g70
g71
NtRp3743
(dp3744
g74
(dp3745
g82
I3
ssg83
g3739
sg76
(lp3746
S''
asbasbasbasbasbasbasbasbasbasbasbag69
(g85
g71
NtRp3747
(dp3748
g74
(dp3749
sg83
g3513
sg76
(lp3750
g69
(g90
g71
NtRp3751
(dp3752
g74
(dp3753
g94
g95
ssg83
g3747
sg76
(lp3754
S'delimiters'
p3755
asbag69
(g90
g71
NtRp3756
(dp3757
g74
(dp3758
g101
g102
ssg83
g3747
sg76
(lp3759
S':'
asbag69
(g90
g71
NtRp3760
(dp3761
g74
(dp3762
sg83
g3747
sg76
(lp3763
g69
(g70
g71
NtRp3764
(dp3765
g74
(dp3766
g82
I5
ssg83
g3760
sg76
(lp3767
g69
(g78
g71
NtRp3768
(dp3769
g74
(dp3770
g82
I4
ssg83
Nsg76
(lp3771
g69
(g85
g71
NtRp3772
(dp3773
g74
(dp3774
sg83
g3768
sg76
(lp3775
g69
(g90
g71
NtRp3776
(dp3777
g74
(dp3778
sg83
g3772
sg76
(lp3779
g69
(g70
g71
NtRp3780
(dp3781
g74
(dp3782
g82
I4
ssg83
g3776
sg76
(lp3783
S'{{'
p3784
asbasbasbag69
(g85
g71
NtRp3785
(dp3786
g74
(dp3787
sg83
g3768
sg76
(lp3788
g69
(g90
g71
NtRp3789
(dp3790
g74
(dp3791
sg83
g3785
sg76
(lp3792
g69
(g70
g71
NtRp3793
(dp3794
g74
(dp3795
g82
I4
ssg83
g3789
sg76
(lp3796
S'}}'
p3797
asbasbasbasbasbasbasbag69
(g85
g71
NtRp3798
(dp3799
g74
(dp3800
sg83
g3513
sg76
(lp3801
g69
(g90
g71
NtRp3802
(dp3803
g74
(dp3804
g94
g95
ssg83
g3798
sg76
(lp3805
S'files'
p3806
asbag69
(g90
g71
NtRp3807
(dp3808
g74
(dp3809
g101
g102
ssg83
g3798
sg76
(lp3810
S':'
asbag69
(g90
g71
NtRp3811
(dp3812
g74
(dp3813
sg83
g3798
sg76
(lp3814
g69
(g70
g71
NtRp3815
(dp3816
g74
(dp3817
g82
I5
ssg83
g3811
sg76
(lp3818
g69
(g78
g71
NtRp3819
(dp3820
g74
(dp3821
g82
I4
ssg83
Nsg76
(lp3822
sbasbasbasbag69
(g85
g71
NtRp3823
(dp3824
g74
(dp3825
sg83
g3513
sg76
(lp3826
g69
(g90
g71
NtRp3827
(dp3828
g74
(dp3829
g94
g95
ssg83
g3823
sg76
(lp3830
S'flash'
p3831
asbag69
(g90
g71
NtRp3832
(dp3833
g74
(dp3834
g101
g102
ssg83
g3823
sg76
(lp3835
S':'
asbag69
(g90
g71
NtRp3836
(dp3837
g74
(dp3838
sg83
g3823
sg76
(lp3839
g69
(g70
g71
NtRp3840
(dp3841
g74
(dp3842
g82
I5
ssg83
g3836
sg76
(lp3843
S''
asbasbasbag69
(g85
g71
NtRp3844
(dp3845
g74
(dp3846
sg83
g3513
sg76
(lp3847
g69
(g90
g71
NtRp3848
(dp3849
g74
(dp3850
g94
g95
ssg83
g3844
sg76
(lp3851
S'generic_patterns'
p3852
asbag69
(g90
g71
NtRp3853
(dp3854
g74
(dp3855
g101
g102
ssg83
g3844
sg76
(lp3856
S':'
asbag69
(g90
g71
NtRp3857
(dp3858
g74
(dp3859
sg83
g3844
sg76
(lp3860
g69
(g70
g71
NtRp3861
(dp3862
g74
(dp3863
g82
I5
ssg83
g3857
sg76
(lp3864
g69
(g78
g71
NtRp3865
(dp3866
g74
(dp3867
g82
I4
ssg83
Nsg76
(lp3868
g69
(g85
g71
NtRp3869
(dp3870
g74
(dp3871
sg83
g3865
sg76
(lp3872
g69
(g90
g71
NtRp3873
(dp3874
g74
(dp3875
sg83
g3869
sg76
(lp3876
g69
(g70
g71
NtRp3877
(dp3878
g74
(dp3879
g82
I4
ssg83
g3873
sg76
(lp3880
S'*'
asbasbasbasbasbasbasbag69
(g85
g71
NtRp3881
(dp3882
g74
(dp3883
sg83
g3513
sg76
(lp3884
g69
(g90
g71
NtRp3885
(dp3886
g74
(dp3887
g94
g95
ssg83
g3881
sg76
(lp3888
S'headers'
p3889
asbag69
(g90
g71
NtRp3890
(dp3891
g74
(dp3892
g101
g102
ssg83
g3881
sg76
(lp3893
S':'
asbag69
(g90
g71
NtRp3894
(dp3895
g74
(dp3896
sg83
g3881
sg76
(lp3897
g69
(g70
g71
NtRp3898
(dp3899
g74
(dp3900
g82
I5
ssg83
g3894
sg76
(lp3901
g69
(g78
g71
NtRp3902
(dp3903
g74
(dp3904
g82
I4
ssg83
Nsg76
(lp3905
g69
(g85
g71
NtRp3906
(dp3907
g74
(dp3908
sg83
g3902
sg76
(lp3909
g69
(g90
g71
NtRp3910
(dp3911
g74
(dp3912
g94
g95
ssg83
g3906
sg76
(lp3913
S'Cache-Control'
p3914
asbag69
(g90
g71
NtRp3915
(dp3916
g74
(dp3917
g101
g102
ssg83
g3906
sg76
(lp3918
S':'
asbag69
(g90
g71
NtRp3919
(dp3920
g74
(dp3921
sg83
g3906
sg76
(lp3922
g69
(g70
g71
NtRp3923
(dp3924
g74
(dp3925
g82
I4
ssg83
g3919
sg76
(lp3926
S'no-store, no-cache, must-revalidate, post-check=0, pre-check=0'
p3927
asbasbasbag69
(g85
g71
NtRp3928
(dp3929
g74
(dp3930
sg83
g3902
sg76
(lp3931
g69
(g90
g71
NtRp3932
(dp3933
g74
(dp3934
g94
g95
ssg83
g3928
sg76
(lp3935
S'Content-Type'
p3936
asbag69
(g90
g71
NtRp3937
(dp3938
g74
(dp3939
g101
g102
ssg83
g3928
sg76
(lp3940
S':'
asbag69
(g90
g71
NtRp3941
(dp3942
g74
(dp3943
sg83
g3928
sg76
(lp3944
g69
(g70
g71
NtRp3945
(dp3946
g74
(dp3947
g82
I4
ssg83
g3941
sg76
(lp3948
S'text/html; charset=utf-8'
p3949
asbasbasbag69
(g85
g71
NtRp3950
(dp3951
g74
(dp3952
sg83
g3902
sg76
(lp3953
g69
(g90
g71
NtRp3954
(dp3955
g74
(dp3956
g94
g95
ssg83
g3950
sg76
(lp3957
S'Expires'
p3958
asbag69
(g90
g71
NtRp3959
(dp3960
g74
(dp3961
g101
g102
ssg83
g3950
sg76
(lp3962
S':'
asbag69
(g90
g71
NtRp3963
(dp3964
g74
(dp3965
sg83
g3950
sg76
(lp3966
g69
(g70
g71
NtRp3967
(dp3968
g74
(dp3969
g82
I4
ssg83
g3963
sg76
(lp3970
S'Thu, 16 May 2013 18:37:59 GMT'
p3971
asbasbasbag69
(g85
g71
NtRp3972
(dp3973
g74
(dp3974
sg83
g3902
sg76
(lp3975
g69
(g90
g71
NtRp3976
(dp3977
g74
(dp3978
g94
g95
ssg83
g3972
sg76
(lp3979
S'Pragma'
p3980
asbag69
(g90
g71
NtRp3981
(dp3982
g74
(dp3983
g101
g102
ssg83
g3972
sg76
(lp3984
S':'
asbag69
(g90
g71
NtRp3985
(dp3986
g74
(dp3987
sg83
g3972
sg76
(lp3988
g69
(g70
g71
NtRp3989
(dp3990
g74
(dp3991
g82
I4
ssg83
g3985
sg76
(lp3992
S'no-cache'
p3993
asbasbasbag69
(g85
g71
NtRp3994
(dp3995
g74
(dp3996
sg83
g3902
sg76
(lp3997
g69
(g90
g71
NtRp3998
(dp3999
g74
(dp4000
g94
g95
ssg83
g3994
sg76
(lp4001
S'X-Powered-By'
p4002
asbag69
(g90
g71
NtRp4003
(dp4004
g74
(dp4005
g101
g102
ssg83
g3994
sg76
(lp4006
S':'
asbag69
(g90
g71
NtRp4007
(dp4008
g74
(dp4009
sg83
g3994
sg76
(lp4010
g69
(g70
g71
NtRp4011
(dp4012
g74
(dp4013
g82
I4
ssg83
g4007
sg76
(lp4014
S'web2py'
p4015
asbasbasbasbasbasbasbag69
(g85
g71
NtRp4016
(dp4017
g74
(dp4018
sg83
g3513
sg76
(lp4019
g69
(g90
g71
NtRp4020
(dp4021
g74
(dp4022
g94
g95
ssg83
g4016
sg76
(lp4023
S'menu'
p4024
asbag69
(g90
g71
NtRp4025
(dp4026
g74
(dp4027
g101
g102
ssg83
g4016
sg76
(lp4028
S':'
asbag69
(g90
g71
NtRp4029
(dp4030
g74
(dp4031
sg83
g4016
sg76
(lp4032
g69
(g70
g71
NtRp4033
(dp4034
g74
(dp4035
g82
I5
ssg83
g4029
sg76
(lp4036
g69
(g78
g71
NtRp4037
(dp4038
g74
(dp4039
g82
I4
ssg83
Nsg76
(lp4040
sbasbasbasbag69
(g85
g71
NtRp4041
(dp4042
g74
(dp4043
sg83
g3513
sg76
(lp4044
g69
(g90
g71
NtRp4045
(dp4046
g74
(dp4047
g94
g95
ssg83
g4041
sg76
(lp4048
S'meta'
p4049
asbag69
(g90
g71
NtRp4050
(dp4051
g74
(dp4052
g101
g102
ssg83
g4041
sg76
(lp4053
S':'
asbag69
(g90
g71
NtRp4054
(dp4055
g74
(dp4056
sg83
g4041
sg76
(lp4057
g69
(g70
g71
NtRp4058
(dp4059
g74
(dp4060
g82
I5
ssg83
g4054
sg76
(lp4061
g69
(g78
g71
NtRp4062
(dp4063
g74
(dp4064
g82
I4
ssg83
Nsg76
(lp4065
sbasbasbasbag69
(g85
g71
NtRp4066
(dp4067
g74
(dp4068
sg83
g3513
sg76
(lp4069
g69
(g90
g71
NtRp4070
(dp4071
g74
(dp4072
g94
g95
ssg83
g4066
sg76
(lp4073
S'postprocessing'
p4074
asbag69
(g90
g71
NtRp4075
(dp4076
g74
(dp4077
g101
g102
ssg83
g4066
sg76
(lp4078
S':'
asbag69
(g90
g71
NtRp4079
(dp4080
g74
(dp4081
sg83
g4066
sg76
(lp4082
g69
(g70
g71
NtRp4083
(dp4084
g74
(dp4085
g82
I5
ssg83
g4079
sg76
(lp4086
g69
(g78
g71
NtRp4087
(dp4088
g74
(dp4089
g82
I4
ssg83
Nsg76
(lp4090
sbasbasbasbag69
(g85
g71
NtRp4091
(dp4092
g74
(dp4093
sg83
g3513
sg76
(lp4094
g69
(g90
g71
NtRp4095
(dp4096
g74
(dp4097
g94
g95
ssg83
g4091
sg76
(lp4098
S'session_file'
p4099
asbag69
(g90
g71
NtRp4100
(dp4101
g74
(dp4102
g101
g102
ssg83
g4091
sg76
(lp4103
S':'
asbag69
(g90
g71
NtRp4104
(dp4105
g74
(dp4106
sg83
g4091
sg76
(lp4107
g69
(g70
g71
NtRp4108
(dp4109
g74
(dp4110
g82
I5
ssg83
g4104
sg76
(lp4111
S"<open file '/home/enigma/web2py/applications/911_signin/sessions/127.0.0.1-67b0e5b6-1b0a-44b4-ab3b-12cdb27e2039', mode 'rb+' at 0xb19bf808>"
p4112
asbasbasbag69
(g85
g71
NtRp4113
(dp4114
g74
(dp4115
sg83
g3513
sg76
(lp4116
g69
(g90
g71
NtRp4117
(dp4118
g74
(dp4119
g94
g95
ssg83
g4113
sg76
(lp4120
S'session_filename'
p4121
asbag69
(g90
g71
NtRp4122
(dp4123
g74
(dp4124
g101
g102
ssg83
g4113
sg76
(lp4125
S':'
asbag69
(g90
g71
NtRp4126
(dp4127
g74
(dp4128
sg83
g4113
sg76
(lp4129
g69
(g70
g71
NtRp4130
(dp4131
g74
(dp4132
g82
I5
ssg83
g4126
sg76
(lp4133
S'/home/enigma/web2py/applications/911_signin/sessions/127.0.0.1-67b0e5b6-1b0a-44b4-ab3b-12cdb27e2039'
p4134
asbasbasbag69
(g85
g71
NtRp4135
(dp4136
g74
(dp4137
sg83
g3513
sg76
(lp4138
g69
(g90
g71
NtRp4139
(dp4140
g74
(dp4141
g94
g95
ssg83
g4135
sg76
(lp4142
S'session_id'
p4143
asbag69
(g90
g71
NtRp4144
(dp4145
g74
(dp4146
g101
g102
ssg83
g4135
sg76
(lp4147
S':'
asbag69
(g90
g71
NtRp4148
(dp4149
g74
(dp4150
sg83
g4135
sg76
(lp4151
g69
(g70
g71
NtRp4152
(dp4153
g74
(dp4154
g82
I5
ssg83
g4148
sg76
(lp4155
S'127.0.0.1-67b0e5b6-1b0a-44b4-ab3b-12cdb27e2039'
p4156
asbasbasbag69
(g85
g71
NtRp4157
(dp4158
g74
(dp4159
sg83
g3513
sg76
(lp4160
g69
(g90
g71
NtRp4161
(dp4162
g74
(dp4163
g94
g95
ssg83
g4157
sg76
(lp4164
S'session_id_name'
p4165
asbag69
(g90
g71
NtRp4166
(dp4167
g74
(dp4168
g101
g102
ssg83
g4157
sg76
(lp4169
S':'
asbag69
(g90
g71
NtRp4170
(dp4171
g74
(dp4172
sg83
g4157
sg76
(lp4173
g69
(g70
g71
NtRp4174
(dp4175
g74
(dp4176
g82
I5
ssg83
g4170
sg76
(lp4177
g3570
asbasbasbag69
(g85
g71
NtRp4178
(dp4179
g74
(dp4180
sg83
g3513
sg76
(lp4181
g69
(g90
g71
NtRp4182
(dp4183
g74
(dp4184
g94
g95
ssg83
g4178
sg76
(lp4185
S'session_locked'
p4186
asbag69
(g90
g71
NtRp4187
(dp4188
g74
(dp4189
g101
g102
ssg83
g4178
sg76
(lp4190
S':'
asbag69
(g90
g71
NtRp4191
(dp4192
g74
(dp4193
sg83
g4178
sg76
(lp4194
g69
(g70
g71
NtRp4195
(dp4196
g74
(dp4197
g82
I5
ssg83
g4191
sg76
(lp4198
g2082
asbasbasbag69
(g85
g71
NtRp4199
(dp4200
g74
(dp4201
sg83
g3513
sg76
(lp4202
g69
(g90
g71
NtRp4203
(dp4204
g74
(dp4205
g94
g95
ssg83
g4199
sg76
(lp4206
S'session_new'
p4207
asbag69
(g90
g71
NtRp4208
(dp4209
g74
(dp4210
g101
g102
ssg83
g4199
sg76
(lp4211
S':'
asbag69
(g90
g71
NtRp4212
(dp4213
g74
(dp4214
sg83
g4199
sg76
(lp4215
g69
(g70
g71
NtRp4216
(dp4217
g74
(dp4218
g82
I5
ssg83
g4212
sg76
(lp4219
g112
asbasbasbag69
(g85
g71
NtRp4220
(dp4221
g74
(dp4222
sg83
g3513
sg76
(lp4223
g69
(g90
g71
NtRp4224
(dp4225
g74
(dp4226
g94
g95
ssg83
g4220
sg76
(lp4227
S'status'
p4228
asbag69
(g90
g71
NtRp4229
(dp4230
g74
(dp4231
g101
g102
ssg83
g4220
sg76
(lp4232
S':'
asbag69
(g90
g71
NtRp4233
(dp4234
g74
(dp4235
sg83
g4220
sg76
(lp4236
g69
(g70
g71
NtRp4237
(dp4238
g74
(dp4239
g82
I5
ssg83
g4233
sg76
(lp4240
S'200'
p4241
asbasbasbag69
(g85
g71
NtRp4242
(dp4243
g74
(dp4244
sg83
g3513
sg76
(lp4245
g69
(g90
g71
NtRp4246
(dp4247
g74
(dp4248
g94
g95
ssg83
g4242
sg76
(lp4249
g2746
asbag69
(g90
g71
NtRp4250
(dp4251
g74
(dp4252
g101
g102
ssg83
g4242
sg76
(lp4253
S':'
asbag69
(g90
g71
NtRp4254
(dp4255
g74
(dp4256
sg83
g4242
sg76
(lp4257
g69
(g70
g71
NtRp4258
(dp4259
g74
(dp4260
g82
I5
ssg83
g4254
sg76
(lp4261
g2759
asbasbasbag69
(g85
g71
NtRp4262
(dp4263
g74
(dp4264
sg83
g3513
sg76
(lp4265
g69
(g90
g71
NtRp4266
(dp4267
g74
(dp4268
g94
g95
ssg83
g4262
sg76
(lp4269
S'view'
p4270
asbag69
(g90
g71
NtRp4271
(dp4272
g74
(dp4273
g101
g102
ssg83
g4262
sg76
(lp4274
S':'
asbag69
(g90
g71
NtRp4275
(dp4276
g74
(dp4277
sg83
g4262
sg76
(lp4278
g69
(g70
g71
NtRp4279
(dp4280
g74
(dp4281
g82
I5
ssg83
g4275
sg76
(lp4282
S'default/index.html'
p4283
asbasbasbasbasbsS'locals'
p4284
(dp4285
S'polymodel'
p4286
S'None'
p4287
sS'lowertablename'
p4288
S"'auth_user'"
p4289
sS'singular'
p4290
S"'Auth user'"
p4291
sS'migrate'
p4292
g2082
sS'fields'
p4293
S'(<gluon.dal.Field object>, <gluon.dal.Field object>, <gluon.dal.Field object>, <gluon.dal.Field object>, <gluon.dal.Field object>)'
p4294
sS'sequence_name'
p4295
S'None'
p4296
sg52
g21
sS'tablename'
p4297
S"'auth_user'"
p4298
sS'fake_migrate'
p4299
g112
sS'self'
p4300
S"<DAL {'auth_event': <Table {'origin': <gluon.dal..._key': <gluon.dal.Field object at 0xb198a08c>}>}>"
p4301
sS'table_class'
p4302
S"<class 'gluon.dal.Table'>"
p4303
sS'format'
p4304
S'None'
p4305
sS'trigger_name'
p4306
S'None'
p4307
sS'plural'
p4308
S"'Auth users'"
p4309
sS'primarykey'
p4310
S'None'
p4311
sssS'traceback'
p4312
S'Traceback (most recent call last):\n  File "/home/enigma/web2py/gluon/restricted.py", line 205, in restricted\n    exec ccode in environment\n  File "/home/enigma/web2py/applications/911_signin/models/db.py", line 88, in <module>\n    writable=False, readable=False, default=\'\'))\n  File "/home/enigma/web2py/gluon/dal.py", line 6292, in define_table\n    raise SyntaxError, \'invalid table name: %s\' % tablename\nSyntaxError: invalid table name: auth_user\n'
p4313
s.